(dp1
S'user_name'
p2
S'REFERENCES auth_user(id) ON DELETE CASCADE'
p3
sS'user_id'
p4
S'REFERENCES auth_user(id) ON DELETE CASCADE'
p5
sS'id'
p6
S'INTEGER PRIMARY KEY AUTOINCREMENT'
p7
sS'playlist_name'
p8
S'CHAR(512)'
p9
s.