(dp1
S'no_down'
p2
S'INTEGER'
p3
sS'upload_song_cover'
p4
S'CHAR(512)'
p5
sS'language'
p6
S'CHAR(512)'
p7
sS'artist'
p8
S'CHAR(512)'
p9
sS'song_name'
p10
S'CHAR(512)'
p11
sS'uploaded_by'
p12
S'CHAR(512)'
p13
sS'year'
p14
S'INTEGER'
p15
sS'genre'
p16
S'CHAR(512)'
p17
sS'upload_song'
p18
S'CHAR(512)'
p19
sS'album_name'
p20
S'CHAR(512)'
p21
sS'id'
p22
S'INTEGER PRIMARY KEY AUTOINCREMENT'
p23
s.