(dp1
S'user_name'
p2
S'CHAR(512)'
p3
sS'song_id'
p4
S'INTEGER'
p5
sS'user_id'
p6
S'REFERENCES auth_user(id) ON DELETE CASCADE'
p7
sS'id'
p8
S'INTEGER PRIMARY KEY AUTOINCREMENT'
p9
sS'value'
p10
S'TEXT'
p11
s.