(dp1
S'playlist_id'
p2
S'REFERENCES new_playlist(id) ON DELETE CASCADE'
p3
sS'song_name'
p4
S'REFERENCES songs_database(id) ON DELETE CASCADE'
p5
sS'song_id'
p6
S'INTEGER'
p7
sS'id'
p8
S'INTEGER PRIMARY KEY AUTOINCREMENT'
p9
s.