(dp1
S'comment'
p2
S'TEXT'
p3
sS'song_id'
p4
S'INTEGER'
p5
sS'song_name'
p6
S'CHAR(512)'
p7
sS'time'
p8
S'DATE'
p9
sS'user_name'
p10
S'CHAR(512)'
p11
sS'id'
p12
S'INTEGER PRIMARY KEY AUTOINCREMENT'
p13
s.