(dp1
S'output'
p2
S''
sS'layer'
p3
S'/home/piyush/Downloads/web2py/applications/try/views/default/upload_box.html'
p4
sS'code'
p5
S'response.write(\'<!DOCTYPE html PUBLIC "-//W3C//DTD XHTML 1.0 Transitional//EN" "http://www.w3.org/TR/xhtml1/DTD/xhtml1-transitional.dtd">\\n<html xmlns="http://www.w3.org/1999/xhtml">\\n<head>\\n<meta http-equiv="Content-Type" content="text/html; charset=iso-8859-1" />\\n    <title>U Tunes</title>\\n     \',escape=False)\nresponse.files.append(URL(request.application,\'static\',\'style.css\'))\nresponse.write(\'\\n          \',escape=False)\nresponse.files.insert(0,URL(r=request,c=\'static\',f=\'jquery.js\'))\nresponse.files.insert(1,URL(r=request,c=\'static\',f=\'calendar.css\'))\nresponse.files.insert(2,URL(r=request,c=\'static\',f=\'calendar.js\'))\nfor _item in response.meta or []:\n    response.write(\'\\n     <meta name="\',escape=False)\n    response.write(_item)\n    response.write(\'" content="\',escape=False)\n    response.write(response.meta[_item])\n    response.write(\'" />\',escape=False)\n    pass\nfor _k,_file in enumerate(response.files or []):\n    if _file in response.files[:_k]:\n        continue\n    elif _file[-4:].lower()==\'.css\':\n        response.write(\'\\n     <link href="\',escape=False)\n        response.write(_file)\n        response.write(\'" rel="stylesheet" type="text/css" />\',escape=False)\n    elif _file[-3:].lower()==\'.js\':\n        response.write(\'\\n     <script src="\',escape=False)\n        response.write(_file)\n        response.write(\'" type="text/javascript"></script>\',escape=False)\n        pass\n    pass\nresponse.write(\'\\n<script type="text/javascript"><!--\\nfunction popup(url) {\\n  newwindow=window.open(url,\\\'name\\\',\\\'height=400,width=600\\\');\\n  if (window.focus) newwindow.focus();\\n  return false;\\n}\\nfunction collapse(id) { jQuery(\\\'#\\\'+id).slideToggle(); }\\nfunction fade(id,value) { if(value>0) jQuery(\\\'#\\\'+id).hide().fadeIn(\\\'slow\\\'); else jQuery(\\\'#\\\'+id).show().fadeOut(\\\'slow\\\'); }\\nfunction ajax(u,s,t) {\\n  var query="";\\n  for(i=0; i<s.length; i++) { \\n     if(i>0) query=query+"&";\\n     query=query+encodeURIComponent(s[i])+"="+encodeURIComponent(document.getElementById(s[i]).value);\\n  }\\n  jQuery.ajax({type: "POST", url: u, data: query, success: function(msg) { if(t==\\\':eval\\\') eval(msg); else document.getElementById(t).innerHTML=msg; } });  \\n}\\nString.prototype.reverse = function () { return this.split(\\\'\\\').reverse().join(\\\'\\\');};\\nfunction web2py_ajax_init() {\\n  jQuery(\\\'.hidden\\\').hide();\\n  jQuery(\\\'.error\\\').hide().slideDown(\\\'slow\\\');\\n  jQuery(\\\'.flash\\\').click(function() { jQuery(this).fadeOut(\\\'slow\\\'); return false; });\\n  jQuery(\\\'input.integer\\\').keyup(function(){this.value=this.value.reverse().replace(/[^0-9\\\\-]|\\\\-(?=.)/g,\\\'\\\').reverse();});\\n  jQuery(\\\'input.double\\\').keyup(function(){this.value=this.value.reverse().replace(/[^0-9\\\\-\\\\.]|[\\\\-](?=.)|[\\\\.](?=[0-9]*[\\\\.])/g,\\\'\\\').reverse();});\\n  jQuery("input[type=\\\'checkbox\\\'].delete").each(function(){jQuery(this).click(function() { if(this.checked) if(!confirm("\',escape=False)\nresponse.write(T(\'Sure you want to delete this object?\'))\nresponse.write(\'")) this.checked=false; });});\\n  try {jQuery("input.date").focus( function() {Calendar.setup({\\n     inputField:this.id, ifFormat:"\',escape=False)\nresponse.write(T(\'%Y-%m-%d\'))\nresponse.write(\'", showsTime:false\\n  }); }); } catch(e) {};\\n  try { jQuery("input.datetime").focus( function() {Calendar.setup({\\n     inputField:this.id, ifFormat:"\',escape=False)\nresponse.write(T(\'%Y-%m-%d %H:%M:%S\'))\nresponse.write(\'", showsTime: true,timeFormat: "24"\\n  }); }); } catch(e) {};\\n  try { jQuery("input.time").clockpick({\\n      starthour:0, endhour:23, showminutes:true, military:true\\n  }); } catch(e) {};\\n};\\njQuery(document).ready(function(){\\n   jQuery(\\\'.flash\\\').hide();\\n   if(jQuery(\\\'.flash\\\').html()!=\\\'\\\') jQuery(\\\'.flash\\\').slideDown(\\\'slow\\\');\\n   web2py_ajax_init();});\\n\\nfunction web2py_trap_form(action,target) {\\n   jQuery(\\\'#\\\'+target+\\\' form\\\').each(function(i){\\n      var form=jQuery(this);\\n      jQuery(\\\':submit,.submit\\\',this).click(function(){\\n         jQuery(\\\'.flash\\\').hide().html(\\\'\\\');\\n         web2py_ajax_page(\\\'post\\\',action,form.serialize(),target);\\n         return false;\\n      });\\n   });\\n}\\nfunction web2py_ajax_page(method,action,data,target) {\\n  jQuery.ajax({\\\'type\\\':method,\\\'url\\\':action,\\\'data\\\':data,\\n    \\\'beforeSend\\\':function(xhr){\\n      xhr.setRequestHeader(\\\'web2py-component-location\\\',document.location);\\n      xhr.setRequestHeader(\\\'web2py-component-element\\\',target);},\\n    \\\'complete\\\':function(xhr,text){\\n      command=xhr.getResponseHeader(\\\'web2py-component-command\\\');\\n      if(command) eval(command);\\n      flash=xhr.getResponseHeader(\\\'web2py-component-flash\\\');\\n      if(flash) jQuery(\\\'.flash\\\').html(flash).slideDown();\\n      },\\n    \\\'success\\\': function(text) {\\n      jQuery(\\\'#\\\'+target).html(text);\\n      web2py_trap_form(action,target);\\n      web2py_ajax_init();\\n      }\\n    });\\n}\\nfunction web2py_component(action,target) {\\n    jQuery(document).ready(function(){ web2py_ajax_page(\\\'get\\\',action,null,target); });\\n}\\n//--></script>\\n\\n</head>\\n\\n<body>\\n<div id="container">\\n    <div id="menu">\\n    \',escape=False)\nif \'auth\' in globals():\n    response.write(\'\\n    \',escape=False)\n    if not auth.user:\n        response.write(\' \\n    <li id="m01"><a href="\',escape=False)\n        response.write(URL(r=request,f=\'user/login\')))\n        response.write(\'"><font size=0>Login</font></a></li>\\n    <li id="m02"><a href="\',escape=False)\n        response.write(URL(r=request,f=\'user/register\')))\n        response.write(\'"><font size=0>Register</font></a></li>\\n    \',escape=False)\n    else:\n        response.write(\'\\n    <li id="m01"><a href="\',escape=False)\n        response.write(URL(r=request,f=\'user/logout\')))\n        response.write(\'"><font size=0>Logout</font></a></li>\\n    <li id="m02"><a href="\',escape=False)\n        response.write(URL(r=request,f=\'user/profile\')))\n        response.write(\'"><font size=0>Profile</font></a></li>\\n    <li id="m03"><a href="\',escape=False)\n        response.write(URL(r=request,f=\'user/change_password\')))\n        response.write(\'"><font size=0>Change_Password</font></a></li> \\n    <li id="m04"><a href="\',escape=False)\n        response.write(URL(r=request,f=\'upload_box\')))\n        response.write(\'"><font size=0>Upload</font></a></li>\\n    <li id="m05"><a href="\',escape=False)\n        response.write(URL(r=request,f=\'search_box\')))\n        response.write(\'"><font size=0>Search</font></a></li>\\n    <li id="m06"><a href="\',escape=False)\n        response.write(URL(r=request,f=\'list_songs\')))\n        response.write(\'"><font size=0>List Songs</font></a></li>\\n    <li id="m07"><a href="\',escape=False)\n        response.write(URL(r=request,f=\'notify\')))\n        response.write(\'"><font size=0>Notifications</font></a></li>\\n    \',escape=False)\n        pass\n    response.write(\'\\n    \',escape=False)\n    pass\nresponse.write(\'\\n\\n       <!-- <ul>\\n            <li id="m01"><a href="http://www.freewebsitetemplates.com">Home</a></li>\\n            <li id="m02"><a href="http://www.freewebsitetemplates.com">Photos</a></li>\\n            <li id="m03"><a href="http://www.freewebsitetemplates.com">Parties</a></li>\\n            <li id="m04"><a href="http://www.freewebsitetemplates.com"></a></li>\\n            <li id="m05"><a href="http://www.freewebsitetemplates.com">Contact</a></li>\\n        </ul>\\n  -->  \\n    </div>\\n    <div id="header">\\n        <div id="logo">\\n            <a href="http://www.freewebsitetemplates.com"><img src="images/logo.gif" alt="logo" border="0" /></a>\\n        </div>\\n        <div id="dj"></div>\\n        <div id="welcome">\\n            <h2>Welcome</h2>\\n            <img src="images/welcome.gif" alt="photo 1" />\\n            <p>We add new <a href="http://www.freewebsitetemplates.com">free website templates</a> frequently.</p>\\n            <p>You can remove any link to our websites from this template you\\\'re free to use the template without linking back to us.</p>\\n            <a class="more" href="http://www.freewebsitetemplates.com">more</a>\\n        </div>\\n        <div class="clear"></div>\\n    </div>\\n    <div id="middle"></div>\\n    <div id="middle2"></div>\\n    <div id="content">\\n        <div id="left">\\n            <h2>News events</h2>\\n                \\n\',escape=False)\nresponse.write(upload)\nresponse.write(\'\\n\\n            <p>This is just a place holder so you can see how the site would look like.</p>\\n            <p>The template is designed by <a href="http://www.freewebsitetemplates.com">free website templates</a> for you for free you can replace all the text by your own text.</p>\\n            <p>Even more websites all about website templates on <a href="http://www.justwebtemplates.com">Just Web Templates</a>.</p>\\n            <p>If you\\\'re looking for beautiful and professionally made templates you can find them at <a href="http://www.templatebeauty.com">Template Beauty</a>.</p>\\n        </div>\\n        <div id="right">\\n            <h2>Photos</h2>\\n            <a href="http://www.freewebsitetemplates.com"><img src="images/photo.jpg" alt="photo 1" /></a>\\n            <a href="http://www.freewebsitetemplates.com"><img src="images/photo.jpg" alt="photo 2" /></a>\\n            <a href="http://www.freewebsitetemplates.com"><img src="images/photo.jpg" alt="photo 3" /></a>\\n            <a href="http://www.freewebsitetemplates.com"><img src="images/photo.jpg" alt="photo 4" /></a>\\n            <br /><br />\\n            <a class="more" href="http://www.freewebsitetemplates.com">more photos</a>\\n        </div>\\n        <div class="clear"></div>\\n    </div>\\n    \\n    <div id="footer">\\n        <p>Copyright \\xef\\xbf\\xbd Website name all rights reserved. |  <a href="http://www.freewebsitetemplates.com/termsofuse">Terms of use</a><p>\\n        \\n    </div>\\n\\n</div>\\n</body>\\n</html>\\n\',escape=False)'
p6
sS'traceback'
p7
S'Traceback (most recent call last):\n  File "/home/piyush/Downloads/web2py/gluon/restricted.py", line 176, in restricted\n    ccode = compile2(code,layer)\n  File "/home/piyush/Downloads/web2py/gluon/restricted.py", line 163, in compile2\n    return compile(code.rstrip().replace(\'\\r\\n\',\'\\n\')+\'\\n\', layer, \'exec\')\n  File "/home/piyush/Downloads/web2py/applications/try/views/default/upload_box.html", line 38\n    response.write(URL(r=request,f=\'user/login\')))\n                                                 ^\nSyntaxError: invalid syntax\n'
p8
s.