(dp1
S'output'
p2
S''
sS'layer'
p3
S'/home/piyush/Downloads/web2py/applications/u_tunes2/models/db.py'
p4
sS'code'
p5
S"# -*- coding: utf-8 -*- \n\n#########################################################################\n## This scaffolding model makes your app work on Google App Engine too\n#########################################################################\n\nif request.env.web2py_runtime_gae:            # if running on Google App Engine\n    db = DAL('gae')                           # connect to Google BigTable\n    session.connect(request, response, db=db) # and store sessions and tickets there\n    ### or use the following lines to store sessions in Memcache\n    # from gluon.contrib.memdb import MEMDB\n    # from google.appengine.api.memcache import Client\n    # session.connect(request, response, db=MEMDB(Client())\nelse:                                         # else use a normal relational database\n    db = DAL('sqlite://storage.sqlite')       # if not, use SQLite or other DB\n## if no need for session\n# session.forget()\n\n#########################################################################\n## Here is sample code if you need for \n## - email capabilities\n## - authentication (registration, login, logout, ... )\n## - authorization (role based authorization)\n## - services (xml, csv, json, xmlrpc, jsonrpc, amf, rss)\n## - crud actions\n## comment/uncomment as needed\n\nfrom gluon.tools import *\nauth=Auth(globals(),db)              # authentication/authorization\ncrud=Crud(globals(),db)              # for CRUD helpers using auth\nservice=Service(globals())           # for json, xml, jsonrpc, xmlrpc, amfrpc\n\n# mail=Mail()                                  # mailer\n# mail.settings.server='smtp.gmail.com:587'    # your SMTP server\n# mail.settings.sender='you@gmail.com'         # your email\n# mail.settings.login='username:password'      # your credentials or None\n\nauth.settings.hmac_key='sha512:2fddc896-8eaa-4d40-9ae6-425259dd0695'\nauth.define_tables()                 # creates all needed tables\n\n# auth.settings.mailer=mail          # for user email verification\n# auth.settings.registration_requires_verification = True\n# auth.settings.registration_requires_approval = True\n# auth.messages.verify_email = 'Click on the link http://'+request.env.http_host+URL(r=request,c='default',f='user',args=['verify_email'])+'/%(key)s to verify your email'\n# auth.settings.reset_password_requires_verification = True\n# auth.messages.reset_password = 'Click on the link http://'+request.env.http_host+URL(r=request,c='default',f='user',args=['reset_password'])+'/%(key)s to reset your password'\n\n# crud.settings.auth=auth            # enforces authorization on crud\n\n## more options discussed in gluon/tools.py\n#########################################################################\n\n#########################################################################\n## Define your tables below (or better in another model file) for example\n##\n## >>> db.define_table('mytable',Field('myfield','string'))\n##\n## Fields can be 'string','text','password','integer','double','boolean'\n##       'date','time','datetime','blob','upload', 'reference TABLENAME'\n## There is an implicit 'id integer autoincrement' field\n## Consult manual for more options, validators, etc.\n##\n## More API examples for controllers:\n##\n## >>> db.mytable.insert(myfield='value')\n## >>> rows=db(db.mytable.myfield=='value').select(db.mytable.ALL)\n## >>> for row in rows: print row.id, row.myfield\n#########################################################################\n\n     \ndb.define_table(\n  'songs_database',\n  Field('song_name','string',requires=[IS_NOT_EMPTY(),IS_NOT_IN_DB(db,'songs_database.song_name')]),\n  Field('upload_song','upload',requires=IS_NOT_EMPTY()),\n  Field('upload_song_cover','upload'),\n  Field('album_name','string',default='unknown'),\n  Field('artist','string',default='unknown'),\n  Field('Genre'),\n  Field('language','string',default='unknown'), \n  Field('uploaded_by','string'),\n  Field('year','integer',requires=IS_INT_IN_RANGE(1800,2010))\n  #rating plugin,likes plugin ,no' sdown, listen\n  )\n\ndb.songs_database.uploaded_by.default=auth.user.first_name if auth.user else 0\ndb.songs_database.uploaded_by.writable=False\ndb.songs_database.Genre.requires=IS_IN_SET(['Rock','Jazz','Pop','Bollywood','Classic','Quwalli','other'])  \n#db.define_table('comments',Field('user_name','string',requires=IS_NOT_EMPTY(),default=auth.user.first_name),Field('song_name','string',requires=IS_NOT_EMPTY()),Field('comment','text'),Field('time','datetime',def#ault=request.now,writable=False))\n\n#db.comments.user_name.writable=False\n\ndb.define_table(\n'like',Field('user_name','string',requires=IS_NOT_EMPTY(),default=auth.user.first_name,writable=False),\nField('song_name','string',requires=[IS_NOT_EMPTY(),IS_IN_DB(db,'songs_database.song_name')])\n)\n\ndb.define_table(\n'notifications',Field('user_name','string',requires=IS_NOT_EMPTY()),  #jisko notiication  jani hain \nField('value','text',requires=IS_NOT_EMPTY())\n)\n"
p6
sS'traceback'
p7
S'Traceback (most recent call last):\n  File "/home/piyush/Downloads/web2py/gluon/restricted.py", line 178, in restricted\n    exec ccode in environment\n  File "/home/piyush/Downloads/web2py/applications/u_tunes2/models/db.py", line 93, in <module>\n    \'like\',Field(\'user_name\',\'string\',requires=IS_NOT_EMPTY(),default=auth.user.first_name,writable=False),\nAttributeError: \'NoneType\' object has no attribute \'first_name\'\n'
p8
s.