(dp1
S'output'
p2
S''
sS'layer'
p3
S'/home/piyush/Downloads/web2py/applications/try/views/default/list_songs.html'
p4
sS'code'
p5
S'response.write(\'<!DOCTYPE html PUBLIC "-//W3C//DTD XHTML 1.0 Transitional//EN" "http://www.w3.org/TR/xhtml1/DTD/xhtml1-transitional.dtd">\\n<html xmlns="http://www.w3.org/1999/xhtml">\\n<head>\\n    <title>U Tunes</title>\\n    <meta http-equiv="Content-Type" content="text/html; charset=iso-8859-1" />\\n    \',escape=False)\nresponse.files.append(URL(request.application,\'static\',\'style.css\'))\nresponse.write(\'\\n    \',escape=False)\nresponse.files.insert(0,URL(r=request,c=\'static\',f=\'jquery.js\'))\nresponse.files.insert(1,URL(r=request,c=\'static\',f=\'calendar.css\'))\nresponse.files.insert(2,URL(r=request,c=\'static\',f=\'calendar.js\'))\nfor _item in response.meta or []:\n    response.write(\'\\n     <meta name="\',escape=False)\n    response.write(_item)\n    response.write(\'" content="\',escape=False)\n    response.write(response.meta[_item])\n    response.write(\'" />\',escape=False)\n    pass\nfor _k,_file in enumerate(response.files or []):\n    if _file in response.files[:_k]:\n        continue\n    elif _file[-4:].lower()==\'.css\':\n        response.write(\'\\n     <link href="\',escape=False)\n        response.write(_file)\n        response.write(\'" rel="stylesheet" type="text/css" />\',escape=False)\n    elif _file[-3:].lower()==\'.js\':\n        response.write(\'\\n     <script src="\',escape=False)\n        response.write(_file)\n        response.write(\'" type="text/javascript"></script>\',escape=False)\n        pass\n    pass\nresponse.write(\'\\n<script type="text/javascript"><!--\\nfunction popup(url) {\\n  newwindow=window.open(url,\\\'name\\\',\\\'height=400,width=600\\\');\\n  if (window.focus) newwindow.focus();\\n  return false;\\n}\\nfunction collapse(id) { jQuery(\\\'#\\\'+id).slideToggle(); }\\nfunction fade(id,value) { if(value>0) jQuery(\\\'#\\\'+id).hide().fadeIn(\\\'slow\\\'); else jQuery(\\\'#\\\'+id).show().fadeOut(\\\'slow\\\'); }\\nfunction ajax(u,s,t) {\\n  var query="";\\n  for(i=0; i<s.length; i++) { \\n     if(i>0) query=query+"&";\\n     query=query+encodeURIComponent(s[i])+"="+encodeURIComponent(document.getElementById(s[i]).value);\\n  }\\n  jQuery.ajax({type: "POST", url: u, data: query, success: function(msg) { if(t==\\\':eval\\\') eval(msg); else document.getElementById(t).innerHTML=msg; } });  \\n}\\nString.prototype.reverse = function () { return this.split(\\\'\\\').reverse().join(\\\'\\\');};\\nfunction web2py_ajax_init() {\\n  jQuery(\\\'.hidden\\\').hide();\\n  jQuery(\\\'.error\\\').hide().slideDown(\\\'slow\\\');\\n  jQuery(\\\'.flash\\\').click(function() { jQuery(this).fadeOut(\\\'slow\\\'); return false; });\\n  jQuery(\\\'input.integer\\\').keyup(function(){this.value=this.value.reverse().replace(/[^0-9\\\\-]|\\\\-(?=.)/g,\\\'\\\').reverse();});\\n  jQuery(\\\'input.double\\\').keyup(function(){this.value=this.value.reverse().replace(/[^0-9\\\\-\\\\.]|[\\\\-](?=.)|[\\\\.](?=[0-9]*[\\\\.])/g,\\\'\\\').reverse();});\\n  jQuery("input[type=\\\'checkbox\\\'].delete").each(function(){jQuery(this).click(function() { if(this.checked) if(!confirm("\',escape=False)\nresponse.write(T(\'Sure you want to delete this object?\'))\nresponse.write(\'")) this.checked=false; });});\\n  try {jQuery("input.date").focus( function() {Calendar.setup({\\n     inputField:this.id, ifFormat:"\',escape=False)\nresponse.write(T(\'%Y-%m-%d\'))\nresponse.write(\'", showsTime:false\\n  }); }); } catch(e) {};\\n  try { jQuery("input.datetime").focus( function() {Calendar.setup({\\n     inputField:this.id, ifFormat:"\',escape=False)\nresponse.write(T(\'%Y-%m-%d %H:%M:%S\'))\nresponse.write(\'", showsTime: true,timeFormat: "24"\\n  }); }); } catch(e) {};\\n  try { jQuery("input.time").clockpick({\\n      starthour:0, endhour:23, showminutes:true, military:true\\n  }); } catch(e) {};\\n};\\njQuery(document).ready(function(){\\n   jQuery(\\\'.flash\\\').hide();\\n   if(jQuery(\\\'.flash\\\').html()!=\\\'\\\') jQuery(\\\'.flash\\\').slideDown(\\\'slow\\\');\\n   web2py_ajax_init();});\\n\\nfunction web2py_trap_form(action,target) {\\n   jQuery(\\\'#\\\'+target+\\\' form\\\').each(function(i){\\n      var form=jQuery(this);\\n      jQuery(\\\':submit,.submit\\\',this).click(function(){\\n         jQuery(\\\'.flash\\\').hide().html(\\\'\\\');\\n         web2py_ajax_page(\\\'post\\\',action,form.serialize(),target);\\n         return false;\\n      });\\n   });\\n}\\nfunction web2py_ajax_page(method,action,data,target) {\\n  jQuery.ajax({\\\'type\\\':method,\\\'url\\\':action,\\\'data\\\':data,\\n    \\\'beforeSend\\\':function(xhr){\\n      xhr.setRequestHeader(\\\'web2py-component-location\\\',document.location);\\n      xhr.setRequestHeader(\\\'web2py-component-element\\\',target);},\\n    \\\'complete\\\':function(xhr,text){\\n      command=xhr.getResponseHeader(\\\'web2py-component-command\\\');\\n      if(command) eval(command);\\n      flash=xhr.getResponseHeader(\\\'web2py-component-flash\\\');\\n      if(flash) jQuery(\\\'.flash\\\').html(flash).slideDown();\\n      },\\n    \\\'success\\\': function(text) {\\n      jQuery(\\\'#\\\'+target).html(text);\\n      web2py_trap_form(action,target);\\n      web2py_ajax_init();\\n      }\\n    });\\n}\\nfunction web2py_component(action,target) {\\n    jQuery(document).ready(function(){ web2py_ajax_page(\\\'get\\\',action,null,target); });\\n}\\n//--></script>\\n\\n<script type="text/javascript">\\n<!--\\n/* this adds sfhover class to menu li items to make IE6 work */\\njQuery(document).ready(function(){\\n    jQuery(\\\'li.web2py-menu-expand\\\').hover(\\n        function () {\\n            jQuery(this).addClass(\\\'sfhover\\\');\\n        },\\n        function () {\\n            jQuery(this).removeClass(\\\'sfhover\\\');\\n        }\\n    );\\n});\\n//-->\\n</script>     \\n</head>\\n<body>\\n<div id="container">\\n    <div id="menu">\\n        <ul>\\n            <!--<li id="m03"><a href="\',escape=False)\nresponse.write(URL(r=request,f=\'upload_box\'))\nresponse.write(\'"><font size=0>Upload Song</font></a></li>\\n           f <li id="m04"><a href="\',escape=False)\nresponse.write(URL(r=request,f=\'list_songs\'))\nresponse.write(\'"><font size=0>List Songs</a></li></font>\\n        -->\\n    \',escape=False)\nif \'auth\' in globals():\n    response.write(\'\\n    \',escape=False)\n    if not auth.user:\n        response.write(\' \\n    <li id="m01"><a href="\',escape=False)\n        response.write(URL(r=request,f=\'user/login\'))\n        response.write(\'"<font size=0 color=orange>Login</font></a></li>\\n    <li id="m02"><a href="\',escape=False)\n        response.write(URL(r=request,f=\'user/register\'))\n        response.write(\'"<font size=0 color=orange>Register</font></a></li>\\n   <!-- <li id="m03"><a href="\',escape=False)\n        response.write(URL(r=request,f=\'\'))\n        response.write(\'"<font size=0 color=orange>Register</font></a></li>\\n    <li id="m04"><a href="<font size=0 color=orange>Register</font></a></li>\\n    <li id="m05"><a href="http://www.facebook.com/"<font size=0 color=orange>Contact Us</font></a></li>\\n    -->\',escape=False)\n    else:\n        response.write(\'\\n   <li id="m01"><a href="\',escape=False)\n        response.write(URL(r=request,f=\'user/logout\'))\n        response.write(\'"<font size=0 color=pink>Logout</font></a></li>\\n    <!--<li id="m02"><a href="\',escape=False)\n        response.write(URL(r=request,f=\'user/profile\'))\n        response.write(\'"<font size=0>Profile</font></a></li>\\n   <li id="m03"><a href="\',escape=False)\n        response.write(URL(r=request,f=\'user/change_password\'))\n        response.write(\'"<font size=0>Change_Password</font></a></li> \\n   --><li id="m02"><a href="\',escape=False)\n        response.write(URL(r=request,f=\'upload_box\'))\n        response.write(\'"<font size=0 color=pink>Upload</font></a></li>\\n   <li id="m03"><a href="\',escape=False)\n        response.write(URL(r=request,f=\'search_box\'))\n        response.write(\'"<font size=0 color=pink>Search</font></a></li>\\n   <li id="m04"><a href="\',escape=False)\n        response.write(URL(r=request,f=\'list_songs/0\'))\n        response.write(\'"<font size=0 color=pink>List Songs</font></a></li>\\n   <li id="m05"><a href="\',escape=False)\n        response.write(URL(r=request,f=\'notify\'))\n        response.write(\'"<font size=0 color=pink>Notifications</font></a></li>\\n    \',escape=False)\n        pass\n    response.write(\'\\n    \',escape=False)\n    pass\nresponse.write(\'\\n        </ul>\\n    </div>\\n    <div id="header">\\n        <div id="logo">\\n   \\n           <!-- <a href="http://www.freewebsitetemplates.com"><img src="images/logo.gif" alt="logo" border="0" /></a>-->\\n        </div>\\n        <div id="dj"></div>\\n        <div id="welcome">\\n        <font size=1>\\n              \\n<ul>\\n<table>\\n<!--\',escape=False)\nfor k in range(0,1):\n    response.write(\'-->\\n<tr>\\n       <!--  \',escape=False)\n    if (k+i*5)>=len(songs):\n        response.write(\'\\n                 \',escape=False)\n        break\n    response.write(\'\\n         \',escape=False)\n    pass\nresponse.write(\'\\n         \',escape=False)\nresponse.write(i)\nresponse.write(\'-->\\n <td><li>\',escape=False)\nresponse.write(A(song.song_name,_href=URL(r=request,f=\'view_song\',args=songs[0].id)))\nresponse.write(\'&nbsp;&nbsp;&nbsp; &nbsp;&nbsp;&nbsp;&nbsp;&nbsp;&nbsp;  &nbsp;&nbsp;&nbsp;&nbsp;&nbsp;&nbsp; &nbsp;&nbsp;&nbsp;&nbsp;&nbsp;&nbsp;  &nbsp;&nbsp;&nbsp;     &nbsp;&nbsp;&nbsp; &nbsp;&nbsp;&nbsp;&nbsp;&nbsp;&nbsp;  &nbsp;&nbsp;&nbsp;&nbsp;&nbsp;&nbsp; &nbsp;&nbsp;&nbsp;&nbsp;&nbsp;&nbsp;  &nbsp;&nbsp;&nbsp;&nbsp;&nbsp;&nbsp; &nbsp;&nbsp;&nbsp;&nbsp;&nbsp;&nbsp;  &nbsp;&nbsp;&nbsp;&nbsp;&nbsp;&nbsp; &nbsp;&nbsp;&nbsp;&nbsp;&nbsp;&nbsp;  &nbsp;&nbsp;&nbsp;     &nbsp;&nbsp;&nbsp; &nbsp;&nbsp;&nbsp;&nbsp;&nbsp;&nbsp;  &nbsp;&nbsp;&nbsp;&nbsp;&nbsp;&nbsp; &nbsp;&nbsp;&nbsp;&nbsp;&nbsp;&nbsp;  &nbsp;&nbsp;&nbsp;</li> </td><td> \',escape=False)\nresponse.write(A("Download",_href=URL(r=request,f=\'download\',args=songs[0].upload_song)))\nresponse.write(\' <src="\',escape=False)\nURL(r=request,f=\'download\',args=songs[0].upload_song)\nresponse.write(\'" autostart="true" controller="true" width="400" height="500"></embed></td></tr>\\n<!--\',escape=False)\npass\nresponse.write(\'-->\\n</table>\\n</ul>\\n</font>\\n            <!--<a class="more" href="http://www.freewebsitetemplates.com">more</a>\\n        --></div>\\n        <div class="clear"></div>\\n    </div>\\n    <div id="middle"></div>\\n    <div id="middle2"></div>\\n    <div id="content">\\n        <div id="left">\\n            \\n            \\n            <!--<p>This is just a place holder so you can see how the site would look like.</p>\\n            <p>The template is designed by <a href="http://www.freewebsitetemplates.com">free website templates</a> for you for free you can replace all the text by your own text.</p>\\n            <p>Even more websites all about website templates on <a href="http://www.justwebtemplates.com">Just Web Templates</a>.</p>\\n            <p>If you\\\'re looking for beautiful and professionally made templates you can find them at <a href="http://www.templatebeauty.com">Template Beauty</a>.</p>-->\\n        </div>\\n        <div id="right">\\n         \\n       <!--<form onsubmit="return IBN_mkt_validate();" target="_blank" action="http://www.moneycontrol.com/stocks/cptmarket/compsearchnew.php" method="post" id="stock_search_top" name="stock_search_top"><input type="hidden" value="price" name="fname"><input type="text" onfocus="this.value=\\\'\\\'" class="txtinput1" size="30" value="Get Stock Quote" id="companyname" name="companyname"></form>\\n     \\n           <input type="image" border="0" src="http://img1.moneycontrol.com/images/mc2008/markets/goBut.gif">\\n           <img src="http://img1.moneycontrol.com/images/stocktracker/red_arrow.gif">\\n           <input style="background: none repeat scroll 0% 0% rgb(255, 255, 255); border-width: 1px; border-style: solid; border-color: rgb(204, 204, 204) rgb(153, 153, 153) rgb(153, 153, 153) rgb(204, 204, 204); color: rgb(0, 0, 0); font: 18px arial,sans-serif bold; height: 25px; margin: 0pt; padding: 5px 8px 0pt 6px; vertical-align: top;" size="57" value="" title="Google Search" class="lst" name="q" maxlength="2048" onblur="google&amp;&amp;google.fade&amp;&amp;google.fade()" autocomplete="off"> \\n           <input type="submit" onclick="this.checked=1" class="lsb" value="Google Search" name="btnG">\\n           --><!--      <h2>Photos</h2>\\n            <a href="http://www.freewebsitetemplates.com"><img src="images/photo.jpg" alt="photo 1" /></a>\\n            <a href="http://www.freewebsitetemplates.com"><img src="images/photo.jpg" alt="photo 2" /></a>\\n            <a href="http://www.freewebsitetemplates.com"><img src="images/photo.jpg" alt="photo 3" /></a>\\n            <a href="http://www.freewebsitetemplates.com"><img src="images/photo.jpg" alt="photo 4" /></a>\\n            <br /><br />  \\n            -->\\n           <!-- <a class="more" href="http://www.freewebsitetemplates.com">more photos</a>\\n        --></div>\\n        <div class="clear">\\n        </div>\\n    </div>\\n    \\n    <div id="footer">\\n        <p>Copyright \\xef\\xbf\\xbd @abhi & piyush<p>\\n        \\n    </div>\\n\\n</div>\\n</body>\\n</html>\\n\',escape=False)'
p6
sS'traceback'
p7
S'Traceback (most recent call last):\n  File "/home/piyush/Downloads/web2py/gluon/restricted.py", line 178, in restricted\n    exec ccode in environment\n  File "/home/piyush/Downloads/web2py/applications/try/views/default/list_songs.html", line 70, in <module>\nTypeError: unsupported operand type(s) for *: \'NoneType\' and \'int\'\n'
p8
s.