(dp1
S'output'
p2
S''
sS'layer'
p3
S'/home/piyush/Downloads/web2py/applications/try/views/default/view_song.html'
p4
sS'code'
p5
S'response.write(\'<!DOCTYPE html PUBLIC "-//W3C//DTD XHTML 1.0 Transitional//EN" "http://www.w3.org/TR/xhtml1/DTD/xhtml1-transitional.dtd">\\r\\n<html xmlns="http://www.w3.org/1999/xhtml">\\r\\n<head>\\r\\n    <title>U Tunes</title>\\r\\n    <meta http-equiv="Content-Type" content="text/html; charset=iso-8859-1" />\\r\\n    \',escape=False)\nresponse.files.append(URL(request.application,\'static\',\'style.css\'))\nresponse.write(\'\\r\\n    \',escape=False)\nresponse.files.insert(0,URL(r=request,c=\'static\',f=\'jquery.js\'))\nresponse.files.insert(1,URL(r=request,c=\'static\',f=\'calendar.css\'))\nresponse.files.insert(2,URL(r=request,c=\'static\',f=\'calendar.js\'))\nfor _item in response.meta or []:\n    response.write(\'\\n     <meta name="\',escape=False)\n    response.write(_item)\n    response.write(\'" content="\',escape=False)\n    response.write(response.meta[_item])\n    response.write(\'" />\',escape=False)\n    pass\nfor _k,_file in enumerate(response.files or []):\n    if _file in response.files[:_k]:\n        continue\n    elif _file[-4:].lower()==\'.css\':\n        response.write(\'\\n     <link href="\',escape=False)\n        response.write(_file)\n        response.write(\'" rel="stylesheet" type="text/css" />\',escape=False)\n    elif _file[-3:].lower()==\'.js\':\n        response.write(\'\\n     <script src="\',escape=False)\n        response.write(_file)\n        response.write(\'" type="text/javascript"></script>\',escape=False)\n        pass\n    pass\nresponse.write(\'\\n<script type="text/javascript"><!--\\nfunction popup(url) {\\n  newwindow=window.open(url,\\\'name\\\',\\\'height=400,width=600\\\');\\n  if (window.focus) newwindow.focus();\\n  return false;\\n}\\nfunction collapse(id) { jQuery(\\\'#\\\'+id).slideToggle(); }\\nfunction fade(id,value) { if(value>0) jQuery(\\\'#\\\'+id).hide().fadeIn(\\\'slow\\\'); else jQuery(\\\'#\\\'+id).show().fadeOut(\\\'slow\\\'); }\\nfunction ajax(u,s,t) {\\n  var query="";\\n  for(i=0; i<s.length; i++) { \\n     if(i>0) query=query+"&";\\n     query=query+encodeURIComponent(s[i])+"="+encodeURIComponent(document.getElementById(s[i]).value);\\n  }\\n  jQuery.ajax({type: "POST", url: u, data: query, success: function(msg) { if(t==\\\':eval\\\') eval(msg); else document.getElementById(t).innerHTML=msg; } });  \\n}\\nString.prototype.reverse = function () { return this.split(\\\'\\\').reverse().join(\\\'\\\');};\\nfunction web2py_ajax_init() {\\n  jQuery(\\\'.hidden\\\').hide();\\n  jQuery(\\\'.error\\\').hide().slideDown(\\\'slow\\\');\\n  jQuery(\\\'.flash\\\').click(function() { jQuery(this).fadeOut(\\\'slow\\\'); return false; });\\n  jQuery(\\\'input.integer\\\').keyup(function(){this.value=this.value.reverse().replace(/[^0-9\\\\-]|\\\\-(?=.)/g,\\\'\\\').reverse();});\\n  jQuery(\\\'input.double\\\').keyup(function(){this.value=this.value.reverse().replace(/[^0-9\\\\-\\\\.]|[\\\\-](?=.)|[\\\\.](?=[0-9]*[\\\\.])/g,\\\'\\\').reverse();});\\n  jQuery("input[type=\\\'checkbox\\\'].delete").each(function(){jQuery(this).click(function() { if(this.checked) if(!confirm("\',escape=False)\nresponse.write(T(\'Sure you want to delete this object?\'))\nresponse.write(\'")) this.checked=false; });});\\n  try {jQuery("input.date").focus( function() {Calendar.setup({\\n     inputField:this.id, ifFormat:"\',escape=False)\nresponse.write(T(\'%Y-%m-%d\'))\nresponse.write(\'", showsTime:false\\n  }); }); } catch(e) {};\\n  try { jQuery("input.datetime").focus( function() {Calendar.setup({\\n     inputField:this.id, ifFormat:"\',escape=False)\nresponse.write(T(\'%Y-%m-%d %H:%M:%S\'))\nresponse.write(\'", showsTime: true,timeFormat: "24"\\n  }); }); } catch(e) {};\\n  try { jQuery("input.time").clockpick({\\n      starthour:0, endhour:23, showminutes:true, military:true\\n  }); } catch(e) {};\\n};\\njQuery(document).ready(function(){\\n   jQuery(\\\'.flash\\\').hide();\\n   if(jQuery(\\\'.flash\\\').html()!=\\\'\\\') jQuery(\\\'.flash\\\').slideDown(\\\'slow\\\');\\n   web2py_ajax_init();});\\n\\nfunction web2py_trap_form(action,target) {\\n   jQuery(\\\'#\\\'+target+\\\' form\\\').each(function(i){\\n      var form=jQuery(this);\\n      jQuery(\\\':submit,.submit\\\',this).click(function(){\\n         jQuery(\\\'.flash\\\').hide().html(\\\'\\\');\\n         web2py_ajax_page(\\\'post\\\',action,form.serialize(),target);\\n         return false;\\n      });\\n   });\\n}\\nfunction web2py_ajax_page(method,action,data,target) {\\n  jQuery.ajax({\\\'type\\\':method,\\\'url\\\':action,\\\'data\\\':data,\\n    \\\'beforeSend\\\':function(xhr){\\n      xhr.setRequestHeader(\\\'web2py-component-location\\\',document.location);\\n      xhr.setRequestHeader(\\\'web2py-component-element\\\',target);},\\n    \\\'complete\\\':function(xhr,text){\\n      command=xhr.getResponseHeader(\\\'web2py-component-command\\\');\\n      if(command) eval(command);\\n      flash=xhr.getResponseHeader(\\\'web2py-component-flash\\\');\\n      if(flash) jQuery(\\\'.flash\\\').html(flash).slideDown();\\n      },\\n    \\\'success\\\': function(text) {\\n      jQuery(\\\'#\\\'+target).html(text);\\n      web2py_trap_form(action,target);\\n      web2py_ajax_init();\\n      }\\n    });\\n}\\nfunction web2py_component(action,target) {\\n    jQuery(document).ready(function(){ web2py_ajax_page(\\\'get\\\',action,null,target); });\\n}\\n//--></script>\\n  \\r\\n</head>\\r\\n<body>\\r\\n\\r\\n<div style="font-family:bleeding cowboys;font-size:75px;text-align:center">U Tunes</div>\\r\\n<div id="container">\\r\\n\',escape=False)\nif auth.user:\n    response.write(\'    \\r\\n\\t<div style="font-family:bleeding cowboys;text-align:left">\',escape=False)\n    response.write(A(\'HOME PAGE\',_href=URL(r=request,f=\'index\')))\n    response.write(\'</div>\\r\\n\',escape=False)\n    pass\nresponse.write(\'   \\r\\n <div id="menu" style="font-family:aliciawonderland;font-size:15px">\\r\\n        <ul style="font-family:aliciawonderland;font-size:15px">\\r\\n\\r\\n            <!--<li id="m03"><a href="\',escape=False)\nresponse.write(URL(r=request,f=\'upload_box\'))\nresponse.write(\'"><font size=0>Upload Song</font></a></li>\\r\\n           f <li id="m04"><a href="\',escape=False)\nresponse.write(URL(r=request,f=\'list_songs\'))\nresponse.write(\'"><font size=0>List Songs</a></li></font>\\r\\n        -->\\r\\n    \',escape=False)\nif \'auth\' in globals():\n    response.write(\'\\r\\n    \',escape=False)\n    if not auth.user:\n        response.write(\' \\r\\n    <li id="m01"><a href="\',escape=False)\n        response.write(URL(r=request,f=\'user/login\'))\n        response.write(\'"<font size=0 color=orange face="aliciawonderland; color:#ECD872">Login</font></a></li>\\r\\n    <li id="m02"><a href="\',escape=False)\n        response.write(URL(r=request,f=\'user/register\'))\n        response.write(\'"<font size=0 color=orange face="aliciawonderland; color:#ECD872">Register</font></a></li>\\r\\n   <!-- <li id="m03"><a href="\',escape=False)\n        response.write(URL(r=request,f=\'\'))\n        response.write(\'"<font size=0 color=orange>Register</font></a></li>\\r\\n    <li id="m04"><a href="<font size=0 color=orange>Register</font></a></li>\\r\\n    <li id="m05"><a href="http://www.facebook.com/"<font size=0 color=orange>Contact Us</font></a></li>\\r\\n    -->\',escape=False)\n    else:\n        response.write(\'\\r\\n   <li id="m01"><a href="\',escape=False)\n        response.write(URL(r=request,f=\'user/logout\'))\n        response.write(\'" style="font-family:aliciawonderland;font-size:13px; color:#ECD872">Logout</a></li>\\r\\n    <!--<li id="m02"><a href="\',escape=False)\n        response.write(URL(r=request,f=\'user/profile\'))\n        response.write(\'"<font size=0>Profile</font></a></li>\\r\\n   <li id="m03"><a href="\',escape=False)\n        response.write(URL(r=request,f=\'user/change_password\'))\n        response.write(\'"<font size=0>Change_Password</font></a></li> \\r\\n   --><li id="m02"><a href="\',escape=False)\n        response.write(URL(r=request,f=\'upload_box\'))\n        response.write(\'"style="font-family:aliciawonderland;font-size:13px; color:#ECD872">Upload</font></a></li>\\r\\n   <li id="m03"><a href="\',escape=False)\n        response.write(URL(r=request,f=\'search_box\'))\n        response.write(\'"style="font-family:aliciawonderland;font-size:13px; color:#ECD872">Search</font></a></li>\\r\\n   <li id="m04"><a href="\',escape=False)\n        response.write(URL(r=request,f=\'list_songs\'))\n        response.write(\'"style="font-family:aliciawonderland;font-size:13px; color:#ECD872">List Songs</font></a></li>\\r\\n   <li id="m05"><a href="\',escape=False)\n        response.write(URL(r=request,f=\'contact_us\'))\n        response.write(\'"style="font-family:aliciawonderland;font-size:13px; color:#ECD872">Contact Us</font></a></li>\\r\\n    \',escape=False)\n        pass\n    response.write(\'\\r\\n    \',escape=False)\n    pass\nresponse.write(\'\\r\\n        </ul>\\r\\n    </div>\\r\\n    <div id="header"><br/>\\r\\n    <!--><div style="font-size:20px;font-family:polo; text-align:center ;color:#F88017">Recently Uploaded Songs:</div >\\r\\n    <div align="center" class="content2" id="myslides">\\r\\n\\r\\n<div id="mygallery" class="stepcarousel">\\r\\n<div class="belt" style="width: 1764px; left: 0px;">\\r\\n<div class="panel" style="float: none; position: absolute; left: 0px;">\\r\\n<a title="Ip.Man.The.Legend.Is.Born.2010.DVDRip.XviD-ViSiON" href="http://oneclickmoviez.com/?s=ip.man+legend"><img height="148" width="100" src="http://i34.tinypic.com/2wmny44.jpg" alt="#">\\r\\n</a>\\r\\n</div>\\r\\n<div class="panel" style="float: none; position: absolute; left: 126px;">\\r\\n<a title="Why.Did.I.Get.Married.Too.2010.BDRip.XviD-FRAGMENT" href="http://oneclickmoviez.com/?s=Why.Did.I.Get.Married.Too"><img height="148" width="100" src="http://i35.tinypic.com/fwp1mo.jpg" alt="#">\\r\\n</a>\\r\\n</div>\\r\\n<div class="panel" style="float: none; position: absolute; left: 252px;">\\r\\n<a title="The.Twilight.Saga.Eclipse.2010.DVDSCR.XviD-PrisM" href="http://oneclickmoviez.com/?s=eclipse+dvdscr"><img height="148" width="100" src="http://i38.tinypic.com/2ho9t3t.jpg" alt="#">\\r\\n</a>\\r\\n</div>\\r\\n<div class="panel" style="float: none; position: absolute; left: 378px;">\\r\\n<a title="Salt.2010.R5.LiNE.XviD-LAP" href="http://oneclickmoviez.com/?s=salt+2010"><img height="148" width="100" src="http://i34.tinypic.com/47x0.jpg" alt="#">\\r\\n</a>\\r\\n</div>\\r\\n<div class="panel" style="float: none; position: absolute; left: 504px;">\\r\\n<a title="Prince.Of.Persia.2010.R4.DVDRip.XviD.AC3-ViSiON" href="http://oneclickmoviez.com/?s=prince.of.persia"><img height="148" width="100" src="http://i33.tinypic.com/1688zd1.jpg" alt="#">\\r\\n</a>\\r\\n</div>\\r\\n<div class="panel" style="float: none; position: absolute; left: 630px;">\\r\\n<a title="Killers.2010.iNTERNAL.DVDRip.XviD-OSHT" href="http://oneclickmoviez.com/?s=killers+2010"><img height="148" width="100" src="http://i38.tinypic.com/20sukvl.jpg" alt="#">\\r\\n</a>\\r\\n</div>\\r\\n<div class="panel" style="float: none; position: absolute; left: 756px;">\\r\\n<a title="Ong.Bak.3.2010.DVDRip.XviD.AC3-ViSiON" href="http://oneclickmoviez.com/?s=ong.bak.3"><img height="148" width="100" src="http://i37.tinypic.com/wcl1yf.jpg" alt="#">\\r\\n</a>\\r\\n</div>\\r\\n<div class="panel" style="float: none; position: absolute; left: 882px;">\\r\\n<a title="Marmaduke.2010.Bluray.720p.DTS.x264-CHD" href="http://oneclickmoviez.com/?s=marmaduke"><img height="148" width="100" src="http://i33.tinypic.com/21e2blj.jpg" alt="#">\\r\\n</a>\\r\\n</div>\\r\\n<div class="panel" style="float: none; position: absolute; left: 1008px;">\\r\\n<a title="Furry.Vengeance.2010.BDRip.XviD-Larceny" href="http://oneclickmoviez.com/?s=Furry+Vengeance"><img height="148" width="100" src="http://i35.tinypic.com/19av5c.jpg" alt="#">\\r\\n</a>\\r\\n</div>\\r\\n<div class="panel" style="float: none; position: absolute; left: 1134px;">\\r\\n<a title="Sex.And.The.City.2.2010.READNFO.V2.DVDRip.XviD.AC3-KiNGDOM" href="http://oneclickmoviez.com/?s=Sex.And.The.City.2"><img height="148" width="100" src="http://i29.tinypic.com/2vw615w.jpg" alt="#">\\r\\n</a>\\r\\n</div>\\r\\n<div class="panel" style="float: none; position: absolute; left: 1260px;">\\r\\n<a title="Toy.Story.3.2010.DVDScr.2D.XviD-MAGNET" href="http://oneclickmoviez.com/?s=toy.story.3"><img height="148" width="100" src="http://i29.tinypic.com/2mwwnd1.jpg" alt="#">\\r\\n</a>\\r\\n</div>\\r\\n<div class="panel" style="float: none; position: absolute; left: 1386px;">\\r\\n<a title="Diary.Of.A.Wimpy.Kid.DVDRip.XviD-ARROW" href="http://oneclickmoviez.com/?s=wimpy.kid"><img height="148" width="100" src="http://i30.tinypic.com/2ezhiqh.jpg" alt="#">\\r\\n</a>\\r\\n</div>\\r\\n<div class="panel" style="float: none; position: absolute; left: 1512px;">\\r\\n<a title="Kick-Ass.DVDRip.RERIP.XviD-NeDiVx" href="http://oneclickmoviez.com/?s=kick+ass"><img height="148" width="100" src="http://i28.tinypic.com/2z553lc.jpg" alt="#">\\r\\n</a>\\r\\n</div>\\r\\n<div class="panel" style="float: none; position: absolute; left: 1638px;">\\r\\n<a title="Splice.2010.R5.Xvid.V2.READNFO-LKRG" href="http://oneclickmoviez.com/?s=splice"><img height="148" width="100" src="http://i30.tinypic.com/2vb1k5e.jpg" alt="#">\\r\\n</a>\\r\\n</div>\\r\\n</div>\\r\\n</div>\\r\\n</div><br/><-->\\r\\n        <div id="dj"></div>\\r\\n        <div id="welcome">\\r\\n        \\n<ul>\\n\',escape=False)\nfor song in songs:\n    response.write(\'\\n <img src="\',escape=False)\n    response.write(URL(r=request,f=\'download\', args=song.upload_song_cover))\n    response.write(\'" width="200px" />\\n <div style="color:pink;font-family:waltograph;font-size:25px">\',escape=False)\n    response.write(song.song_name)\n    response.write(\'</div><br/>  \\n <div style="color:#ECD872;font-family:polo;font-size:18px">\\n <li>Artist :   \',escape=False)\n    response.write(song.artist)\n    response.write(\'    </li>                      \\n <li>Album :     \',escape=False)\n    response.write(song.album_name)\n    response.write(\' </li>\\n <li>Language :      \',escape=False)\n    response.write(song.language)\n    response.write(\' </li>                    \\n <li>Genre :      \',escape=False)\n    response.write(song.Genre)\n    response.write(\'  </li>\\n <li>Downloaded   "\',escape=False)\n    response.write(song.no_down)\n    response.write(\'" times</li>  \\n <li>\',escape=False)\n    response.write(A("like",_href=URL(r=request,f=\'likes\',args=song.id)))\n    response.write(\'</li>\\n <li><embed src="\',escape=False)\n    response.write(URL(r=request,f=\'download\',args=songs[u*9+k].upload_song))\n    response.write(\'" width="200"  autostart="false" height="25" name="my"></embed></li>\\n\',escape=False)\n    pass\nresponse.write(\'\\n\',escape=False)\nfor ii in u:\n    response.write(\'\\n <li>\',escape=False)\n    response.write(A("Download",_href=URL(r=request,f=\'down\',args=[ii.upload_song,ii.id])))\n    response.write(\'</li>\\n\',escape=False)\n    pass\nresponse.write(\'\\n</ul>\\n<br/><br/>\\n<div style="color:#F88017;font-family:extraornamentalno2;font-size:22px">\\nComments</div><div style="color:#ECD872;font-family:polo;font-size:17px"> Total \',escape=False)\nresponse.write(so)\nresponse.write(\' comments... Displaying first few...\\n<br/><br/>\\n\',escape=False)\nk=0\nresponse.write(\'\\n\',escape=False)\nfor i in s:\n    response.write(\'\\n    \',escape=False)\n    k+=1\n    response.write(\'\\n    <li>\',escape=False)\n    response.write(i.user_name)\n    response.write(\' says "\',escape=False)\n    response.write(i.comment)\n    response.write(\'" on \',escape=False)\n    response.write(i.time)\n    response.write(\'</li>\\n    \',escape=False)\n    if k==3:\n        response.write(\'\\n            \',escape=False)\n        break\n    response.write(\'\\n    \',escape=False)\n    pass\nresponse.write(\'\\n\',escape=False)\npass\nresponse.write(\'\\n\',escape=False)\nfor song in songs:\n    response.write(\'\\n  <li>\',escape=False)\n    response.write(A("view all",_href=URL(r=request,f=\'all\',args=[song.id,0])))\n    response.write(\'</li>\\n\',escape=False)\n    pass\nresponse.write(\'\\n</div>\\n\',escape=False)\nif auth.user:\n    response.write(\'\\n    \',escape=False)\n    response.write(form)\n    response.write(\'\\n\',escape=False)\n    pass\nresponse.write(\'\\n\\r\\n        </div>\\r\\n        <div class="clear"></div>\\r\\n    </div>\\r\\n    <div id="middle"></div>\\r\\n    <div id="middle2"></div>\\r\\n    <div id="content">\\r\\n        <!--<div id="left">\\r\\n            \\r\\n            \\r\\n            <p>This is just a place holder so you can see how the site would look like.</p>\\r\\n            <p>The template is designed by <a href="http://www.freewebsitetemplates.com">free website templates</a> for you for free you can replace all the text by your own text.</p>\\r\\n            <p>Even more websites all about website templates on <a href="http://www.justwebtemplates.com">Just Web Templates</a>.</p>\\r\\n            <p>If you\\\'re looking for beautiful and professionally made templates you can find them at <a href="http://www.templatebeauty.com">Template Beauty</a>.</p>\\r\\n        </div>-->\\r\\n        <div id="right">\\r\\n         \\r\\n       <!--<form onsubmit="return IBN_mkt_validate();" target="_blank" action="http://www.moneycontrol.com/stocks/cptmarket/compsearchnew.php" method="post" id="stock_search_top" name="stock_search_top"><input type="hidden" value="price" name="fname"><input type="text" onfocus="this.value=\\\'\\\'" class="txtinput1" size="30" value="Get Stock Quote" id="companyname" name="companyname"></form>\\r\\n     \\r\\n           <input type="image" border="0" src="http://img1.moneycontrol.com/images/mc2008/markets/goBut.gif">\\r\\n           <img src="http://img1.moneycontrol.com/images/stocktracker/red_arrow.gif">\\r\\n           <input style="background: none repeat scroll 0% 0% rgb(255, 255, 255); border-width: 1px; border-style: solid; border-color: rgb(204, 204, 204) rgb(153, 153, 153) rgb(153, 153, 153) rgb(204, 204, 204); color: rgb(0, 0, 0); font: 18px arial,sans-serif bold; height: 25px; margin: 0pt; padding: 5px 8px 0pt 6px; vertical-align: top;" size="57" value="" title="Google Search" class="lst" name="q" maxlength="2048" onblur="google&amp;&amp;google.fade&amp;&amp;google.fade()" autocomplete="off"> \\r\\n           <input type="submit" onclick="this.checked=1" class="lsb" value="Google Search" name="btnG">\\r\\n           --><!--      <h2>Photos</h2>\\r\\n            <a href="http://www.freewebsitetemplates.com"><img src="images/photo.jpg" alt="photo 1" /></a>\\r\\n            <a href="http://www.freewebsitetemplates.com"><img src="images/photo.jpg" alt="photo 2" /></a>\\r\\n            <a href="http://www.freewebsitetemplates.com"><img src="images/photo.jpg" alt="photo 3" /></a>\\r\\n            <a href="http://www.freewebsitetemplates.com"><img src="images/photo.jpg" alt="photo 4" /></a>\\r\\n            <br /><br />  \\r\\n            -->\\r\\n           <!-- <a class="more" href="http://www.freewebsitetemplates.com">more photos</a>\\r\\n        --></div>\\r\\n        <div class="clear">\\r\\n        </div>\\r\\n    </div>\\r\\n    \\r\\n    <div id="footer">\\r\\n        <p>Copyright \\xef\\xbf\\xbd @abhi & piyush<p>\\r\\n        \\r\\n    </div>\\r\\n\\r\\n</div>\\r\\n</body>\\r\\n</html>\\r\\n\',escape=False)'
p6
sS'traceback'
p7
S'Traceback (most recent call last):\n  File "/home/piyush/Downloads/web2py/gluon/restricted.py", line 178, in restricted\n    exec ccode in environment\n  File "/home/piyush/Downloads/web2py/applications/try/views/default/view_song.html", line 92, in <module>\nTypeError: unsupported operand type(s) for *: \'Rows\' and \'int\'\n'
p8
s.