(dp1
S'output'
p2
S''
sS'layer'
p3
S'/home/piyush/Downloads/web2py/applications/u_tunes2/controllers/default.py'
p4
sS'code'
p5
S'# -*- coding: utf-8 -*- \n\n#########################################################################\n## This is a samples controller\n## - index is the default action of any application\n## - user is required for authentication and authorization\n## - download is for downloading files uploaded in the db (does streaming)\n## - call exposes all registered services (none by default)\n#########################################################################  \n\ndef index():\n    """\n    example action using the internationalization operator T and flash\n    rendered by views/default/index.html or views/generic.html\n    """\n    response.flash = T(\'Welcome to web2py\')\n    return dict(message=T(\'Hello World\'))\n\n\ndef user():\n    """\n    exposes:\n    http://..../[app]/default/user/login \n    http://..../[app]/default/user/logout\n    http://..../[app]/default/user/register\n    http://..../[app]/default/user/profile\n    http://..../[app]/default/user/retrieve_password\n    http://..../[app]/default/user/change_password\n    use @auth.requires_login()\n        @auth.requires_membership(\'group name\')\n        @auth.requires_permission(\'read\',\'table name\',record_id)\n    to decorate functions that need access control\n    """\n    return dict(form=auth())\n\n\ndef download():\n    """\n    allows downloading of uploaded files\n    http://..../[app]/default/download/[filename]\n    """\n    return response.download(request,db)\n\n\ndef call():\n    """\n    exposes services. for example:\n    http://..../[app]/default/call/jsonrpc\n    decorate with @services.jsonrpc the functions to expose\n    supports xml, json, xmlrpc, jsonrpc, amfrpc, rss, csv\n    """\n    session.forget()\n    return service()\n\ndef upload_box():\n    form=SQLFORM(db.songs_database)\n    if form.accepts(request.vars,session):\n        response.flash=\'NEW Song uploaded\'\n    return dict(form=form)\n\ndef search_box():\n    form=SQLFORM(TABLE(TR(\'Search by\',INPUT(_type=\'string\',_name=\'search by\',requires=[IS_NOT_EMPTY(),IS_IN_SET([\'artist\',\'genre\',\'song\'])]))\n                    ,TR(\'search for\',INPUT(_type=\'string\',_name=\'search\',requires=IS_NOT_EMPTY())),TR("",INPUT(_type="submit",_value="SEARcH")))) \n    return dict(form=form)\n\nresponse._vars=response._caller(search_box)\n'
p6
sS'traceback'
p7
S'Traceback (most recent call last):\n  File "/home/piyush/Downloads/web2py/gluon/restricted.py", line 178, in restricted\n    exec ccode in environment\n  File "/home/piyush/Downloads/web2py/applications/u_tunes2/controllers/default.py", line 66, in <module>\n  File "/home/piyush/Downloads/web2py/gluon/globals.py", line 96, in <lambda>\n    self._caller = lambda f: f()\n  File "/home/piyush/Downloads/web2py/applications/u_tunes2/controllers/default.py", line 63, in search_box\n    ,TR(\'search for\',INPUT(_type=\'string\',_name=\'search\',requires=IS_NOT_EMPTY())),TR("",INPUT(_type="submit",_value="SEARcH"))))\n  File "/home/piyush/Downloads/web2py/gluon/sqlhtml.py", line 568, in __init__\n    fields = [f.name for f in table if (ignore_rw or f.writable or f.readable) and not f.compute]\nAttributeError: \'TR\' object has no attribute \'writable\'\n'
p8
s.