(dp1
S'output'
p2
S"<type 'exceptions.UnicodeDecodeError'> 'ascii' codec can't decode byte 0xe0 in position 7: ordinal not in range(128)"
p3
sS'layer'
p4
S'C:\\Documents and Settings\\agrover\\Desktop\\previous crawler\\web2py\\applications\\mycrawler\\controllers/default.py'
p5
sS'code'
p6
S'# -*- coding: utf-8 -*-\n# this file is released under public domain and you can use without limitations\n\n#########################################################################\n## This is a samples controller\n## - index is the default action of any application\n## - user is required for authentication and authorization\n## - download is for downloading files uploaded in the db (does streaming)\n## - call exposes all registered services (none by default)\n#########################################################################\nimport cStringIO\nimport csv\nimport re\nimport string\ncountry=[\'United States\', \'Afghanistan\', \'Aland Islands\', \'Albania\', \'Algeria\', \'American Samoa\', \'Andorra\', \'Angola\', \'Anguilla\', \'Antarctica\', \'Antigua and Barbuda\', \'Argentina\', \'Armenia\', \'Aruba\', \'Australia\', \'Austria\', \'Azerbaijan\', \'Bahamas\', \'Bahrain\', \'Bangladesh\', \'Barbados\', \'Belarus\', \'Belgium\', \'Belize\', \'Benin\', \'Bermuda\', \'Bhutan\', \'Bolivia\', \'Bosnia and Herzegovina\', \'Botswana\', \'Brazil\', \'British Indian Ocean Territory\', \'Brunei Darussalam\', \'Bulgaria\', \'Burkina Faso\', \'Burundi\', \'Cambodia\', \'Cameroon\', \'Canada\', \'Cape Verde\', \'Caribbean Nations\', \'Cayman Islands\', \'Central African Republic\', \'Chad\', \'Chile\', \'China\', \'Christmas Island\', \'Cocos (Keeling) Islands\', \'Colombia\', \'Comoros\', \'Congo\', \'Cook Islands\', \'Costa Rica\', "Cote D\'Ivoire (Ivory Coast)", \'Croatia\', \'Cuba\', \'Cyprus\', \'Czech Republic\', \'Democratic Republic of the Congo\', \'Denmark\', \'Djibouti\', \'Dominica\', \'Dominican Republic\', \'East Timor\', \'Ecuador\', \'Egypt\', \'El Salvador\', \'Equatorial Guinea\', \'Eritrea\', \'Estonia\', \'Ethiopia\', \'Falkland Islands (Malvinas)\', \'Faroe Islands\', \'Federated States of Micronesia\', \'Fiji\', \'Finland\', \'France\', \'French Guiana\', \'French Polynesia\', \'French Southern Territories\', \'Gabon\', \'Gambia\', \'Georgia\', \'Germany\', \'Ghana\', \'Gibraltar\', \'Greece\', \'Greenland\', \'Grenada\', \'Guadeloupe\', \'Guam\', \'Guatemala\', \'Guernsey\', \'Guinea\', \'Guinea-Bissau\', \'Guyana\', \'Haiti\', \'Honduras\', \'Hong Kong\', \'Hungary\', \'Iceland\', \'India\', \'Indonesia\', \'Iran\', \'Iraq\', \'Ireland\', \'Isle of Man\', \'Israel\', \'Italy\', \'Jamaica\', \'Japan\', \'Jersey\', \'Jordan\', \'Kazakhstan\', \'Kenya\', \'Kiribati\', \'Korea\', \'Korea (North)\', \'Kuwait\', \'Kyrgyzstan\', \'Laos\', \'Latvia\', \'Lebanon\', \'Lesotho\', \'Liberia\', \'Libya\', \'Liechtenstein\', \'Lithuania\', \'Luxembourg\', \'Macao\', \'Macedonia\', \'Madagascar\', \'Malawi\', \'Malaysia\', \'Maldives\', \'Mali\', \'Malta\', \'Marshall Islands\', \'Martinique\', \'Mauritania\', \'Mauritius\', \'Mayotte\', \'Mexico\', \'Moldova\', \'Monaco\', \'Mongolia\', \'Montenegro\', \'Montserrat\', \'Morocco\', \'Mozambique\', \'Myanmar\', \'Namibia\', \'Nauru\', \'Nepal\', \'Netherlands\', \'Netherlands Antilles\', \'New Caledonia\', \'New Zealand\', \'Nicaragua\', \'Niger\', \'Nigeria\', \'Niue\', \'Norfolk Island\', \'Northern Mariana Islands\', \'Norway\', \'Oman\', \'Pakistan\', \'Palau\', \'Palestinian Territory\', \'Panama\', \'Papua New Guinea\', \'Paraguay\', \'Peru\', \'Philippines\', \'Pitcairn\', \'Poland\', \'Portugal\', \'Puerto Rico\', \'Qatar\', \'Reunion\', \'Romania\', \'Russian Federation\', \'Rwanda\', \'Saint Helena\', \'Saint Kitts and Nevis\', \'Saint Lucia\', \'Saint Pierre and Miquelon\', \'Saint Vincent and the Grenadines\', \'Samoa\', \'San Marino\', \'Sao Tome and Principe\', \'Saudi Arabia\', \'Senegal\', \'Serbia\', \'Seychelles\', \'Sierra Leone\', \'Singapore\', \'Slovak Republic\', \'Slovenia\', \'Solomon Islands\', \'Somalia\', \'South Africa\', \'Spain\', \'Sri Lanka\', \'Sudan\', \'Suriname\', \'Svalbard and Jan Mayen\', \'Swaziland\', \'Sweden\', \'Switzerland\', \'Syria\', \'Taiwan\', \'Tajikistan\', \'Tanzania\', \'Thailand\', \'Timor-Leste\', \'Togo\', \'Tokelau\', \'Tonga\', \'Trinidad and Tobago\', \'Tunisia\', \'Turkey\', \'Turkmenistan\', \'Turks and Caicos Islands\', \'Tuvalu\', \'Uganda\', \'Ukraine\', \'United Arab Emirates\', \'United Kingdom\', \'Uruguay\', \'Uzbekistan\', \'Vanuatu\', \'Vatican City State (Holy See)\', \'Venezuela\', \'Vietnam\', \'Virgin Islands (British)\', \'Virgin Islands (U.S.)\', \'Wallis and Futuna\', \'Western Sahara\', \'Yemen\', \'Zambia\', \'Zimbabwe\', \'Other\']\n    \ncountryid=[\'us\', \'af\', \'ax\', \'al\', \'dz\', \'as\', \'ad\', \'ao\', \'ai\', \'aq\', \'ag\', \'ar\', \'am\', \'aw\', \'au\', \'at\', \'az\', \'bs\', \'bh\', \'bd\', \'bb\', \'by\', \'be\', \'bz\', \'bj\', \'bm\', \'bt\', \'bo\', \'ba\', \'bw\', \'br\', \'io\', \'bn\', \'bg\', \'bf\', \'bi\', \'kh\', \'cm\', \'ca\', \'cv\', \'cb\', \'ky\', \'cf\', \'td\', \'cl\', \'cn\', \'cx\', \'cc\', \'co\', \'km\', \'cg\', \'ck\', \'cr\', \'ci\', \'hr\', \'cu\', \'cy\', \'cz\', \'cd\', \'dk\', \'dj\', \'dm\', \'do\', \'tp\', \'ec\', \'eg\', \'sv\', \'gq\', \'er\', \'ee\', \'et\', \'fk\', \'fo\', \'fm\', \'fj\', \'fi\', \'fr\', \'gf\', \'pf\', \'tf\', \'ga\', \'gm\', \'ge\', \'de\', \'gh\', \'gi\', \'gr\', \'gl\', \'gd\', \'gp\', \'gu\', \'gt\', \'gg\', \'gn\', \'gw\', \'gy\', \'ht\', \'hn\', \'hk\', \'hu\', \'is\', \'in\', \'id\', \'ir\', \'iq\', \'ie\', \'im\', \'il\', \'it\', \'jm\', \'jp\', \'je\', \'jo\', \'kz\', \'ke\', \'ki\', \'kr\', \'kp\', \'kw\', \'kg\', \'la\', \'lv\', \'lb\', \'ls\', \'lr\', \'ly\', \'li\', \'lt\', \'lu\', \'mo\', \'mk\', \'mg\', \'mw\', \'my\', \'mv\', \'ml\', \'mt\', \'mh\', \'mq\', \'mr\', \'mu\', \'yt\', \'mx\', \'md\', \'mc\', \'mn\', \'me\', \'ms\', \'ma\', \'mz\', \'mm\', \'na\', \'nr\', \'np\', \'nl\', \'an\', \'nc\', \'nz\', \'ni\', \'ne\', \'ng\', \'nu\', \'nf\', \'mp\', \'no\', \'om\', \'pk\', \'pw\', \'ps\', \'pa\', \'pg\', \'py\', \'pe\', \'ph\', \'pn\', \'pl\', \'pt\', \'pr\', \'qa\', \'re\', \'ro\', \'ru\', \'rw\', \'sh\', \'kn\', \'lc\', \'pm\', \'vc\', \'ws\', \'sm\', \'st\', \'sa\', \'sn\', \'rs\', \'sc\', \'sl\', \'sg\', \'sk\', \'si\', \'sb\', \'so\', \'za\', \'es\', \'lk\', \'sd\', \'sr\', \'sj\', \'sz\', \'se\', \'ch\', \'sy\', \'tw\', \'tj\', \'tz\', \'th\', \'tl\', \'tg\', \'tk\', \'to\', \'tt\', \'tn\', \'tr\', \'tm\', \'tc\', \'tv\', \'ug\', \'ua\', \'ae\', \'gb\', \'uy\', \'uz\', \'vu\', \'va\', \'ve\', \'vn\', \'vg\', \'vi\', \'wf\', \'eh\', \'ye\', \'zm\', \'zw\', \'oo\']\n\nindustries=[\'All Industries\',\'Accounting\', \'Airlines/Aviation\', \'Alternative Dispute Resolution\', \'Alternative Medicine\', \'Animation\', \'Apparel & Fashion\', \'Architecture & Planning\', \'Arts and Crafts\', \'Automotive\', \'Aviation & Aerospace\', \'Banking\', \'Biotechnology\', \'Broadcast Media\', \'Building Materials\', \'Business Supplies and Equipment\', \'Capital Markets\', \'Chemicals\', \'Civic & Social Organization\', \'Civil Engineering\', \'Commercial Real Estate\', \'Computer & Network Security\', \'Computer Games\', \'Computer Hardware\', \'Computer Networking\', \'Computer Software\', \'Construction\', \'Consumer Electronics\', \'Consumer Goods\', \'Consumer Services\', \'Cosmetics\', \'Dairy\', \'Defense & Space\', \'Design\', \'Education Management\', \'E-Learning\', \'Electrical/Electronic Manufacturing\', \'Entertainment\', \'Environmental Services\', \'Events Services\', \'Executive Office\', \'Facilities Services\', \'Farming\', \'Financial Services\', \'Fine Art\', \'Fishery\', \'Food & Beverages\', \'Food Production\', \'Fund-Raising\', \'Furniture\', \'Gambling & Casinos\', \'Glass, Ceramics & Concrete\', \'Government Administration\', \'Government Relations\', \'Graphic Design\', \'Health, Wellness and Fitness\', \'Higher Education\', \'Hospital & Health Care\', \'Hospitality\', \'Human Resources\', \'Import and Export\', \'Individual & Family Services\', \'Industrial Automation\', \'Information Services\', \'Information Technology and Services\', \'Insurance\', \'International Affairs\', \'International Trade and Development\', \'Internet\', \'Investment Banking\', \'Investment Management\', \'Judiciary\', \'Law Enforcement\', \'Law Practice\', \'Legal Services\', \'Legislative Office\', \'Leisure, Travel & Tourism\', \'Libraries\', \'Logistics and Supply Chain\', \'Luxury Goods & Jewelry\', \'Machinery\', \'Management Consulting\', \'Maritime\', \'Marketing and Advertising\', \'Market Research\', \'Mechanical or Industrial Engineering\', \'Media Production\', \'Medical Devices\', \'Medical Practice\', \'Mental Health Care\', \'Military\', \'Mining & Metals\', \'Motion Pictures and Film\', \'Museums and Institutions\', \'Music\', \'Nanotechnology\', \'Newspapers\', \'Nonprofit Organization Management\', \'Oil & Energy\', \'Online Media\', \'Outsourcing/Offshoring\', \'Package/Freight Delivery\', \'Packaging and Containers\', \'Paper & Forest Products\', \'Performing Arts\', \'Pharmaceuticals\', \'Philanthropy\', \'Photography\', \'Plastics\', \'Political Organization\', \'Primary/Secondary Education\', \'Printing\', \'Professional Training & Coaching\', \'Program Development\', \'Public Policy\', \'Public Relations and Communications\', \'Public Safety\', \'Publishing\', \'Railroad Manufacture\', \'Ranching\', \'Real Estate\', \'Recreational Facilities and Services\', \'Religious Institutions\', \'Renewables & Environment\', \'Research\', \'Restaurants\', \'Retail\', \'Security and Investigations\', \'Semiconductors\', \'Shipbuilding\', \'Sporting Goods\', \'Sports\', \'Staffing and Recruiting\', \'Supermarkets\', \'Telecommunications\', \'Textiles\', \'Think Tanks\', \'Tobacco\', \'Translation and Localization\', \'Transportation/Trucking/Railroad\', \'Utilities\', \'Venture Capital & Private Equity\', \'Veterinary\', \'Warehousing\', \'Wholesale\', \'Wine and Spirits\', \'Wireless\', \'Writing and Editing\']\n\nseniority=[\'All Seniority Levels\', \'Manager\', \'Owner\', \'Partner\', \'CXO\', \'VP\', \'Director\', \'Senior\', \'Entry\', \'Students & Interns\', \'Volunteer\']\n\nfunctions=[\'All Functions\', \'Academics\', \'Accounting\', \'Administrative\', \'Business development\', \'Buyer\', \'Consultant\', \'Creative\', \'Engineering\', \'Entrepreneur\', \'Finance\', \'Human resources\', \'Information technology\', \'Legal\', \'Marketing\', \'Medical\', \'Operations\', \'Product\', \'Public relations\', \'Real estate\', \'Sales\', \'Support\']\n\nemaildict={\'Pfizer\' : [\'firstname\', \'lastname\', \'pfizer.com\', \'.\'],\'Novartis\' : [\'firstname\', \'lastname\', \'novartis.com\', \'.\'],\'Merck KGaA\' : [\'firstname\', \'lastname\', \'merck.de\', \'.\'],\'Merck & Co.\' : [\'firstname\', \'lastname\', \'merck.com\', \'_\'],\'GlaxoSmithKline\' : [\'firstname\', \'lastname\', \'gsk.com\', \'.\'],\'GlaxoSmithKline Biologicals\' : [\'firstname\', \'lastname\', \'gskbio.com\', \'.\'],\'Roche\' : [\'firstname\', \'lastname\', \'roche.com\', \'.\'],\'Roche Diagnostics\' : [\'firstname\', \'lastname\', \'roche.com\', \'.\'],\'Roche Diagnostics\' \'Corporation\' : [\'firstname\', \'lastname\', \'roche.com\', \'.\'],\'AstraZeneca\' : [\'firstname\', \'lastname\', \'astrazeneca.com\', \'.\'],\'Eli Lilly &\xe2\x80\x88Co.\' : [\'firstname\', \'lastname\', \'lilly.com\', \'_\'],\'Abbott Laboratories\' : [\'firstname\', \'lastname\', \'abbott.com\', \'.\'],\'Bristol-Myers Squibb\' : [\'firstname\', \'lastname\', \'bms.com\', \'.\'],\'Teva\' : [\'firstname\', \'lastname\', \'tevausa.com\', \'.\'],\'Amgen\' : [\'f\', \'lastname\', \'amgen.com\', \'\'],\'Takeda Pharma\' : [\'f\', \'lastname\', \'tpna.com\', \'\'],\'Bayer Schering\': [\'firstname\', \'lastname\', \'bayer.com\', \'.\'],\'Bayer HealthCare\' : [\'firstname\', \'lastname\', \'bayer.com\', \'.\'],\'Boehringer-Ingelheim\' : [\'firstname\', \'lastname\', \'boehringer-ingelheim.com\', \'.\'],\'Astellas\' : [\'firstname\', \'lastname\', \'us.astellas.com\', \'.\'],\'Daiichi-Sankyo\' : [\'f\', \'lastname\', \'daiichisankyo-us.com\', \'\'],\'Baxter\' : [\'firstname\', \'lastname\', \'baxter.com\', \'_\'],\'EISAI\' : [\'firstname\', \'lastname\', \'eisai.com\', \'_\'],\'Otsuka\' : [\'firstname\', \'lastname\', \'otsuka.com\', \'.\'],\'Otsuka Pharmaceutical\' : [\'firstname\', \'lastname\', \'otsuka.com\', \'.\'],\'Gilead Sciences\' : [\'firstname\', \'lastname\', \'gilead.com\', \'.\'],\'Mylan\' : [\'f\', \'lastname\', \'mylanlabs.com\', \'\'],\'Genzyme\' : [\'firstname\', \'lastname\', \'genzyme.com\', \'.\'],\'Allergan\' : [\'lastname\', \'firstname\', \'allergan.com\', \'_\'],\'Forest\' : [\'f\', \'lastname\', \'forestpharm.com\', \'\'],\'CSL\' : [\'firstname\', \'lastname\', \'cslbehring.com\', \'.\'],\'UCB\' : [\'firstname\', \'lastname\', \'ucb.com\', \'.\'],\'Celgene\' : [\'f\', \'lastname\', \'celgene.com\', \'\'],\'Biogen Idec\' : [\'firstname\', \'lastname\', \'biogenidec.com\', \'.\'],\'Shire\': [\'f\', \'lastname\', \'shire.com\', \'\'],\'Alcon\': [\'firstname\', \'lastname\', \'alconlabs.com\', \'.\'],\'Cephalon\' : [\'f\', \'lastname\', \'cephalon.com\', \'\'],\'Watson\' : [\'f\', \'lastname\', \'watsonpharm.com\', \'\'],\'Lundbeck\' : [\'firstname\', \'lastname\', \'lundbeck.com\', \'.\'],\'Shionogi\' : [\'f\', \'lastname\', \'shionogipharma.com\', \'\'],\'Actavis\' : [\'f\', \'lastname\', \'actavis.com\', \'\'],\'Nycomed\' : [\'firstname\', \'lastname\', \'nycomed.com\', \'.\'],\'ViforPharma\' : [\'firstname\', \'lastname\', \'viforpharma.com\', \'.\'],\'Sanofi-Aventis\' : [\'firstname\', \'lastname\', \'sanofi-aventisus.com\', \'.\'],\'Millennium Pharmaceuticals\' : [\'firstname\', \'lastname\', \'mpi.com\', \'.\']}\n\n#THIS IS THE LOGIN PAGE\ndef index():\n    """\n    example action using the internationalization operator T and flash\n    rendered by views/default/index.html or views/generic.html\n    """\n    #login form\n    form = SQLFORM.factory(\n       Field(\'LinkedIn_User_Id\'),\n       Field(\'Password\',type=\'password\'))\n       \n    #checking if there is already a user logged in,i.e. creating a session\n    if session.username:\n        response.flash =\'form accepted\'\n        redirect(URL(r=request,f=\'enter_info\')) \n       \n\n    session.username=request.vars.LinkedIn_User_Id\n    session.password=request.vars.Password\n    #if form is accepted call enterinfo function\n    if form.process().accepted:\n        response.flash =\'form accepted\'\n        redirect(URL(r=request,f=\'enter_info\')) \n    return dict(form=form)   \n\ndef user():\n    """\n    exposes:\n    http://..../[app]/default/user/login\n    http://..../[app]/default/user/logout\n    http://..../[app]/default/user/register\n    http://..../[app]/default/user/profile\n    http://..../[app]/default/user/retrieve_password\n    http://..../[app]/default/user/change_password\n    use @auth.requires_login()\n        @auth.requires_membership(\'group name\')\n        @auth.requires_permission(\'read\',\'table name\',record_id)\n    to decorate functions that need access control\n    """\n    return dict(form=auth())\n\n\ndef download():\n    """\n    allows downloading of uploaded files\n    http://..../[app]/default/download/[filename]\n    """\n    return response.download(request,db)\n\n\ndef call():\n    """\n    exposes services. for example:\n    http://..../[app]/default/call/jsonrpc\n    decorate with @services.jsonrpc the functions to expose\n    supports xml, json, xmlrpc, jsonrpc, amfrpc, rss, csv\n    """\n    return service()\n\n\n@auth.requires_signature()\ndef data():\n    """\n    http://..../[app]/default/data/tables\n    http://..../[app]/default/data/create/[table]\n    http://..../[app]/default/data/read/[table]/[id]\n    http://..../[app]/default/data/update/[table]/[id]\n    http://..../[app]/default/data/delete/[table]/[id]\n    http://..../[app]/default/data/select/[table]\n    http://..../[app]/default/data/search/[table]\n    but URLs must be signed, i.e. linked with\n      A(\'table\',_href=URL(\'data/tables\',user_signature=True))\n    or with the signed load operator\n      LOAD(\'default\',\'data.load\',args=\'tables\',ajax=True,user_signature=True)\n    """\n    return dict(form=crud())\n\n    \ndef enter_info():\n    #form for entering information\n    form = SQLFORM.factory(\n       Field(\'First_Name\'),\n       Field(\'Last_Name\'),\n       Field(\'Keywords\'),\n       Field(\'Title\'),\n       Field(\'Company\'),\n       Field(\'School\'),\n       Field(\'File_Name\',requires=IS_NOT_EMPTY()),\n       Field(\'Country\',requires=IS_IN_SET(country),default=\'India\'),\n       Field(\'Industry\',requires=IS_IN_SET(industries,multiple=\'multiple\'),default=\'All Industries\'),\n       Field(\'Seniority_Levels\',requires=IS_IN_SET(seniority,multiple=\'multiple\'),default=\'All Seniority Levels\'),\n       Field(\'Functions\',requires=IS_IN_SET(functions,multiple=\'multiple\'),default=\'All Functions\'))\n       \n    #if form accepted redirect to search function\n    if form.process().accepted:\n        response.flash = \'form accepted\'\n        redirect(URL(r=request,f=\'search\',vars=request.vars))\n    elif form.errors:\n        response.flash = \'form has errors\'\n    return dict(form=form)\n    \n\ndef search():\n    import mechanize\n    import cookielib\n    import html2text\n    from bs4 import BeautifulSoup\n    \n    # Browser    \n    br = mechanize.Browser()\n\n    # Cookie Jar\n    cj = cookielib.LWPCookieJar()\n    br.set_cookiejar(cj)\n\n    # Browser options\n    br.set_handle_equiv(True)\n    br.set_handle_gzip(True)\n    br.set_handle_redirect(True)\n    br.set_handle_referer(True)\n    br.set_handle_robots(False)\n\n    # Follows refresh 0 but not hangs on refresh > 0\n    br.set_handle_refresh(mechanize._http.HTTPRefreshProcessor(), max_time=1)\n\n    # User-Agent (this is cheating, ok?)\n    br.addheaders = [(\'User-agent\', \'Mozilla/5.0 (X11; U; Linux i686; en-US; rv:1.9.0.1) Gecko/2008071615 Fedora/3.0.1-1.fc9 Firefox/3.0.1\')]\n\n\n    # The site we will navigate into, handling it\'s session    \n    br.open(\'https://www.linkedin.com\')\n\n    # Select the first (index zero) form\n    br.select_form(nr=0)\n\n    # User credentials\n    #br.form[\'session_key\'] = \'mrigeshgaurav@gmail.com\'\n    #br.form[\'session_password\'] = \'modeln@1234\'\n    \n    #entering username and password user provided at login\n    br.form[\'session_key\'] = session.username\n    br.form[\'session_password\'] = session.password\n    \n    \n    # Login by submitting form br\n    br.submit()\n    \n    #opening the advanced search page straight away\n    br.open(\'http://www.linkedin.com/search?trk=advsrch\')\n    \n    #selecting the 1st form\n    br.select_form(nr=1)\n\n    #entering various fields and filters\n    if request.vars.Last_Name:\n        br["lname"]=request.vars.Last_Name\n\n    if request.vars.First_Name:\n        br["fname"]=request.vars.First_Name\n    \n    if request.vars.Keywords:\n        br["keywords"]=request.vars.Keywords\n\n    if request.vars.Company:\n        br["company"]=request.vars.Company\n\n    if request.vars.School:\n        br["school"]=request.vars.School\n\n    if request.vars.Title:\n        br["title"]=request.vars.Title\n        \n    if request.vars.Country:\n        br["countryCode"]=[countryid[country.index(request.vars.Country)]]\n    \n    if request.vars.Industry and request.vars.Industry!=\'All Industries\':\n        if isinstance(request.vars.Industry,list):\n            for i in request.vars.Industry:\n                br.find_control("facet_I").items[industries.index(i)-1].selected=True\n        else:\n            br.find_control("facet_I").items[industries.index(request.vars.Industry)-1].selected=True\n    try:        \n        if request.vars.Seniority_Levels and request.vars.Seniority_Levels!=\'All Seniority Levels\':\n            if isinstance(request.vars.Seniority_Levels,list):\n                for i in request.vars.Seniority_Levels:\n                    br.find_control("facet_SE").items[seniority.index(i)-1].selected=True\n            else:\n                br.find_control("facet_SE").items[seniority.index(request.vars.Seniority_Levels)-1].selected=True\n            \n        if request.vars.Functions and request.vars.Functions!=\'All Functions\':\n            if isinstance(request.vars.Functions,list):\n                for i in request.vars.Functions:\n                    br.find_control("facet_FA").items[functions.index(i)-1].selected=True\n            else:\n                br.find_control("facet_FA").items[functions.index(request.vars.Functions)-1].selected=True\n    except:\n        flag=1\n        \n    #submitting the form\n    br.submit()\n    \n    #lists for retreiving the required data\n    view_profile=[]\n    firstname=[]\n    titl=[]\n    location=[]\n    industry=[]\n    current=[]\n    middlename=[]\n    lastname=[]\n    company=[]\n    emailid=[]\n    \n    #flag to make sure we get entries on 1st page\n    flag=1\n    \n    #writing into file with given filename\n    global csv_response\n\n    csv_response = cStringIO.StringIO()\n    \n    spamWriter = csv.writer(csv_response, delimiter=\',\')\n    \n    #spamWriter = csv.writer(open(request.vars.File_Name+\'.csv\', \'wb\'), delimiter=\',\')\n    soup = BeautifulSoup(br.response().read())\n    spamWriter.writerow([\'FIRST NAME\',\'MIDDLE NAME\',\'LAST-NAME\',\'JOB-TITLE\',\'CURRENT\',\'LOCATION\',\'INDUSTRY\',\'PROFLE-URL\',\'COMPANY NAME\',\'EMAILID\'])\n    \n    #scans till there is a link to "next page"\n    while soup.find(\'a\',{"class" : "paginator-next"}) or flag==1:\n        flag=0\n        soup = BeautifulSoup(br.response().read())\n        view_profile=[]\n        firstname=[]\n        titl=[]\n        location=[]\n        industry=[]\n        current=[]\n        middlename=[]\n        lastname=[]\n        company=[]\n        emailid=[]\n        \n        #parsing for the html response to get information\n        for k in soup.find_all(\'dl\',{"class" : "vcard-basic"}):\n            if k.find(\'dd\',{"class" : "title"}):\n                    titl.append(k.find(\'dd\',{"class" : "title"}).get_text())\n            else:\n                    titl.append(\'NONE\')\n                            \n            if k.find(\'span\',{"class" : "location"}):\n                    location.append(k.find(\'span\',{"class" : "location"}).get_text())\n            else:\n                    location.append(\'NONE\')\n            if k.find(\'span\',{"class" : "industry"}):\n                    industry.append(k.find(\'span\',{"class" : "industry"}).get_text())\n            else:\n                    industry.append(\'NONE\')\n                \n        for k in soup.find_all(\'dl\',{"class" : "vcard-expanded"}):\n            temp1=[]\n            temp2=[]\n            if k.find(\'span\',{"class" : "current-details more-text"}):\n                    less=k.find(\'span\',{"class" : "current-details more-text"}).get_text()\n                    temp1=less[0:len(less)-4].encode(\'utf-8\').split(\' at \',1)\n                    if(len(temp1)>1):\n                        try:\n                            temp2=temp1[1].encode(\'utf-8\').split(\',\',1)\n                        except:\n                            temp2=[\'NONE\']\n                    else:\n                        temp2=[\'NONE\']\n                    company.append(temp2[0])\n                    current.append(less[0:len(less)-4])\n            elif k.find(\'span\',{"class" : "current-details"}):\n                    less=k.find(\'span\',{"class" : "current-details"}).get_text()\n                    current.append(less)\n                    temp1=less.encode(\'utf-8\').split(\' at \',1)\n                    if(len(temp1)>1):\n                        try:\n                            temp2=temp1[1].encode(\'utf-8\').split(\',\',1)\n                        except:\n                            temp2=[\'NONE\']\n                    else:\n                        temp2=[\'NONE\']\n                    company.append(temp2[0])\n            else:\n                    current.append(\'NONE\')\n                    company.append(\'NONE\')\n                \n        for l in soup.find_all(\'a\',{"title" : "View Profile"}):\n            temp=[]\n            view_profile.append(\'http://www.linkedin.com\'+l.get(\'href\'))\n            temp.append(l.get_text().encode(\'utf-8\').split(None,2))\n            if temp[0][0]:\n                firstname.append(temp[0][0])\n            else:\n                firstname.append(\'None\')\n            if temp[0][1] and (len(temp[0])-1)==1:\n                lastname.append(temp[0][1])\n                middlename.append(\'None\')\n            else:\n                lastname.append(temp[0][len(temp[0])-1])\n                middlename.append(temp[0][1])\n        \n        for i in range(0,len(firstname)):\n            e=\'\'\n            w=\'\'\n            if company[i] in emaildict:\n                if emaildict[company[i]][0]==\'firstname\':\n                    e=e+firstname[i]\n                if emaildict[company[i]][0]==\'f\':    \n                    e=e+firstname[i][0]\n                if emaildict[company[i]][0]==\'lastname\':\n                    e=e+lastname[i]\n                if emaildict[company[i]][0]==\'l\':\n                    e=e+lastname[i][0]\n                e=e+emaildict[company[i]][3]\n                 \n                if emaildict[company[i]][1]==\'firstname\':\n                    e=e+firstname[i]\n                if emaildict[company[i]][1]==\'f\':    \n                    e=e+firstname[i][0]\n                if emaildict[company[i]][1]==\'lastname\':\n                    e=e+lastname[i]\n                if emaildict[company[i]][1]==\'l\':\n                    e=e+lastname[i][0]\n                e=e+\'@\'\n                e=e+emaildict[company[i]][2]\n                #w=string.lower(e).encode(\'utf-8\')                                      \n                emailid.append(e)\n            else:\n                emailid.append(\'NONE\')\n                \n                \n        for i in range(0,len(firstname)):\n            #try:\n            spamWriter.writerow([firstname[i].encode(\'utf-8\').strip(),middlename[i].encode(\'utf-8\').strip(),lastname[i].encode(\'utf-8\').strip(),titl[i].encode(\'utf-8\').strip(),current[i].encode(\'utf-8\').strip(),location[i].encode(\'utf-8\').strip(),industry[i].encode(\'utf-8\').strip(),view_profile[i].encode(\'utf-8\').strip(),company[i].encode(\'utf-8\').strip(),emailid[i].encode(\'utf-8\').strip()])\n            #except:\n            #    continue\n        if soup.find(\'a\',{"class" : "paginator-next"}):\n            br.open(\'http://www.linkedin.com\'+ soup.find(\'a\',{"class" : "paginator-next"}).get(\'href\'))\n        #soup = BeautifulSoup(br.response().read())\n        \n    response.headers[\'Content-Type\'] = \'text/csv\'\n    response.headers[\'Content-Disposition\'] = \'attachment; filename=%s.csv\' % request.vars.File_Name\n    \n    return csv_response.getvalue()\n    \n    \ndef logout():\n    session.username=[]\n    session.password=[]\n    redirect(URL(r=request,f=\'index\'))\n\n#finish\n###########################################################################################################    \n    #redirect(URL(r=request,f=\'enter_info\'))       \n    #for link in soup.find_all(\'a\'):\n    #    if link.get(\'title\')==\'View Profile\':\n    #        #print(link.get(\'href\'))\n    #        #print link.get_text()\n    #        view_profile.append(\'http://www.linkedin.com\'+link.get(\'href\'))\n    #        name.append(link.get_text())\n#for l in soup.find_all("span", { "class" : "given-name" }):\n    #print l.get_text()\n\n        \n\n#    for l in soup.find_all(\'dd\',{"class" : "title"}):\n        #print l.get_text()\n#        titl.append(l.get_text())\n    \n#    for l in soup.find_all(\'span\',{"class" : "location"}):\n        #print l.get_text()\n#        location.append(l.get_text())\n\n#    for l in soup.find_all(\'span\',{"class" : "industry"}):\n        #print l.get_text()\n#        industry.append(l.get_text())\n        \n#    for l in soup.find_all(\'span\', {"class" : "current-details"}):\n#        k=l.get_text()\n#        if k[len(k)-4:len(k)]!=\'more\':\n#            current.append(k)\n        #elif(l.get["class"]==\'current-details more text\'):\n        #    current.append(l.get_text())\n    #for l in soup.find_all(\'span\',{"class" : "current-details"}):\n        #print l.get_text()\n        #current.append(l.get_text())\n\n    \n    #global filename,csv_response\n\n    #csv_response = cStringIO.StringIO()\n    \n    #spamWriter = csv.writer(csv_response, delimiter=\',\')\n    \n    #spamWriter.writerow([\'NAME\',\'JOB-TITLE\',\'COMPANY-NAME\',\'LOCATION\',\'INDUSTRY\',\'PROFLE-URL\'])\n   \n    #spamWriter = csv.writer(open(request.vars.File_Name+\'.csv\', \'wb\'), delimiter=\',\')\n    #spamWriter.writerow([\'NAME\',\'JOB-TITLE\',\'Current\',\'LOCATION\',\'INDUSTRY\',\'PROFLE-URL\'])\n    #for i in range(1,10):\n    #    spamWriter.writerow([name[i].encode(\'utf-8\'),titl[i],current[i],location[i],industry[i],view_profile[i]])\n        \n        \n    #,titl[i],current[i],location[i],industry[i],view_profile[i]\n    #response.headers[\'Content-Type\'] = \'text/csv\'\n    #response.headers[\'Content-Disposition\'] = \'attachment; filename=%s\' % request.vars.File_Name\n\n    #print view_profile\n    #print name\n    #print location\n    #print industry\n    #print titl\n    \n    #return dict(view_profile=view_profile,name=name,location=location,industry=industry,titl=titl,current=current)\n\nresponse._vars=response._caller(search)\n'
p7
sS'snapshot'
p8
(dp9
S'exception'
p10
(dp11
S'__getslice__'
p12
S"<method-wrapper '__getslice__' of exceptions.UnicodeDecodeError object>"
p13
sS'encoding'
p14
S"'ascii'"
p15
sS'__str__'
p16
S"<method-wrapper '__str__' of exceptions.UnicodeDecodeError object>"
p17
sS'__reduce__'
p18
S'<built-in method __reduce__ of exceptions.UnicodeDecodeError object>'
p19
sS'__dict__'
p20
S'{}'
p21
sS'__sizeof__'
p22
S'<built-in method __sizeof__ of exceptions.UnicodeDecodeError object>'
p23
sS'__init__'
p24
S"<method-wrapper '__init__' of exceptions.UnicodeDecodeError object>"
p25
sS'__setattr__'
p26
S"<method-wrapper '__setattr__' of exceptions.UnicodeDecodeError object>"
p27
sS'__reduce_ex__'
p28
S'<built-in method __reduce_ex__ of exceptions.UnicodeDecodeError object>'
p29
sS'end'
p30
S'8'
sS'__new__'
p31
S'<built-in method __new__ of type object>'
p32
sS'__format__'
p33
S'<built-in method __format__ of exceptions.UnicodeDecodeError object>'
p34
sS'__class__'
p35
S"<type 'exceptions.UnicodeDecodeError'>"
p36
sS'start'
p37
S'7'
sS'__doc__'
p38
S"'Unicode decoding error.'"
p39
sS'object'
p40
S"'W. M. (\\xe0\\xb4\\xb7\\xe0\\xb5\\x86\\xe0\\xb4\\xb2\\xe0\\xb5\\x8d\\xe0\\xb4\\xb2\\xe0\\xb4\\xbf)\\n '"
p41
sS'__getitem__'
p42
S"<method-wrapper '__getitem__' of exceptions.UnicodeDecodeError object>"
p43
sS'__setstate__'
p44
S'<built-in method __setstate__ of exceptions.UnicodeDecodeError object>'
p45
sS'__getattribute__'
p46
S"<method-wrapper '__getattribute__' of exceptions.UnicodeDecodeError object>"
p47
sS'args'
p48
S"('ascii', 'W. M. (\\xe0\\xb4\\xb7\\xe0\\xb5\\x86\\xe0\\xb4\\xb2\\xe0\\xb5\\x8d\\xe0\\xb4\\xb2\\xe0\\xb4\\xbf)\\n ', 7, 8, 'ordinal not in range(128)')"
p49
sS'reason'
p50
S"'ordinal not in range(128)'"
p51
sS'__subclasshook__'
p52
S'<built-in method __subclasshook__ of type object>'
p53
sS'__unicode__'
p54
S'<built-in method __unicode__ of exceptions.UnicodeDecodeError object>'
p55
sS'__delattr__'
p56
S"<method-wrapper '__delattr__' of exceptions.UnicodeDecodeError object>"
p57
sS'__repr__'
p58
S"<method-wrapper '__repr__' of exceptions.UnicodeDecodeError object>"
p59
sS'__hash__'
p60
S"<method-wrapper '__hash__' of exceptions.UnicodeDecodeError object>"
p61
ssS'evalue'
p62
S"'ascii' codec can't decode byte 0xe0 in position 7: ordinal not in range(128)"
p63
sS'request'
p64
ccopy_reg
_reconstructor
p65
(cgluon.html
BEAUTIFY
p66
c__builtin__
object
p67
NtRp68
(dp69
S'attributes'
p70
(dp71
sS'components'
p72
(lp73
g65
(cgluon.html
TABLE
p74
g67
NtRp75
(dp76
g70
(dp77
S'level'
p78
I5
ssS'parent'
p79
Nsg72
(lp80
g65
(cgluon.html
TR
p81
g67
NtRp82
(dp83
g70
(dp84
sg79
g75
sg72
(lp85
g65
(cgluon.html
TD
p86
g67
NtRp87
(dp88
g70
(dp89
S'_style'
p90
S'font-weight:bold;vertical-align:top'
p91
ssg79
g82
sg72
(lp92
S'ajax'
p93
asbag65
(g86
g67
NtRp94
(dp95
g70
(dp96
S'_valign'
p97
S'top'
p98
ssg79
g82
sg72
(lp99
S':'
asbag65
(g86
g67
NtRp100
(dp101
g70
(dp102
sg79
g82
sg72
(lp103
g65
(g66
g67
NtRp104
(dp105
g70
(dp106
g78
I5
ssg79
g100
sg72
(lp107
S'False'
p108
asbasbasbag65
(g81
g67
NtRp109
(dp110
g70
(dp111
sg79
g75
sg72
(lp112
g65
(g86
g67
NtRp113
(dp114
g70
(dp115
g90
g91
ssg79
g109
sg72
(lp116
S'application'
p117
asbag65
(g86
g67
NtRp118
(dp119
g70
(dp120
g97
g98
ssg79
g109
sg72
(lp121
S':'
asbag65
(g86
g67
NtRp122
(dp123
g70
(dp124
sg79
g109
sg72
(lp125
g65
(g66
g67
NtRp126
(dp127
g70
(dp128
g78
I5
ssg79
g122
sg72
(lp129
S'mycrawler'
p130
asbasbasbag65
(g81
g67
NtRp131
(dp132
g70
(dp133
sg79
g75
sg72
(lp134
g65
(g86
g67
NtRp135
(dp136
g70
(dp137
g90
g91
ssg79
g131
sg72
(lp138
g48
asbag65
(g86
g67
NtRp139
(dp140
g70
(dp141
g97
g98
ssg79
g131
sg72
(lp142
S':'
asbag65
(g86
g67
NtRp143
(dp144
g70
(dp145
sg79
g131
sg72
(lp146
g65
(g66
g67
NtRp147
(dp148
g70
(dp149
g78
I5
ssg79
g143
sg72
(lp150
g65
(g74
g67
NtRp151
(dp152
g70
(dp153
g78
I4
ssg79
Nsg72
(lp154
sbasbasbasbag65
(g81
g67
NtRp155
(dp156
g70
(dp157
sg79
g75
sg72
(lp158
g65
(g86
g67
NtRp159
(dp160
g70
(dp161
g90
g91
ssg79
g155
sg72
(lp162
S'body'
p163
asbag65
(g86
g67
NtRp164
(dp165
g70
(dp166
g97
g98
ssg79
g155
sg72
(lp167
S':'
asbag65
(g86
g67
NtRp168
(dp169
g70
(dp170
sg79
g155
sg72
(lp171
g65
(g66
g67
NtRp172
(dp173
g70
(dp174
g78
I5
ssg79
g168
sg72
(lp175
S'<cStringIO.StringO object at 0x01B82740>'
p176
asbasbasbag65
(g81
g67
NtRp177
(dp178
g70
(dp179
sg79
g75
sg72
(lp180
g65
(g86
g67
NtRp181
(dp182
g70
(dp183
g90
g91
ssg79
g177
sg72
(lp184
S'client'
p185
asbag65
(g86
g67
NtRp186
(dp187
g70
(dp188
g97
g98
ssg79
g177
sg72
(lp189
S':'
asbag65
(g86
g67
NtRp190
(dp191
g70
(dp192
sg79
g177
sg72
(lp193
g65
(g66
g67
NtRp194
(dp195
g70
(dp196
g78
I5
ssg79
g190
sg72
(lp197
S'127.0.0.1'
p198
asbasbasbag65
(g81
g67
NtRp199
(dp200
g70
(dp201
sg79
g75
sg72
(lp202
g65
(g86
g67
NtRp203
(dp204
g70
(dp205
g90
g91
ssg79
g199
sg72
(lp206
S'controller'
p207
asbag65
(g86
g67
NtRp208
(dp209
g70
(dp210
g97
g98
ssg79
g199
sg72
(lp211
S':'
asbag65
(g86
g67
NtRp212
(dp213
g70
(dp214
sg79
g199
sg72
(lp215
g65
(g66
g67
NtRp216
(dp217
g70
(dp218
g78
I5
ssg79
g212
sg72
(lp219
S'default'
p220
asbasbasbag65
(g81
g67
NtRp221
(dp222
g70
(dp223
sg79
g75
sg72
(lp224
g65
(g86
g67
NtRp225
(dp226
g70
(dp227
g90
g91
ssg79
g221
sg72
(lp228
S'cookies'
p229
asbag65
(g86
g67
NtRp230
(dp231
g70
(dp232
g97
g98
ssg79
g221
sg72
(lp233
S':'
asbag65
(g86
g67
NtRp234
(dp235
g70
(dp236
sg79
g221
sg72
(lp237
g65
(g66
g67
NtRp238
(dp239
g70
(dp240
g78
I5
ssg79
g234
sg72
(lp241
g65
(g74
g67
NtRp242
(dp243
g70
(dp244
g78
I4
ssg79
Nsg72
(lp245
g65
(g81
g67
NtRp246
(dp247
g70
(dp248
sg79
g242
sg72
(lp249
g65
(g86
g67
NtRp250
(dp251
g70
(dp252
g90
g91
ssg79
g246
sg72
(lp253
S'session_id_admin'
p254
asbag65
(g86
g67
NtRp255
(dp256
g70
(dp257
g97
g98
ssg79
g246
sg72
(lp258
S':'
asbag65
(g86
g67
NtRp259
(dp260
g70
(dp261
sg79
g246
sg72
(lp262
g65
(g66
g67
NtRp263
(dp264
g70
(dp265
g78
I4
ssg79
g259
sg72
(lp266
g65
(g74
g67
NtRp267
(dp268
g70
(dp269
g78
I3
ssg79
Nsg72
(lp270
g65
(g81
g67
NtRp271
(dp272
g70
(dp273
sg79
g267
sg72
(lp274
g65
(g86
g67
NtRp275
(dp276
g70
(dp277
g90
g91
ssg79
g271
sg72
(lp278
S'comment'
p279
asbag65
(g86
g67
NtRp280
(dp281
g70
(dp282
g97
g98
ssg79
g271
sg72
(lp283
S':'
asbag65
(g86
g67
NtRp284
(dp285
g70
(dp286
sg79
g271
sg72
(lp287
g65
(g66
g67
NtRp288
(dp289
g70
(dp290
g78
I3
ssg79
g284
sg72
(lp291
S''
asbasbasbag65
(g81
g67
NtRp292
(dp293
g70
(dp294
sg79
g267
sg72
(lp295
g65
(g86
g67
NtRp296
(dp297
g70
(dp298
g90
g91
ssg79
g292
sg72
(lp299
S'domain'
p300
asbag65
(g86
g67
NtRp301
(dp302
g70
(dp303
g97
g98
ssg79
g292
sg72
(lp304
S':'
asbag65
(g86
g67
NtRp305
(dp306
g70
(dp307
sg79
g292
sg72
(lp308
g65
(g66
g67
NtRp309
(dp310
g70
(dp311
g78
I3
ssg79
g305
sg72
(lp312
S''
asbasbasbag65
(g81
g67
NtRp313
(dp314
g70
(dp315
sg79
g267
sg72
(lp316
g65
(g86
g67
NtRp317
(dp318
g70
(dp319
g90
g91
ssg79
g313
sg72
(lp320
S'expires'
p321
asbag65
(g86
g67
NtRp322
(dp323
g70
(dp324
g97
g98
ssg79
g313
sg72
(lp325
S':'
asbag65
(g86
g67
NtRp326
(dp327
g70
(dp328
sg79
g313
sg72
(lp329
g65
(g66
g67
NtRp330
(dp331
g70
(dp332
g78
I3
ssg79
g326
sg72
(lp333
S''
asbasbasbag65
(g81
g67
NtRp334
(dp335
g70
(dp336
sg79
g267
sg72
(lp337
g65
(g86
g67
NtRp338
(dp339
g70
(dp340
g90
g91
ssg79
g334
sg72
(lp341
S'httponly'
p342
asbag65
(g86
g67
NtRp343
(dp344
g70
(dp345
g97
g98
ssg79
g334
sg72
(lp346
S':'
asbag65
(g86
g67
NtRp347
(dp348
g70
(dp349
sg79
g334
sg72
(lp350
g65
(g66
g67
NtRp351
(dp352
g70
(dp353
g78
I3
ssg79
g347
sg72
(lp354
S''
asbasbasbag65
(g81
g67
NtRp355
(dp356
g70
(dp357
sg79
g267
sg72
(lp358
g65
(g86
g67
NtRp359
(dp360
g70
(dp361
g90
g91
ssg79
g355
sg72
(lp362
S'max-age'
p363
asbag65
(g86
g67
NtRp364
(dp365
g70
(dp366
g97
g98
ssg79
g355
sg72
(lp367
S':'
asbag65
(g86
g67
NtRp368
(dp369
g70
(dp370
sg79
g355
sg72
(lp371
g65
(g66
g67
NtRp372
(dp373
g70
(dp374
g78
I3
ssg79
g368
sg72
(lp375
S''
asbasbasbag65
(g81
g67
NtRp376
(dp377
g70
(dp378
sg79
g267
sg72
(lp379
g65
(g86
g67
NtRp380
(dp381
g70
(dp382
g90
g91
ssg79
g376
sg72
(lp383
S'path'
p384
asbag65
(g86
g67
NtRp385
(dp386
g70
(dp387
g97
g98
ssg79
g376
sg72
(lp388
S':'
asbag65
(g86
g67
NtRp389
(dp390
g70
(dp391
sg79
g376
sg72
(lp392
g65
(g66
g67
NtRp393
(dp394
g70
(dp395
g78
I3
ssg79
g389
sg72
(lp396
S''
asbasbasbag65
(g81
g67
NtRp397
(dp398
g70
(dp399
sg79
g267
sg72
(lp400
g65
(g86
g67
NtRp401
(dp402
g70
(dp403
g90
g91
ssg79
g397
sg72
(lp404
S'secure'
p405
asbag65
(g86
g67
NtRp406
(dp407
g70
(dp408
g97
g98
ssg79
g397
sg72
(lp409
S':'
asbag65
(g86
g67
NtRp410
(dp411
g70
(dp412
sg79
g397
sg72
(lp413
g65
(g66
g67
NtRp414
(dp415
g70
(dp416
g78
I3
ssg79
g410
sg72
(lp417
S''
asbasbasbag65
(g81
g67
NtRp418
(dp419
g70
(dp420
sg79
g267
sg72
(lp421
g65
(g86
g67
NtRp422
(dp423
g70
(dp424
g90
g91
ssg79
g418
sg72
(lp425
S'version'
p426
asbag65
(g86
g67
NtRp427
(dp428
g70
(dp429
g97
g98
ssg79
g418
sg72
(lp430
S':'
asbag65
(g86
g67
NtRp431
(dp432
g70
(dp433
sg79
g418
sg72
(lp434
g65
(g66
g67
NtRp435
(dp436
g70
(dp437
g78
I3
ssg79
g431
sg72
(lp438
S''
asbasbasbasbasbasbasbag65
(g81
g67
NtRp439
(dp440
g70
(dp441
sg79
g242
sg72
(lp442
g65
(g86
g67
NtRp443
(dp444
g70
(dp445
g90
g91
ssg79
g439
sg72
(lp446
S'session_id_mycrawler'
p447
asbag65
(g86
g67
NtRp448
(dp449
g70
(dp450
g97
g98
ssg79
g439
sg72
(lp451
S':'
asbag65
(g86
g67
NtRp452
(dp453
g70
(dp454
sg79
g439
sg72
(lp455
g65
(g66
g67
NtRp456
(dp457
g70
(dp458
g78
I4
ssg79
g452
sg72
(lp459
g65
(g74
g67
NtRp460
(dp461
g70
(dp462
g78
I3
ssg79
Nsg72
(lp463
g65
(g81
g67
NtRp464
(dp465
g70
(dp466
sg79
g460
sg72
(lp467
g65
(g86
g67
NtRp468
(dp469
g70
(dp470
g90
g91
ssg79
g464
sg72
(lp471
g279
asbag65
(g86
g67
NtRp472
(dp473
g70
(dp474
g97
g98
ssg79
g464
sg72
(lp475
S':'
asbag65
(g86
g67
NtRp476
(dp477
g70
(dp478
sg79
g464
sg72
(lp479
g65
(g66
g67
NtRp480
(dp481
g70
(dp482
g78
I3
ssg79
g476
sg72
(lp483
S''
asbasbasbag65
(g81
g67
NtRp484
(dp485
g70
(dp486
sg79
g460
sg72
(lp487
g65
(g86
g67
NtRp488
(dp489
g70
(dp490
g90
g91
ssg79
g484
sg72
(lp491
g300
asbag65
(g86
g67
NtRp492
(dp493
g70
(dp494
g97
g98
ssg79
g484
sg72
(lp495
S':'
asbag65
(g86
g67
NtRp496
(dp497
g70
(dp498
sg79
g484
sg72
(lp499
g65
(g66
g67
NtRp500
(dp501
g70
(dp502
g78
I3
ssg79
g496
sg72
(lp503
S''
asbasbasbag65
(g81
g67
NtRp504
(dp505
g70
(dp506
sg79
g460
sg72
(lp507
g65
(g86
g67
NtRp508
(dp509
g70
(dp510
g90
g91
ssg79
g504
sg72
(lp511
g321
asbag65
(g86
g67
NtRp512
(dp513
g70
(dp514
g97
g98
ssg79
g504
sg72
(lp515
S':'
asbag65
(g86
g67
NtRp516
(dp517
g70
(dp518
sg79
g504
sg72
(lp519
g65
(g66
g67
NtRp520
(dp521
g70
(dp522
g78
I3
ssg79
g516
sg72
(lp523
S''
asbasbasbag65
(g81
g67
NtRp524
(dp525
g70
(dp526
sg79
g460
sg72
(lp527
g65
(g86
g67
NtRp528
(dp529
g70
(dp530
g90
g91
ssg79
g524
sg72
(lp531
g342
asbag65
(g86
g67
NtRp532
(dp533
g70
(dp534
g97
g98
ssg79
g524
sg72
(lp535
S':'
asbag65
(g86
g67
NtRp536
(dp537
g70
(dp538
sg79
g524
sg72
(lp539
g65
(g66
g67
NtRp540
(dp541
g70
(dp542
g78
I3
ssg79
g536
sg72
(lp543
S''
asbasbasbag65
(g81
g67
NtRp544
(dp545
g70
(dp546
sg79
g460
sg72
(lp547
g65
(g86
g67
NtRp548
(dp549
g70
(dp550
g90
g91
ssg79
g544
sg72
(lp551
g363
asbag65
(g86
g67
NtRp552
(dp553
g70
(dp554
g97
g98
ssg79
g544
sg72
(lp555
S':'
asbag65
(g86
g67
NtRp556
(dp557
g70
(dp558
sg79
g544
sg72
(lp559
g65
(g66
g67
NtRp560
(dp561
g70
(dp562
g78
I3
ssg79
g556
sg72
(lp563
S''
asbasbasbag65
(g81
g67
NtRp564
(dp565
g70
(dp566
sg79
g460
sg72
(lp567
g65
(g86
g67
NtRp568
(dp569
g70
(dp570
g90
g91
ssg79
g564
sg72
(lp571
g384
asbag65
(g86
g67
NtRp572
(dp573
g70
(dp574
g97
g98
ssg79
g564
sg72
(lp575
S':'
asbag65
(g86
g67
NtRp576
(dp577
g70
(dp578
sg79
g564
sg72
(lp579
g65
(g66
g67
NtRp580
(dp581
g70
(dp582
g78
I3
ssg79
g576
sg72
(lp583
S''
asbasbasbag65
(g81
g67
NtRp584
(dp585
g70
(dp586
sg79
g460
sg72
(lp587
g65
(g86
g67
NtRp588
(dp589
g70
(dp590
g90
g91
ssg79
g584
sg72
(lp591
g405
asbag65
(g86
g67
NtRp592
(dp593
g70
(dp594
g97
g98
ssg79
g584
sg72
(lp595
S':'
asbag65
(g86
g67
NtRp596
(dp597
g70
(dp598
sg79
g584
sg72
(lp599
g65
(g66
g67
NtRp600
(dp601
g70
(dp602
g78
I3
ssg79
g596
sg72
(lp603
S''
asbasbasbag65
(g81
g67
NtRp604
(dp605
g70
(dp606
sg79
g460
sg72
(lp607
g65
(g86
g67
NtRp608
(dp609
g70
(dp610
g90
g91
ssg79
g604
sg72
(lp611
g426
asbag65
(g86
g67
NtRp612
(dp613
g70
(dp614
g97
g98
ssg79
g604
sg72
(lp615
S':'
asbag65
(g86
g67
NtRp616
(dp617
g70
(dp618
sg79
g604
sg72
(lp619
g65
(g66
g67
NtRp620
(dp621
g70
(dp622
g78
I3
ssg79
g616
sg72
(lp623
S''
asbasbasbasbasbasbasbag65
(g81
g67
NtRp624
(dp625
g70
(dp626
sg79
g242
sg72
(lp627
g65
(g86
g67
NtRp628
(dp629
g70
(dp630
g90
g91
ssg79
g624
sg72
(lp631
S'session_id_welcome'
p632
asbag65
(g86
g67
NtRp633
(dp634
g70
(dp635
g97
g98
ssg79
g624
sg72
(lp636
S':'
asbag65
(g86
g67
NtRp637
(dp638
g70
(dp639
sg79
g624
sg72
(lp640
g65
(g66
g67
NtRp641
(dp642
g70
(dp643
g78
I4
ssg79
g637
sg72
(lp644
g65
(g74
g67
NtRp645
(dp646
g70
(dp647
g78
I3
ssg79
Nsg72
(lp648
g65
(g81
g67
NtRp649
(dp650
g70
(dp651
sg79
g645
sg72
(lp652
g65
(g86
g67
NtRp653
(dp654
g70
(dp655
g90
g91
ssg79
g649
sg72
(lp656
g279
asbag65
(g86
g67
NtRp657
(dp658
g70
(dp659
g97
g98
ssg79
g649
sg72
(lp660
S':'
asbag65
(g86
g67
NtRp661
(dp662
g70
(dp663
sg79
g649
sg72
(lp664
g65
(g66
g67
NtRp665
(dp666
g70
(dp667
g78
I3
ssg79
g661
sg72
(lp668
S''
asbasbasbag65
(g81
g67
NtRp669
(dp670
g70
(dp671
sg79
g645
sg72
(lp672
g65
(g86
g67
NtRp673
(dp674
g70
(dp675
g90
g91
ssg79
g669
sg72
(lp676
g300
asbag65
(g86
g67
NtRp677
(dp678
g70
(dp679
g97
g98
ssg79
g669
sg72
(lp680
S':'
asbag65
(g86
g67
NtRp681
(dp682
g70
(dp683
sg79
g669
sg72
(lp684
g65
(g66
g67
NtRp685
(dp686
g70
(dp687
g78
I3
ssg79
g681
sg72
(lp688
S''
asbasbasbag65
(g81
g67
NtRp689
(dp690
g70
(dp691
sg79
g645
sg72
(lp692
g65
(g86
g67
NtRp693
(dp694
g70
(dp695
g90
g91
ssg79
g689
sg72
(lp696
g321
asbag65
(g86
g67
NtRp697
(dp698
g70
(dp699
g97
g98
ssg79
g689
sg72
(lp700
S':'
asbag65
(g86
g67
NtRp701
(dp702
g70
(dp703
sg79
g689
sg72
(lp704
g65
(g66
g67
NtRp705
(dp706
g70
(dp707
g78
I3
ssg79
g701
sg72
(lp708
S''
asbasbasbag65
(g81
g67
NtRp709
(dp710
g70
(dp711
sg79
g645
sg72
(lp712
g65
(g86
g67
NtRp713
(dp714
g70
(dp715
g90
g91
ssg79
g709
sg72
(lp716
g342
asbag65
(g86
g67
NtRp717
(dp718
g70
(dp719
g97
g98
ssg79
g709
sg72
(lp720
S':'
asbag65
(g86
g67
NtRp721
(dp722
g70
(dp723
sg79
g709
sg72
(lp724
g65
(g66
g67
NtRp725
(dp726
g70
(dp727
g78
I3
ssg79
g721
sg72
(lp728
S''
asbasbasbag65
(g81
g67
NtRp729
(dp730
g70
(dp731
sg79
g645
sg72
(lp732
g65
(g86
g67
NtRp733
(dp734
g70
(dp735
g90
g91
ssg79
g729
sg72
(lp736
g363
asbag65
(g86
g67
NtRp737
(dp738
g70
(dp739
g97
g98
ssg79
g729
sg72
(lp740
S':'
asbag65
(g86
g67
NtRp741
(dp742
g70
(dp743
sg79
g729
sg72
(lp744
g65
(g66
g67
NtRp745
(dp746
g70
(dp747
g78
I3
ssg79
g741
sg72
(lp748
S''
asbasbasbag65
(g81
g67
NtRp749
(dp750
g70
(dp751
sg79
g645
sg72
(lp752
g65
(g86
g67
NtRp753
(dp754
g70
(dp755
g90
g91
ssg79
g749
sg72
(lp756
g384
asbag65
(g86
g67
NtRp757
(dp758
g70
(dp759
g97
g98
ssg79
g749
sg72
(lp760
S':'
asbag65
(g86
g67
NtRp761
(dp762
g70
(dp763
sg79
g749
sg72
(lp764
g65
(g66
g67
NtRp765
(dp766
g70
(dp767
g78
I3
ssg79
g761
sg72
(lp768
S''
asbasbasbag65
(g81
g67
NtRp769
(dp770
g70
(dp771
sg79
g645
sg72
(lp772
g65
(g86
g67
NtRp773
(dp774
g70
(dp775
g90
g91
ssg79
g769
sg72
(lp776
g405
asbag65
(g86
g67
NtRp777
(dp778
g70
(dp779
g97
g98
ssg79
g769
sg72
(lp780
S':'
asbag65
(g86
g67
NtRp781
(dp782
g70
(dp783
sg79
g769
sg72
(lp784
g65
(g66
g67
NtRp785
(dp786
g70
(dp787
g78
I3
ssg79
g781
sg72
(lp788
S''
asbasbasbag65
(g81
g67
NtRp789
(dp790
g70
(dp791
sg79
g645
sg72
(lp792
g65
(g86
g67
NtRp793
(dp794
g70
(dp795
g90
g91
ssg79
g789
sg72
(lp796
g426
asbag65
(g86
g67
NtRp797
(dp798
g70
(dp799
g97
g98
ssg79
g789
sg72
(lp800
S':'
asbag65
(g86
g67
NtRp801
(dp802
g70
(dp803
sg79
g789
sg72
(lp804
g65
(g66
g67
NtRp805
(dp806
g70
(dp807
g78
I3
ssg79
g801
sg72
(lp808
S''
asbasbasbasbasbasbasbasbasbasbasbag65
(g81
g67
NtRp809
(dp810
g70
(dp811
sg79
g75
sg72
(lp812
g65
(g86
g67
NtRp813
(dp814
g70
(dp815
g90
g91
ssg79
g809
sg72
(lp816
S'env'
p817
asbag65
(g86
g67
NtRp818
(dp819
g70
(dp820
g97
g98
ssg79
g809
sg72
(lp821
S':'
asbag65
(g86
g67
NtRp822
(dp823
g70
(dp824
sg79
g809
sg72
(lp825
g65
(g66
g67
NtRp826
(dp827
g70
(dp828
g78
I5
ssg79
g822
sg72
(lp829
g65
(g74
g67
NtRp830
(dp831
g70
(dp832
g78
I4
ssg79
Nsg72
(lp833
g65
(g81
g67
NtRp834
(dp835
g70
(dp836
sg79
g830
sg72
(lp837
g65
(g86
g67
NtRp838
(dp839
g70
(dp840
g90
g91
ssg79
g834
sg72
(lp841
S'app_folders'
p842
asbag65
(g86
g67
NtRp843
(dp844
g70
(dp845
g97
g98
ssg79
g834
sg72
(lp846
S':'
asbag65
(g86
g67
NtRp847
(dp848
g70
(dp849
sg79
g834
sg72
(lp850
g65
(g66
g67
NtRp851
(dp852
g70
(dp853
g78
I4
ssg79
g847
sg72
(lp854
S"set(['C:\\\\Documents and Settings\\\\agrover\\\\Desktop\\\\previous crawler\\\\web2py\\\\applications\\\\admin\\\\', 'C:\\\\Documents and Settings\\\\agrover\\\\Desktop\\\\previous crawler\\\\web2py\\\\applications\\\\mycrawler\\\\', 'C:\\\\Documents and Settings\\\\agrover\\\\Desktop\\\\previous crawler\\\\web2py\\\\applications\\\\welcome\\\\'])"
p855
asbasbasbag65
(g81
g67
NtRp856
(dp857
g70
(dp858
sg79
g830
sg72
(lp859
g65
(g86
g67
NtRp860
(dp861
g70
(dp862
g90
g91
ssg79
g856
sg72
(lp863
S'applications_parent'
p864
asbag65
(g86
g67
NtRp865
(dp866
g70
(dp867
g97
g98
ssg79
g856
sg72
(lp868
S':'
asbag65
(g86
g67
NtRp869
(dp870
g70
(dp871
sg79
g856
sg72
(lp872
g65
(g66
g67
NtRp873
(dp874
g70
(dp875
g78
I4
ssg79
g869
sg72
(lp876
S'C:\\Documents and Settings\\agrover\\Desktop\\previous crawler\\web2py'
p877
asbasbasbag65
(g81
g67
NtRp878
(dp879
g70
(dp880
sg79
g830
sg72
(lp881
g65
(g86
g67
NtRp882
(dp883
g70
(dp884
g90
g91
ssg79
g878
sg72
(lp885
S'cmd_args'
p886
asbag65
(g86
g67
NtRp887
(dp888
g70
(dp889
g97
g98
ssg79
g878
sg72
(lp890
S':'
asbag65
(g86
g67
NtRp891
(dp892
g70
(dp893
sg79
g878
sg72
(lp894
g65
(g66
g67
NtRp895
(dp896
g70
(dp897
g78
I4
ssg79
g891
sg72
(lp898
g65
(g74
g67
NtRp899
(dp900
g70
(dp901
g78
I3
ssg79
Nsg72
(lp902
sbasbasbasbag65
(g81
g67
NtRp903
(dp904
g70
(dp905
sg79
g830
sg72
(lp906
g65
(g86
g67
NtRp907
(dp908
g70
(dp909
g90
g91
ssg79
g903
sg72
(lp910
S'cmd_options'
p911
asbag65
(g86
g67
NtRp912
(dp913
g70
(dp914
g97
g98
ssg79
g903
sg72
(lp915
S':'
asbag65
(g86
g67
NtRp916
(dp917
g70
(dp918
sg79
g903
sg72
(lp919
g65
(g66
g67
NtRp920
(dp921
g70
(dp922
g78
I4
ssg79
g916
sg72
(lp923
S"<Values at 0x16d73f0: {'verbose': False, 'ip': '127.0.0.1', 'shutdown_timeout': 5, 'taskbar': False, 'nocron': False, 'pid_filename': 'httpserver.pid', 'maxthreads': None, 'softcron': False, 'server_name': 'mniagrover', 'bpython': False, 'nogui': False, 'port': 8000, 'extcron': False, 'debuglevel': 30, 'test': None, 'folder': 'C:\\\\Documents and Settings\\\\agrover\\\\Desktop\\\\previous crawler\\\\web2py', 'config': '', 'import_models': False, 'winservice': '', 'shell': None, 'run': '', 'log_filename': 'httpserver.log', 'args': [''], 'socket_timeout': 5, 'ssl_ca_certificate': None, 'scheduler': None, 'profiler_filename': None, 'ssl_private_key': '', 'password': '<ask>', 'request_queue_size': 5, 'ssl_certificate': '', 'cronjob': False, 'numthreads': None, 'quiet': False, 'interfaces': None, 'minthreads': None, 'timeout': 10, 'plain': False, 'nobanner': False}>"
p924
asbasbasbag65
(g81
g67
NtRp925
(dp926
g70
(dp927
sg79
g830
sg72
(lp928
g65
(g86
g67
NtRp929
(dp930
g70
(dp931
g90
g91
ssg79
g925
sg72
(lp932
S'db_sessions'
p933
asbag65
(g86
g67
NtRp934
(dp935
g70
(dp936
g97
g98
ssg79
g925
sg72
(lp937
S':'
asbag65
(g86
g67
NtRp938
(dp939
g70
(dp940
sg79
g925
sg72
(lp941
g65
(g66
g67
NtRp942
(dp943
g70
(dp944
g78
I4
ssg79
g938
sg72
(lp945
S'set([])'
p946
asbasbasbag65
(g81
g67
NtRp947
(dp948
g70
(dp949
sg79
g830
sg72
(lp950
g65
(g86
g67
NtRp951
(dp952
g70
(dp953
g90
g91
ssg79
g947
sg72
(lp954
S'debugging'
p955
asbag65
(g86
g67
NtRp956
(dp957
g70
(dp958
g97
g98
ssg79
g947
sg72
(lp959
S':'
asbag65
(g86
g67
NtRp960
(dp961
g70
(dp962
sg79
g947
sg72
(lp963
g65
(g66
g67
NtRp964
(dp965
g70
(dp966
g78
I4
ssg79
g960
sg72
(lp967
g108
asbasbasbag65
(g81
g67
NtRp968
(dp969
g70
(dp970
sg79
g830
sg72
(lp971
g65
(g86
g67
NtRp972
(dp973
g70
(dp974
g90
g91
ssg79
g968
sg72
(lp975
S'gluon_parent'
p976
asbag65
(g86
g67
NtRp977
(dp978
g70
(dp979
g97
g98
ssg79
g968
sg72
(lp980
S':'
asbag65
(g86
g67
NtRp981
(dp982
g70
(dp983
sg79
g968
sg72
(lp984
g65
(g66
g67
NtRp985
(dp986
g70
(dp987
g78
I4
ssg79
g981
sg72
(lp988
S'C:\\Documents and Settings\\agrover\\Desktop\\previous crawler\\web2py'
p989
asbasbasbag65
(g81
g67
NtRp990
(dp991
g70
(dp992
sg79
g830
sg72
(lp993
g65
(g86
g67
NtRp994
(dp995
g70
(dp996
g90
g91
ssg79
g990
sg72
(lp997
S'http_accept'
p998
asbag65
(g86
g67
NtRp999
(dp1000
g70
(dp1001
g97
g98
ssg79
g990
sg72
(lp1002
S':'
asbag65
(g86
g67
NtRp1003
(dp1004
g70
(dp1005
sg79
g990
sg72
(lp1006
g65
(g66
g67
NtRp1007
(dp1008
g70
(dp1009
g78
I4
ssg79
g1003
sg72
(lp1010
S'text/html,application/xhtml+xml,application/xml;q=0.9,*/*;q=0.8'
p1011
asbasbasbag65
(g81
g67
NtRp1012
(dp1013
g70
(dp1014
sg79
g830
sg72
(lp1015
g65
(g86
g67
NtRp1016
(dp1017
g70
(dp1018
g90
g91
ssg79
g1012
sg72
(lp1019
S'http_accept_encoding'
p1020
asbag65
(g86
g67
NtRp1021
(dp1022
g70
(dp1023
g97
g98
ssg79
g1012
sg72
(lp1024
S':'
asbag65
(g86
g67
NtRp1025
(dp1026
g70
(dp1027
sg79
g1012
sg72
(lp1028
g65
(g66
g67
NtRp1029
(dp1030
g70
(dp1031
g78
I4
ssg79
g1025
sg72
(lp1032
S'gzip, deflate'
p1033
asbasbasbag65
(g81
g67
NtRp1034
(dp1035
g70
(dp1036
sg79
g830
sg72
(lp1037
g65
(g86
g67
NtRp1038
(dp1039
g70
(dp1040
g90
g91
ssg79
g1034
sg72
(lp1041
S'http_accept_language'
p1042
asbag65
(g86
g67
NtRp1043
(dp1044
g70
(dp1045
g97
g98
ssg79
g1034
sg72
(lp1046
S':'
asbag65
(g86
g67
NtRp1047
(dp1048
g70
(dp1049
sg79
g1034
sg72
(lp1050
g65
(g66
g67
NtRp1051
(dp1052
g70
(dp1053
g78
I4
ssg79
g1047
sg72
(lp1054
S'en-us,en;q=0.5'
p1055
asbasbasbag65
(g81
g67
NtRp1056
(dp1057
g70
(dp1058
sg79
g830
sg72
(lp1059
g65
(g86
g67
NtRp1060
(dp1061
g70
(dp1062
g90
g91
ssg79
g1056
sg72
(lp1063
S'http_cache_control'
p1064
asbag65
(g86
g67
NtRp1065
(dp1066
g70
(dp1067
g97
g98
ssg79
g1056
sg72
(lp1068
S':'
asbag65
(g86
g67
NtRp1069
(dp1070
g70
(dp1071
sg79
g1056
sg72
(lp1072
g65
(g66
g67
NtRp1073
(dp1074
g70
(dp1075
g78
I4
ssg79
g1069
sg72
(lp1076
S'max-age=0'
p1077
asbasbasbag65
(g81
g67
NtRp1078
(dp1079
g70
(dp1080
sg79
g830
sg72
(lp1081
g65
(g86
g67
NtRp1082
(dp1083
g70
(dp1084
g90
g91
ssg79
g1078
sg72
(lp1085
S'http_connection'
p1086
asbag65
(g86
g67
NtRp1087
(dp1088
g70
(dp1089
g97
g98
ssg79
g1078
sg72
(lp1090
S':'
asbag65
(g86
g67
NtRp1091
(dp1092
g70
(dp1093
sg79
g1078
sg72
(lp1094
g65
(g66
g67
NtRp1095
(dp1096
g70
(dp1097
g78
I4
ssg79
g1091
sg72
(lp1098
S'keep-alive'
p1099
asbasbasbag65
(g81
g67
NtRp1100
(dp1101
g70
(dp1102
sg79
g830
sg72
(lp1103
g65
(g86
g67
NtRp1104
(dp1105
g70
(dp1106
g90
g91
ssg79
g1100
sg72
(lp1107
S'http_cookie'
p1108
asbag65
(g86
g67
NtRp1109
(dp1110
g70
(dp1111
g97
g98
ssg79
g1100
sg72
(lp1112
S':'
asbag65
(g86
g67
NtRp1113
(dp1114
g70
(dp1115
sg79
g1100
sg72
(lp1116
g65
(g66
g67
NtRp1117
(dp1118
g70
(dp1119
g78
I4
ssg79
g1113
sg72
(lp1120
S'session_id_welcome=127.0.0.1-45d7a5cf-b9f9-4413-8f39-705386d53da8; session_id_admin=127.0.0.1-ca5d0997-9e0b-410c-a047-033f4f615d84; session_id_mycrawler=127.0.0.1-2770ef8a-3056-4fd8-9016-5cf5e194a093'
p1121
asbasbasbag65
(g81
g67
NtRp1122
(dp1123
g70
(dp1124
sg79
g830
sg72
(lp1125
g65
(g86
g67
NtRp1126
(dp1127
g70
(dp1128
g90
g91
ssg79
g1122
sg72
(lp1129
S'http_host'
p1130
asbag65
(g86
g67
NtRp1131
(dp1132
g70
(dp1133
g97
g98
ssg79
g1122
sg72
(lp1134
S':'
asbag65
(g86
g67
NtRp1135
(dp1136
g70
(dp1137
sg79
g1122
sg72
(lp1138
g65
(g66
g67
NtRp1139
(dp1140
g70
(dp1141
g78
I4
ssg79
g1135
sg72
(lp1142
S'127.0.0.1:8000'
p1143
asbasbasbag65
(g81
g67
NtRp1144
(dp1145
g70
(dp1146
sg79
g830
sg72
(lp1147
g65
(g86
g67
NtRp1148
(dp1149
g70
(dp1150
g90
g91
ssg79
g1144
sg72
(lp1151
S'http_referer'
p1152
asbag65
(g86
g67
NtRp1153
(dp1154
g70
(dp1155
g97
g98
ssg79
g1144
sg72
(lp1156
S':'
asbag65
(g86
g67
NtRp1157
(dp1158
g70
(dp1159
sg79
g1144
sg72
(lp1160
g65
(g66
g67
NtRp1161
(dp1162
g70
(dp1163
g78
I4
ssg79
g1157
sg72
(lp1164
S'http://127.0.0.1:8000/mycrawler/default/enter_info'
p1165
asbasbasbag65
(g81
g67
NtRp1166
(dp1167
g70
(dp1168
sg79
g830
sg72
(lp1169
g65
(g86
g67
NtRp1170
(dp1171
g70
(dp1172
g90
g91
ssg79
g1166
sg72
(lp1173
S'http_user_agent'
p1174
asbag65
(g86
g67
NtRp1175
(dp1176
g70
(dp1177
g97
g98
ssg79
g1166
sg72
(lp1178
S':'
asbag65
(g86
g67
NtRp1179
(dp1180
g70
(dp1181
sg79
g1166
sg72
(lp1182
g65
(g66
g67
NtRp1183
(dp1184
g70
(dp1185
g78
I4
ssg79
g1179
sg72
(lp1186
S'Mozilla/5.0 (Windows NT 5.1; rv:12.0) Gecko/20100101 Firefox/12.0'
p1187
asbasbasbag65
(g81
g67
NtRp1188
(dp1189
g70
(dp1190
sg79
g830
sg72
(lp1191
g65
(g86
g67
NtRp1192
(dp1193
g70
(dp1194
g90
g91
ssg79
g1188
sg72
(lp1195
S'is_jython'
p1196
asbag65
(g86
g67
NtRp1197
(dp1198
g70
(dp1199
g97
g98
ssg79
g1188
sg72
(lp1200
S':'
asbag65
(g86
g67
NtRp1201
(dp1202
g70
(dp1203
sg79
g1188
sg72
(lp1204
g65
(g66
g67
NtRp1205
(dp1206
g70
(dp1207
g78
I4
ssg79
g1201
sg72
(lp1208
g108
asbasbasbag65
(g81
g67
NtRp1209
(dp1210
g70
(dp1211
sg79
g830
sg72
(lp1212
g65
(g86
g67
NtRp1213
(dp1214
g70
(dp1215
g90
g91
ssg79
g1209
sg72
(lp1216
S'is_pypy'
p1217
asbag65
(g86
g67
NtRp1218
(dp1219
g70
(dp1220
g97
g98
ssg79
g1209
sg72
(lp1221
S':'
asbag65
(g86
g67
NtRp1222
(dp1223
g70
(dp1224
sg79
g1209
sg72
(lp1225
g65
(g66
g67
NtRp1226
(dp1227
g70
(dp1228
g78
I4
ssg79
g1222
sg72
(lp1229
g108
asbasbasbag65
(g81
g67
NtRp1230
(dp1231
g70
(dp1232
sg79
g830
sg72
(lp1233
g65
(g86
g67
NtRp1234
(dp1235
g70
(dp1236
g90
g91
ssg79
g1230
sg72
(lp1237
S'path_info'
p1238
asbag65
(g86
g67
NtRp1239
(dp1240
g70
(dp1241
g97
g98
ssg79
g1230
sg72
(lp1242
S':'
asbag65
(g86
g67
NtRp1243
(dp1244
g70
(dp1245
sg79
g1230
sg72
(lp1246
g65
(g66
g67
NtRp1247
(dp1248
g70
(dp1249
g78
I4
ssg79
g1243
sg72
(lp1250
S'/mycrawler/default/search'
p1251
asbasbasbag65
(g81
g67
NtRp1252
(dp1253
g70
(dp1254
sg79
g830
sg72
(lp1255
g65
(g86
g67
NtRp1256
(dp1257
g70
(dp1258
g90
g91
ssg79
g1252
sg72
(lp1259
S'query_string'
p1260
asbag65
(g86
g67
NtRp1261
(dp1262
g70
(dp1263
g97
g98
ssg79
g1252
sg72
(lp1264
S':'
asbag65
(g86
g67
NtRp1265
(dp1266
g70
(dp1267
sg79
g1252
sg72
(lp1268
g65
(g66
g67
NtRp1269
(dp1270
g70
(dp1271
g78
I4
ssg79
g1265
sg72
(lp1272
S'Company=&Country=India&File_Name=ab&First_Name=Sam&Functions=All+Functions&Industry=All+Industries&Keywords=&Last_Name=&School=&Seniority_Levels=All+Seniority+Levels&Title=&_formkey=f1234294-8afc-4c05-82d3-afda2cf68e12&_formname=no_table%2Fcreate'
p1273
asbasbasbag65
(g81
g67
NtRp1274
(dp1275
g70
(dp1276
sg79
g830
sg72
(lp1277
g65
(g86
g67
NtRp1278
(dp1279
g70
(dp1280
g90
g91
ssg79
g1274
sg72
(lp1281
S'remote_addr'
p1282
asbag65
(g86
g67
NtRp1283
(dp1284
g70
(dp1285
g97
g98
ssg79
g1274
sg72
(lp1286
S':'
asbag65
(g86
g67
NtRp1287
(dp1288
g70
(dp1289
sg79
g1274
sg72
(lp1290
g65
(g66
g67
NtRp1291
(dp1292
g70
(dp1293
g78
I4
ssg79
g1287
sg72
(lp1294
g198
asbasbasbag65
(g81
g67
NtRp1295
(dp1296
g70
(dp1297
sg79
g830
sg72
(lp1298
g65
(g86
g67
NtRp1299
(dp1300
g70
(dp1301
g90
g91
ssg79
g1295
sg72
(lp1302
S'remote_port'
p1303
asbag65
(g86
g67
NtRp1304
(dp1305
g70
(dp1306
g97
g98
ssg79
g1295
sg72
(lp1307
S':'
asbag65
(g86
g67
NtRp1308
(dp1309
g70
(dp1310
sg79
g1295
sg72
(lp1311
g65
(g66
g67
NtRp1312
(dp1313
g70
(dp1314
g78
I4
ssg79
g1308
sg72
(lp1315
S'2038'
p1316
asbasbasbag65
(g81
g67
NtRp1317
(dp1318
g70
(dp1319
sg79
g830
sg72
(lp1320
g65
(g86
g67
NtRp1321
(dp1322
g70
(dp1323
g90
g91
ssg79
g1317
sg72
(lp1324
S'request_method'
p1325
asbag65
(g86
g67
NtRp1326
(dp1327
g70
(dp1328
g97
g98
ssg79
g1317
sg72
(lp1329
S':'
asbag65
(g86
g67
NtRp1330
(dp1331
g70
(dp1332
sg79
g1317
sg72
(lp1333
g65
(g66
g67
NtRp1334
(dp1335
g70
(dp1336
g78
I4
ssg79
g1330
sg72
(lp1337
S'GET'
p1338
asbasbasbag65
(g81
g67
NtRp1339
(dp1340
g70
(dp1341
sg79
g830
sg72
(lp1342
g65
(g86
g67
NtRp1343
(dp1344
g70
(dp1345
g90
g91
ssg79
g1339
sg72
(lp1346
S'script_name'
p1347
asbag65
(g86
g67
NtRp1348
(dp1349
g70
(dp1350
g97
g98
ssg79
g1339
sg72
(lp1351
S':'
asbag65
(g86
g67
NtRp1352
(dp1353
g70
(dp1354
sg79
g1339
sg72
(lp1355
g65
(g66
g67
NtRp1356
(dp1357
g70
(dp1358
g78
I4
ssg79
g1352
sg72
(lp1359
S''
asbasbasbag65
(g81
g67
NtRp1360
(dp1361
g70
(dp1362
sg79
g830
sg72
(lp1363
g65
(g86
g67
NtRp1364
(dp1365
g70
(dp1366
g90
g91
ssg79
g1360
sg72
(lp1367
S'server_name'
p1368
asbag65
(g86
g67
NtRp1369
(dp1370
g70
(dp1371
g97
g98
ssg79
g1360
sg72
(lp1372
S':'
asbag65
(g86
g67
NtRp1373
(dp1374
g70
(dp1375
sg79
g1360
sg72
(lp1376
g65
(g66
g67
NtRp1377
(dp1378
g70
(dp1379
g78
I4
ssg79
g1373
sg72
(lp1380
S'mniagrover'
p1381
asbasbasbag65
(g81
g67
NtRp1382
(dp1383
g70
(dp1384
sg79
g830
sg72
(lp1385
g65
(g86
g67
NtRp1386
(dp1387
g70
(dp1388
g90
g91
ssg79
g1382
sg72
(lp1389
S'server_port'
p1390
asbag65
(g86
g67
NtRp1391
(dp1392
g70
(dp1393
g97
g98
ssg79
g1382
sg72
(lp1394
S':'
asbag65
(g86
g67
NtRp1395
(dp1396
g70
(dp1397
sg79
g1382
sg72
(lp1398
g65
(g66
g67
NtRp1399
(dp1400
g70
(dp1401
g78
I4
ssg79
g1395
sg72
(lp1402
S'8000'
p1403
asbasbasbag65
(g81
g67
NtRp1404
(dp1405
g70
(dp1406
sg79
g830
sg72
(lp1407
g65
(g86
g67
NtRp1408
(dp1409
g70
(dp1410
g90
g91
ssg79
g1404
sg72
(lp1411
S'server_protocol'
p1412
asbag65
(g86
g67
NtRp1413
(dp1414
g70
(dp1415
g97
g98
ssg79
g1404
sg72
(lp1416
S':'
asbag65
(g86
g67
NtRp1417
(dp1418
g70
(dp1419
sg79
g1404
sg72
(lp1420
g65
(g66
g67
NtRp1421
(dp1422
g70
(dp1423
g78
I4
ssg79
g1417
sg72
(lp1424
S'HTTP/1.1'
p1425
asbasbasbag65
(g81
g67
NtRp1426
(dp1427
g70
(dp1428
sg79
g830
sg72
(lp1429
g65
(g86
g67
NtRp1430
(dp1431
g70
(dp1432
g90
g91
ssg79
g1426
sg72
(lp1433
S'server_software'
p1434
asbag65
(g86
g67
NtRp1435
(dp1436
g70
(dp1437
g97
g98
ssg79
g1426
sg72
(lp1438
S':'
asbag65
(g86
g67
NtRp1439
(dp1440
g70
(dp1441
sg79
g1426
sg72
(lp1442
g65
(g66
g67
NtRp1443
(dp1444
g70
(dp1445
g78
I4
ssg79
g1439
sg72
(lp1446
S'Rocket 1.2.4'
p1447
asbasbasbag65
(g81
g67
NtRp1448
(dp1449
g70
(dp1450
sg79
g830
sg72
(lp1451
g65
(g86
g67
NtRp1452
(dp1453
g70
(dp1454
g90
g91
ssg79
g1448
sg72
(lp1455
S'web2py_crontype'
p1456
asbag65
(g86
g67
NtRp1457
(dp1458
g70
(dp1459
g97
g98
ssg79
g1448
sg72
(lp1460
S':'
asbag65
(g86
g67
NtRp1461
(dp1462
g70
(dp1463
sg79
g1448
sg72
(lp1464
g65
(g66
g67
NtRp1465
(dp1466
g70
(dp1467
g78
I4
ssg79
g1461
sg72
(lp1468
S'hard'
p1469
asbasbasbag65
(g81
g67
NtRp1470
(dp1471
g70
(dp1472
sg79
g830
sg72
(lp1473
g65
(g86
g67
NtRp1474
(dp1475
g70
(dp1476
g90
g91
ssg79
g1470
sg72
(lp1477
S'web2py_path'
p1478
asbag65
(g86
g67
NtRp1479
(dp1480
g70
(dp1481
g97
g98
ssg79
g1470
sg72
(lp1482
S':'
asbag65
(g86
g67
NtRp1483
(dp1484
g70
(dp1485
sg79
g1470
sg72
(lp1486
g65
(g66
g67
NtRp1487
(dp1488
g70
(dp1489
g78
I4
ssg79
g1483
sg72
(lp1490
g877
asbasbasbag65
(g81
g67
NtRp1491
(dp1492
g70
(dp1493
sg79
g830
sg72
(lp1494
g65
(g86
g67
NtRp1495
(dp1496
g70
(dp1497
g90
g91
ssg79
g1491
sg72
(lp1498
S'web2py_version'
p1499
asbag65
(g86
g67
NtRp1500
(dp1501
g70
(dp1502
g97
g98
ssg79
g1491
sg72
(lp1503
S':'
asbag65
(g86
g67
NtRp1504
(dp1505
g70
(dp1506
sg79
g1491
sg72
(lp1507
g65
(g66
g67
NtRp1508
(dp1509
g70
(dp1510
g78
I4
ssg79
g1504
sg72
(lp1511
g65
(g74
g67
NtRp1512
(dp1513
g70
(dp1514
g78
I3
ssg79
Nsg72
(lp1515
g65
(g81
g67
NtRp1516
(dp1517
g70
(dp1518
sg79
g1512
sg72
(lp1519
g65
(g86
g67
NtRp1520
(dp1521
g70
(dp1522
sg79
g1516
sg72
(lp1523
g65
(g66
g67
NtRp1524
(dp1525
g70
(dp1526
g78
I3
ssg79
g1520
sg72
(lp1527
S'1'
asbasbasbag65
(g81
g67
NtRp1528
(dp1529
g70
(dp1530
sg79
g1512
sg72
(lp1531
g65
(g86
g67
NtRp1532
(dp1533
g70
(dp1534
sg79
g1528
sg72
(lp1535
g65
(g66
g67
NtRp1536
(dp1537
g70
(dp1538
g78
I3
ssg79
g1532
sg72
(lp1539
S'99'
p1540
asbasbasbag65
(g81
g67
NtRp1541
(dp1542
g70
(dp1543
sg79
g1512
sg72
(lp1544
g65
(g86
g67
NtRp1545
(dp1546
g70
(dp1547
sg79
g1541
sg72
(lp1548
g65
(g66
g67
NtRp1549
(dp1550
g70
(dp1551
g78
I3
ssg79
g1545
sg72
(lp1552
S'7'
asbasbasbag65
(g81
g67
NtRp1553
(dp1554
g70
(dp1555
sg79
g1512
sg72
(lp1556
g65
(g86
g67
NtRp1557
(dp1558
g70
(dp1559
sg79
g1553
sg72
(lp1560
g65
(g66
g67
NtRp1561
(dp1562
g70
(dp1563
g78
I3
ssg79
g1557
sg72
(lp1564
S'datetime.datetime(2012, 3, 4, 22, 12, 8)'
p1565
asbasbasbag65
(g81
g67
NtRp1566
(dp1567
g70
(dp1568
sg79
g1512
sg72
(lp1569
g65
(g86
g67
NtRp1570
(dp1571
g70
(dp1572
sg79
g1566
sg72
(lp1573
g65
(g66
g67
NtRp1574
(dp1575
g70
(dp1576
g78
I3
ssg79
g1570
sg72
(lp1577
S'stable'
p1578
asbasbasbasbasbasbasbag65
(g81
g67
NtRp1579
(dp1580
g70
(dp1581
sg79
g830
sg72
(lp1582
g65
(g86
g67
NtRp1583
(dp1584
g70
(dp1585
g90
g91
ssg79
g1579
sg72
(lp1586
S'wsgi_errors'
p1587
asbag65
(g86
g67
NtRp1588
(dp1589
g70
(dp1590
g97
g98
ssg79
g1579
sg72
(lp1591
S':'
asbag65
(g86
g67
NtRp1592
(dp1593
g70
(dp1594
sg79
g1579
sg72
(lp1595
g65
(g66
g67
NtRp1596
(dp1597
g70
(dp1598
g78
I4
ssg79
g1592
sg72
(lp1599
S"<open file '<stderr>', mode 'w' at 0x00A550D0>"
p1600
asbasbasbag65
(g81
g67
NtRp1601
(dp1602
g70
(dp1603
sg79
g830
sg72
(lp1604
g65
(g86
g67
NtRp1605
(dp1606
g70
(dp1607
g90
g91
ssg79
g1601
sg72
(lp1608
S'wsgi_file_wrapper'
p1609
asbag65
(g86
g67
NtRp1610
(dp1611
g70
(dp1612
g97
g98
ssg79
g1601
sg72
(lp1613
S':'
asbag65
(g86
g67
NtRp1614
(dp1615
g70
(dp1616
sg79
g1601
sg72
(lp1617
g65
(g66
g67
NtRp1618
(dp1619
g70
(dp1620
g78
I4
ssg79
g1614
sg72
(lp1621
S'<class wsgiref.util.FileWrapper at 0x015E8AB0>'
p1622
asbasbasbag65
(g81
g67
NtRp1623
(dp1624
g70
(dp1625
sg79
g830
sg72
(lp1626
g65
(g86
g67
NtRp1627
(dp1628
g70
(dp1629
g90
g91
ssg79
g1623
sg72
(lp1630
S'wsgi_input'
p1631
asbag65
(g86
g67
NtRp1632
(dp1633
g70
(dp1634
g97
g98
ssg79
g1623
sg72
(lp1635
S':'
asbag65
(g86
g67
NtRp1636
(dp1637
g70
(dp1638
sg79
g1623
sg72
(lp1639
g65
(g66
g67
NtRp1640
(dp1641
g70
(dp1642
g78
I4
ssg79
g1636
sg72
(lp1643
S'<socket._fileobject object at 0x0602E770>'
p1644
asbasbasbag65
(g81
g67
NtRp1645
(dp1646
g70
(dp1647
sg79
g830
sg72
(lp1648
g65
(g86
g67
NtRp1649
(dp1650
g70
(dp1651
g90
g91
ssg79
g1645
sg72
(lp1652
S'wsgi_multiprocess'
p1653
asbag65
(g86
g67
NtRp1654
(dp1655
g70
(dp1656
g97
g98
ssg79
g1645
sg72
(lp1657
S':'
asbag65
(g86
g67
NtRp1658
(dp1659
g70
(dp1660
sg79
g1645
sg72
(lp1661
g65
(g66
g67
NtRp1662
(dp1663
g70
(dp1664
g78
I4
ssg79
g1658
sg72
(lp1665
g108
asbasbasbag65
(g81
g67
NtRp1666
(dp1667
g70
(dp1668
sg79
g830
sg72
(lp1669
g65
(g86
g67
NtRp1670
(dp1671
g70
(dp1672
g90
g91
ssg79
g1666
sg72
(lp1673
S'wsgi_multithread'
p1674
asbag65
(g86
g67
NtRp1675
(dp1676
g70
(dp1677
g97
g98
ssg79
g1666
sg72
(lp1678
S':'
asbag65
(g86
g67
NtRp1679
(dp1680
g70
(dp1681
sg79
g1666
sg72
(lp1682
g65
(g66
g67
NtRp1683
(dp1684
g70
(dp1685
g78
I4
ssg79
g1679
sg72
(lp1686
S'True'
p1687
asbasbasbag65
(g81
g67
NtRp1688
(dp1689
g70
(dp1690
sg79
g830
sg72
(lp1691
g65
(g86
g67
NtRp1692
(dp1693
g70
(dp1694
g90
g91
ssg79
g1688
sg72
(lp1695
S'wsgi_run_once'
p1696
asbag65
(g86
g67
NtRp1697
(dp1698
g70
(dp1699
g97
g98
ssg79
g1688
sg72
(lp1700
S':'
asbag65
(g86
g67
NtRp1701
(dp1702
g70
(dp1703
sg79
g1688
sg72
(lp1704
g65
(g66
g67
NtRp1705
(dp1706
g70
(dp1707
g78
I4
ssg79
g1701
sg72
(lp1708
g108
asbasbasbag65
(g81
g67
NtRp1709
(dp1710
g70
(dp1711
sg79
g830
sg72
(lp1712
g65
(g86
g67
NtRp1713
(dp1714
g70
(dp1715
g90
g91
ssg79
g1709
sg72
(lp1716
S'wsgi_url_scheme'
p1717
asbag65
(g86
g67
NtRp1718
(dp1719
g70
(dp1720
g97
g98
ssg79
g1709
sg72
(lp1721
S':'
asbag65
(g86
g67
NtRp1722
(dp1723
g70
(dp1724
sg79
g1709
sg72
(lp1725
g65
(g66
g67
NtRp1726
(dp1727
g70
(dp1728
g78
I4
ssg79
g1722
sg72
(lp1729
S'http'
p1730
asbasbasbag65
(g81
g67
NtRp1731
(dp1732
g70
(dp1733
sg79
g830
sg72
(lp1734
g65
(g86
g67
NtRp1735
(dp1736
g70
(dp1737
g90
g91
ssg79
g1731
sg72
(lp1738
S'wsgi_version'
p1739
asbag65
(g86
g67
NtRp1740
(dp1741
g70
(dp1742
g97
g98
ssg79
g1731
sg72
(lp1743
S':'
asbag65
(g86
g67
NtRp1744
(dp1745
g70
(dp1746
sg79
g1731
sg72
(lp1747
g65
(g66
g67
NtRp1748
(dp1749
g70
(dp1750
g78
I4
ssg79
g1744
sg72
(lp1751
g65
(g74
g67
NtRp1752
(dp1753
g70
(dp1754
g78
I3
ssg79
Nsg72
(lp1755
g65
(g81
g67
NtRp1756
(dp1757
g70
(dp1758
sg79
g1752
sg72
(lp1759
g65
(g86
g67
NtRp1760
(dp1761
g70
(dp1762
sg79
g1756
sg72
(lp1763
g65
(g66
g67
NtRp1764
(dp1765
g70
(dp1766
g78
I3
ssg79
g1760
sg72
(lp1767
S'1'
asbasbasbag65
(g81
g67
NtRp1768
(dp1769
g70
(dp1770
sg79
g1752
sg72
(lp1771
g65
(g86
g67
NtRp1772
(dp1773
g70
(dp1774
sg79
g1768
sg72
(lp1775
g65
(g66
g67
NtRp1776
(dp1777
g70
(dp1778
g78
I3
ssg79
g1772
sg72
(lp1779
S'0'
asbasbasbasbasbasbasbasbasbasbasbag65
(g81
g67
NtRp1780
(dp1781
g70
(dp1782
sg79
g75
sg72
(lp1783
g65
(g86
g67
NtRp1784
(dp1785
g70
(dp1786
g90
g91
ssg79
g1780
sg72
(lp1787
S'extension'
p1788
asbag65
(g86
g67
NtRp1789
(dp1790
g70
(dp1791
g97
g98
ssg79
g1780
sg72
(lp1792
S':'
asbag65
(g86
g67
NtRp1793
(dp1794
g70
(dp1795
sg79
g1780
sg72
(lp1796
g65
(g66
g67
NtRp1797
(dp1798
g70
(dp1799
g78
I5
ssg79
g1793
sg72
(lp1800
S'html'
p1801
asbasbasbag65
(g81
g67
NtRp1802
(dp1803
g70
(dp1804
sg79
g75
sg72
(lp1805
g65
(g86
g67
NtRp1806
(dp1807
g70
(dp1808
g90
g91
ssg79
g1802
sg72
(lp1809
S'folder'
p1810
asbag65
(g86
g67
NtRp1811
(dp1812
g70
(dp1813
g97
g98
ssg79
g1802
sg72
(lp1814
S':'
asbag65
(g86
g67
NtRp1815
(dp1816
g70
(dp1817
sg79
g1802
sg72
(lp1818
g65
(g66
g67
NtRp1819
(dp1820
g70
(dp1821
g78
I5
ssg79
g1815
sg72
(lp1822
S'C:\\Documents and Settings\\agrover\\Desktop\\previous crawler\\web2py\\applications\\mycrawler\\'
p1823
asbasbasbag65
(g81
g67
NtRp1824
(dp1825
g70
(dp1826
sg79
g75
sg72
(lp1827
g65
(g86
g67
NtRp1828
(dp1829
g70
(dp1830
g90
g91
ssg79
g1824
sg72
(lp1831
S'function'
p1832
asbag65
(g86
g67
NtRp1833
(dp1834
g70
(dp1835
g97
g98
ssg79
g1824
sg72
(lp1836
S':'
asbag65
(g86
g67
NtRp1837
(dp1838
g70
(dp1839
sg79
g1824
sg72
(lp1840
g65
(g66
g67
NtRp1841
(dp1842
g70
(dp1843
g78
I5
ssg79
g1837
sg72
(lp1844
S'search'
p1845
asbasbasbag65
(g81
g67
NtRp1846
(dp1847
g70
(dp1848
sg79
g75
sg72
(lp1849
g65
(g86
g67
NtRp1850
(dp1851
g70
(dp1852
g90
g91
ssg79
g1846
sg72
(lp1853
S'get_vars'
p1854
asbag65
(g86
g67
NtRp1855
(dp1856
g70
(dp1857
g97
g98
ssg79
g1846
sg72
(lp1858
S':'
asbag65
(g86
g67
NtRp1859
(dp1860
g70
(dp1861
sg79
g1846
sg72
(lp1862
g65
(g66
g67
NtRp1863
(dp1864
g70
(dp1865
g78
I5
ssg79
g1859
sg72
(lp1866
g65
(g74
g67
NtRp1867
(dp1868
g70
(dp1869
g78
I4
ssg79
Nsg72
(lp1870
g65
(g81
g67
NtRp1871
(dp1872
g70
(dp1873
sg79
g1867
sg72
(lp1874
g65
(g86
g67
NtRp1875
(dp1876
g70
(dp1877
g90
g91
ssg79
g1871
sg72
(lp1878
S'Company'
p1879
asbag65
(g86
g67
NtRp1880
(dp1881
g70
(dp1882
g97
g98
ssg79
g1871
sg72
(lp1883
S':'
asbag65
(g86
g67
NtRp1884
(dp1885
g70
(dp1886
sg79
g1871
sg72
(lp1887
g65
(g66
g67
NtRp1888
(dp1889
g70
(dp1890
g78
I4
ssg79
g1884
sg72
(lp1891
S''
asbasbasbag65
(g81
g67
NtRp1892
(dp1893
g70
(dp1894
sg79
g1867
sg72
(lp1895
g65
(g86
g67
NtRp1896
(dp1897
g70
(dp1898
g90
g91
ssg79
g1892
sg72
(lp1899
S'Country'
p1900
asbag65
(g86
g67
NtRp1901
(dp1902
g70
(dp1903
g97
g98
ssg79
g1892
sg72
(lp1904
S':'
asbag65
(g86
g67
NtRp1905
(dp1906
g70
(dp1907
sg79
g1892
sg72
(lp1908
g65
(g66
g67
NtRp1909
(dp1910
g70
(dp1911
g78
I4
ssg79
g1905
sg72
(lp1912
S'India'
p1913
asbasbasbag65
(g81
g67
NtRp1914
(dp1915
g70
(dp1916
sg79
g1867
sg72
(lp1917
g65
(g86
g67
NtRp1918
(dp1919
g70
(dp1920
g90
g91
ssg79
g1914
sg72
(lp1921
S'File_Name'
p1922
asbag65
(g86
g67
NtRp1923
(dp1924
g70
(dp1925
g97
g98
ssg79
g1914
sg72
(lp1926
S':'
asbag65
(g86
g67
NtRp1927
(dp1928
g70
(dp1929
sg79
g1914
sg72
(lp1930
g65
(g66
g67
NtRp1931
(dp1932
g70
(dp1933
g78
I4
ssg79
g1927
sg72
(lp1934
S'ab'
p1935
asbasbasbag65
(g81
g67
NtRp1936
(dp1937
g70
(dp1938
sg79
g1867
sg72
(lp1939
g65
(g86
g67
NtRp1940
(dp1941
g70
(dp1942
g90
g91
ssg79
g1936
sg72
(lp1943
S'First_Name'
p1944
asbag65
(g86
g67
NtRp1945
(dp1946
g70
(dp1947
g97
g98
ssg79
g1936
sg72
(lp1948
S':'
asbag65
(g86
g67
NtRp1949
(dp1950
g70
(dp1951
sg79
g1936
sg72
(lp1952
g65
(g66
g67
NtRp1953
(dp1954
g70
(dp1955
g78
I4
ssg79
g1949
sg72
(lp1956
S'Sam'
p1957
asbasbasbag65
(g81
g67
NtRp1958
(dp1959
g70
(dp1960
sg79
g1867
sg72
(lp1961
g65
(g86
g67
NtRp1962
(dp1963
g70
(dp1964
g90
g91
ssg79
g1958
sg72
(lp1965
S'Functions'
p1966
asbag65
(g86
g67
NtRp1967
(dp1968
g70
(dp1969
g97
g98
ssg79
g1958
sg72
(lp1970
S':'
asbag65
(g86
g67
NtRp1971
(dp1972
g70
(dp1973
sg79
g1958
sg72
(lp1974
g65
(g66
g67
NtRp1975
(dp1976
g70
(dp1977
g78
I4
ssg79
g1971
sg72
(lp1978
S'All Functions'
p1979
asbasbasbag65
(g81
g67
NtRp1980
(dp1981
g70
(dp1982
sg79
g1867
sg72
(lp1983
g65
(g86
g67
NtRp1984
(dp1985
g70
(dp1986
g90
g91
ssg79
g1980
sg72
(lp1987
S'Industry'
p1988
asbag65
(g86
g67
NtRp1989
(dp1990
g70
(dp1991
g97
g98
ssg79
g1980
sg72
(lp1992
S':'
asbag65
(g86
g67
NtRp1993
(dp1994
g70
(dp1995
sg79
g1980
sg72
(lp1996
g65
(g66
g67
NtRp1997
(dp1998
g70
(dp1999
g78
I4
ssg79
g1993
sg72
(lp2000
S'All Industries'
p2001
asbasbasbag65
(g81
g67
NtRp2002
(dp2003
g70
(dp2004
sg79
g1867
sg72
(lp2005
g65
(g86
g67
NtRp2006
(dp2007
g70
(dp2008
g90
g91
ssg79
g2002
sg72
(lp2009
S'Keywords'
p2010
asbag65
(g86
g67
NtRp2011
(dp2012
g70
(dp2013
g97
g98
ssg79
g2002
sg72
(lp2014
S':'
asbag65
(g86
g67
NtRp2015
(dp2016
g70
(dp2017
sg79
g2002
sg72
(lp2018
g65
(g66
g67
NtRp2019
(dp2020
g70
(dp2021
g78
I4
ssg79
g2015
sg72
(lp2022
S''
asbasbasbag65
(g81
g67
NtRp2023
(dp2024
g70
(dp2025
sg79
g1867
sg72
(lp2026
g65
(g86
g67
NtRp2027
(dp2028
g70
(dp2029
g90
g91
ssg79
g2023
sg72
(lp2030
S'Last_Name'
p2031
asbag65
(g86
g67
NtRp2032
(dp2033
g70
(dp2034
g97
g98
ssg79
g2023
sg72
(lp2035
S':'
asbag65
(g86
g67
NtRp2036
(dp2037
g70
(dp2038
sg79
g2023
sg72
(lp2039
g65
(g66
g67
NtRp2040
(dp2041
g70
(dp2042
g78
I4
ssg79
g2036
sg72
(lp2043
S''
asbasbasbag65
(g81
g67
NtRp2044
(dp2045
g70
(dp2046
sg79
g1867
sg72
(lp2047
g65
(g86
g67
NtRp2048
(dp2049
g70
(dp2050
g90
g91
ssg79
g2044
sg72
(lp2051
S'School'
p2052
asbag65
(g86
g67
NtRp2053
(dp2054
g70
(dp2055
g97
g98
ssg79
g2044
sg72
(lp2056
S':'
asbag65
(g86
g67
NtRp2057
(dp2058
g70
(dp2059
sg79
g2044
sg72
(lp2060
g65
(g66
g67
NtRp2061
(dp2062
g70
(dp2063
g78
I4
ssg79
g2057
sg72
(lp2064
S''
asbasbasbag65
(g81
g67
NtRp2065
(dp2066
g70
(dp2067
sg79
g1867
sg72
(lp2068
g65
(g86
g67
NtRp2069
(dp2070
g70
(dp2071
g90
g91
ssg79
g2065
sg72
(lp2072
S'Seniority_Levels'
p2073
asbag65
(g86
g67
NtRp2074
(dp2075
g70
(dp2076
g97
g98
ssg79
g2065
sg72
(lp2077
S':'
asbag65
(g86
g67
NtRp2078
(dp2079
g70
(dp2080
sg79
g2065
sg72
(lp2081
g65
(g66
g67
NtRp2082
(dp2083
g70
(dp2084
g78
I4
ssg79
g2078
sg72
(lp2085
S'All Seniority Levels'
p2086
asbasbasbag65
(g81
g67
NtRp2087
(dp2088
g70
(dp2089
sg79
g1867
sg72
(lp2090
g65
(g86
g67
NtRp2091
(dp2092
g70
(dp2093
g90
g91
ssg79
g2087
sg72
(lp2094
S'Title'
p2095
asbag65
(g86
g67
NtRp2096
(dp2097
g70
(dp2098
g97
g98
ssg79
g2087
sg72
(lp2099
S':'
asbag65
(g86
g67
NtRp2100
(dp2101
g70
(dp2102
sg79
g2087
sg72
(lp2103
g65
(g66
g67
NtRp2104
(dp2105
g70
(dp2106
g78
I4
ssg79
g2100
sg72
(lp2107
S''
asbasbasbasbasbasbasbag65
(g81
g67
NtRp2108
(dp2109
g70
(dp2110
sg79
g75
sg72
(lp2111
g65
(g86
g67
NtRp2112
(dp2113
g70
(dp2114
g90
g91
ssg79
g2108
sg72
(lp2115
S'global_settings'
p2116
asbag65
(g86
g67
NtRp2117
(dp2118
g70
(dp2119
g97
g98
ssg79
g2108
sg72
(lp2120
S':'
asbag65
(g86
g67
NtRp2121
(dp2122
g70
(dp2123
sg79
g2108
sg72
(lp2124
g65
(g66
g67
NtRp2125
(dp2126
g70
(dp2127
g78
I5
ssg79
g2121
sg72
(lp2128
g65
(g74
g67
NtRp2129
(dp2130
g70
(dp2131
g78
I4
ssg79
Nsg72
(lp2132
g65
(g81
g67
NtRp2133
(dp2134
g70
(dp2135
sg79
g2129
sg72
(lp2136
g65
(g86
g67
NtRp2137
(dp2138
g70
(dp2139
g90
g91
ssg79
g2133
sg72
(lp2140
g842
asbag65
(g86
g67
NtRp2141
(dp2142
g70
(dp2143
g97
g98
ssg79
g2133
sg72
(lp2144
S':'
asbag65
(g86
g67
NtRp2145
(dp2146
g70
(dp2147
sg79
g2133
sg72
(lp2148
g65
(g66
g67
NtRp2149
(dp2150
g70
(dp2151
g78
I4
ssg79
g2145
sg72
(lp2152
S"set(['C:\\\\Documents and Settings\\\\agrover\\\\Desktop\\\\previous crawler\\\\web2py\\\\applications\\\\admin\\\\', 'C:\\\\Documents and Settings\\\\agrover\\\\Desktop\\\\previous crawler\\\\web2py\\\\applications\\\\mycrawler\\\\', 'C:\\\\Documents and Settings\\\\agrover\\\\Desktop\\\\previous crawler\\\\web2py\\\\applications\\\\welcome\\\\'])"
p2153
asbasbasbag65
(g81
g67
NtRp2154
(dp2155
g70
(dp2156
sg79
g2129
sg72
(lp2157
g65
(g86
g67
NtRp2158
(dp2159
g70
(dp2160
g90
g91
ssg79
g2154
sg72
(lp2161
g864
asbag65
(g86
g67
NtRp2162
(dp2163
g70
(dp2164
g97
g98
ssg79
g2154
sg72
(lp2165
S':'
asbag65
(g86
g67
NtRp2166
(dp2167
g70
(dp2168
sg79
g2154
sg72
(lp2169
g65
(g66
g67
NtRp2170
(dp2171
g70
(dp2172
g78
I4
ssg79
g2166
sg72
(lp2173
g877
asbasbasbag65
(g81
g67
NtRp2174
(dp2175
g70
(dp2176
sg79
g2129
sg72
(lp2177
g65
(g86
g67
NtRp2178
(dp2179
g70
(dp2180
g90
g91
ssg79
g2174
sg72
(lp2181
g886
asbag65
(g86
g67
NtRp2182
(dp2183
g70
(dp2184
g97
g98
ssg79
g2174
sg72
(lp2185
S':'
asbag65
(g86
g67
NtRp2186
(dp2187
g70
(dp2188
sg79
g2174
sg72
(lp2189
g65
(g66
g67
NtRp2190
(dp2191
g70
(dp2192
g78
I4
ssg79
g2186
sg72
(lp2193
g65
(g74
g67
NtRp2194
(dp2195
g70
(dp2196
g78
I3
ssg79
Nsg72
(lp2197
sbasbasbasbag65
(g81
g67
NtRp2198
(dp2199
g70
(dp2200
sg79
g2129
sg72
(lp2201
g65
(g86
g67
NtRp2202
(dp2203
g70
(dp2204
g90
g91
ssg79
g2198
sg72
(lp2205
g911
asbag65
(g86
g67
NtRp2206
(dp2207
g70
(dp2208
g97
g98
ssg79
g2198
sg72
(lp2209
S':'
asbag65
(g86
g67
NtRp2210
(dp2211
g70
(dp2212
sg79
g2198
sg72
(lp2213
g65
(g66
g67
NtRp2214
(dp2215
g70
(dp2216
g78
I4
ssg79
g2210
sg72
(lp2217
S"<Values at 0x16d73f0: {'verbose': False, 'ip': '127.0.0.1', 'shutdown_timeout': 5, 'taskbar': False, 'nocron': False, 'pid_filename': 'httpserver.pid', 'maxthreads': None, 'softcron': False, 'server_name': 'mniagrover', 'bpython': False, 'nogui': False, 'port': 8000, 'extcron': False, 'debuglevel': 30, 'test': None, 'folder': 'C:\\\\Documents and Settings\\\\agrover\\\\Desktop\\\\previous crawler\\\\web2py', 'config': '', 'import_models': False, 'winservice': '', 'shell': None, 'run': '', 'log_filename': 'httpserver.log', 'args': [''], 'socket_timeout': 5, 'ssl_ca_certificate': None, 'scheduler': None, 'profiler_filename': None, 'ssl_private_key': '', 'password': '<ask>', 'request_queue_size': 5, 'ssl_certificate': '', 'cronjob': False, 'numthreads': None, 'quiet': False, 'interfaces': None, 'minthreads': None, 'timeout': 10, 'plain': False, 'nobanner': False}>"
p2218
asbasbasbag65
(g81
g67
NtRp2219
(dp2220
g70
(dp2221
sg79
g2129
sg72
(lp2222
g65
(g86
g67
NtRp2223
(dp2224
g70
(dp2225
g90
g91
ssg79
g2219
sg72
(lp2226
g933
asbag65
(g86
g67
NtRp2227
(dp2228
g70
(dp2229
g97
g98
ssg79
g2219
sg72
(lp2230
S':'
asbag65
(g86
g67
NtRp2231
(dp2232
g70
(dp2233
sg79
g2219
sg72
(lp2234
g65
(g66
g67
NtRp2235
(dp2236
g70
(dp2237
g78
I4
ssg79
g2231
sg72
(lp2238
S'set([])'
p2239
asbasbasbag65
(g81
g67
NtRp2240
(dp2241
g70
(dp2242
sg79
g2129
sg72
(lp2243
g65
(g86
g67
NtRp2244
(dp2245
g70
(dp2246
g90
g91
ssg79
g2240
sg72
(lp2247
g955
asbag65
(g86
g67
NtRp2248
(dp2249
g70
(dp2250
g97
g98
ssg79
g2240
sg72
(lp2251
S':'
asbag65
(g86
g67
NtRp2252
(dp2253
g70
(dp2254
sg79
g2240
sg72
(lp2255
g65
(g66
g67
NtRp2256
(dp2257
g70
(dp2258
g78
I4
ssg79
g2252
sg72
(lp2259
g108
asbasbasbag65
(g81
g67
NtRp2260
(dp2261
g70
(dp2262
sg79
g2129
sg72
(lp2263
g65
(g86
g67
NtRp2264
(dp2265
g70
(dp2266
g90
g91
ssg79
g2260
sg72
(lp2267
g976
asbag65
(g86
g67
NtRp2268
(dp2269
g70
(dp2270
g97
g98
ssg79
g2260
sg72
(lp2271
S':'
asbag65
(g86
g67
NtRp2272
(dp2273
g70
(dp2274
sg79
g2260
sg72
(lp2275
g65
(g66
g67
NtRp2276
(dp2277
g70
(dp2278
g78
I4
ssg79
g2272
sg72
(lp2279
g989
asbasbasbag65
(g81
g67
NtRp2280
(dp2281
g70
(dp2282
sg79
g2129
sg72
(lp2283
g65
(g86
g67
NtRp2284
(dp2285
g70
(dp2286
g90
g91
ssg79
g2280
sg72
(lp2287
g1196
asbag65
(g86
g67
NtRp2288
(dp2289
g70
(dp2290
g97
g98
ssg79
g2280
sg72
(lp2291
S':'
asbag65
(g86
g67
NtRp2292
(dp2293
g70
(dp2294
sg79
g2280
sg72
(lp2295
g65
(g66
g67
NtRp2296
(dp2297
g70
(dp2298
g78
I4
ssg79
g2292
sg72
(lp2299
g108
asbasbasbag65
(g81
g67
NtRp2300
(dp2301
g70
(dp2302
sg79
g2129
sg72
(lp2303
g65
(g86
g67
NtRp2304
(dp2305
g70
(dp2306
g90
g91
ssg79
g2300
sg72
(lp2307
g1217
asbag65
(g86
g67
NtRp2308
(dp2309
g70
(dp2310
g97
g98
ssg79
g2300
sg72
(lp2311
S':'
asbag65
(g86
g67
NtRp2312
(dp2313
g70
(dp2314
sg79
g2300
sg72
(lp2315
g65
(g66
g67
NtRp2316
(dp2317
g70
(dp2318
g78
I4
ssg79
g2312
sg72
(lp2319
g108
asbasbasbag65
(g81
g67
NtRp2320
(dp2321
g70
(dp2322
sg79
g2129
sg72
(lp2323
g65
(g86
g67
NtRp2324
(dp2325
g70
(dp2326
g90
g91
ssg79
g2320
sg72
(lp2327
g1456
asbag65
(g86
g67
NtRp2328
(dp2329
g70
(dp2330
g97
g98
ssg79
g2320
sg72
(lp2331
S':'
asbag65
(g86
g67
NtRp2332
(dp2333
g70
(dp2334
sg79
g2320
sg72
(lp2335
g65
(g66
g67
NtRp2336
(dp2337
g70
(dp2338
g78
I4
ssg79
g2332
sg72
(lp2339
g1469
asbasbasbag65
(g81
g67
NtRp2340
(dp2341
g70
(dp2342
sg79
g2129
sg72
(lp2343
g65
(g86
g67
NtRp2344
(dp2345
g70
(dp2346
g90
g91
ssg79
g2340
sg72
(lp2347
g1499
asbag65
(g86
g67
NtRp2348
(dp2349
g70
(dp2350
g97
g98
ssg79
g2340
sg72
(lp2351
S':'
asbag65
(g86
g67
NtRp2352
(dp2353
g70
(dp2354
sg79
g2340
sg72
(lp2355
g65
(g66
g67
NtRp2356
(dp2357
g70
(dp2358
g78
I4
ssg79
g2352
sg72
(lp2359
g65
(g74
g67
NtRp2360
(dp2361
g70
(dp2362
g78
I3
ssg79
Nsg72
(lp2363
g65
(g81
g67
NtRp2364
(dp2365
g70
(dp2366
sg79
g2360
sg72
(lp2367
g65
(g86
g67
NtRp2368
(dp2369
g70
(dp2370
sg79
g2364
sg72
(lp2371
g65
(g66
g67
NtRp2372
(dp2373
g70
(dp2374
g78
I3
ssg79
g2368
sg72
(lp2375
S'1'
asbasbasbag65
(g81
g67
NtRp2376
(dp2377
g70
(dp2378
sg79
g2360
sg72
(lp2379
g65
(g86
g67
NtRp2380
(dp2381
g70
(dp2382
sg79
g2376
sg72
(lp2383
g65
(g66
g67
NtRp2384
(dp2385
g70
(dp2386
g78
I3
ssg79
g2380
sg72
(lp2387
S'99'
p2388
asbasbasbag65
(g81
g67
NtRp2389
(dp2390
g70
(dp2391
sg79
g2360
sg72
(lp2392
g65
(g86
g67
NtRp2393
(dp2394
g70
(dp2395
sg79
g2389
sg72
(lp2396
g65
(g66
g67
NtRp2397
(dp2398
g70
(dp2399
g78
I3
ssg79
g2393
sg72
(lp2400
S'7'
asbasbasbag65
(g81
g67
NtRp2401
(dp2402
g70
(dp2403
sg79
g2360
sg72
(lp2404
g65
(g86
g67
NtRp2405
(dp2406
g70
(dp2407
sg79
g2401
sg72
(lp2408
g65
(g66
g67
NtRp2409
(dp2410
g70
(dp2411
g78
I3
ssg79
g2405
sg72
(lp2412
S'datetime.datetime(2012, 3, 4, 22, 12, 8)'
p2413
asbasbasbag65
(g81
g67
NtRp2414
(dp2415
g70
(dp2416
sg79
g2360
sg72
(lp2417
g65
(g86
g67
NtRp2418
(dp2419
g70
(dp2420
sg79
g2414
sg72
(lp2421
g65
(g66
g67
NtRp2422
(dp2423
g70
(dp2424
g78
I3
ssg79
g2418
sg72
(lp2425
g1578
asbasbasbasbasbasbasbasbasbasbasbag65
(g81
g67
NtRp2426
(dp2427
g70
(dp2428
sg79
g75
sg72
(lp2429
g65
(g86
g67
NtRp2430
(dp2431
g70
(dp2432
g90
g91
ssg79
g2426
sg72
(lp2433
S'is_https'
p2434
asbag65
(g86
g67
NtRp2435
(dp2436
g70
(dp2437
g97
g98
ssg79
g2426
sg72
(lp2438
S':'
asbag65
(g86
g67
NtRp2439
(dp2440
g70
(dp2441
sg79
g2426
sg72
(lp2442
g65
(g66
g67
NtRp2443
(dp2444
g70
(dp2445
g78
I5
ssg79
g2439
sg72
(lp2446
g108
asbasbasbag65
(g81
g67
NtRp2447
(dp2448
g70
(dp2449
sg79
g75
sg72
(lp2450
g65
(g86
g67
NtRp2451
(dp2452
g70
(dp2453
g90
g91
ssg79
g2447
sg72
(lp2454
S'is_local'
p2455
asbag65
(g86
g67
NtRp2456
(dp2457
g70
(dp2458
g97
g98
ssg79
g2447
sg72
(lp2459
S':'
asbag65
(g86
g67
NtRp2460
(dp2461
g70
(dp2462
sg79
g2447
sg72
(lp2463
g65
(g66
g67
NtRp2464
(dp2465
g70
(dp2466
g78
I5
ssg79
g2460
sg72
(lp2467
g1687
asbasbasbag65
(g81
g67
NtRp2468
(dp2469
g70
(dp2470
sg79
g75
sg72
(lp2471
g65
(g86
g67
NtRp2472
(dp2473
g70
(dp2474
g90
g91
ssg79
g2468
sg72
(lp2475
S'is_restful'
p2476
asbag65
(g86
g67
NtRp2477
(dp2478
g70
(dp2479
g97
g98
ssg79
g2468
sg72
(lp2480
S':'
asbag65
(g86
g67
NtRp2481
(dp2482
g70
(dp2483
sg79
g2468
sg72
(lp2484
g65
(g66
g67
NtRp2485
(dp2486
g70
(dp2487
g78
I5
ssg79
g2481
sg72
(lp2488
g108
asbasbasbag65
(g81
g67
NtRp2489
(dp2490
g70
(dp2491
sg79
g75
sg72
(lp2492
g65
(g86
g67
NtRp2493
(dp2494
g70
(dp2495
g90
g91
ssg79
g2489
sg72
(lp2496
S'now'
p2497
asbag65
(g86
g67
NtRp2498
(dp2499
g70
(dp2500
g97
g98
ssg79
g2489
sg72
(lp2501
S':'
asbag65
(g86
g67
NtRp2502
(dp2503
g70
(dp2504
sg79
g2489
sg72
(lp2505
g65
(g66
g67
NtRp2506
(dp2507
g70
(dp2508
g78
I5
ssg79
g2502
sg72
(lp2509
S'datetime.datetime(2012, 6, 22, 11, 20, 52, 453000)'
p2510
asbasbasbag65
(g81
g67
NtRp2511
(dp2512
g70
(dp2513
sg79
g75
sg72
(lp2514
g65
(g86
g67
NtRp2515
(dp2516
g70
(dp2517
g90
g91
ssg79
g2511
sg72
(lp2518
S'post_vars'
p2519
asbag65
(g86
g67
NtRp2520
(dp2521
g70
(dp2522
g97
g98
ssg79
g2511
sg72
(lp2523
S':'
asbag65
(g86
g67
NtRp2524
(dp2525
g70
(dp2526
sg79
g2511
sg72
(lp2527
g65
(g66
g67
NtRp2528
(dp2529
g70
(dp2530
g78
I5
ssg79
g2524
sg72
(lp2531
g65
(g74
g67
NtRp2532
(dp2533
g70
(dp2534
g78
I4
ssg79
Nsg72
(lp2535
sbasbasbasbag65
(g81
g67
NtRp2536
(dp2537
g70
(dp2538
sg79
g75
sg72
(lp2539
g65
(g86
g67
NtRp2540
(dp2541
g70
(dp2542
g90
g91
ssg79
g2536
sg72
(lp2543
S'url'
p2544
asbag65
(g86
g67
NtRp2545
(dp2546
g70
(dp2547
g97
g98
ssg79
g2536
sg72
(lp2548
S':'
asbag65
(g86
g67
NtRp2549
(dp2550
g70
(dp2551
sg79
g2536
sg72
(lp2552
g65
(g66
g67
NtRp2553
(dp2554
g70
(dp2555
g78
I5
ssg79
g2549
sg72
(lp2556
S'/mycrawler/default/search'
p2557
asbasbasbag65
(g81
g67
NtRp2558
(dp2559
g70
(dp2560
sg79
g75
sg72
(lp2561
g65
(g86
g67
NtRp2562
(dp2563
g70
(dp2564
g90
g91
ssg79
g2558
sg72
(lp2565
S'utcnow'
p2566
asbag65
(g86
g67
NtRp2567
(dp2568
g70
(dp2569
g97
g98
ssg79
g2558
sg72
(lp2570
S':'
asbag65
(g86
g67
NtRp2571
(dp2572
g70
(dp2573
sg79
g2558
sg72
(lp2574
g65
(g66
g67
NtRp2575
(dp2576
g70
(dp2577
g78
I5
ssg79
g2571
sg72
(lp2578
S'datetime.datetime(2012, 6, 22, 18, 20, 52, 453000)'
p2579
asbasbasbag65
(g81
g67
NtRp2580
(dp2581
g70
(dp2582
sg79
g75
sg72
(lp2583
g65
(g86
g67
NtRp2584
(dp2585
g70
(dp2586
g90
g91
ssg79
g2580
sg72
(lp2587
S'uuid'
p2588
asbag65
(g86
g67
NtRp2589
(dp2590
g70
(dp2591
g97
g98
ssg79
g2580
sg72
(lp2592
S':'
asbag65
(g86
g67
NtRp2593
(dp2594
g70
(dp2595
sg79
g2580
sg72
(lp2596
g65
(g66
g67
NtRp2597
(dp2598
g70
(dp2599
g78
I5
ssg79
g2593
sg72
(lp2600
S'mycrawler/127.0.0.1.2012-06-22.11-20-52.bc89251e-3dd6-4b57-ab05-ce1a730ba62f'
p2601
asbasbasbag65
(g81
g67
NtRp2602
(dp2603
g70
(dp2604
sg79
g75
sg72
(lp2605
g65
(g86
g67
NtRp2606
(dp2607
g70
(dp2608
g90
g91
ssg79
g2602
sg72
(lp2609
S'vars'
p2610
asbag65
(g86
g67
NtRp2611
(dp2612
g70
(dp2613
g97
g98
ssg79
g2602
sg72
(lp2614
S':'
asbag65
(g86
g67
NtRp2615
(dp2616
g70
(dp2617
sg79
g2602
sg72
(lp2618
g65
(g66
g67
NtRp2619
(dp2620
g70
(dp2621
g78
I5
ssg79
g2615
sg72
(lp2622
g65
(g74
g67
NtRp2623
(dp2624
g70
(dp2625
g78
I4
ssg79
Nsg72
(lp2626
g65
(g81
g67
NtRp2627
(dp2628
g70
(dp2629
sg79
g2623
sg72
(lp2630
g65
(g86
g67
NtRp2631
(dp2632
g70
(dp2633
g90
g91
ssg79
g2627
sg72
(lp2634
g1879
asbag65
(g86
g67
NtRp2635
(dp2636
g70
(dp2637
g97
g98
ssg79
g2627
sg72
(lp2638
S':'
asbag65
(g86
g67
NtRp2639
(dp2640
g70
(dp2641
sg79
g2627
sg72
(lp2642
g65
(g66
g67
NtRp2643
(dp2644
g70
(dp2645
g78
I4
ssg79
g2639
sg72
(lp2646
S''
asbasbasbag65
(g81
g67
NtRp2647
(dp2648
g70
(dp2649
sg79
g2623
sg72
(lp2650
g65
(g86
g67
NtRp2651
(dp2652
g70
(dp2653
g90
g91
ssg79
g2647
sg72
(lp2654
g1900
asbag65
(g86
g67
NtRp2655
(dp2656
g70
(dp2657
g97
g98
ssg79
g2647
sg72
(lp2658
S':'
asbag65
(g86
g67
NtRp2659
(dp2660
g70
(dp2661
sg79
g2647
sg72
(lp2662
g65
(g66
g67
NtRp2663
(dp2664
g70
(dp2665
g78
I4
ssg79
g2659
sg72
(lp2666
g1913
asbasbasbag65
(g81
g67
NtRp2667
(dp2668
g70
(dp2669
sg79
g2623
sg72
(lp2670
g65
(g86
g67
NtRp2671
(dp2672
g70
(dp2673
g90
g91
ssg79
g2667
sg72
(lp2674
g1922
asbag65
(g86
g67
NtRp2675
(dp2676
g70
(dp2677
g97
g98
ssg79
g2667
sg72
(lp2678
S':'
asbag65
(g86
g67
NtRp2679
(dp2680
g70
(dp2681
sg79
g2667
sg72
(lp2682
g65
(g66
g67
NtRp2683
(dp2684
g70
(dp2685
g78
I4
ssg79
g2679
sg72
(lp2686
g1935
asbasbasbag65
(g81
g67
NtRp2687
(dp2688
g70
(dp2689
sg79
g2623
sg72
(lp2690
g65
(g86
g67
NtRp2691
(dp2692
g70
(dp2693
g90
g91
ssg79
g2687
sg72
(lp2694
g1944
asbag65
(g86
g67
NtRp2695
(dp2696
g70
(dp2697
g97
g98
ssg79
g2687
sg72
(lp2698
S':'
asbag65
(g86
g67
NtRp2699
(dp2700
g70
(dp2701
sg79
g2687
sg72
(lp2702
g65
(g66
g67
NtRp2703
(dp2704
g70
(dp2705
g78
I4
ssg79
g2699
sg72
(lp2706
g1957
asbasbasbag65
(g81
g67
NtRp2707
(dp2708
g70
(dp2709
sg79
g2623
sg72
(lp2710
g65
(g86
g67
NtRp2711
(dp2712
g70
(dp2713
g90
g91
ssg79
g2707
sg72
(lp2714
g1966
asbag65
(g86
g67
NtRp2715
(dp2716
g70
(dp2717
g97
g98
ssg79
g2707
sg72
(lp2718
S':'
asbag65
(g86
g67
NtRp2719
(dp2720
g70
(dp2721
sg79
g2707
sg72
(lp2722
g65
(g66
g67
NtRp2723
(dp2724
g70
(dp2725
g78
I4
ssg79
g2719
sg72
(lp2726
g1979
asbasbasbag65
(g81
g67
NtRp2727
(dp2728
g70
(dp2729
sg79
g2623
sg72
(lp2730
g65
(g86
g67
NtRp2731
(dp2732
g70
(dp2733
g90
g91
ssg79
g2727
sg72
(lp2734
g1988
asbag65
(g86
g67
NtRp2735
(dp2736
g70
(dp2737
g97
g98
ssg79
g2727
sg72
(lp2738
S':'
asbag65
(g86
g67
NtRp2739
(dp2740
g70
(dp2741
sg79
g2727
sg72
(lp2742
g65
(g66
g67
NtRp2743
(dp2744
g70
(dp2745
g78
I4
ssg79
g2739
sg72
(lp2746
g2001
asbasbasbag65
(g81
g67
NtRp2747
(dp2748
g70
(dp2749
sg79
g2623
sg72
(lp2750
g65
(g86
g67
NtRp2751
(dp2752
g70
(dp2753
g90
g91
ssg79
g2747
sg72
(lp2754
g2010
asbag65
(g86
g67
NtRp2755
(dp2756
g70
(dp2757
g97
g98
ssg79
g2747
sg72
(lp2758
S':'
asbag65
(g86
g67
NtRp2759
(dp2760
g70
(dp2761
sg79
g2747
sg72
(lp2762
g65
(g66
g67
NtRp2763
(dp2764
g70
(dp2765
g78
I4
ssg79
g2759
sg72
(lp2766
S''
asbasbasbag65
(g81
g67
NtRp2767
(dp2768
g70
(dp2769
sg79
g2623
sg72
(lp2770
g65
(g86
g67
NtRp2771
(dp2772
g70
(dp2773
g90
g91
ssg79
g2767
sg72
(lp2774
g2031
asbag65
(g86
g67
NtRp2775
(dp2776
g70
(dp2777
g97
g98
ssg79
g2767
sg72
(lp2778
S':'
asbag65
(g86
g67
NtRp2779
(dp2780
g70
(dp2781
sg79
g2767
sg72
(lp2782
g65
(g66
g67
NtRp2783
(dp2784
g70
(dp2785
g78
I4
ssg79
g2779
sg72
(lp2786
S''
asbasbasbag65
(g81
g67
NtRp2787
(dp2788
g70
(dp2789
sg79
g2623
sg72
(lp2790
g65
(g86
g67
NtRp2791
(dp2792
g70
(dp2793
g90
g91
ssg79
g2787
sg72
(lp2794
g2052
asbag65
(g86
g67
NtRp2795
(dp2796
g70
(dp2797
g97
g98
ssg79
g2787
sg72
(lp2798
S':'
asbag65
(g86
g67
NtRp2799
(dp2800
g70
(dp2801
sg79
g2787
sg72
(lp2802
g65
(g66
g67
NtRp2803
(dp2804
g70
(dp2805
g78
I4
ssg79
g2799
sg72
(lp2806
S''
asbasbasbag65
(g81
g67
NtRp2807
(dp2808
g70
(dp2809
sg79
g2623
sg72
(lp2810
g65
(g86
g67
NtRp2811
(dp2812
g70
(dp2813
g90
g91
ssg79
g2807
sg72
(lp2814
g2073
asbag65
(g86
g67
NtRp2815
(dp2816
g70
(dp2817
g97
g98
ssg79
g2807
sg72
(lp2818
S':'
asbag65
(g86
g67
NtRp2819
(dp2820
g70
(dp2821
sg79
g2807
sg72
(lp2822
g65
(g66
g67
NtRp2823
(dp2824
g70
(dp2825
g78
I4
ssg79
g2819
sg72
(lp2826
g2086
asbasbasbag65
(g81
g67
NtRp2827
(dp2828
g70
(dp2829
sg79
g2623
sg72
(lp2830
g65
(g86
g67
NtRp2831
(dp2832
g70
(dp2833
g90
g91
ssg79
g2827
sg72
(lp2834
g2095
asbag65
(g86
g67
NtRp2835
(dp2836
g70
(dp2837
g97
g98
ssg79
g2827
sg72
(lp2838
S':'
asbag65
(g86
g67
NtRp2839
(dp2840
g70
(dp2841
sg79
g2827
sg72
(lp2842
g65
(g66
g67
NtRp2843
(dp2844
g70
(dp2845
g78
I4
ssg79
g2839
sg72
(lp2846
S''
asbasbasbasbasbasbasbag65
(g81
g67
NtRp2847
(dp2848
g70
(dp2849
sg79
g75
sg72
(lp2850
g65
(g86
g67
NtRp2851
(dp2852
g70
(dp2853
g90
g91
ssg79
g2847
sg72
(lp2854
S'wsgi'
p2855
asbag65
(g86
g67
NtRp2856
(dp2857
g70
(dp2858
g97
g98
ssg79
g2847
sg72
(lp2859
S':'
asbag65
(g86
g67
NtRp2860
(dp2861
g70
(dp2862
sg79
g2847
sg72
(lp2863
g65
(g66
g67
NtRp2864
(dp2865
g70
(dp2866
g78
I5
ssg79
g2860
sg72
(lp2867
g65
(g74
g67
NtRp2868
(dp2869
g70
(dp2870
g78
I4
ssg79
Nsg72
(lp2871
g65
(g81
g67
NtRp2872
(dp2873
g70
(dp2874
sg79
g2868
sg72
(lp2875
g65
(g86
g67
NtRp2876
(dp2877
g70
(dp2878
g90
g91
ssg79
g2872
sg72
(lp2879
S'environ'
p2880
asbag65
(g86
g67
NtRp2881
(dp2882
g70
(dp2883
g97
g98
ssg79
g2872
sg72
(lp2884
S':'
asbag65
(g86
g67
NtRp2885
(dp2886
g70
(dp2887
sg79
g2872
sg72
(lp2888
g65
(g66
g67
NtRp2889
(dp2890
g70
(dp2891
g78
I4
ssg79
g2885
sg72
(lp2892
g65
(g74
g67
NtRp2893
(dp2894
g70
(dp2895
g78
I3
ssg79
Nsg72
(lp2896
g65
(g81
g67
NtRp2897
(dp2898
g70
(dp2899
sg79
g2893
sg72
(lp2900
g65
(g86
g67
NtRp2901
(dp2902
g70
(dp2903
g90
g91
ssg79
g2897
sg72
(lp2904
S'HTTP_ACCEPT'
p2905
asbag65
(g86
g67
NtRp2906
(dp2907
g70
(dp2908
g97
g98
ssg79
g2897
sg72
(lp2909
S':'
asbag65
(g86
g67
NtRp2910
(dp2911
g70
(dp2912
sg79
g2897
sg72
(lp2913
g65
(g66
g67
NtRp2914
(dp2915
g70
(dp2916
g78
I3
ssg79
g2910
sg72
(lp2917
g1011
asbasbasbag65
(g81
g67
NtRp2918
(dp2919
g70
(dp2920
sg79
g2893
sg72
(lp2921
g65
(g86
g67
NtRp2922
(dp2923
g70
(dp2924
g90
g91
ssg79
g2918
sg72
(lp2925
S'HTTP_ACCEPT_ENCODING'
p2926
asbag65
(g86
g67
NtRp2927
(dp2928
g70
(dp2929
g97
g98
ssg79
g2918
sg72
(lp2930
S':'
asbag65
(g86
g67
NtRp2931
(dp2932
g70
(dp2933
sg79
g2918
sg72
(lp2934
g65
(g66
g67
NtRp2935
(dp2936
g70
(dp2937
g78
I3
ssg79
g2931
sg72
(lp2938
g1033
asbasbasbag65
(g81
g67
NtRp2939
(dp2940
g70
(dp2941
sg79
g2893
sg72
(lp2942
g65
(g86
g67
NtRp2943
(dp2944
g70
(dp2945
g90
g91
ssg79
g2939
sg72
(lp2946
S'HTTP_ACCEPT_LANGUAGE'
p2947
asbag65
(g86
g67
NtRp2948
(dp2949
g70
(dp2950
g97
g98
ssg79
g2939
sg72
(lp2951
S':'
asbag65
(g86
g67
NtRp2952
(dp2953
g70
(dp2954
sg79
g2939
sg72
(lp2955
g65
(g66
g67
NtRp2956
(dp2957
g70
(dp2958
g78
I3
ssg79
g2952
sg72
(lp2959
g1055
asbasbasbag65
(g81
g67
NtRp2960
(dp2961
g70
(dp2962
sg79
g2893
sg72
(lp2963
g65
(g86
g67
NtRp2964
(dp2965
g70
(dp2966
g90
g91
ssg79
g2960
sg72
(lp2967
S'HTTP_CACHE_CONTROL'
p2968
asbag65
(g86
g67
NtRp2969
(dp2970
g70
(dp2971
g97
g98
ssg79
g2960
sg72
(lp2972
S':'
asbag65
(g86
g67
NtRp2973
(dp2974
g70
(dp2975
sg79
g2960
sg72
(lp2976
g65
(g66
g67
NtRp2977
(dp2978
g70
(dp2979
g78
I3
ssg79
g2973
sg72
(lp2980
g1077
asbasbasbag65
(g81
g67
NtRp2981
(dp2982
g70
(dp2983
sg79
g2893
sg72
(lp2984
g65
(g86
g67
NtRp2985
(dp2986
g70
(dp2987
g90
g91
ssg79
g2981
sg72
(lp2988
S'HTTP_CONNECTION'
p2989
asbag65
(g86
g67
NtRp2990
(dp2991
g70
(dp2992
g97
g98
ssg79
g2981
sg72
(lp2993
S':'
asbag65
(g86
g67
NtRp2994
(dp2995
g70
(dp2996
sg79
g2981
sg72
(lp2997
g65
(g66
g67
NtRp2998
(dp2999
g70
(dp3000
g78
I3
ssg79
g2994
sg72
(lp3001
g1099
asbasbasbag65
(g81
g67
NtRp3002
(dp3003
g70
(dp3004
sg79
g2893
sg72
(lp3005
g65
(g86
g67
NtRp3006
(dp3007
g70
(dp3008
g90
g91
ssg79
g3002
sg72
(lp3009
S'HTTP_COOKIE'
p3010
asbag65
(g86
g67
NtRp3011
(dp3012
g70
(dp3013
g97
g98
ssg79
g3002
sg72
(lp3014
S':'
asbag65
(g86
g67
NtRp3015
(dp3016
g70
(dp3017
sg79
g3002
sg72
(lp3018
g65
(g66
g67
NtRp3019
(dp3020
g70
(dp3021
g78
I3
ssg79
g3015
sg72
(lp3022
g1121
asbasbasbag65
(g81
g67
NtRp3023
(dp3024
g70
(dp3025
sg79
g2893
sg72
(lp3026
g65
(g86
g67
NtRp3027
(dp3028
g70
(dp3029
g90
g91
ssg79
g3023
sg72
(lp3030
S'HTTP_HOST'
p3031
asbag65
(g86
g67
NtRp3032
(dp3033
g70
(dp3034
g97
g98
ssg79
g3023
sg72
(lp3035
S':'
asbag65
(g86
g67
NtRp3036
(dp3037
g70
(dp3038
sg79
g3023
sg72
(lp3039
g65
(g66
g67
NtRp3040
(dp3041
g70
(dp3042
g78
I3
ssg79
g3036
sg72
(lp3043
g1143
asbasbasbag65
(g81
g67
NtRp3044
(dp3045
g70
(dp3046
sg79
g2893
sg72
(lp3047
g65
(g86
g67
NtRp3048
(dp3049
g70
(dp3050
g90
g91
ssg79
g3044
sg72
(lp3051
S'HTTP_REFERER'
p3052
asbag65
(g86
g67
NtRp3053
(dp3054
g70
(dp3055
g97
g98
ssg79
g3044
sg72
(lp3056
S':'
asbag65
(g86
g67
NtRp3057
(dp3058
g70
(dp3059
sg79
g3044
sg72
(lp3060
g65
(g66
g67
NtRp3061
(dp3062
g70
(dp3063
g78
I3
ssg79
g3057
sg72
(lp3064
g1165
asbasbasbag65
(g81
g67
NtRp3065
(dp3066
g70
(dp3067
sg79
g2893
sg72
(lp3068
g65
(g86
g67
NtRp3069
(dp3070
g70
(dp3071
g90
g91
ssg79
g3065
sg72
(lp3072
S'HTTP_USER_AGENT'
p3073
asbag65
(g86
g67
NtRp3074
(dp3075
g70
(dp3076
g97
g98
ssg79
g3065
sg72
(lp3077
S':'
asbag65
(g86
g67
NtRp3078
(dp3079
g70
(dp3080
sg79
g3065
sg72
(lp3081
g65
(g66
g67
NtRp3082
(dp3083
g70
(dp3084
g78
I3
ssg79
g3078
sg72
(lp3085
g1187
asbasbasbag65
(g81
g67
NtRp3086
(dp3087
g70
(dp3088
sg79
g2893
sg72
(lp3089
g65
(g86
g67
NtRp3090
(dp3091
g70
(dp3092
g90
g91
ssg79
g3086
sg72
(lp3093
S'PATH_INFO'
p3094
asbag65
(g86
g67
NtRp3095
(dp3096
g70
(dp3097
g97
g98
ssg79
g3086
sg72
(lp3098
S':'
asbag65
(g86
g67
NtRp3099
(dp3100
g70
(dp3101
sg79
g3086
sg72
(lp3102
g65
(g66
g67
NtRp3103
(dp3104
g70
(dp3105
g78
I3
ssg79
g3099
sg72
(lp3106
g1251
asbasbasbag65
(g81
g67
NtRp3107
(dp3108
g70
(dp3109
sg79
g2893
sg72
(lp3110
g65
(g86
g67
NtRp3111
(dp3112
g70
(dp3113
g90
g91
ssg79
g3107
sg72
(lp3114
S'QUERY_STRING'
p3115
asbag65
(g86
g67
NtRp3116
(dp3117
g70
(dp3118
g97
g98
ssg79
g3107
sg72
(lp3119
S':'
asbag65
(g86
g67
NtRp3120
(dp3121
g70
(dp3122
sg79
g3107
sg72
(lp3123
g65
(g66
g67
NtRp3124
(dp3125
g70
(dp3126
g78
I3
ssg79
g3120
sg72
(lp3127
g1273
asbasbasbag65
(g81
g67
NtRp3128
(dp3129
g70
(dp3130
sg79
g2893
sg72
(lp3131
g65
(g86
g67
NtRp3132
(dp3133
g70
(dp3134
g90
g91
ssg79
g3128
sg72
(lp3135
S'REMOTE_ADDR'
p3136
asbag65
(g86
g67
NtRp3137
(dp3138
g70
(dp3139
g97
g98
ssg79
g3128
sg72
(lp3140
S':'
asbag65
(g86
g67
NtRp3141
(dp3142
g70
(dp3143
sg79
g3128
sg72
(lp3144
g65
(g66
g67
NtRp3145
(dp3146
g70
(dp3147
g78
I3
ssg79
g3141
sg72
(lp3148
g198
asbasbasbag65
(g81
g67
NtRp3149
(dp3150
g70
(dp3151
sg79
g2893
sg72
(lp3152
g65
(g86
g67
NtRp3153
(dp3154
g70
(dp3155
g90
g91
ssg79
g3149
sg72
(lp3156
S'REMOTE_PORT'
p3157
asbag65
(g86
g67
NtRp3158
(dp3159
g70
(dp3160
g97
g98
ssg79
g3149
sg72
(lp3161
S':'
asbag65
(g86
g67
NtRp3162
(dp3163
g70
(dp3164
sg79
g3149
sg72
(lp3165
g65
(g66
g67
NtRp3166
(dp3167
g70
(dp3168
g78
I3
ssg79
g3162
sg72
(lp3169
g1316
asbasbasbag65
(g81
g67
NtRp3170
(dp3171
g70
(dp3172
sg79
g2893
sg72
(lp3173
g65
(g86
g67
NtRp3174
(dp3175
g70
(dp3176
g90
g91
ssg79
g3170
sg72
(lp3177
S'REQUEST_METHOD'
p3178
asbag65
(g86
g67
NtRp3179
(dp3180
g70
(dp3181
g97
g98
ssg79
g3170
sg72
(lp3182
S':'
asbag65
(g86
g67
NtRp3183
(dp3184
g70
(dp3185
sg79
g3170
sg72
(lp3186
g65
(g66
g67
NtRp3187
(dp3188
g70
(dp3189
g78
I3
ssg79
g3183
sg72
(lp3190
g1338
asbasbasbag65
(g81
g67
NtRp3191
(dp3192
g70
(dp3193
sg79
g2893
sg72
(lp3194
g65
(g86
g67
NtRp3195
(dp3196
g70
(dp3197
g90
g91
ssg79
g3191
sg72
(lp3198
S'SCRIPT_NAME'
p3199
asbag65
(g86
g67
NtRp3200
(dp3201
g70
(dp3202
g97
g98
ssg79
g3191
sg72
(lp3203
S':'
asbag65
(g86
g67
NtRp3204
(dp3205
g70
(dp3206
sg79
g3191
sg72
(lp3207
g65
(g66
g67
NtRp3208
(dp3209
g70
(dp3210
g78
I3
ssg79
g3204
sg72
(lp3211
S''
asbasbasbag65
(g81
g67
NtRp3212
(dp3213
g70
(dp3214
sg79
g2893
sg72
(lp3215
g65
(g86
g67
NtRp3216
(dp3217
g70
(dp3218
g90
g91
ssg79
g3212
sg72
(lp3219
S'SERVER_NAME'
p3220
asbag65
(g86
g67
NtRp3221
(dp3222
g70
(dp3223
g97
g98
ssg79
g3212
sg72
(lp3224
S':'
asbag65
(g86
g67
NtRp3225
(dp3226
g70
(dp3227
sg79
g3212
sg72
(lp3228
g65
(g66
g67
NtRp3229
(dp3230
g70
(dp3231
g78
I3
ssg79
g3225
sg72
(lp3232
g1381
asbasbasbag65
(g81
g67
NtRp3233
(dp3234
g70
(dp3235
sg79
g2893
sg72
(lp3236
g65
(g86
g67
NtRp3237
(dp3238
g70
(dp3239
g90
g91
ssg79
g3233
sg72
(lp3240
S'SERVER_PORT'
p3241
asbag65
(g86
g67
NtRp3242
(dp3243
g70
(dp3244
g97
g98
ssg79
g3233
sg72
(lp3245
S':'
asbag65
(g86
g67
NtRp3246
(dp3247
g70
(dp3248
sg79
g3233
sg72
(lp3249
g65
(g66
g67
NtRp3250
(dp3251
g70
(dp3252
g78
I3
ssg79
g3246
sg72
(lp3253
g1403
asbasbasbag65
(g81
g67
NtRp3254
(dp3255
g70
(dp3256
sg79
g2893
sg72
(lp3257
g65
(g86
g67
NtRp3258
(dp3259
g70
(dp3260
g90
g91
ssg79
g3254
sg72
(lp3261
S'SERVER_PROTOCOL'
p3262
asbag65
(g86
g67
NtRp3263
(dp3264
g70
(dp3265
g97
g98
ssg79
g3254
sg72
(lp3266
S':'
asbag65
(g86
g67
NtRp3267
(dp3268
g70
(dp3269
sg79
g3254
sg72
(lp3270
g65
(g66
g67
NtRp3271
(dp3272
g70
(dp3273
g78
I3
ssg79
g3267
sg72
(lp3274
g1425
asbasbasbag65
(g81
g67
NtRp3275
(dp3276
g70
(dp3277
sg79
g2893
sg72
(lp3278
g65
(g86
g67
NtRp3279
(dp3280
g70
(dp3281
g90
g91
ssg79
g3275
sg72
(lp3282
S'SERVER_SOFTWARE'
p3283
asbag65
(g86
g67
NtRp3284
(dp3285
g70
(dp3286
g97
g98
ssg79
g3275
sg72
(lp3287
S':'
asbag65
(g86
g67
NtRp3288
(dp3289
g70
(dp3290
sg79
g3275
sg72
(lp3291
g65
(g66
g67
NtRp3292
(dp3293
g70
(dp3294
g78
I3
ssg79
g3288
sg72
(lp3295
g1447
asbasbasbag65
(g81
g67
NtRp3296
(dp3297
g70
(dp3298
sg79
g2893
sg72
(lp3299
g65
(g86
g67
NtRp3300
(dp3301
g70
(dp3302
g90
g91
ssg79
g3296
sg72
(lp3303
S'wsgi.errors'
p3304
asbag65
(g86
g67
NtRp3305
(dp3306
g70
(dp3307
g97
g98
ssg79
g3296
sg72
(lp3308
S':'
asbag65
(g86
g67
NtRp3309
(dp3310
g70
(dp3311
sg79
g3296
sg72
(lp3312
g65
(g66
g67
NtRp3313
(dp3314
g70
(dp3315
g78
I3
ssg79
g3309
sg72
(lp3316
S"<open file '<stderr>', mode 'w' at 0x00A550D0>"
p3317
asbasbasbag65
(g81
g67
NtRp3318
(dp3319
g70
(dp3320
sg79
g2893
sg72
(lp3321
g65
(g86
g67
NtRp3322
(dp3323
g70
(dp3324
g90
g91
ssg79
g3318
sg72
(lp3325
S'wsgi.file_wrapper'
p3326
asbag65
(g86
g67
NtRp3327
(dp3328
g70
(dp3329
g97
g98
ssg79
g3318
sg72
(lp3330
S':'
asbag65
(g86
g67
NtRp3331
(dp3332
g70
(dp3333
sg79
g3318
sg72
(lp3334
g65
(g66
g67
NtRp3335
(dp3336
g70
(dp3337
g78
I3
ssg79
g3331
sg72
(lp3338
S'<class wsgiref.util.FileWrapper at 0x015E8AB0>'
p3339
asbasbasbag65
(g81
g67
NtRp3340
(dp3341
g70
(dp3342
sg79
g2893
sg72
(lp3343
g65
(g86
g67
NtRp3344
(dp3345
g70
(dp3346
g90
g91
ssg79
g3340
sg72
(lp3347
S'wsgi.input'
p3348
asbag65
(g86
g67
NtRp3349
(dp3350
g70
(dp3351
g97
g98
ssg79
g3340
sg72
(lp3352
S':'
asbag65
(g86
g67
NtRp3353
(dp3354
g70
(dp3355
sg79
g3340
sg72
(lp3356
g65
(g66
g67
NtRp3357
(dp3358
g70
(dp3359
g78
I3
ssg79
g3353
sg72
(lp3360
S'<cStringIO.StringO object at 0x01B82740>'
p3361
asbasbasbag65
(g81
g67
NtRp3362
(dp3363
g70
(dp3364
sg79
g2893
sg72
(lp3365
g65
(g86
g67
NtRp3366
(dp3367
g70
(dp3368
g90
g91
ssg79
g3362
sg72
(lp3369
S'wsgi.multiprocess'
p3370
asbag65
(g86
g67
NtRp3371
(dp3372
g70
(dp3373
g97
g98
ssg79
g3362
sg72
(lp3374
S':'
asbag65
(g86
g67
NtRp3375
(dp3376
g70
(dp3377
sg79
g3362
sg72
(lp3378
g65
(g66
g67
NtRp3379
(dp3380
g70
(dp3381
g78
I3
ssg79
g3375
sg72
(lp3382
g108
asbasbasbag65
(g81
g67
NtRp3383
(dp3384
g70
(dp3385
sg79
g2893
sg72
(lp3386
g65
(g86
g67
NtRp3387
(dp3388
g70
(dp3389
g90
g91
ssg79
g3383
sg72
(lp3390
S'wsgi.multithread'
p3391
asbag65
(g86
g67
NtRp3392
(dp3393
g70
(dp3394
g97
g98
ssg79
g3383
sg72
(lp3395
S':'
asbag65
(g86
g67
NtRp3396
(dp3397
g70
(dp3398
sg79
g3383
sg72
(lp3399
g65
(g66
g67
NtRp3400
(dp3401
g70
(dp3402
g78
I3
ssg79
g3396
sg72
(lp3403
g1687
asbasbasbag65
(g81
g67
NtRp3404
(dp3405
g70
(dp3406
sg79
g2893
sg72
(lp3407
g65
(g86
g67
NtRp3408
(dp3409
g70
(dp3410
g90
g91
ssg79
g3404
sg72
(lp3411
S'wsgi.run_once'
p3412
asbag65
(g86
g67
NtRp3413
(dp3414
g70
(dp3415
g97
g98
ssg79
g3404
sg72
(lp3416
S':'
asbag65
(g86
g67
NtRp3417
(dp3418
g70
(dp3419
sg79
g3404
sg72
(lp3420
g65
(g66
g67
NtRp3421
(dp3422
g70
(dp3423
g78
I3
ssg79
g3417
sg72
(lp3424
g108
asbasbasbag65
(g81
g67
NtRp3425
(dp3426
g70
(dp3427
sg79
g2893
sg72
(lp3428
g65
(g86
g67
NtRp3429
(dp3430
g70
(dp3431
g90
g91
ssg79
g3425
sg72
(lp3432
S'wsgi.url_scheme'
p3433
asbag65
(g86
g67
NtRp3434
(dp3435
g70
(dp3436
g97
g98
ssg79
g3425
sg72
(lp3437
S':'
asbag65
(g86
g67
NtRp3438
(dp3439
g70
(dp3440
sg79
g3425
sg72
(lp3441
g65
(g66
g67
NtRp3442
(dp3443
g70
(dp3444
g78
I3
ssg79
g3438
sg72
(lp3445
g1730
asbasbasbag65
(g81
g67
NtRp3446
(dp3447
g70
(dp3448
sg79
g2893
sg72
(lp3449
g65
(g86
g67
NtRp3450
(dp3451
g70
(dp3452
g90
g91
ssg79
g3446
sg72
(lp3453
S'wsgi.version'
p3454
asbag65
(g86
g67
NtRp3455
(dp3456
g70
(dp3457
g97
g98
ssg79
g3446
sg72
(lp3458
S':'
asbag65
(g86
g67
NtRp3459
(dp3460
g70
(dp3461
sg79
g3446
sg72
(lp3462
g65
(g66
g67
NtRp3463
(dp3464
g70
(dp3465
g78
I3
ssg79
g3459
sg72
(lp3466
S'1'
asbasbasbasbasbasbasbasbasbasbasbasbasbsS'frames'
p3467
(lp3468
(dp3469
S'file'
p3470
S'C:\\Documents and Settings\\agrover\\Desktop\\previous crawler\\web2py\\gluon\\restricted.py'
p3471
sS'dump'
p3472
(dp3473
S'environment'
p3474
S"{'A': <class 'gluon.html.A'>, 'Auth': <class 'gluon.tools.Auth'>, 'B': <class 'gluon.html.B'>, 'BEAUTIFY': <class 'gluon.html.BEAUTIFY'>, 'BODY': <class 'gluon.html.BODY'>, 'BR': <class 'gluon.html.BR'>, 'BUTTON': <class 'gluon.html.BUTTON'>, 'CAT': <class 'gluon.html.CAT'>, 'CENTER': <class 'gluon.html.CENTER'>, 'CLEANUP': <class 'gluon.validators.CLEANUP'>, ...}"
p3475
sS'ccode'
p3476
S'<code object <module> at 067BCE30, file "C:\\Docu...tions\\mycrawler\\controllers/default.py", line 11>'
p3477
ssS'lnum'
p3478
I205
sS'lines'
p3479
(dp3480
I200
S'    try:'
p3481
sI201
S'        if type(code) == types.CodeType:'
p3482
sI202
S'            ccode = code'
p3483
sI203
S'        else:'
p3484
sI204
S'            ccode = compile2(code,layer)'
p3485
sI205
S'        exec ccode in environment'
p3486
sI206
S'    except HTTP:'
p3487
sI207
S'        raise'
p3488
sI208
S'    except RestrictedError:'
p3489
sI209
S'        # do not encapsulate (obfuscate) the original RestrictedError'
p3490
ssS'call'
p3491
S"(code='# -*- coding: utf-8 -*-\\n# this file is released ...urrent)\\n\\nresponse._vars=response._caller(search)\\n', environment={'A': <class 'gluon.html.A'>, 'Auth': <class 'gluon.tools.Auth'>, 'B': <class 'gluon.html.B'>, 'BEAUTIFY': <class 'gluon.html.BEAUTIFY'>, 'BODY': <class 'gluon.html.BODY'>, 'BR': <class 'gluon.html.BR'>, 'BUTTON': <class 'gluon.html.BUTTON'>, 'CAT': <class 'gluon.html.CAT'>, 'CENTER': <class 'gluon.html.CENTER'>, 'CLEANUP': <class 'gluon.validators.CLEANUP'>, ...}, layer=r'C:\\Documents and Settings\\agrover\\Desktop\\previo...2py\\applications\\mycrawler\\controllers/default.py')"
p3492
sS'func'
p3493
S'restricted'
p3494
sa(dp3495
g3470
S'C:\\Documents and Settings\\agrover\\Desktop\\previous crawler\\web2py\\applications\\mycrawler\\controllers\\default.py'
p3496
sg3472
(dp3497
sg3478
I444
sg3479
(dp3498
I433
S"    #response.headers['Content-Type'] = 'text/csv'"
p3499
sI434
S"    #response.headers['Content-Disposition'] = 'attachment; filename=%s' % request.vars.File_Name"
p3500
sI435
S''
sI436
S'    #print view_profile'
p3501
sI437
S'    #print name'
p3502
sI438
S'    #print location'
p3503
sI439
S'    #print industry'
p3504
sI440
S'    #print titl'
p3505
sI441
S''
sI442
S'    #return dict(view_profile=view_profile,name=name,location=location,industry=industry,titl=titl,current=current)'
p3506
ssg3491
S'()'
p3507
sg3493
S'<module>'
p3508
sa(dp3509
g3470
S'C:\\Documents and Settings\\agrover\\Desktop\\previous crawler\\web2py\\gluon\\globals.py'
p3510
sg3472
(dp3511
S'self'
p3512
S'undefined'
p3513
sS'f'
S'<function search>'
p3514
ssg3478
I173
sg3479
(dp3515
I168
S'        self.menu = []             # used by the default view layout'
p3516
sI169
S'        self.files = []            # used by web2py_ajax.html'
p3517
sI170
S'        self.generic_patterns = [] # patterns to allow generic views'
p3518
sI171
S"        self.delimiters = ('{{','}}')"
p3519
sI172
S'        self._vars = None'
p3520
sI173
S'        self._caller = lambda f: f()'
p3521
sI174
S'        self._view_environment = None'
p3522
sI175
S'        self._custom_commit = None'
p3523
sI176
S'        self._custom_rollback = None'
p3524
sI177
S''
ssg3491
S'(f=<function search>)'
p3525
sg3493
S'<lambda>'
p3526
sa(dp3527
g3470
S'C:\\Documents and Settings\\agrover\\Desktop\\previous crawler\\web2py\\applications\\mycrawler\\controllers\\default.py'
p3528
sg3472
(dp3529
S'emailid'
p3530
S"['NONE', 'NONE', 'NONE', 'NONE', 'NONE', 'NONE', 'NONE', 'NONE', 'NONE', 'NONE']"
p3531
sS'spamWriter.writerow'
p3532
S'<built-in method writerow of _csv.writer object>'
p3533
sS'firstname'
p3534
S"['Sam', 'Sam', 'Sam', 'SAM', 'Sam', 'sam', 'Sam', 'Sam', 'Sam', 'Sam']"
p3535
sS'view_profile'
p3536
S"[u'http://www.linkedin.com/profile/view?id=232932...2_*2_*2_*2_*2_*2&pvs=ps&trk=pp_profile_name_link', u'http://www.linkedin.com/profile/view?id=241781...2_*2_*2_*2_*2_*2&pvs=ps&trk=pp_profile_name_link', u'http://www.linkedin.com/profile/view?id=261561...2_*2_*2_*2_*2_*2&pvs=ps&trk=pp_profile_name_link', u'http://www.linkedin.com/profile/view?id=596652...2_*2_*2_*2_*2_*2&pvs=ps&trk=pp_profile_name_link', u'http://www.linkedin.com/profile/view?id=644016...2_*2_*2_*2_*2_*2&pvs=ps&trk=pp_profile_name_link', u'http://www.linkedin.com/profile/view?id=692820...2_*2_*2_*2_*2_*2&pvs=ps&trk=pp_profile_name_link', u'http://www.linkedin.com/profile/view?id=218033...2_*2_*2_*2_*2_*2&pvs=ps&trk=pp_profile_name_link', u'http://www.linkedin.com/profile/view?id=633181...2_*2_*2_*2_*2_*2&pvs=ps&trk=pp_profile_name_link', u'http://www.linkedin.com/profile/view?id=292416...2_*2_*2_*2_*2_*2&pvs=ps&trk=pp_profile_name_link', u'http://www.linkedin.com/profile/view?id=553806...2_*2_*2_*2_*2_*2&pvs=ps&trk=pp_profile_name_link']"
p3537
sS'spamWriter'
p3538
S'<_csv.writer object>'
p3539
sS'lastname'
p3540
S"['Asir', '- PhD\\n ', 'Elwin', 'BOMBAY\\n ', 'W. M. (\\xe0\\xb4\\xb7\\xe0\\xb5\\x86\\xe0\\xb4\\xb2\\xe0\\xb5\\x8d\\xe0\\xb4\\xb2\\xe0\\xb4\\xbf)\\n ', 'ch', 'K\\n ', 'Sudarshan', '.\\n ', 'Mascarenhas\\n ']"
p3541
sS'industry'
p3542
S"[u'\\n Banking\\n ', u'\\n Information Technology and Services\\n ', u'\\n Information Technology and Services\\n ', u'\\n Entertainment\\n ', u'\\n Research\\n ', u'\\n Automotive\\n ', u'\\n Computer Software\\n ', u'\\n Information Technology and Services\\n ', u'\\n Human Resources\\n ', u'\\n Information Technology and Services\\n ']"
p3543
sS'].encode'
p3544
g3513
sS'current'
p3545
S"[u'Program Manager at Wipro', u'DGM - Research & Analytics at IBM Global Process Services ', u'Sr. Team Lead HR at First American (India) Pvt Limited ', 'NONE', u'Team Lead at Thomson Reuters, Blogger at Shellydgreat ', u'Tivoli Netcool Security Engineer at i3Software ', u'Program Manager at Dell', u'Project Lead at Mahindra Satyam', u'HR IT Recruiter at krg technologies', u'Package Solution Consultant at IBM Global Business Services ']"
p3546
sS'i'
S'4'
sS'location'
p3547
S"[u'\\n India\\n ', u'\\n Bengaluru Area, India\\n ', u'\\n Bengaluru Area, India\\n ', u'\\n India\\n ', u'\\n Nagercoil Area, India\\n ', u'\\n Hyderabad Area, India\\n ', u'\\n Bengaluru Area, India\\n ', u'\\n Hyderabad Area, India\\n ', u'\\n Chennai Area, India\\n ', u'\\n Bengaluru Area, India\\n ']"
p3548
sS'titl'
p3549
S"[u'Progam Manager & Consultant (Banking)', u'DGM - Research & Analytics at IBM Global Process Services', u'Sr. Lead HR at First American (India) Private Limited', u'FILM DIRECTOR', u'Team Lead at Thomson Reuters', u'Tivoli Security Management', u'Program Manager', u'Project Lead at Mahindra Satyam', u'HR Recruiter at KRG Technologies', u'SAP IS Oil Downstream Consultant (Certified in SCM Procurement ECC 5.00)']"
p3550
sS'middlename'
p3551
S"['None', 'Albert', 'None', 'AHMED', 'Gladson', 'None', 'Mathai', 'None', 'Johnson', 'Arthur']"
p3552
sS'company'
p3553
S"['Wipro', 'IBM Global Process Services ', 'First American (India) Pvt Limited ', 'NONE', 'Thomson Reuters', 'i3Software ', 'Dell', 'Mahindra Satyam', 'krg technologies', 'IBM Global Business Services ']"
p3554
ssg3478
I363
sg3479
(dp3555
I358
S"                emailid.append('NONE')"
p3556
sI359
S''
sI360
S''
sI361
S'        for i in range(0,len(firstname)):'
p3557
sI362
S'            #try:'
p3558
sI363
S"            spamWriter.writerow([firstname[i].encode('utf-8').strip(),middlename[i].encode('utf-8').strip(),lastname[i].encode('utf-8').strip(),titl[i].encode('utf-8').strip(),current[i].encode('utf-8').strip(),location[i].encode('utf-8').strip(),industry[i].encode('utf-8').strip(),view_profile[i].encode('utf-8').strip(),company[i].encode('utf-8').strip(),emailid[i].encode('utf-8').strip()])"
p3559
sI364
S'            #except:'
p3560
sI365
S'            #    continue'
p3561
sI366
S'        if soup.find(\'a\',{"class" : "paginator-next"}):'
p3562
sI367
S'            br.open(\'http://www.linkedin.com\'+ soup.find(\'a\',{"class" : "paginator-next"}).get(\'href\'))'
p3563
ssg3491
S'()'
p3564
sg3493
S'search'
p3565
sasS'pyver'
p3566
S'Python 2.7.3: C:\\Python27\\python.exe'
p3567
sS'session'
p3568
g65
(g66
g67
NtRp3569
(dp3570
g70
(dp3571
sg72
(lp3572
g65
(g74
g67
NtRp3573
(dp3574
g70
(dp3575
g78
I5
ssg79
Nsg72
(lp3576
g65
(g81
g67
NtRp3577
(dp3578
g70
(dp3579
sg79
g3573
sg72
(lp3580
g65
(g86
g67
NtRp3581
(dp3582
g70
(dp3583
g90
g91
ssg79
g3577
sg72
(lp3584
S'password'
p3585
asbag65
(g86
g67
NtRp3586
(dp3587
g70
(dp3588
g97
g98
ssg79
g3577
sg72
(lp3589
S':'
asbag65
(g86
g67
NtRp3590
(dp3591
g70
(dp3592
sg79
g3577
sg72
(lp3593
g65
(g66
g67
NtRp3594
(dp3595
g70
(dp3596
g78
I5
ssg79
g3590
sg72
(lp3597
S'modeln@1234'
p3598
asbasbasbag65
(g81
g67
NtRp3599
(dp3600
g70
(dp3601
sg79
g3573
sg72
(lp3602
g65
(g86
g67
NtRp3603
(dp3604
g70
(dp3605
g90
g91
ssg79
g3599
sg72
(lp3606
S'username'
p3607
asbag65
(g86
g67
NtRp3608
(dp3609
g70
(dp3610
g97
g98
ssg79
g3599
sg72
(lp3611
S':'
asbag65
(g86
g67
NtRp3612
(dp3613
g70
(dp3614
sg79
g3599
sg72
(lp3615
g65
(g66
g67
NtRp3616
(dp3617
g70
(dp3618
g78
I5
ssg79
g3612
sg72
(lp3619
S'mrigeshgaurav@gmail.com'
p3620
asbasbasbasbasbsS'etype'
p3621
S"<type 'exceptions.UnicodeDecodeError'>"
p3622
sS'date'
p3623
S'Fri Jun 22 11:22:49 2012'
p3624
sS'response'
p3625
g65
(g66
g67
NtRp3626
(dp3627
g70
(dp3628
sg72
(lp3629
g65
(g74
g67
NtRp3630
(dp3631
g70
(dp3632
g78
I5
ssg79
Nsg72
(lp3633
g65
(g81
g67
NtRp3634
(dp3635
g70
(dp3636
sg79
g3630
sg72
(lp3637
g65
(g86
g67
NtRp3638
(dp3639
g70
(dp3640
g90
g91
ssg79
g3634
sg72
(lp3641
g163
asbag65
(g86
g67
NtRp3642
(dp3643
g70
(dp3644
g97
g98
ssg79
g3634
sg72
(lp3645
S':'
asbag65
(g86
g67
NtRp3646
(dp3647
g70
(dp3648
sg79
g3634
sg72
(lp3649
g65
(g66
g67
NtRp3650
(dp3651
g70
(dp3652
g78
I5
ssg79
g3646
sg72
(lp3653
S'<cStringIO.StringO object at 0x06720FC0>'
p3654
asbasbasbag65
(g81
g67
NtRp3655
(dp3656
g70
(dp3657
sg79
g3630
sg72
(lp3658
g65
(g86
g67
NtRp3659
(dp3660
g70
(dp3661
g90
g91
ssg79
g3655
sg72
(lp3662
g229
asbag65
(g86
g67
NtRp3663
(dp3664
g70
(dp3665
g97
g98
ssg79
g3655
sg72
(lp3666
S':'
asbag65
(g86
g67
NtRp3667
(dp3668
g70
(dp3669
sg79
g3655
sg72
(lp3670
g65
(g66
g67
NtRp3671
(dp3672
g70
(dp3673
g78
I5
ssg79
g3667
sg72
(lp3674
g65
(g74
g67
NtRp3675
(dp3676
g70
(dp3677
g78
I4
ssg79
Nsg72
(lp3678
g65
(g81
g67
NtRp3679
(dp3680
g70
(dp3681
sg79
g3675
sg72
(lp3682
g65
(g86
g67
NtRp3683
(dp3684
g70
(dp3685
g90
g91
ssg79
g3679
sg72
(lp3686
S'session_id_mycrawler'
p3687
asbag65
(g86
g67
NtRp3688
(dp3689
g70
(dp3690
g97
g98
ssg79
g3679
sg72
(lp3691
S':'
asbag65
(g86
g67
NtRp3692
(dp3693
g70
(dp3694
sg79
g3679
sg72
(lp3695
g65
(g66
g67
NtRp3696
(dp3697
g70
(dp3698
g78
I4
ssg79
g3692
sg72
(lp3699
g65
(g74
g67
NtRp3700
(dp3701
g70
(dp3702
g78
I3
ssg79
Nsg72
(lp3703
g65
(g81
g67
NtRp3704
(dp3705
g70
(dp3706
sg79
g3700
sg72
(lp3707
g65
(g86
g67
NtRp3708
(dp3709
g70
(dp3710
g90
g91
ssg79
g3704
sg72
(lp3711
g279
asbag65
(g86
g67
NtRp3712
(dp3713
g70
(dp3714
g97
g98
ssg79
g3704
sg72
(lp3715
S':'
asbag65
(g86
g67
NtRp3716
(dp3717
g70
(dp3718
sg79
g3704
sg72
(lp3719
g65
(g66
g67
NtRp3720
(dp3721
g70
(dp3722
g78
I3
ssg79
g3716
sg72
(lp3723
S''
asbasbasbag65
(g81
g67
NtRp3724
(dp3725
g70
(dp3726
sg79
g3700
sg72
(lp3727
g65
(g86
g67
NtRp3728
(dp3729
g70
(dp3730
g90
g91
ssg79
g3724
sg72
(lp3731
g300
asbag65
(g86
g67
NtRp3732
(dp3733
g70
(dp3734
g97
g98
ssg79
g3724
sg72
(lp3735
S':'
asbag65
(g86
g67
NtRp3736
(dp3737
g70
(dp3738
sg79
g3724
sg72
(lp3739
g65
(g66
g67
NtRp3740
(dp3741
g70
(dp3742
g78
I3
ssg79
g3736
sg72
(lp3743
S''
asbasbasbag65
(g81
g67
NtRp3744
(dp3745
g70
(dp3746
sg79
g3700
sg72
(lp3747
g65
(g86
g67
NtRp3748
(dp3749
g70
(dp3750
g90
g91
ssg79
g3744
sg72
(lp3751
g321
asbag65
(g86
g67
NtRp3752
(dp3753
g70
(dp3754
g97
g98
ssg79
g3744
sg72
(lp3755
S':'
asbag65
(g86
g67
NtRp3756
(dp3757
g70
(dp3758
sg79
g3744
sg72
(lp3759
g65
(g66
g67
NtRp3760
(dp3761
g70
(dp3762
g78
I3
ssg79
g3756
sg72
(lp3763
S''
asbasbasbag65
(g81
g67
NtRp3764
(dp3765
g70
(dp3766
sg79
g3700
sg72
(lp3767
g65
(g86
g67
NtRp3768
(dp3769
g70
(dp3770
g90
g91
ssg79
g3764
sg72
(lp3771
g342
asbag65
(g86
g67
NtRp3772
(dp3773
g70
(dp3774
g97
g98
ssg79
g3764
sg72
(lp3775
S':'
asbag65
(g86
g67
NtRp3776
(dp3777
g70
(dp3778
sg79
g3764
sg72
(lp3779
g65
(g66
g67
NtRp3780
(dp3781
g70
(dp3782
g78
I3
ssg79
g3776
sg72
(lp3783
S''
asbasbasbag65
(g81
g67
NtRp3784
(dp3785
g70
(dp3786
sg79
g3700
sg72
(lp3787
g65
(g86
g67
NtRp3788
(dp3789
g70
(dp3790
g90
g91
ssg79
g3784
sg72
(lp3791
g363
asbag65
(g86
g67
NtRp3792
(dp3793
g70
(dp3794
g97
g98
ssg79
g3784
sg72
(lp3795
S':'
asbag65
(g86
g67
NtRp3796
(dp3797
g70
(dp3798
sg79
g3784
sg72
(lp3799
g65
(g66
g67
NtRp3800
(dp3801
g70
(dp3802
g78
I3
ssg79
g3796
sg72
(lp3803
S''
asbasbasbag65
(g81
g67
NtRp3804
(dp3805
g70
(dp3806
sg79
g3700
sg72
(lp3807
g65
(g86
g67
NtRp3808
(dp3809
g70
(dp3810
g90
g91
ssg79
g3804
sg72
(lp3811
g384
asbag65
(g86
g67
NtRp3812
(dp3813
g70
(dp3814
g97
g98
ssg79
g3804
sg72
(lp3815
S':'
asbag65
(g86
g67
NtRp3816
(dp3817
g70
(dp3818
sg79
g3804
sg72
(lp3819
g65
(g66
g67
NtRp3820
(dp3821
g70
(dp3822
g78
I3
ssg79
g3816
sg72
(lp3823
S'/'
asbasbasbag65
(g81
g67
NtRp3824
(dp3825
g70
(dp3826
sg79
g3700
sg72
(lp3827
g65
(g86
g67
NtRp3828
(dp3829
g70
(dp3830
g90
g91
ssg79
g3824
sg72
(lp3831
g405
asbag65
(g86
g67
NtRp3832
(dp3833
g70
(dp3834
g97
g98
ssg79
g3824
sg72
(lp3835
S':'
asbag65
(g86
g67
NtRp3836
(dp3837
g70
(dp3838
sg79
g3824
sg72
(lp3839
g65
(g66
g67
NtRp3840
(dp3841
g70
(dp3842
g78
I3
ssg79
g3836
sg72
(lp3843
S''
asbasbasbag65
(g81
g67
NtRp3844
(dp3845
g70
(dp3846
sg79
g3700
sg72
(lp3847
g65
(g86
g67
NtRp3848
(dp3849
g70
(dp3850
g90
g91
ssg79
g3844
sg72
(lp3851
g426
asbag65
(g86
g67
NtRp3852
(dp3853
g70
(dp3854
g97
g98
ssg79
g3844
sg72
(lp3855
S':'
asbag65
(g86
g67
NtRp3856
(dp3857
g70
(dp3858
sg79
g3844
sg72
(lp3859
g65
(g66
g67
NtRp3860
(dp3861
g70
(dp3862
g78
I3
ssg79
g3856
sg72
(lp3863
S''
asbasbasbasbasbasbasbasbasbasbasbag65
(g81
g67
NtRp3864
(dp3865
g70
(dp3866
sg79
g3630
sg72
(lp3867
g65
(g86
g67
NtRp3868
(dp3869
g70
(dp3870
g90
g91
ssg79
g3864
sg72
(lp3871
S'delimiters'
p3872
asbag65
(g86
g67
NtRp3873
(dp3874
g70
(dp3875
g97
g98
ssg79
g3864
sg72
(lp3876
S':'
asbag65
(g86
g67
NtRp3877
(dp3878
g70
(dp3879
sg79
g3864
sg72
(lp3880
g65
(g66
g67
NtRp3881
(dp3882
g70
(dp3883
g78
I5
ssg79
g3877
sg72
(lp3884
g65
(g74
g67
NtRp3885
(dp3886
g70
(dp3887
g78
I4
ssg79
Nsg72
(lp3888
g65
(g81
g67
NtRp3889
(dp3890
g70
(dp3891
sg79
g3885
sg72
(lp3892
g65
(g86
g67
NtRp3893
(dp3894
g70
(dp3895
sg79
g3889
sg72
(lp3896
g65
(g66
g67
NtRp3897
(dp3898
g70
(dp3899
g78
I4
ssg79
g3893
sg72
(lp3900
S'{{'
p3901
asbasbasbag65
(g81
g67
NtRp3902
(dp3903
g70
(dp3904
sg79
g3885
sg72
(lp3905
g65
(g86
g67
NtRp3906
(dp3907
g70
(dp3908
sg79
g3902
sg72
(lp3909
g65
(g66
g67
NtRp3910
(dp3911
g70
(dp3912
g78
I4
ssg79
g3906
sg72
(lp3913
S'}}'
p3914
asbasbasbasbasbasbasbag65
(g81
g67
NtRp3915
(dp3916
g70
(dp3917
sg79
g3630
sg72
(lp3918
g65
(g86
g67
NtRp3919
(dp3920
g70
(dp3921
g90
g91
ssg79
g3915
sg72
(lp3922
S'files'
p3923
asbag65
(g86
g67
NtRp3924
(dp3925
g70
(dp3926
g97
g98
ssg79
g3915
sg72
(lp3927
S':'
asbag65
(g86
g67
NtRp3928
(dp3929
g70
(dp3930
sg79
g3915
sg72
(lp3931
g65
(g66
g67
NtRp3932
(dp3933
g70
(dp3934
g78
I5
ssg79
g3928
sg72
(lp3935
g65
(g74
g67
NtRp3936
(dp3937
g70
(dp3938
g78
I4
ssg79
Nsg72
(lp3939
sbasbasbasbag65
(g81
g67
NtRp3940
(dp3941
g70
(dp3942
sg79
g3630
sg72
(lp3943
g65
(g86
g67
NtRp3944
(dp3945
g70
(dp3946
g90
g91
ssg79
g3940
sg72
(lp3947
S'flash'
p3948
asbag65
(g86
g67
NtRp3949
(dp3950
g70
(dp3951
g97
g98
ssg79
g3940
sg72
(lp3952
S':'
asbag65
(g86
g67
NtRp3953
(dp3954
g70
(dp3955
sg79
g3940
sg72
(lp3956
g65
(g66
g67
NtRp3957
(dp3958
g70
(dp3959
g78
I5
ssg79
g3953
sg72
(lp3960
S''
asbasbasbag65
(g81
g67
NtRp3961
(dp3962
g70
(dp3963
sg79
g3630
sg72
(lp3964
g65
(g86
g67
NtRp3965
(dp3966
g70
(dp3967
g90
g91
ssg79
g3961
sg72
(lp3968
S'generic_patterns'
p3969
asbag65
(g86
g67
NtRp3970
(dp3971
g70
(dp3972
g97
g98
ssg79
g3961
sg72
(lp3973
S':'
asbag65
(g86
g67
NtRp3974
(dp3975
g70
(dp3976
sg79
g3961
sg72
(lp3977
g65
(g66
g67
NtRp3978
(dp3979
g70
(dp3980
g78
I5
ssg79
g3974
sg72
(lp3981
g65
(g74
g67
NtRp3982
(dp3983
g70
(dp3984
g78
I4
ssg79
Nsg72
(lp3985
g65
(g81
g67
NtRp3986
(dp3987
g70
(dp3988
sg79
g3982
sg72
(lp3989
g65
(g86
g67
NtRp3990
(dp3991
g70
(dp3992
sg79
g3986
sg72
(lp3993
g65
(g66
g67
NtRp3994
(dp3995
g70
(dp3996
g78
I4
ssg79
g3990
sg72
(lp3997
S'*'
asbasbasbasbasbasbasbag65
(g81
g67
NtRp3998
(dp3999
g70
(dp4000
sg79
g3630
sg72
(lp4001
g65
(g86
g67
NtRp4002
(dp4003
g70
(dp4004
g90
g91
ssg79
g3998
sg72
(lp4005
S'headers'
p4006
asbag65
(g86
g67
NtRp4007
(dp4008
g70
(dp4009
g97
g98
ssg79
g3998
sg72
(lp4010
S':'
asbag65
(g86
g67
NtRp4011
(dp4012
g70
(dp4013
sg79
g3998
sg72
(lp4014
g65
(g66
g67
NtRp4015
(dp4016
g70
(dp4017
g78
I5
ssg79
g4011
sg72
(lp4018
g65
(g74
g67
NtRp4019
(dp4020
g70
(dp4021
g78
I4
ssg79
Nsg72
(lp4022
g65
(g81
g67
NtRp4023
(dp4024
g70
(dp4025
sg79
g4019
sg72
(lp4026
g65
(g86
g67
NtRp4027
(dp4028
g70
(dp4029
g90
g91
ssg79
g4023
sg72
(lp4030
S'Cache-Control'
p4031
asbag65
(g86
g67
NtRp4032
(dp4033
g70
(dp4034
g97
g98
ssg79
g4023
sg72
(lp4035
S':'
asbag65
(g86
g67
NtRp4036
(dp4037
g70
(dp4038
sg79
g4023
sg72
(lp4039
g65
(g66
g67
NtRp4040
(dp4041
g70
(dp4042
g78
I4
ssg79
g4036
sg72
(lp4043
S'no-store, no-cache, must-revalidate, post-check=0, pre-check=0'
p4044
asbasbasbag65
(g81
g67
NtRp4045
(dp4046
g70
(dp4047
sg79
g4019
sg72
(lp4048
g65
(g86
g67
NtRp4049
(dp4050
g70
(dp4051
g90
g91
ssg79
g4045
sg72
(lp4052
S'Content-Type'
p4053
asbag65
(g86
g67
NtRp4054
(dp4055
g70
(dp4056
g97
g98
ssg79
g4045
sg72
(lp4057
S':'
asbag65
(g86
g67
NtRp4058
(dp4059
g70
(dp4060
sg79
g4045
sg72
(lp4061
g65
(g66
g67
NtRp4062
(dp4063
g70
(dp4064
g78
I4
ssg79
g4058
sg72
(lp4065
S'text/html; charset=utf-8'
p4066
asbasbasbag65
(g81
g67
NtRp4067
(dp4068
g70
(dp4069
sg79
g4019
sg72
(lp4070
g65
(g86
g67
NtRp4071
(dp4072
g70
(dp4073
g90
g91
ssg79
g4067
sg72
(lp4074
S'Expires'
p4075
asbag65
(g86
g67
NtRp4076
(dp4077
g70
(dp4078
g97
g98
ssg79
g4067
sg72
(lp4079
S':'
asbag65
(g86
g67
NtRp4080
(dp4081
g70
(dp4082
sg79
g4067
sg72
(lp4083
g65
(g66
g67
NtRp4084
(dp4085
g70
(dp4086
g78
I4
ssg79
g4080
sg72
(lp4087
S'Fri, 22 Jun 2012 18:20:52 GMT'
p4088
asbasbasbag65
(g81
g67
NtRp4089
(dp4090
g70
(dp4091
sg79
g4019
sg72
(lp4092
g65
(g86
g67
NtRp4093
(dp4094
g70
(dp4095
g90
g91
ssg79
g4089
sg72
(lp4096
S'Pragma'
p4097
asbag65
(g86
g67
NtRp4098
(dp4099
g70
(dp4100
g97
g98
ssg79
g4089
sg72
(lp4101
S':'
asbag65
(g86
g67
NtRp4102
(dp4103
g70
(dp4104
sg79
g4089
sg72
(lp4105
g65
(g66
g67
NtRp4106
(dp4107
g70
(dp4108
g78
I4
ssg79
g4102
sg72
(lp4109
S'no-cache'
p4110
asbasbasbag65
(g81
g67
NtRp4111
(dp4112
g70
(dp4113
sg79
g4019
sg72
(lp4114
g65
(g86
g67
NtRp4115
(dp4116
g70
(dp4117
g90
g91
ssg79
g4111
sg72
(lp4118
S'X-Powered-By'
p4119
asbag65
(g86
g67
NtRp4120
(dp4121
g70
(dp4122
g97
g98
ssg79
g4111
sg72
(lp4123
S':'
asbag65
(g86
g67
NtRp4124
(dp4125
g70
(dp4126
sg79
g4111
sg72
(lp4127
g65
(g66
g67
NtRp4128
(dp4129
g70
(dp4130
g78
I4
ssg79
g4124
sg72
(lp4131
S'web2py'
p4132
asbasbasbasbasbasbasbag65
(g81
g67
NtRp4133
(dp4134
g70
(dp4135
sg79
g3630
sg72
(lp4136
g65
(g86
g67
NtRp4137
(dp4138
g70
(dp4139
g90
g91
ssg79
g4133
sg72
(lp4140
S'menu'
p4141
asbag65
(g86
g67
NtRp4142
(dp4143
g70
(dp4144
g97
g98
ssg79
g4133
sg72
(lp4145
S':'
asbag65
(g86
g67
NtRp4146
(dp4147
g70
(dp4148
sg79
g4133
sg72
(lp4149
g65
(g66
g67
NtRp4150
(dp4151
g70
(dp4152
g78
I5
ssg79
g4146
sg72
(lp4153
g65
(g74
g67
NtRp4154
(dp4155
g70
(dp4156
g78
I4
ssg79
Nsg72
(lp4157
g65
(g81
g67
NtRp4158
(dp4159
g70
(dp4160
sg79
g4154
sg72
(lp4161
g65
(g86
g67
NtRp4162
(dp4163
g70
(dp4164
sg79
g4158
sg72
(lp4165
g65
(g66
g67
NtRp4166
(dp4167
g70
(dp4168
g78
I4
ssg79
g4162
sg72
(lp4169
g65
(g74
g67
NtRp4170
(dp4171
g70
(dp4172
g78
I3
ssg79
Nsg72
(lp4173
g65
(g81
g67
NtRp4174
(dp4175
g70
(dp4176
sg79
g4170
sg72
(lp4177
g65
(g86
g67
NtRp4178
(dp4179
g70
(dp4180
sg79
g4174
sg72
(lp4181
g65
(g66
g67
NtRp4182
(dp4183
g70
(dp4184
g78
I3
ssg79
g4178
sg72
(lp4185
cgluon.languages
lazyT_unpickle
p4186
(S't\x04\x00\x00\x00Home'
tRp4187
asbasbasbag65
(g81
g67
NtRp4188
(dp4189
g70
(dp4190
sg79
g4170
sg72
(lp4191
g65
(g86
g67
NtRp4192
(dp4193
g70
(dp4194
sg79
g4188
sg72
(lp4195
g65
(g66
g67
NtRp4196
(dp4197
g70
(dp4198
g78
I3
ssg79
g4192
sg72
(lp4199
g108
asbasbasbag65
(g81
g67
NtRp4200
(dp4201
g70
(dp4202
sg79
g4170
sg72
(lp4203
g65
(g86
g67
NtRp4204
(dp4205
g70
(dp4206
sg79
g4200
sg72
(lp4207
g65
(g66
g67
NtRp4208
(dp4209
g70
(dp4210
g78
I3
ssg79
g4204
sg72
(lp4211
S'/mycrawler/default/index'
p4212
asbasbasbag65
(g81
g67
NtRp4213
(dp4214
g70
(dp4215
sg79
g4170
sg72
(lp4216
g65
(g86
g67
NtRp4217
(dp4218
g70
(dp4219
sg79
g4213
sg72
(lp4220
g65
(g66
g67
NtRp4221
(dp4222
g70
(dp4223
g78
I3
ssg79
g4217
sg72
(lp4224
g65
(g74
g67
NtRp4225
(dp4226
g70
(dp4227
g78
I2
ssg79
Nsg72
(lp4228
sbasbasbasbasbasbasbasbag65
(g81
g67
NtRp4229
(dp4230
g70
(dp4231
sg79
g4154
sg72
(lp4232
g65
(g86
g67
NtRp4233
(dp4234
g70
(dp4235
sg79
g4229
sg72
(lp4236
g65
(g66
g67
NtRp4237
(dp4238
g70
(dp4239
g78
I4
ssg79
g4233
sg72
(lp4240
g65
(g74
g67
NtRp4241
(dp4242
g70
(dp4243
g78
I3
ssg79
Nsg72
(lp4244
g65
(g81
g67
NtRp4245
(dp4246
g70
(dp4247
sg79
g4241
sg72
(lp4248
g65
(g86
g67
NtRp4249
(dp4250
g70
(dp4251
sg79
g4245
sg72
(lp4252
g65
(g66
g67
NtRp4253
(dp4254
g70
(dp4255
g78
I3
ssg79
g4249
sg72
(lp4256
g65
(cgluon.html
SPAN
p4257
g67
NtRp4258
(dp4259
g70
(dp4260
g90
S'color:yellow'
p4261
ssg79
Nsg72
(lp4262
g4132
asbasbasbasbag65
(g81
g67
NtRp4263
(dp4264
g70
(dp4265
sg79
g4241
sg72
(lp4266
g65
(g86
g67
NtRp4267
(dp4268
g70
(dp4269
sg79
g4263
sg72
(lp4270
g65
(g66
g67
NtRp4271
(dp4272
g70
(dp4273
g78
I3
ssg79
g4267
sg72
(lp4274
g108
asbasbasbag65
(g81
g67
NtRp4275
(dp4276
g70
(dp4277
sg79
g4241
sg72
(lp4278
g65
(g86
g67
NtRp4279
(dp4280
g70
(dp4281
sg79
g4275
sg72
(lp4282
g65
(g66
g67
NtRp4283
(dp4284
g70
(dp4285
g78
I3
ssg79
g4279
sg72
(lp4286
S'None'
p4287
asbasbasbag65
(g81
g67
NtRp4288
(dp4289
g70
(dp4290
sg79
g4241
sg72
(lp4291
g65
(g86
g67
NtRp4292
(dp4293
g70
(dp4294
sg79
g4288
sg72
(lp4295
g65
(g66
g67
NtRp4296
(dp4297
g70
(dp4298
g78
I3
ssg79
g4292
sg72
(lp4299
g65
(g74
g67
NtRp4300
(dp4301
g70
(dp4302
g78
I2
ssg79
Nsg72
(lp4303
g65
(g81
g67
NtRp4304
(dp4305
g70
(dp4306
sg79
g4300
sg72
(lp4307
g65
(g86
g67
NtRp4308
(dp4309
g70
(dp4310
sg79
g4304
sg72
(lp4311
g65
(g66
g67
NtRp4312
(dp4313
g70
(dp4314
g78
I2
ssg79
g4308
sg72
(lp4315
g65
(g74
g67
NtRp4316
(dp4317
g70
(dp4318
g78
I1
ssg79
Nsg72
(lp4319
g65
(g81
g67
NtRp4320
(dp4321
g70
(dp4322
sg79
g4316
sg72
(lp4323
g65
(g86
g67
NtRp4324
(dp4325
g70
(dp4326
sg79
g4320
sg72
(lp4327
g65
(g66
g67
NtRp4328
(dp4329
g70
(dp4330
g78
I1
ssg79
g4324
sg72
(lp4331
g4186
(S's\x08\x00\x00\x00My Sites'
tRp4332
asbasbasbag65
(g81
g67
NtRp4333
(dp4334
g70
(dp4335
sg79
g4316
sg72
(lp4336
g65
(g86
g67
NtRp4337
(dp4338
g70
(dp4339
sg79
g4333
sg72
(lp4340
g65
(g66
g67
NtRp4341
(dp4342
g70
(dp4343
g78
I1
ssg79
g4337
sg72
(lp4344
I00
asbasbasbag65
(g81
g67
NtRp4345
(dp4346
g70
(dp4347
sg79
g4316
sg72
(lp4348
g65
(g86
g67
NtRp4349
(dp4350
g70
(dp4351
sg79
g4345
sg72
(lp4352
g65
(g66
g67
NtRp4353
(dp4354
g70
(dp4355
g78
I1
ssg79
g4349
sg72
(lp4356
S'/admin/default/site'
p4357
asbasbasbasbasbasbasbag65
(g81
g67
NtRp4358
(dp4359
g70
(dp4360
sg79
g4300
sg72
(lp4361
g65
(g86
g67
NtRp4362
(dp4363
g70
(dp4364
sg79
g4358
sg72
(lp4365
g65
(g66
g67
NtRp4366
(dp4367
g70
(dp4368
g78
I2
ssg79
g4362
sg72
(lp4369
g65
(g74
g67
NtRp4370
(dp4371
g70
(dp4372
g78
I1
ssg79
Nsg72
(lp4373
g65
(g81
g67
NtRp4374
(dp4375
g70
(dp4376
sg79
g4370
sg72
(lp4377
g65
(g86
g67
NtRp4378
(dp4379
g70
(dp4380
sg79
g4374
sg72
(lp4381
g65
(g66
g67
NtRp4382
(dp4383
g70
(dp4384
g78
I1
ssg79
g4378
sg72
(lp4385
g4186
(S's\x08\x00\x00\x00This App'
tRp4386
asbasbasbag65
(g81
g67
NtRp4387
(dp4388
g70
(dp4389
sg79
g4370
sg72
(lp4390
g65
(g86
g67
NtRp4391
(dp4392
g70
(dp4393
sg79
g4387
sg72
(lp4394
g65
(g66
g67
NtRp4395
(dp4396
g70
(dp4397
g78
I1
ssg79
g4391
sg72
(lp4398
I00
asbasbasbag65
(g81
g67
NtRp4399
(dp4400
g70
(dp4401
sg79
g4370
sg72
(lp4402
g65
(g86
g67
NtRp4403
(dp4404
g70
(dp4405
sg79
g4399
sg72
(lp4406
g65
(g66
g67
NtRp4407
(dp4408
g70
(dp4409
g78
I1
ssg79
g4403
sg72
(lp4410
S'/admin/default/design/mycrawler'
p4411
asbasbasbag65
(g81
g67
NtRp4412
(dp4413
g70
(dp4414
sg79
g4370
sg72
(lp4415
g65
(g86
g67
NtRp4416
(dp4417
g70
(dp4418
sg79
g4412
sg72
(lp4419
g65
(g66
g67
NtRp4420
(dp4421
g70
(dp4422
g78
I1
ssg79
g4416
sg72
(lp4423
(lp4424
(g4186
(S't\n\x00\x00\x00Controller'
tRp4425
I00
S'/admin/default/edit/mycrawler/controllers/default.py'
tp4426
a(g4186
(S't\x04\x00\x00\x00View'
tRp4427
I00
S'/admin/default/edit/mycrawler/views/default/search.html'
tp4428
a(g4186
(S't\x06\x00\x00\x00Layout'
tRp4429
I00
S'/admin/default/edit/mycrawler/views/layout.html'
tp4430
a(g4186
(S't\n\x00\x00\x00Stylesheet'
tRp4431
I00
S'/admin/default/edit/mycrawler/static/css/web2py.css'
tp4432
a(g4186
(S's\x08\x00\x00\x00DB Model'
tRp4433
I00
S'/admin/default/edit/mycrawler/models/db.py'
tp4434
a(g4186
(S's\n\x00\x00\x00Menu Model'
tRp4435
I00
S'/admin/default/edit/mycrawler/models/menu.py'
tp4436
a(g4186
(S't\x08\x00\x00\x00Database'
tRp4437
I00
S'/mycrawler/appadmin/index'
tp4438
a(g4186
(S't\x06\x00\x00\x00Errors'
tRp4439
I00
S'/admin/default/errors/mycrawler'
tp4440
a(g4186
(S't\x05\x00\x00\x00About'
tRp4441
I00
S'/admin/default/about/mycrawler'
tp4442
aasbasbasbasbasbasbasbag65
(g81
g67
NtRp4443
(dp4444
g70
(dp4445
sg79
g4300
sg72
(lp4446
g65
(g86
g67
NtRp4447
(dp4448
g70
(dp4449
sg79
g4443
sg72
(lp4450
g65
(g66
g67
NtRp4451
(dp4452
g70
(dp4453
g78
I2
ssg79
g4447
sg72
(lp4454
g65
(g74
g67
NtRp4455
(dp4456
g70
(dp4457
g78
I1
ssg79
Nsg72
(lp4458
g65
(g81
g67
NtRp4459
(dp4460
g70
(dp4461
sg79
g4455
sg72
(lp4462
g65
(g86
g67
NtRp4463
(dp4464
g70
(dp4465
sg79
g4459
sg72
(lp4466
g65
(g66
g67
NtRp4467
(dp4468
g70
(dp4469
g78
I1
ssg79
g4463
sg72
(lp4470
S'web2py.com'
p4471
asbasbasbag65
(g81
g67
NtRp4472
(dp4473
g70
(dp4474
sg79
g4455
sg72
(lp4475
g65
(g86
g67
NtRp4476
(dp4477
g70
(dp4478
sg79
g4472
sg72
(lp4479
g65
(g66
g67
NtRp4480
(dp4481
g70
(dp4482
g78
I1
ssg79
g4476
sg72
(lp4483
I00
asbasbasbag65
(g81
g67
NtRp4484
(dp4485
g70
(dp4486
sg79
g4455
sg72
(lp4487
g65
(g86
g67
NtRp4488
(dp4489
g70
(dp4490
sg79
g4484
sg72
(lp4491
g65
(g66
g67
NtRp4492
(dp4493
g70
(dp4494
g78
I1
ssg79
g4488
sg72
(lp4495
S'http://www.web2py.com'
p4496
asbasbasbag65
(g81
g67
NtRp4497
(dp4498
g70
(dp4499
sg79
g4455
sg72
(lp4500
g65
(g86
g67
NtRp4501
(dp4502
g70
(dp4503
sg79
g4497
sg72
(lp4504
g65
(g66
g67
NtRp4505
(dp4506
g70
(dp4507
g78
I1
ssg79
g4501
sg72
(lp4508
(lp4509
(g4186
(S't\x08\x00\x00\x00Download'
tRp4510
I00
S'http://www.web2py.com/examples/default/download'
p4511
tp4512
a(g4186
(S't\x07\x00\x00\x00Support'
tRp4513
I00
S'http://www.web2py.com/examples/default/support'
p4514
tp4515
a(g4186
(S't\x04\x00\x00\x00Demo'
tRp4516
I00
S'http://web2py.com/demo_admin'
p4517
tp4518
a(g4186
(S's\x0e\x00\x00\x00Quick Examples'
tRp4519
I00
S'http://web2py.com/examples/default/examples'
p4520
tp4521
a(g4186
(S't\x03\x00\x00\x00FAQ'
tRp4522
I00
S'http://web2py.com/AlterEgo'
p4523
tp4524
a(g4186
(S't\x06\x00\x00\x00Videos'
tRp4525
I00
S'http://www.web2py.com/examples/default/videos/'
p4526
tp4527
a(g4186
(S's\x11\x00\x00\x00Free Applications'
tRp4528
I00
S'http://web2py.com/appliances'
p4529
tp4530
a(g4186
(S't\x07\x00\x00\x00Plugins'
tRp4531
I00
S'http://web2py.com/plugins'
p4532
tp4533
a(g4186
(S't\x07\x00\x00\x00Layouts'
tRp4534
I00
S'http://web2py.com/layouts'
p4535
tp4536
a(g4186
(S't\x07\x00\x00\x00Recipes'
tRp4537
I00
S'http://web2pyslices.com/'
p4538
tp4539
a(g4186
(S't\x08\x00\x00\x00Semantic'
tRp4540
I00
S'http://web2py.com/semantic'
p4541
tp4542
aasbasbasbasbasbasbasbag65
(g81
g67
NtRp4543
(dp4544
g70
(dp4545
sg79
g4300
sg72
(lp4546
g65
(g86
g67
NtRp4547
(dp4548
g70
(dp4549
sg79
g4543
sg72
(lp4550
g65
(g66
g67
NtRp4551
(dp4552
g70
(dp4553
g78
I2
ssg79
g4547
sg72
(lp4554
g65
(g74
g67
NtRp4555
(dp4556
g70
(dp4557
g78
I1
ssg79
Nsg72
(lp4558
g65
(g81
g67
NtRp4559
(dp4560
g70
(dp4561
sg79
g4555
sg72
(lp4562
g65
(g86
g67
NtRp4563
(dp4564
g70
(dp4565
sg79
g4559
sg72
(lp4566
g65
(g66
g67
NtRp4567
(dp4568
g70
(dp4569
g78
I1
ssg79
g4563
sg72
(lp4570
g4186
(S't\r\x00\x00\x00Documentation'
tRp4571
asbasbasbag65
(g81
g67
NtRp4572
(dp4573
g70
(dp4574
sg79
g4555
sg72
(lp4575
g65
(g86
g67
NtRp4576
(dp4577
g70
(dp4578
sg79
g4572
sg72
(lp4579
g65
(g66
g67
NtRp4580
(dp4581
g70
(dp4582
g78
I1
ssg79
g4576
sg72
(lp4583
I00
asbasbasbag65
(g81
g67
NtRp4584
(dp4585
g70
(dp4586
sg79
g4555
sg72
(lp4587
g65
(g86
g67
NtRp4588
(dp4589
g70
(dp4590
sg79
g4584
sg72
(lp4591
g65
(g66
g67
NtRp4592
(dp4593
g70
(dp4594
g78
I1
ssg79
g4588
sg72
(lp4595
S'http://www.web2py.com/book'
p4596
asbasbasbag65
(g81
g67
NtRp4597
(dp4598
g70
(dp4599
sg79
g4555
sg72
(lp4600
g65
(g86
g67
NtRp4601
(dp4602
g70
(dp4603
sg79
g4597
sg72
(lp4604
g65
(g66
g67
NtRp4605
(dp4606
g70
(dp4607
g78
I1
ssg79
g4601
sg72
(lp4608
(lp4609
(g4186
(S't\x07\x00\x00\x00Preface'
tRp4610
I00
S'http://www.web2py.com/book/default/chapter/00'
p4611
tp4612
a(g4186
(S't\x0c\x00\x00\x00Introduction'
tRp4613
I00
S'http://www.web2py.com/book/default/chapter/01'
p4614
tp4615
a(g4186
(S't\x06\x00\x00\x00Python'
tRp4616
I00
S'http://www.web2py.com/book/default/chapter/02'
p4617
tp4618
a(g4186
(S't\x08\x00\x00\x00Overview'
tRp4619
I00
S'http://www.web2py.com/book/default/chapter/03'
p4620
tp4621
a(g4186
(S's\x08\x00\x00\x00The Core'
tRp4622
I00
S'http://www.web2py.com/book/default/chapter/04'
p4623
tp4624
a(g4186
(S's\t\x00\x00\x00The Views'
tRp4625
I00
S'http://www.web2py.com/book/default/chapter/05'
p4626
tp4627
a(g4186
(S't\x08\x00\x00\x00Database'
tRp4628
I00
S'http://www.web2py.com/book/default/chapter/06'
p4629
tp4630
a(g4186
(S's\x14\x00\x00\x00Forms and Validators'
tRp4631
I00
S'http://www.web2py.com/book/default/chapter/07'
p4632
tp4633
a(g4186
(S's\r\x00\x00\x00Email and SMS'
tRp4634
I00
S'http://www.web2py.com/book/default/chapter/08'
p4635
tp4636
a(g4186
(S's\x0e\x00\x00\x00Access Control'
tRp4637
I00
S'http://www.web2py.com/book/default/chapter/09'
p4638
tp4639
a(g4186
(S't\x08\x00\x00\x00Services'
tRp4640
I00
S'http://www.web2py.com/book/default/chapter/10'
p4641
tp4642
a(g4186
(S's\x0c\x00\x00\x00Ajax Recipes'
tRp4643
I00
S'http://www.web2py.com/book/default/chapter/11'
p4644
tp4645
a(g4186
(S's\x16\x00\x00\x00Components and Plugins'
tRp4646
I00
S'http://www.web2py.com/book/default/chapter/12'
p4647
tp4648
a(g4186
(S's\x12\x00\x00\x00Deployment Recipes'
tRp4649
I00
S'http://www.web2py.com/book/default/chapter/13'
p4650
tp4651
a(g4186
(S's\r\x00\x00\x00Other Recipes'
tRp4652
I00
S'http://www.web2py.com/book/default/chapter/14'
p4653
tp4654
a(g4186
(S's\r\x00\x00\x00Buy this book'
tRp4655
I00
S'http://stores.lulu.com/web2py'
p4656
tp4657
aasbasbasbasbasbasbasbag65
(g81
g67
NtRp4658
(dp4659
g70
(dp4660
sg79
g4300
sg72
(lp4661
g65
(g86
g67
NtRp4662
(dp4663
g70
(dp4664
sg79
g4658
sg72
(lp4665
g65
(g66
g67
NtRp4666
(dp4667
g70
(dp4668
g78
I2
ssg79
g4662
sg72
(lp4669
g65
(g74
g67
NtRp4670
(dp4671
g70
(dp4672
g78
I1
ssg79
Nsg72
(lp4673
g65
(g81
g67
NtRp4674
(dp4675
g70
(dp4676
sg79
g4670
sg72
(lp4677
g65
(g86
g67
NtRp4678
(dp4679
g70
(dp4680
sg79
g4674
sg72
(lp4681
g65
(g66
g67
NtRp4682
(dp4683
g70
(dp4684
g78
I1
ssg79
g4678
sg72
(lp4685
g4186
(S't\t\x00\x00\x00Community'
tRp4686
asbasbasbag65
(g81
g67
NtRp4687
(dp4688
g70
(dp4689
sg79
g4670
sg72
(lp4690
g65
(g86
g67
NtRp4691
(dp4692
g70
(dp4693
sg79
g4687
sg72
(lp4694
g65
(g66
g67
NtRp4695
(dp4696
g70
(dp4697
g78
I1
ssg79
g4691
sg72
(lp4698
I00
asbasbasbag65
(g81
g67
NtRp4699
(dp4700
g70
(dp4701
sg79
g4670
sg72
(lp4702
g65
(g86
g67
NtRp4703
(dp4704
g70
(dp4705
sg79
g4699
sg72
(lp4706
g65
(g66
g67
NtRp4707
(dp4708
g70
(dp4709
g78
I1
ssg79
g4703
sg72
(lp4710
Nasbasbasbag65
(g81
g67
NtRp4711
(dp4712
g70
(dp4713
sg79
g4670
sg72
(lp4714
g65
(g86
g67
NtRp4715
(dp4716
g70
(dp4717
sg79
g4711
sg72
(lp4718
g65
(g66
g67
NtRp4719
(dp4720
g70
(dp4721
g78
I1
ssg79
g4715
sg72
(lp4722
(lp4723
(g4186
(S't\x06\x00\x00\x00Groups'
tRp4724
I00
S'http://www.web2py.com/examples/default/usergroups'
p4725
tp4726
a(g4186
(S't\x07\x00\x00\x00Twitter'
tRp4727
I00
S'http://twitter.com/web2py'
p4728
tp4729
a(g4186
(S's\t\x00\x00\x00Live Chat'
tRp4730
I00
S'http://webchat.freenode.net/?channels=web2py'
p4731
tp4732
aasbasbasbasbasbasbasbag65
(g81
g67
NtRp4733
(dp4734
g70
(dp4735
sg79
g4300
sg72
(lp4736
g65
(g86
g67
NtRp4737
(dp4738
g70
(dp4739
sg79
g4733
sg72
(lp4740
g65
(g66
g67
NtRp4741
(dp4742
g70
(dp4743
g78
I2
ssg79
g4737
sg72
(lp4744
g65
(g74
g67
NtRp4745
(dp4746
g70
(dp4747
g78
I1
ssg79
Nsg72
(lp4748
g65
(g81
g67
NtRp4749
(dp4750
g70
(dp4751
sg79
g4745
sg72
(lp4752
g65
(g86
g67
NtRp4753
(dp4754
g70
(dp4755
sg79
g4749
sg72
(lp4756
g65
(g66
g67
NtRp4757
(dp4758
g70
(dp4759
g78
I1
ssg79
g4753
sg72
(lp4760
g4186
(S't\x07\x00\x00\x00Plugins'
tRp4761
asbasbasbag65
(g81
g67
NtRp4762
(dp4763
g70
(dp4764
sg79
g4745
sg72
(lp4765
g65
(g86
g67
NtRp4766
(dp4767
g70
(dp4768
sg79
g4762
sg72
(lp4769
g65
(g66
g67
NtRp4770
(dp4771
g70
(dp4772
g78
I1
ssg79
g4766
sg72
(lp4773
I00
asbasbasbag65
(g81
g67
NtRp4774
(dp4775
g70
(dp4776
sg79
g4745
sg72
(lp4777
g65
(g86
g67
NtRp4778
(dp4779
g70
(dp4780
sg79
g4774
sg72
(lp4781
g65
(g66
g67
NtRp4782
(dp4783
g70
(dp4784
g78
I1
ssg79
g4778
sg72
(lp4785
Nasbasbasbag65
(g81
g67
NtRp4786
(dp4787
g70
(dp4788
sg79
g4745
sg72
(lp4789
g65
(g86
g67
NtRp4790
(dp4791
g70
(dp4792
sg79
g4786
sg72
(lp4793
g65
(g66
g67
NtRp4794
(dp4795
g70
(dp4796
g78
I1
ssg79
g4790
sg72
(lp4797
(lp4798
(S'plugin_wiki'
p4799
I00
S'http://web2py.com/examples/default/download'
p4800
tp4801
a(g4186
(S's\r\x00\x00\x00Other Plugins'
tRp4802
I00
g4532
tp4803
a(g4186
(S's\x0e\x00\x00\x00Layout Plugins'
tRp4804
I00
g4535
tp4805
aasbasbasbasbasbasbasbasbasbasbasbasbasbasbasbasbasbasbasbag65
(g81
g67
NtRp4806
(dp4807
g70
(dp4808
sg79
g3630
sg72
(lp4809
g65
(g86
g67
NtRp4810
(dp4811
g70
(dp4812
g90
g91
ssg79
g4806
sg72
(lp4813
S'meta'
p4814
asbag65
(g86
g67
NtRp4815
(dp4816
g70
(dp4817
g97
g98
ssg79
g4806
sg72
(lp4818
S':'
asbag65
(g86
g67
NtRp4819
(dp4820
g70
(dp4821
sg79
g4806
sg72
(lp4822
g65
(g66
g67
NtRp4823
(dp4824
g70
(dp4825
g78
I5
ssg79
g4819
sg72
(lp4826
g65
(g74
g67
NtRp4827
(dp4828
g70
(dp4829
g78
I4
ssg79
Nsg72
(lp4830
g65
(g81
g67
NtRp4831
(dp4832
g70
(dp4833
sg79
g4827
sg72
(lp4834
g65
(g86
g67
NtRp4835
(dp4836
g70
(dp4837
g90
g91
ssg79
g4831
sg72
(lp4838
S'author'
p4839
asbag65
(g86
g67
NtRp4840
(dp4841
g70
(dp4842
g97
g98
ssg79
g4831
sg72
(lp4843
S':'
asbag65
(g86
g67
NtRp4844
(dp4845
g70
(dp4846
sg79
g4831
sg72
(lp4847
g65
(g66
g67
NtRp4848
(dp4849
g70
(dp4850
g78
I4
ssg79
g4844
sg72
(lp4851
S'Your Name <you@example.com>'
p4852
asbasbasbag65
(g81
g67
NtRp4853
(dp4854
g70
(dp4855
sg79
g4827
sg72
(lp4856
g65
(g86
g67
NtRp4857
(dp4858
g70
(dp4859
g90
g91
ssg79
g4853
sg72
(lp4860
S'copyright'
p4861
asbag65
(g86
g67
NtRp4862
(dp4863
g70
(dp4864
g97
g98
ssg79
g4853
sg72
(lp4865
S':'
asbag65
(g86
g67
NtRp4866
(dp4867
g70
(dp4868
sg79
g4853
sg72
(lp4869
g65
(g66
g67
NtRp4870
(dp4871
g70
(dp4872
g78
I4
ssg79
g4866
sg72
(lp4873
S'Copyright 2011'
p4874
asbasbasbag65
(g81
g67
NtRp4875
(dp4876
g70
(dp4877
sg79
g4827
sg72
(lp4878
g65
(g86
g67
NtRp4879
(dp4880
g70
(dp4881
g90
g91
ssg79
g4875
sg72
(lp4882
S'description'
p4883
asbag65
(g86
g67
NtRp4884
(dp4885
g70
(dp4886
g97
g98
ssg79
g4875
sg72
(lp4887
S':'
asbag65
(g86
g67
NtRp4888
(dp4889
g70
(dp4890
sg79
g4875
sg72
(lp4891
g65
(g66
g67
NtRp4892
(dp4893
g70
(dp4894
g78
I4
ssg79
g4888
sg72
(lp4895
S'a cool new app'
p4896
asbasbasbag65
(g81
g67
NtRp4897
(dp4898
g70
(dp4899
sg79
g4827
sg72
(lp4900
g65
(g86
g67
NtRp4901
(dp4902
g70
(dp4903
g90
g91
ssg79
g4897
sg72
(lp4904
S'generator'
p4905
asbag65
(g86
g67
NtRp4906
(dp4907
g70
(dp4908
g97
g98
ssg79
g4897
sg72
(lp4909
S':'
asbag65
(g86
g67
NtRp4910
(dp4911
g70
(dp4912
sg79
g4897
sg72
(lp4913
g65
(g66
g67
NtRp4914
(dp4915
g70
(dp4916
g78
I4
ssg79
g4910
sg72
(lp4917
S'Web2py Web Framework'
p4918
asbasbasbag65
(g81
g67
NtRp4919
(dp4920
g70
(dp4921
sg79
g4827
sg72
(lp4922
g65
(g86
g67
NtRp4923
(dp4924
g70
(dp4925
g90
g91
ssg79
g4919
sg72
(lp4926
S'keywords'
p4927
asbag65
(g86
g67
NtRp4928
(dp4929
g70
(dp4930
g97
g98
ssg79
g4919
sg72
(lp4931
S':'
asbag65
(g86
g67
NtRp4932
(dp4933
g70
(dp4934
sg79
g4919
sg72
(lp4935
g65
(g66
g67
NtRp4936
(dp4937
g70
(dp4938
g78
I4
ssg79
g4932
sg72
(lp4939
S'web2py, python, framework'
p4940
asbasbasbasbasbasbasbag65
(g81
g67
NtRp4941
(dp4942
g70
(dp4943
sg79
g3630
sg72
(lp4944
g65
(g86
g67
NtRp4945
(dp4946
g70
(dp4947
g90
g91
ssg79
g4941
sg72
(lp4948
S'postprocessing'
p4949
asbag65
(g86
g67
NtRp4950
(dp4951
g70
(dp4952
g97
g98
ssg79
g4941
sg72
(lp4953
S':'
asbag65
(g86
g67
NtRp4954
(dp4955
g70
(dp4956
sg79
g4941
sg72
(lp4957
g65
(g66
g67
NtRp4958
(dp4959
g70
(dp4960
g78
I5
ssg79
g4954
sg72
(lp4961
g65
(g74
g67
NtRp4962
(dp4963
g70
(dp4964
g78
I4
ssg79
Nsg72
(lp4965
sbasbasbasbag65
(g81
g67
NtRp4966
(dp4967
g70
(dp4968
sg79
g3630
sg72
(lp4969
g65
(g86
g67
NtRp4970
(dp4971
g70
(dp4972
g90
g91
ssg79
g4966
sg72
(lp4973
S'session_file'
p4974
asbag65
(g86
g67
NtRp4975
(dp4976
g70
(dp4977
g97
g98
ssg79
g4966
sg72
(lp4978
S':'
asbag65
(g86
g67
NtRp4979
(dp4980
g70
(dp4981
sg79
g4966
sg72
(lp4982
g65
(g66
g67
NtRp4983
(dp4984
g70
(dp4985
g78
I5
ssg79
g4979
sg72
(lp4986
S"<open file 'C:\\Documents and Settings\\agrover\\Desktop\\previous crawler\\web2py\\applications\\mycrawler\\sessions\\127.0.0.1-2770ef8a-3056-4fd8-9016-5cf5e194a093', mode 'rb+' at 0x05DA6338>"
p4987
asbasbasbag65
(g81
g67
NtRp4988
(dp4989
g70
(dp4990
sg79
g3630
sg72
(lp4991
g65
(g86
g67
NtRp4992
(dp4993
g70
(dp4994
g90
g91
ssg79
g4988
sg72
(lp4995
S'session_filename'
p4996
asbag65
(g86
g67
NtRp4997
(dp4998
g70
(dp4999
g97
g98
ssg79
g4988
sg72
(lp5000
S':'
asbag65
(g86
g67
NtRp5001
(dp5002
g70
(dp5003
sg79
g4988
sg72
(lp5004
g65
(g66
g67
NtRp5005
(dp5006
g70
(dp5007
g78
I5
ssg79
g5001
sg72
(lp5008
S'C:\\Documents and Settings\\agrover\\Desktop\\previous crawler\\web2py\\applications\\mycrawler\\sessions\\127.0.0.1-2770ef8a-3056-4fd8-9016-5cf5e194a093'
p5009
asbasbasbag65
(g81
g67
NtRp5010
(dp5011
g70
(dp5012
sg79
g3630
sg72
(lp5013
g65
(g86
g67
NtRp5014
(dp5015
g70
(dp5016
g90
g91
ssg79
g5010
sg72
(lp5017
S'session_id'
p5018
asbag65
(g86
g67
NtRp5019
(dp5020
g70
(dp5021
g97
g98
ssg79
g5010
sg72
(lp5022
S':'
asbag65
(g86
g67
NtRp5023
(dp5024
g70
(dp5025
sg79
g5010
sg72
(lp5026
g65
(g66
g67
NtRp5027
(dp5028
g70
(dp5029
g78
I5
ssg79
g5023
sg72
(lp5030
S'127.0.0.1-2770ef8a-3056-4fd8-9016-5cf5e194a093'
p5031
asbasbasbag65
(g81
g67
NtRp5032
(dp5033
g70
(dp5034
sg79
g3630
sg72
(lp5035
g65
(g86
g67
NtRp5036
(dp5037
g70
(dp5038
g90
g91
ssg79
g5032
sg72
(lp5039
S'session_id_name'
p5040
asbag65
(g86
g67
NtRp5041
(dp5042
g70
(dp5043
g97
g98
ssg79
g5032
sg72
(lp5044
S':'
asbag65
(g86
g67
NtRp5045
(dp5046
g70
(dp5047
sg79
g5032
sg72
(lp5048
g65
(g66
g67
NtRp5049
(dp5050
g70
(dp5051
g78
I5
ssg79
g5045
sg72
(lp5052
g3687
asbasbasbag65
(g81
g67
NtRp5053
(dp5054
g70
(dp5055
sg79
g3630
sg72
(lp5056
g65
(g86
g67
NtRp5057
(dp5058
g70
(dp5059
g90
g91
ssg79
g5053
sg72
(lp5060
S'session_locked'
p5061
asbag65
(g86
g67
NtRp5062
(dp5063
g70
(dp5064
g97
g98
ssg79
g5053
sg72
(lp5065
S':'
asbag65
(g86
g67
NtRp5066
(dp5067
g70
(dp5068
sg79
g5053
sg72
(lp5069
g65
(g66
g67
NtRp5070
(dp5071
g70
(dp5072
g78
I5
ssg79
g5066
sg72
(lp5073
g1687
asbasbasbag65
(g81
g67
NtRp5074
(dp5075
g70
(dp5076
sg79
g3630
sg72
(lp5077
g65
(g86
g67
NtRp5078
(dp5079
g70
(dp5080
g90
g91
ssg79
g5074
sg72
(lp5081
S'session_new'
p5082
asbag65
(g86
g67
NtRp5083
(dp5084
g70
(dp5085
g97
g98
ssg79
g5074
sg72
(lp5086
S':'
asbag65
(g86
g67
NtRp5087
(dp5088
g70
(dp5089
sg79
g5074
sg72
(lp5090
g65
(g66
g67
NtRp5091
(dp5092
g70
(dp5093
g78
I5
ssg79
g5087
sg72
(lp5094
g108
asbasbasbag65
(g81
g67
NtRp5095
(dp5096
g70
(dp5097
sg79
g3630
sg72
(lp5098
g65
(g86
g67
NtRp5099
(dp5100
g70
(dp5101
g90
g91
ssg79
g5095
sg72
(lp5102
S'status'
p5103
asbag65
(g86
g67
NtRp5104
(dp5105
g70
(dp5106
g97
g98
ssg79
g5095
sg72
(lp5107
S':'
asbag65
(g86
g67
NtRp5108
(dp5109
g70
(dp5110
sg79
g5095
sg72
(lp5111
g65
(g66
g67
NtRp5112
(dp5113
g70
(dp5114
g78
I5
ssg79
g5108
sg72
(lp5115
S'200'
p5116
asbasbasbag65
(g81
g67
NtRp5117
(dp5118
g70
(dp5119
sg79
g3630
sg72
(lp5120
g65
(g86
g67
NtRp5121
(dp5122
g70
(dp5123
g90
g91
ssg79
g5117
sg72
(lp5124
S'subtitle'
p5125
asbag65
(g86
g67
NtRp5126
(dp5127
g70
(dp5128
g97
g98
ssg79
g5117
sg72
(lp5129
S':'
asbag65
(g86
g67
NtRp5130
(dp5131
g70
(dp5132
sg79
g5117
sg72
(lp5133
g65
(g66
g67
NtRp5134
(dp5135
g70
(dp5136
g78
I5
ssg79
g5130
sg72
(lp5137
g4186
(S's\r\x00\x00\x00customize me!'
tRp5138
asbasbasbag65
(g81
g67
NtRp5139
(dp5140
g70
(dp5141
sg79
g3630
sg72
(lp5142
g65
(g86
g67
NtRp5143
(dp5144
g70
(dp5145
g90
g91
ssg79
g5139
sg72
(lp5146
S'title'
p5147
asbag65
(g86
g67
NtRp5148
(dp5149
g70
(dp5150
g97
g98
ssg79
g5139
sg72
(lp5151
S':'
asbag65
(g86
g67
NtRp5152
(dp5153
g70
(dp5154
sg79
g5139
sg72
(lp5155
g65
(g66
g67
NtRp5156
(dp5157
g70
(dp5158
g78
I5
ssg79
g5152
sg72
(lp5159
S'Mycrawler'
p5160
asbasbasbag65
(g81
g67
NtRp5161
(dp5162
g70
(dp5163
sg79
g3630
sg72
(lp5164
g65
(g86
g67
NtRp5165
(dp5166
g70
(dp5167
g90
g91
ssg79
g5161
sg72
(lp5168
g2588
asbag65
(g86
g67
NtRp5169
(dp5170
g70
(dp5171
g97
g98
ssg79
g5161
sg72
(lp5172
S':'
asbag65
(g86
g67
NtRp5173
(dp5174
g70
(dp5175
sg79
g5161
sg72
(lp5176
g65
(g66
g67
NtRp5177
(dp5178
g70
(dp5179
g78
I5
ssg79
g5173
sg72
(lp5180
g2601
asbasbasbag65
(g81
g67
NtRp5181
(dp5182
g70
(dp5183
sg79
g3630
sg72
(lp5184
g65
(g86
g67
NtRp5185
(dp5186
g70
(dp5187
g90
g91
ssg79
g5181
sg72
(lp5188
S'view'
p5189
asbag65
(g86
g67
NtRp5190
(dp5191
g70
(dp5192
g97
g98
ssg79
g5181
sg72
(lp5193
S':'
asbag65
(g86
g67
NtRp5194
(dp5195
g70
(dp5196
sg79
g5181
sg72
(lp5197
g65
(g66
g67
NtRp5198
(dp5199
g70
(dp5200
g78
I5
ssg79
g5194
sg72
(lp5201
S'default/search.html'
p5202
asbasbasbasbasbsS'locals'
p5203
(dp5204
S'cj'
p5205
S'<_LWPCookieJar.LWPCookieJar[Cookie(version=0, na...=None, comment_url=None, rest={}, rfc2109=True)]>'
p5206
sS'less'
p5207
S"u'Package Solution Consultant at IBM Global Business Services less'"
p5208
sS'temp2'
p5209
S"['IBM Global Business Services ']"
p5210
sS'temp1'
p5211
S"['Package Solution Consultant', 'IBM Global Business Services ']"
p5212
sS'mechanize'
p5213
S"<module 'mechanize' from 'C:\\Python27\\lib\\site-p...echanize-0.2.5-py2.7.egg\\mechanize\\__init__.pyc'>"
p5214
sS'titl'
p5215
S"[u'Progam Manager & Consultant (Banking)', u'DGM - Research & Analytics at IBM Global Process Services', u'Sr. Lead HR at First American (India) Private Limited', u'FILM DIRECTOR', u'Team Lead at Thomson Reuters', u'Tivoli Security Management', u'Program Manager', u'Project Lead at Mahindra Satyam', u'HR Recruiter at KRG Technologies', u'SAP IS Oil Downstream Consultant (Certified in SCM Procurement ECC 5.00)']"
p5216
sS'BeautifulSoup'
p5217
S"<class 'bs4.BeautifulSoup'>"
p5218
sS'current'
p5219
S"[u'Program Manager at Wipro', u'DGM - Research & Analytics at IBM Global Process Services ', u'Sr. Team Lead HR at First American (India) Pvt Limited ', 'NONE', u'Team Lead at Thomson Reuters, Blogger at Shellydgreat ', u'Tivoli Netcool Security Engineer at i3Software ', u'Program Manager at Dell', u'Project Lead at Mahindra Satyam', u'HR IT Recruiter at krg technologies', u'Package Solution Consultant at IBM Global Business Services ']"
p5220
sS'spamWriter'
p5221
S'<_csv.writer object>'
p5222
sS'location'
p5223
S"[u'\\n India\\n ', u'\\n Bengaluru Area, India\\n ', u'\\n Bengaluru Area, India\\n ', u'\\n India\\n ', u'\\n Nagercoil Area, India\\n ', u'\\n Hyderabad Area, India\\n ', u'\\n Bengaluru Area, India\\n ', u'\\n Hyderabad Area, India\\n ', u'\\n Chennai Area, India\\n ', u'\\n Bengaluru Area, India\\n ']"
p5224
sS'firstname'
p5225
S"['Sam', 'Sam', 'Sam', 'SAM', 'Sam', 'sam', 'Sam', 'Sam', 'Sam', 'Sam']"
p5226
sS'middlename'
p5227
S"['None', 'Albert', 'None', 'AHMED', 'Gladson', 'None', 'Mathai', 'None', 'Johnson', 'Arthur']"
p5228
sS'lastname'
p5229
S"['Asir', '- PhD\\n ', 'Elwin', 'BOMBAY\\n ', 'W. M. (\\xe0\\xb4\\xb7\\xe0\\xb5\\x86\\xe0\\xb4\\xb2\\xe0\\xb5\\x8d\\xe0\\xb4\\xb2\\xe0\\xb4\\xbf)\\n ', 'ch', 'K\\n ', 'Sudarshan', '.\\n ', 'Mascarenhas\\n ']"
p5230
sS'company'
p5231
S"['Wipro', 'IBM Global Process Services ', 'First American (India) Pvt Limited ', 'NONE', 'Thomson Reuters', 'i3Software ', 'Dell', 'Mahindra Satyam', 'krg technologies', 'IBM Global Business Services ']"
p5232
sS'view_profile'
p5233
S"[u'http://www.linkedin.com/profile/view?id=232932...2_*2_*2_*2_*2_*2&pvs=ps&trk=pp_profile_name_link', u'http://www.linkedin.com/profile/view?id=241781...2_*2_*2_*2_*2_*2&pvs=ps&trk=pp_profile_name_link', u'http://www.linkedin.com/profile/view?id=261561...2_*2_*2_*2_*2_*2&pvs=ps&trk=pp_profile_name_link', u'http://www.linkedin.com/profile/view?id=596652...2_*2_*2_*2_*2_*2&pvs=ps&trk=pp_profile_name_link', u'http://www.linkedin.com/profile/view?id=644016...2_*2_*2_*2_*2_*2&pvs=ps&trk=pp_profile_name_link', u'http://www.linkedin.com/profile/view?id=692820...2_*2_*2_*2_*2_*2&pvs=ps&trk=pp_profile_name_link', u'http://www.linkedin.com/profile/view?id=218033...2_*2_*2_*2_*2_*2&pvs=ps&trk=pp_profile_name_link', u'http://www.linkedin.com/profile/view?id=633181...2_*2_*2_*2_*2_*2&pvs=ps&trk=pp_profile_name_link', u'http://www.linkedin.com/profile/view?id=292416...2_*2_*2_*2_*2_*2&pvs=ps&trk=pp_profile_name_link', u'http://www.linkedin.com/profile/view?id=553806...2_*2_*2_*2_*2_*2&pvs=ps&trk=pp_profile_name_link']"
p5234
sS'flag'
p5235
S'0'
sS'br'
p5236
S'<mechanize._mechanize.Browser instance>'
p5237
sS'cookielib'
p5238
S"<module 'cookielib' from 'C:\\Python27\\lib\\cookielib.pyc'>"
p5239
sS'emailid'
p5240
S"['NONE', 'NONE', 'NONE', 'NONE', 'NONE', 'NONE', 'NONE', 'NONE', 'NONE', 'NONE']"
p5241
sS'e'
S"''"
p5242
sS'temp'
p5243
S"[['Sam', 'Arthur', 'Mascarenhas\\n ']]"
p5244
sS'i'
S'4'
sS'k'
S'<dl class="vcard-expanded">\n<dt class="current">...w similar people">Similar</a>\n</span>\n</dd>\n</dl>'
p5245
sS'l'
S'<a class="fn n external-link trk-profile-name" h...tle="View Profile">\n Sam Arthur Mascarenhas\n </a>'
p5246
sS'soup'
p5247
S'<!DOCTYPE html>\n\n<!--[if lt IE 7]> <html lang="e...356902735" width="1">\n</img></hr></body>\n</html>\n'
p5248
sS'html2text'
p5249
S"<module 'html2text' from 'C:\\Python27\\lib\\site-packages\\html2text-3.200.3-py2.7.egg\\html2text.pyc'>"
p5250
sS'w'
S"''"
p5251
sS'industry'
p5252
S"[u'\\n Banking\\n ', u'\\n Information Technology and Services\\n ', u'\\n Information Technology and Services\\n ', u'\\n Entertainment\\n ', u'\\n Research\\n ', u'\\n Automotive\\n ', u'\\n Computer Software\\n ', u'\\n Information Technology and Services\\n ', u'\\n Human Resources\\n ', u'\\n Information Technology and Services\\n ']"
p5253
sssS'traceback'
p5254
S'Traceback (most recent call last):\n  File "C:\\Documents and Settings\\agrover\\Desktop\\previous crawler\\web2py\\gluon\\restricted.py", line 205, in restricted\n    exec ccode in environment\n  File "C:\\Documents and Settings\\agrover\\Desktop\\previous crawler\\web2py\\applications\\mycrawler\\controllers/default.py", line 444, in <module>\n  File "C:\\Documents and Settings\\agrover\\Desktop\\previous crawler\\web2py\\gluon\\globals.py", line 173, in <lambda>\n    self._caller = lambda f: f()\n  File "C:\\Documents and Settings\\agrover\\Desktop\\previous crawler\\web2py\\applications\\mycrawler\\controllers/default.py", line 363, in search\n    spamWriter.writerow([firstname[i].encode(\'utf-8\').strip(),middlename[i].encode(\'utf-8\').strip(),lastname[i].encode(\'utf-8\').strip(),titl[i].encode(\'utf-8\').strip(),current[i].encode(\'utf-8\').strip(),location[i].encode(\'utf-8\').strip(),industry[i].encode(\'utf-8\').strip(),view_profile[i].encode(\'utf-8\').strip(),company[i].encode(\'utf-8\').strip(),emailid[i].encode(\'utf-8\').strip()])\nUnicodeDecodeError: \'ascii\' codec can\'t decode byte 0xe0 in position 7: ordinal not in range(128)\n'
p5255
s.