(dp1
S'output'
p2
S"<type 'exceptions.WindowsError'> [Error 32] The process cannot access the file because it is being used by another process: 'C:\\\\Documents and Settings\\\\agrover\\\\Desktop\\\\previous crawler\\\\web2py\\\\applications\\\\mycrawler\\\\databases\\\\..\\\\uploads\\\\files.Upload_File.80c61ab8c6241f99.6c657473632e637376.csv'"
p3
sS'layer'
p4
S'C:\\Documents and Settings\\agrover\\Desktop\\previous crawler\\web2py\\applications\\mycrawler\\controllers/default.py'
p5
sS'code'
p6
S'# -*- coding: utf-8 -*-\n# this file is released under public domain and you can use without limitations\n\n#########################################################################\n## This is a samples controller\n## - index is the default action of any application\n## - user is required for authentication and authorization\n## - download is for downloading files uploaded in the db (does streaming)\n## - call exposes all registered services (none by default)\n#########################################################################\nimport cStringIO\nimport csv\nimport re\nimport string\nimport subprocess\nimport time\ncountry=[\'United States\', \'Afghanistan\', \'Aland Islands\', \'Albania\', \'Algeria\', \'American Samoa\', \'Andorra\', \'Angola\', \'Anguilla\', \'Antarctica\', \'Antigua and Barbuda\', \'Argentina\', \'Armenia\', \'Aruba\', \'Australia\', \'Austria\', \'Azerbaijan\', \'Bahamas\', \'Bahrain\', \'Bangladesh\', \'Barbados\', \'Belarus\', \'Belgium\', \'Belize\', \'Benin\', \'Bermuda\', \'Bhutan\', \'Bolivia\', \'Bosnia and Herzegovina\', \'Botswana\', \'Brazil\', \'British Indian Ocean Territory\', \'Brunei Darussalam\', \'Bulgaria\', \'Burkina Faso\', \'Burundi\', \'Cambodia\', \'Cameroon\', \'Canada\', \'Cape Verde\', \'Caribbean Nations\', \'Cayman Islands\', \'Central African Republic\', \'Chad\', \'Chile\', \'China\', \'Christmas Island\', \'Cocos (Keeling) Islands\', \'Colombia\', \'Comoros\', \'Congo\', \'Cook Islands\', \'Costa Rica\', "Cote D\'Ivoire (Ivory Coast)", \'Croatia\', \'Cuba\', \'Cyprus\', \'Czech Republic\', \'Democratic Republic of the Congo\', \'Denmark\', \'Djibouti\', \'Dominica\', \'Dominican Republic\', \'East Timor\', \'Ecuador\', \'Egypt\', \'El Salvador\', \'Equatorial Guinea\', \'Eritrea\', \'Estonia\', \'Ethiopia\', \'Falkland Islands (Malvinas)\', \'Faroe Islands\', \'Federated States of Micronesia\', \'Fiji\', \'Finland\', \'France\', \'French Guiana\', \'French Polynesia\', \'French Southern Territories\', \'Gabon\', \'Gambia\', \'Georgia\', \'Germany\', \'Ghana\', \'Gibraltar\', \'Greece\', \'Greenland\', \'Grenada\', \'Guadeloupe\', \'Guam\', \'Guatemala\', \'Guernsey\', \'Guinea\', \'Guinea-Bissau\', \'Guyana\', \'Haiti\', \'Honduras\', \'Hong Kong\', \'Hungary\', \'Iceland\', \'India\', \'Indonesia\', \'Iran\', \'Iraq\', \'Ireland\', \'Isle of Man\', \'Israel\', \'Italy\', \'Jamaica\', \'Japan\', \'Jersey\', \'Jordan\', \'Kazakhstan\', \'Kenya\', \'Kiribati\', \'Korea\', \'Korea (North)\', \'Kuwait\', \'Kyrgyzstan\', \'Laos\', \'Latvia\', \'Lebanon\', \'Lesotho\', \'Liberia\', \'Libya\', \'Liechtenstein\', \'Lithuania\', \'Luxembourg\', \'Macao\', \'Macedonia\', \'Madagascar\', \'Malawi\', \'Malaysia\', \'Maldives\', \'Mali\', \'Malta\', \'Marshall Islands\', \'Martinique\', \'Mauritania\', \'Mauritius\', \'Mayotte\', \'Mexico\', \'Moldova\', \'Monaco\', \'Mongolia\', \'Montenegro\', \'Montserrat\', \'Morocco\', \'Mozambique\', \'Myanmar\', \'Namibia\', \'Nauru\', \'Nepal\', \'Netherlands\', \'Netherlands Antilles\', \'New Caledonia\', \'New Zealand\', \'Nicaragua\', \'Niger\', \'Nigeria\', \'Niue\', \'Norfolk Island\', \'Northern Mariana Islands\', \'Norway\', \'Oman\', \'Pakistan\', \'Palau\', \'Palestinian Territory\', \'Panama\', \'Papua New Guinea\', \'Paraguay\', \'Peru\', \'Philippines\', \'Pitcairn\', \'Poland\', \'Portugal\', \'Puerto Rico\', \'Qatar\', \'Reunion\', \'Romania\', \'Russian Federation\', \'Rwanda\', \'Saint Helena\', \'Saint Kitts and Nevis\', \'Saint Lucia\', \'Saint Pierre and Miquelon\', \'Saint Vincent and the Grenadines\', \'Samoa\', \'San Marino\', \'Sao Tome and Principe\', \'Saudi Arabia\', \'Senegal\', \'Serbia\', \'Seychelles\', \'Sierra Leone\', \'Singapore\', \'Slovak Republic\', \'Slovenia\', \'Solomon Islands\', \'Somalia\', \'South Africa\', \'Spain\', \'Sri Lanka\', \'Sudan\', \'Suriname\', \'Svalbard and Jan Mayen\', \'Swaziland\', \'Sweden\', \'Switzerland\', \'Syria\', \'Taiwan\', \'Tajikistan\', \'Tanzania\', \'Thailand\', \'Timor-Leste\', \'Togo\', \'Tokelau\', \'Tonga\', \'Trinidad and Tobago\', \'Tunisia\', \'Turkey\', \'Turkmenistan\', \'Turks and Caicos Islands\', \'Tuvalu\', \'Uganda\', \'Ukraine\', \'United Arab Emirates\', \'United Kingdom\', \'Uruguay\', \'Uzbekistan\', \'Vanuatu\', \'Vatican City State (Holy See)\', \'Venezuela\', \'Vietnam\', \'Virgin Islands (British)\', \'Virgin Islands (U.S.)\', \'Wallis and Futuna\', \'Western Sahara\', \'Yemen\', \'Zambia\', \'Zimbabwe\', \'Other\']\n    \ncountryid=[\'us\', \'af\', \'ax\', \'al\', \'dz\', \'as\', \'ad\', \'ao\', \'ai\', \'aq\', \'ag\', \'ar\', \'am\', \'aw\', \'au\', \'at\', \'az\', \'bs\', \'bh\', \'bd\', \'bb\', \'by\', \'be\', \'bz\', \'bj\', \'bm\', \'bt\', \'bo\', \'ba\', \'bw\', \'br\', \'io\', \'bn\', \'bg\', \'bf\', \'bi\', \'kh\', \'cm\', \'ca\', \'cv\', \'cb\', \'ky\', \'cf\', \'td\', \'cl\', \'cn\', \'cx\', \'cc\', \'co\', \'km\', \'cg\', \'ck\', \'cr\', \'ci\', \'hr\', \'cu\', \'cy\', \'cz\', \'cd\', \'dk\', \'dj\', \'dm\', \'do\', \'tp\', \'ec\', \'eg\', \'sv\', \'gq\', \'er\', \'ee\', \'et\', \'fk\', \'fo\', \'fm\', \'fj\', \'fi\', \'fr\', \'gf\', \'pf\', \'tf\', \'ga\', \'gm\', \'ge\', \'de\', \'gh\', \'gi\', \'gr\', \'gl\', \'gd\', \'gp\', \'gu\', \'gt\', \'gg\', \'gn\', \'gw\', \'gy\', \'ht\', \'hn\', \'hk\', \'hu\', \'is\', \'in\', \'id\', \'ir\', \'iq\', \'ie\', \'im\', \'il\', \'it\', \'jm\', \'jp\', \'je\', \'jo\', \'kz\', \'ke\', \'ki\', \'kr\', \'kp\', \'kw\', \'kg\', \'la\', \'lv\', \'lb\', \'ls\', \'lr\', \'ly\', \'li\', \'lt\', \'lu\', \'mo\', \'mk\', \'mg\', \'mw\', \'my\', \'mv\', \'ml\', \'mt\', \'mh\', \'mq\', \'mr\', \'mu\', \'yt\', \'mx\', \'md\', \'mc\', \'mn\', \'me\', \'ms\', \'ma\', \'mz\', \'mm\', \'na\', \'nr\', \'np\', \'nl\', \'an\', \'nc\', \'nz\', \'ni\', \'ne\', \'ng\', \'nu\', \'nf\', \'mp\', \'no\', \'om\', \'pk\', \'pw\', \'ps\', \'pa\', \'pg\', \'py\', \'pe\', \'ph\', \'pn\', \'pl\', \'pt\', \'pr\', \'qa\', \'re\', \'ro\', \'ru\', \'rw\', \'sh\', \'kn\', \'lc\', \'pm\', \'vc\', \'ws\', \'sm\', \'st\', \'sa\', \'sn\', \'rs\', \'sc\', \'sl\', \'sg\', \'sk\', \'si\', \'sb\', \'so\', \'za\', \'es\', \'lk\', \'sd\', \'sr\', \'sj\', \'sz\', \'se\', \'ch\', \'sy\', \'tw\', \'tj\', \'tz\', \'th\', \'tl\', \'tg\', \'tk\', \'to\', \'tt\', \'tn\', \'tr\', \'tm\', \'tc\', \'tv\', \'ug\', \'ua\', \'ae\', \'gb\', \'uy\', \'uz\', \'vu\', \'va\', \'ve\', \'vn\', \'vg\', \'vi\', \'wf\', \'eh\', \'ye\', \'zm\', \'zw\', \'oo\']\n\nindustries=[\'All Industries\',\'Accounting\', \'Airlines/Aviation\', \'Alternative Dispute Resolution\', \'Alternative Medicine\', \'Animation\', \'Apparel & Fashion\', \'Architecture & Planning\', \'Arts and Crafts\', \'Automotive\', \'Aviation & Aerospace\', \'Banking\', \'Biotechnology\', \'Broadcast Media\', \'Building Materials\', \'Business Supplies and Equipment\', \'Capital Markets\', \'Chemicals\', \'Civic & Social Organization\', \'Civil Engineering\', \'Commercial Real Estate\', \'Computer & Network Security\', \'Computer Games\', \'Computer Hardware\', \'Computer Networking\', \'Computer Software\', \'Construction\', \'Consumer Electronics\', \'Consumer Goods\', \'Consumer Services\', \'Cosmetics\', \'Dairy\', \'Defense & Space\', \'Design\', \'Education Management\', \'E-Learning\', \'Electrical/Electronic Manufacturing\', \'Entertainment\', \'Environmental Services\', \'Events Services\', \'Executive Office\', \'Facilities Services\', \'Farming\', \'Financial Services\', \'Fine Art\', \'Fishery\', \'Food & Beverages\', \'Food Production\', \'Fund-Raising\', \'Furniture\', \'Gambling & Casinos\', \'Glass, Ceramics & Concrete\', \'Government Administration\', \'Government Relations\', \'Graphic Design\', \'Health, Wellness and Fitness\', \'Higher Education\', \'Hospital & Health Care\', \'Hospitality\', \'Human Resources\', \'Import and Export\', \'Individual & Family Services\', \'Industrial Automation\', \'Information Services\', \'Information Technology and Services\', \'Insurance\', \'International Affairs\', \'International Trade and Development\', \'Internet\', \'Investment Banking\', \'Investment Management\', \'Judiciary\', \'Law Enforcement\', \'Law Practice\', \'Legal Services\', \'Legislative Office\', \'Leisure, Travel & Tourism\', \'Libraries\', \'Logistics and Supply Chain\', \'Luxury Goods & Jewelry\', \'Machinery\', \'Management Consulting\', \'Maritime\', \'Marketing and Advertising\', \'Market Research\', \'Mechanical or Industrial Engineering\', \'Media Production\', \'Medical Devices\', \'Medical Practice\', \'Mental Health Care\', \'Military\', \'Mining & Metals\', \'Motion Pictures and Film\', \'Museums and Institutions\', \'Music\', \'Nanotechnology\', \'Newspapers\', \'Nonprofit Organization Management\', \'Oil & Energy\', \'Online Media\', \'Outsourcing/Offshoring\', \'Package/Freight Delivery\', \'Packaging and Containers\', \'Paper & Forest Products\', \'Performing Arts\', \'Pharmaceuticals\', \'Philanthropy\', \'Photography\', \'Plastics\', \'Political Organization\', \'Primary/Secondary Education\', \'Printing\', \'Professional Training & Coaching\', \'Program Development\', \'Public Policy\', \'Public Relations and Communications\', \'Public Safety\', \'Publishing\', \'Railroad Manufacture\', \'Ranching\', \'Real Estate\', \'Recreational Facilities and Services\', \'Religious Institutions\', \'Renewables & Environment\', \'Research\', \'Restaurants\', \'Retail\', \'Security and Investigations\', \'Semiconductors\', \'Shipbuilding\', \'Sporting Goods\', \'Sports\', \'Staffing and Recruiting\', \'Supermarkets\', \'Telecommunications\', \'Textiles\', \'Think Tanks\', \'Tobacco\', \'Translation and Localization\', \'Transportation/Trucking/Railroad\', \'Utilities\', \'Venture Capital & Private Equity\', \'Veterinary\', \'Warehousing\', \'Wholesale\', \'Wine and Spirits\', \'Wireless\', \'Writing and Editing\']\n\nseniority=[\'All Seniority Levels\', \'Manager\', \'Owner\', \'Partner\', \'CXO\', \'VP\', \'Director\', \'Senior\', \'Entry\', \'Students & Interns\', \'Volunteer\']\n\nfunctions=[\'All Functions\', \'Academics\', \'Accounting\', \'Administrative\', \'Business development\', \'Buyer\', \'Consultant\', \'Creative\', \'Engineering\', \'Entrepreneur\', \'Finance\', \'Human resources\', \'Information technology\', \'Legal\', \'Marketing\', \'Medical\', \'Operations\', \'Product\', \'Public relations\', \'Real estate\', \'Sales\', \'Support\']\n\n#THIS IS THE LOGIN PAGE\ndef index():\n    """\n    example action using the internationalization operator T and flash\n    rendered by views/default/index.html or views/generic.html\n    """\n    #login form\n    form = SQLFORM.factory(\n       Field(\'LinkedIn_User_Id\'),\n       Field(\'Password\',type=\'password\'))\n       \n    #checking if there is already a user logged in,i.e. creating a session\n    if session.username:\n        session.flash =\'Login Successful\'\n        redirect(URL(r=request,f=\'enter_info\')) \n       \n\n    session.username=request.vars.LinkedIn_User_Id\n    session.password=request.vars.Password\n    #if form is accepted call enterinfo function\n    if form.process().accepted:\n        session.flash =T(\'Login Successful\')\n        redirect(URL(r=request,f=\'enter_info\')) \n    return dict(form=form)   \n\ndef user():\n    """\n    exposes:\n    http://..../[app]/default/user/login\n    http://..../[app]/default/user/logout\n    http://..../[app]/default/user/register\n    http://..../[app]/default/user/profile\n    http://..../[app]/default/user/retrieve_password\n    http://..../[app]/default/user/change_password\n    use @auth.requires_login()\n        @auth.requires_membership(\'group name\')\n        @auth.requires_permission(\'read\',\'table name\',record_id)\n    to decorate functions that need access control\n    """\n    return dict(form=auth())\n\n\ndef download():\n    """\n    allows downloading of uploaded files\n    http://..../[app]/default/download/[filename]\n    """\n    return response.download(request,db)\n\n\ndef call():\n    """\n    exposes services. for example:\n    http://..../[app]/default/call/jsonrpc\n    decorate with @services.jsonrpc the functions to expose\n    supports xml, json, xmlrpc, jsonrpc, amfrpc, rss, csv\n    """\n    return service()\n\n\n@auth.requires_signature()\ndef data():\n    """\n    http://..../[app]/default/data/tables\n    http://..../[app]/default/data/create/[table]\n    http://..../[app]/default/data/read/[table]/[id]\n    http://..../[app]/default/data/update/[table]/[id]\n    http://..../[app]/default/data/delete/[table]/[id]\n    http://..../[app]/default/data/select/[table]\n    http://..../[app]/default/data/search/[table]\n    but URLs must be signed, i.e. linked with\n      A(\'table\',_href=URL(\'data/tables\',user_signature=True))\n    or with the signed load operator\n      LOAD(\'default\',\'data.load\',args=\'tables\',ajax=True,user_signature=True)\n    """\n    return dict(form=crud())\n\n  \ndef enter_info():\n    #form for entering information\n    form = SQLFORM.factory(\n       Field(\'First_Name\'),\n       Field(\'Last_Name\'),\n       Field(\'Keywords\'),\n       Field(\'Title\'),\n       Field(\'Company\'),\n       Field(\'School\'),\n       Field(\'File_Name\',requires=IS_NOT_EMPTY()),\n       Field(\'Country\',requires=IS_IN_SET(country),default=\'United States\'),\n       Field(\'Industry\',requires=IS_IN_SET(industries,multiple=\'multiple\'),default=\'All Industries\'),\n       Field(\'Seniority_Levels\',requires=IS_IN_SET(seniority,multiple=\'multiple\'),default=\'All Seniority Levels\'),\n       Field(\'Functions\',requires=IS_IN_SET(functions,multiple=\'multiple\'),default=\'All Functions\'))\n\n    #response.flash = \'Refresh Page After Each Query\'\n    #if form accepted redirect to search function\n    if form.process().accepted:\n        response.flash = \'Refresh Page After Each Query\'\n        redirect(URL(r=request,f=\'search\',vars=request.vars))\n    elif form.errors:\n        response.flash = \'form has errors\'\n    return dict(form=form)\n    \n    \n\ndef search():\n    import mechanize\n    import cookielib\n    import html2text\n    from bs4 import BeautifulSoup\n    # Browser    \n    br = mechanize.Browser()\n\n    # Cookie Jar\n    cj = cookielib.LWPCookieJar()\n    br.set_cookiejar(cj)\n\n    # Browser options\n    br.set_handle_equiv(True)\n    br.set_handle_gzip(True)\n    br.set_handle_redirect(True)\n    br.set_handle_referer(True)\n    br.set_handle_robots(False)\n\n    # Follows refresh 0 but not hangs on refresh > 0\n    br.set_handle_refresh(mechanize._http.HTTPRefreshProcessor(), max_time=1)\n\n    # User-Agent (this is cheating, ok?)\n    br.addheaders = [(\'User-agent\', \'Mozilla/5.0 (X11; U; Linux i686; en-US; rv:1.9.0.1) Gecko/2008071615 Fedora/3.0.1-1.fc9 Firefox/3.0.1\')]\n\n\n    # The site we will navigate into, handling it\'s session    \n    br.open(\'https://www.linkedin.com\')\n\n    # Select the first (index zero) form\n    br.select_form(nr=0)\n\n    # User credentials\n    #br.form[\'session_key\'] = \'mrigeshgaurav@gmail.com\'\n    #br.form[\'session_password\'] = \'modeln@1234\'\n    \n    #entering username and password user provided at login\n    br.form[\'session_key\'] = session.username\n    br.form[\'session_password\'] = session.password\n    \n    \n    # Login by submitting form br\n    br.submit()\n    \n    #opening the advanced search page straight away\n    br.open(\'http://www.linkedin.com/search?trk=advsrch\')\n    \n    #selecting the 1st form\n    br.select_form(nr=1)\n\n    #entering various fields and filters\n    if request.vars.Last_Name:\n        br["lname"]=request.vars.Last_Name\n\n    if request.vars.First_Name:\n        br["fname"]=request.vars.First_Name\n    \n    if request.vars.Keywords:\n        br["keywords"]=request.vars.Keywords\n\n    if request.vars.Company:\n        br["company"]=request.vars.Company\n\n    if request.vars.School:\n        br["school"]=request.vars.School\n\n    if request.vars.Title:\n        br["title"]=request.vars.Title\n        \n    if request.vars.Country:\n        br["countryCode"]=[countryid[country.index(request.vars.Country)]]\n    \n    if request.vars.Industry and request.vars.Industry!=\'All Industries\':\n        if isinstance(request.vars.Industry,list):\n            for i in request.vars.Industry:\n                br.find_control("facet_I").items[industries.index(i)-1].selected=True\n        else:\n            br.find_control("facet_I").items[industries.index(request.vars.Industry)-1].selected=True\n    try:        \n        if request.vars.Seniority_Levels and request.vars.Seniority_Levels!=\'All Seniority Levels\':\n            if isinstance(request.vars.Seniority_Levels,list):\n                for i in request.vars.Seniority_Levels:\n                    br.find_control("facet_SE").items[seniority.index(i)-1].selected=True\n            else:\n                br.find_control("facet_SE").items[seniority.index(request.vars.Seniority_Levels)-1].selected=True\n            \n        if request.vars.Functions and request.vars.Functions!=\'All Functions\':\n            if isinstance(request.vars.Functions,list):\n                for i in request.vars.Functions:\n                    br.find_control("facet_FA").items[functions.index(i)-1].selected=True\n            else:\n                br.find_control("facet_FA").items[functions.index(request.vars.Functions)-1].selected=True\n    except:\n        flag=1\n        \n    #submitting the form\n    br.submit()\n    \n    #lists for retreiving the required data\n    view_profile=[]\n    firstname=[]\n    titl=[]\n    location=[]\n    industry=[]\n    current=[]\n    middlename=[]\n    lastname=[]\n    company=[]\n    emailid=[]\n    \n    #flag to make sure we get entries on 1st page\n    flag=1\n    \n    #writing into file with given filename\n    global csv_response\n\n    csv_response = cStringIO.StringIO()\n    \n    spamWriter = csv.writer(csv_response, delimiter=\',\')\n    \n    #spamWriter = csv.writer(open(request.vars.File_Name+\'.csv\', \'wb\'), delimiter=\',\')\n    soup = BeautifulSoup(br.response().read())\n    spamWriter.writerow([\'FIRSTNAME\',\'MIDDLENAME\',\'LASTNAME\',\'TITLE\',\'CURRENT\',\'LOCATION\',\'INDUSTRY\',\'PROFLEURL\',\'COMPANYNAME\',\'EMAIL\'])\n    \n    #scans till there is a link to "next page"\n    while soup.find(\'a\',{"class" : "paginator-next"}) or flag==1:\n        flag=0\n        soup = BeautifulSoup(br.response().read())\n        view_profile=[]\n        firstname=[]\n        titl=[]\n        location=[]\n        industry=[]\n        current=[]\n        middlename=[]\n        lastname=[]\n        company=[]\n        emailid=[]\n        \n        #parsing for the html response to get information\n        for k in soup.find_all(\'dl\',{"class" : "vcard-basic"}):\n            if k.find(\'dd\',{"class" : "title"}):\n                    titl.append(k.find(\'dd\',{"class" : "title"}).get_text())\n            else:\n                    titl.append(\'NONE\')\n                            \n            if k.find(\'span\',{"class" : "location"}):\n                    location.append(k.find(\'span\',{"class" : "location"}).get_text())\n            else:\n                    location.append(\'NONE\')\n            if k.find(\'span\',{"class" : "industry"}):\n                    industry.append(k.find(\'span\',{"class" : "industry"}).get_text())\n            else:\n                    industry.append(\'NONE\')\n                \n        for k in soup.find_all(\'dl\',{"class" : "vcard-expanded"}):\n            temp1=[]\n            temp2=[]\n            if k.find(\'span\',{"class" : "current-details more-text"}):\n                    less=k.find(\'span\',{"class" : "current-details more-text"}).get_text()\n                    temp1=less[0:len(less)-4].encode(\'utf-8\').split(\' at \',1)\n                    if(len(temp1)>1):\n                        try:\n                            temp2=temp1[1].encode(\'utf-8\').split(\',\',1)\n                        except:\n                            temp2=[\'NONE\']\n                    else:\n                        temp2=[\'NONE\']\n                    company.append(temp2[0])\n                    current.append(less[0:len(less)-4])\n            elif k.find(\'span\',{"class" : "current-details"}):\n                    less=k.find(\'span\',{"class" : "current-details"}).get_text()\n                    current.append(less)\n                    temp1=less.encode(\'utf-8\').split(\' at \',1)\n                    if(len(temp1)>1):\n                        try:\n                            temp2=temp1[1].encode(\'utf-8\').split(\',\',1)\n                        except:\n                            temp2=[\'NONE\']\n                    else:\n                        temp2=[\'NONE\']\n                    company.append(temp2[0])\n            else:\n                    current.append(\'NONE\')\n                    company.append(\'NONE\')\n               \n        for l in soup.find_all(\'a\',{"title" : "View Profile"}):\n            temp=[]\n            view_profile.append(\'http://www.linkedin.com\'+l.get(\'href\'))\n            temp.append(l.get_text().encode(\'utf-8\').split(None,2))\n            if temp[0][0]:\n                firstname.append(temp[0][0].strip())\n            else:\n                firstname.append(\'None\')\n            if temp[0][1] and (len(temp[0])-1)==1:\n                lastname.append(temp[0][1].strip())\n                middlename.append(\'None\')\n            else:\n                lastname.append(temp[0][len(temp[0])-1].strip())\n                middlename.append(temp[0][1])\n\n        \n        for i in range(0,len(firstname)):\n            e=\'\'\n            w=\'\'\n            for row in db(db.email_info.Company_Name==company[i]).select():\n                if row.First_String==\'firstname\':\n                    e=e+firstname[i]\n                if row.First_String==\'f\':    \n                    e=e+firstname[i][0]\n                if row.First_String==\'lastname\':\n                    e=e+lastname[i]\n                if row.First_String==\'l\':\n                    e=e+lastname[i][0]\n                \n                e=e+row.Delimiter\n                 \n                if row.Second_String==\'firstname\':\n                    e=e+firstname[i]\n                if row.Second_String==\'f\':    \n                    e=e+firstname[i][0]\n                if row.Second_String==\'lastname\':\n                    e=e+lastname[i]\n                if row.Second_String==\'l\':\n                    e=e+lastname[i][0]\n                e=e+\'@\'\n                e=e+row.Domain_Name\n                w=string.lower(e)                                    \n                emailid.append(w)\n                \n            if e==\'\':\n                for r in db(db.email_info.id > 0).select():\n                    if company[i].startswith(r.Company_Name):\n                        First_String=r.First_String\n                        Delimiter=r.Delimiter\n                        Second_String=r.Second_String\n                        Domain_Name=r.Domain_Name\n                    \n                        if First_String==\'firstname\':\n                            e=e+firstname[i]\n                        if First_String==\'f\':    \n                            e=e+firstname[i][0]\n                        if First_String==\'lastname\':\n                            e=e+lastname[i]\n                        if First_String==\'l\':\n                            e=e+lastname[i][0]\n                \n                        e=e+Delimiter\n                 \n                        if Second_String==\'firstname\':\n                            e=e+firstname[i]\n                        if Second_String==\'f\':    \n                            e=e+firstname[i][0]\n                        if Second_String==\'lastname\':\n                            e=e+lastname[i]\n                        if Second_String==\'l\':\n                            e=e+lastname[i][0]\n                        e=e+\'@\'\n                        e=e+Domain_Name\n                        w=string.lower(e)                                    \n                        emailid.append(w)\n                        break\n                  \n                    if r.Company_Name.startswith(company[i]):\n                        First_String=r.First_String\n                        Delimiter=r.Delimiter\n                        Second_String=r.Second_String\n                        Domain_Name=r.Domain_Name\n                    \n                        if First_String==\'firstname\':\n                            e=e+firstname[i]\n                        if First_String==\'f\':    \n                            e=e+firstname[i][0]\n                        if First_String==\'lastname\':\n                            e=e+lastname[i]\n                        if First_String==\'l\':\n                            e=e+lastname[i][0]\n                \n                        e=e+Delimiter\n                 \n                        if Second_String==\'firstname\':\n                            e=e+firstname[i]\n                        if Second_String==\'f\':    \n                            e=e+firstname[i][0]\n                        if Second_String==\'lastname\':\n                            e=e+lastname[i]\n                        if Second_String==\'l\':\n                            e=e+lastname[i][0]\n                        e=e+\'@\'\n                        e=e+Domain_Name\n                        w=string.lower(e)                                    \n                        emailid.append(w)\n                        break    \n                        \n            if e==\'\':\n                emailid.append(\'NONE\')        \n\n        \n        for i in range(0,len(firstname)):\n            try:\n                spamWriter.writerow([firstname[i].encode(\'utf-8\').strip(),middlename[i].encode(\'utf-8\').strip(),lastname[i].encode(\'utf-8\').strip(),titl[i].encode(\'utf-8\').strip(),current[i].encode(\'utf-8\').strip(),location[i].encode(\'utf-8\').strip(),industry[i].encode(\'utf-8\').strip(),view_profile[i].encode(\'utf-8\').strip(),company[i].encode(\'utf-8\').strip(),emailid[i].encode(\'utf-8\').strip()])\n            except:\n                continue\n        if soup.find(\'a\',{"class" : "paginator-next"}):\n            br.open(\'http://www.linkedin.com\'+ soup.find(\'a\',{"class" : "paginator-next"}).get(\'href\'))\n        #soup = BeautifulSoup(br.response().read())\n        \n    response.headers[\'Content-Type\'] = \'text/csv\'\n    response.headers[\'Content-Disposition\'] = \'attachment; filename=%s.csv\' % request.vars.File_Name\n    return csv_response.getvalue()\n    \ndef email_info():\n     name=SQLFORM(db.email_info)\n     if(name.accepts(request.vars,session)):\n         #db.playlist.insert(playlist_id=request.vars.id)\n         session.flash=\'New Entry Made\'\n         redirect(URL(r=request,f=\'email_info\'))\n     return dict(name=name)\n     \ndef list_companies():\n    return dict(companies=db(db.email_info.id>0).select())\n          \ndef logout():\n    session.username=[]\n    session.password=[]\n    session.flash =T(\'Logout Successful\')\n    redirect(URL(r=request,f=\'index\'))\n    \ndef delete():\n    db(db.email_info.id==request.args(0)).delete()\n    session.flash=\'Company Info Deleted\'\n    redirect(URL(r=request,f=\'list_companies\'))\n    \ndef extract():  \n    subprocess.call("java -cp \\"C:\\\\Program Files\\\\salesforce.com\\\\Data Loader\\\\*\\" -Dsalesforce.config.dir=\\"C:\\\\Documents and Settings\\\\agrover\\\\Desktop\\\\econtacts\\\\config\\" com.salesforce.dataloader.process.ProcessRunner process.name=econtacts")\n    \n    #this script is used for adding company name to the contacts extracted from the salesforce.com\n    #1st give the name of the file which is taken as input\n    #then give name of the file where you want new data with appended field to be stored\n    #then give the name of the file where all accounts are stored i.e. where company names(account names) are hashed to accountids\n\n\n    #opening input file which needs to be edited\n    #infile=raw_input(\'Enter Input Filename for Editing (eg extracted.csv):\')\n    o=open(\'C:\\\\Documents and Settings\\\\agrover\\\\Desktop\\\\econtacts.csv\', \'rb\')\n    inp = csv.reader(o, delimiter=\',\')\n\n    #opening new file for writing data\n    #newin=raw_input(\'Enter Input Filename for Newfile (eg extracted.csv):\')\n    w=open(\'C:\\\\Documents and Settings\\\\agrover\\\\Desktop\\\\contacts.csv\',\'wb\')\n    wri=csv.writer(w,delimiter=\',\')\n\n    #opening file from where company names will be matched to the accountids\n    #in1=raw_input(\'Enter accounts filename (eg allaccounts.csv):\')\n    a = open(\'C:\\\\Documents and Settings\\\\agrover\\\\Desktop\\\\allaccount.csv\', \'rb\')\n    acc = csv.reader(a, delimiter=\',\')\n\n    #stores header line\n    headers=inp.next()\n    head1=acc.next()\n\n    keys=set()\n\n    accid=dict()\n    \n    #finding index for field ID in accounts file\n    id=head1.index(\'ID\')\n    #finding index for field NAME in accounts file\n    accountname=head1.index(\'NAME\')\n\n    #finding index of accountid in the input file\n    accountid=headers.index(\'ACCOUNTID\')\n\n    #creating a dictionary where accountids are mapped to accountnames(companynames)\n    #acc means accessing accounts file\n\n    for entry in acc:\n        #search in a set is order 1 where as search in list is order N...\n        keys.add(entry[id])\n        accid[entry[id]]=entry[accountname]\n\n    #writing new header line in the new file generated\n    headers.append(\'COMPANYNAME\')\n    wri.writerow(headers)\n\n    #inp means accessing input file\n\n    for entry in inp:\n        #for each entry in input file we check if accountid is present in the set generated from accounts file\n        #if we use accid.keys() instead of set keys it will take N^2 time hence using set\n    \n        if(entry[accountid] in keys):\n            entry.append(accid[entry[accountid]])\n            wri.writerow(entry)\n        else:\n            entry.append(\'None\')\n            wri.writerow(entry)\n\n\n    w.close()\n    o.close()\n    a.close()\n\n    cpy()\n    #redirect(URL(r=request,f=\'enter_info\'))\n    return cp_response.getvalue()\n\ndef cpy():\n    global cp_response\n    cp_response = cStringIO.StringIO()\n    writer = csv.writer(cp_response, delimiter=\',\')\n    o=open(\'C:\\\\Documents and Settings\\\\agrover\\\\Desktop\\\\contacts.csv\', \'rb\')\n    reader = csv.reader(o, delimiter=\',\')\n    for row in reader:\n        writer.writerow(row)\n        \n    response.headers[\'Content-Type\'] = \'text/csv\'\n    response.headers[\'Content-Disposition\'] = \'attachment; filename=allcontacts.csv\'\n    \n   \ndef upload():\n    global fname\n    global saveas\n    form = SQLFORM(db.files)\n    if form.process().accepted:\n       fname=form.vars.Upload_File\n       saveas=request.vars.Save_As\n       #response.flash = fname\n       temp()\n       return up_response.getvalue()\n    elif form.errors:\n       response.flash = \'form has errors\'\n         \n    return dict(form=form)\n    \ndef temp():\n    global up_response\n    global fname\n    up_response = cStringIO.StringIO()\n    writer = csv.writer(up_response, delimiter=\',\')\n    k=\'C:\\\\Documents and Settings\\\\agrover\\\\Desktop\\\\previous crawler\\\\web2py\\\\applications\\\\mycrawler\\\\uploads\\\\\' + fname\n    c=open(k, \'rb\')\n    check = csv.reader(c, delimiter=\',\')\n    #infile=raw_input(\'Enter Input Filename for Comparing (eg extracted.csv):\')\n    o=open(\'C:\\\\Documents and Settings\\\\agrover\\\\Desktop\\\\contacts.csv\', \'rb\')\n    inp = csv.reader(o, delimiter=\',\')\n\n    #checkfile=raw_input(\'Enter Input Filename to be checked (eg in.csv):\')\n    #c=open(checkfile, \'rb\')\n\n    #outfile1=raw_input(\'Enter Output Filename for contacts (eg unique.csv):\')\n    #outfile2=raw_input(\'Enter Output Filename for duplicate contacts (eg dup.csv):\')\n\n    head1=check.next()\n    headers=inp.next()\n\n    email=headers.index(\'EMAIL\')\n    firstname=headers.index(\'FIRSTNAME\')\n    lastname=headers.index(\'LASTNAME\')\n\n    companyname=headers.index(\'COMPANYNAME\')\n\n    em=head1.index(\'EMAIL\')\n    fname=head1.index(\'FIRSTNAME\')\n    lname=head1.index(\'LASTNAME\')\n    title=head1.index(\'TITLE\')\n    cname=head1.index(\'COMPANYNAME\')\n\n    unique=[]\n    kept=set()\n    kept1=set()\n    records=dict()\n\n    for entry in inp:\n        if(entry[email] not in kept):\n            records[entry[email]]=entry;\n        if((entry[firstname]+entry[lastname]+entry[companyname]) not in kept1):\n            records[(entry[firstname]+entry[lastname]+entry[companyname])]=entry\n        kept.add(entry[email])\n        kept1.add(entry[firstname]+entry[lastname]+entry[companyname])\n\n    # and (entry[fname]+entry[lname]+entry[aid]) not in kept1\n    for entry in check:\n        if((entry[em] not in kept or entry[em]==\'\' or entry[em]==\'NONE\') and ((entry[fname]+entry[lname]+entry[cname]) not in kept1)):\n            kept.add(entry[em])\n            records[entry[em]]=[\'None\',\'None\',entry[lname],entry[fname],entry[em],entry[title],\'None\',\'None\',\'None\',\'None\',\'None\',\'None\',\'None\',\'None\',\'None\',\'None\',\'None\',\'None\',entry[cname]]\n            records[(entry[fname]+entry[lname]+entry[cname])]=[\'None\',\'None\',entry[lname],entry[fname],entry[em],entry[title],\'None\',\'None\',\'None\',\'None\',\'None\',\'None\',\'None\',\'None\',\'None\',\'None\',\'None\',\'None\',entry[cname]]\n            kept1.add(entry[fname]+entry[lname]+entry[cname])\n            \n            unique.append([\'None\',\'None\',entry[lname],entry[fname],entry[em],entry[title],\'None\',\'None\',\'None\',\'None\',\'None\',\'None\',\'None\',\'None\',\'None\',\'None\',\'None\',\'None\',entry[cname]])\n        elif (entry[em] in kept and entry[em]!=\'\'):\n           # print entry[em]\n            unique.append(records[entry[em]])\n        else:\n           # print entry[fname]\n            unique.append(records[entry[fname]+entry[lname]+entry[cname]])\n    \n\n    o.close()\n    db(db.files.id>0).delete()\n       \n    writer.writerow(headers)\n    for i in unique:\n        writer.writerow(list(i))\n    response.headers[\'Content-Type\'] = \'text/csv\'\n    response.headers[\'Content-Disposition\'] = \'attachment; filename=%s.csv\' % saveas\n    o.close()\n    c.close()\n    \n"""\nwith open(outfile2, \'wb\') as s:\n    out1=csv.writer(s, delimiter=\',\')\n    out1.writerow(headers)\n    for i in dup:\n        out1.writerow(list(i))\n\ns.close()"""\n    \n#finish\n###########################################################################################################    \n    #redirect(URL(r=request,f=\'enter_info\'))       \n    #for link in soup.find_all(\'a\'):\n    #    if link.get(\'title\')==\'View Profile\':\n    #        #print(link.get(\'href\'))\n    #        #print link.get_text()\n    #        view_profile.append(\'http://www.linkedin.com\'+link.get(\'href\'))\n    #        name.append(link.get_text())\n#for l in soup.find_all("span", { "class" : "given-name" }):\n    #print l.get_text()\n\n        \n\n#    for l in soup.find_all(\'dd\',{"class" : "title"}):\n        #print l.get_text()\n#        titl.append(l.get_text())\n    \n#    for l in soup.find_all(\'span\',{"class" : "location"}):\n        #print l.get_text()\n#        location.append(l.get_text())\n\n#    for l in soup.find_all(\'span\',{"class" : "industry"}):\n        #print l.get_text()\n#        industry.append(l.get_text())\n        \n#    for l in soup.find_all(\'span\', {"class" : "current-details"}):\n#        k=l.get_text()\n#        if k[len(k)-4:len(k)]!=\'more\':\n#            current.append(k)\n        #elif(l.get["class"]==\'current-details more text\'):\n        #    current.append(l.get_text())\n    #for l in soup.find_all(\'span\',{"class" : "current-details"}):\n        #print l.get_text()\n        #current.append(l.get_text())\n\n    \n    #global filename,csv_response\n\n    #csv_response = cStringIO.StringIO()\n    \n    #spamWriter = csv.writer(csv_response, delimiter=\',\')\n    \n    #spamWriter.writerow([\'NAME\',\'JOB-TITLE\',\'COMPANY-NAME\',\'LOCATION\',\'INDUSTRY\',\'PROFLE-URL\'])\n   \n    #spamWriter = csv.writer(open(request.vars.File_Name+\'.csv\', \'wb\'), delimiter=\',\')\n    #spamWriter.writerow([\'NAME\',\'JOB-TITLE\',\'Current\',\'LOCATION\',\'INDUSTRY\',\'PROFLE-URL\'])\n    #for i in range(1,10):\n    #    spamWriter.writerow([name[i].encode(\'utf-8\'),titl[i],current[i],location[i],industry[i],view_profile[i]])\n        \n        \n    #,titl[i],current[i],location[i],industry[i],view_profile[i]\n    #response.headers[\'Content-Type\'] = \'text/csv\'\n    #response.headers[\'Content-Disposition\'] = \'attachment; filename=%s\' % request.vars.File_Name\n\n    \n    #return dict(view_profile=view_profile,name=name,location=location,industry=industry,titl=titl,current=current)\n\nresponse._vars=response._caller(upload)\n'
p7
sS'snapshot'
p8
(dp9
S'exception'
p10
(dp11
S'__getslice__'
p12
S"<method-wrapper '__getslice__' of exceptions.WindowsError object>"
p13
sS'__str__'
p14
S"<method-wrapper '__str__' of exceptions.WindowsError object>"
p15
sS'__reduce__'
p16
S'<built-in method __reduce__ of exceptions.WindowsError object>'
p17
sS'__dict__'
p18
S'{}'
p19
sS'__sizeof__'
p20
S'<built-in method __sizeof__ of exceptions.WindowsError object>'
p21
sS'__init__'
p22
S"<method-wrapper '__init__' of exceptions.WindowsError object>"
p23
sS'__setattr__'
p24
S"<method-wrapper '__setattr__' of exceptions.WindowsError object>"
p25
sS'__reduce_ex__'
p26
S'<built-in method __reduce_ex__ of exceptions.WindowsError object>'
p27
sS'__new__'
p28
S'<built-in method __new__ of type object>'
p29
sS'errno'
p30
S'13'
p31
sS'__format__'
p32
S'<built-in method __format__ of exceptions.WindowsError object>'
p33
sS'__class__'
p34
S"<type 'exceptions.WindowsError'>"
p35
sS'filename'
p36
S"r'C:\\Documents and Settings\\agrover\\Desktop\\previo...load_File.80c61ab8c6241f99.6c657473632e637376.csv'"
p37
sS'__doc__'
p38
S"'MS-Windows OS system call failed.'"
p39
sS'__getitem__'
p40
S"<method-wrapper '__getitem__' of exceptions.WindowsError object>"
p41
sS'__setstate__'
p42
S'<built-in method __setstate__ of exceptions.WindowsError object>'
p43
sS'__getattribute__'
p44
S"<method-wrapper '__getattribute__' of exceptions.WindowsError object>"
p45
sS'args'
p46
S"(32, 'The process cannot access the file because it is being used by another process')"
p47
sS'__subclasshook__'
p48
S'<built-in method __subclasshook__ of type object>'
p49
sS'__unicode__'
p50
S'<built-in method __unicode__ of exceptions.WindowsError object>'
p51
sS'winerror'
p52
S'32'
p53
sS'strerror'
p54
S"'The process cannot access the file because it is being used by another process'"
p55
sS'__delattr__'
p56
S"<method-wrapper '__delattr__' of exceptions.WindowsError object>"
p57
sS'__repr__'
p58
S"<method-wrapper '__repr__' of exceptions.WindowsError object>"
p59
sS'__hash__'
p60
S"<method-wrapper '__hash__' of exceptions.WindowsError object>"
p61
ssS'evalue'
p62
S"[Error 32] The process cannot access the file because it is being used by another process: 'C:\\\\Documents and Settings\\\\agrover\\\\Desktop\\\\previous crawler\\\\web2py\\\\applications\\\\mycrawler\\\\databases\\\\..\\\\uploads\\\\files.Upload_File.80c61ab8c6241f99.6c657473632e637376.csv'"
p63
sS'request'
p64
ccopy_reg
_reconstructor
p65
(cgluon.html
BEAUTIFY
p66
c__builtin__
object
p67
NtRp68
(dp69
S'attributes'
p70
(dp71
sS'components'
p72
(lp73
g65
(cgluon.html
TABLE
p74
g67
NtRp75
(dp76
g70
(dp77
S'level'
p78
I5
ssS'parent'
p79
Nsg72
(lp80
g65
(cgluon.html
TR
p81
g67
NtRp82
(dp83
g70
(dp84
sg79
g75
sg72
(lp85
g65
(cgluon.html
TD
p86
g67
NtRp87
(dp88
g70
(dp89
S'_style'
p90
S'font-weight:bold;vertical-align:top'
p91
ssg79
g82
sg72
(lp92
S'ajax'
p93
asbag65
(g86
g67
NtRp94
(dp95
g70
(dp96
S'_valign'
p97
S'top'
p98
ssg79
g82
sg72
(lp99
S':'
asbag65
(g86
g67
NtRp100
(dp101
g70
(dp102
sg79
g82
sg72
(lp103
g65
(g66
g67
NtRp104
(dp105
g70
(dp106
g78
I5
ssg79
g100
sg72
(lp107
S'False'
p108
asbasbasbag65
(g81
g67
NtRp109
(dp110
g70
(dp111
sg79
g75
sg72
(lp112
g65
(g86
g67
NtRp113
(dp114
g70
(dp115
g90
g91
ssg79
g109
sg72
(lp116
S'application'
p117
asbag65
(g86
g67
NtRp118
(dp119
g70
(dp120
g97
g98
ssg79
g109
sg72
(lp121
S':'
asbag65
(g86
g67
NtRp122
(dp123
g70
(dp124
sg79
g109
sg72
(lp125
g65
(g66
g67
NtRp126
(dp127
g70
(dp128
g78
I5
ssg79
g122
sg72
(lp129
S'mycrawler'
p130
asbasbasbag65
(g81
g67
NtRp131
(dp132
g70
(dp133
sg79
g75
sg72
(lp134
g65
(g86
g67
NtRp135
(dp136
g70
(dp137
g90
g91
ssg79
g131
sg72
(lp138
g46
asbag65
(g86
g67
NtRp139
(dp140
g70
(dp141
g97
g98
ssg79
g131
sg72
(lp142
S':'
asbag65
(g86
g67
NtRp143
(dp144
g70
(dp145
sg79
g131
sg72
(lp146
g65
(g66
g67
NtRp147
(dp148
g70
(dp149
g78
I5
ssg79
g143
sg72
(lp150
g65
(g74
g67
NtRp151
(dp152
g70
(dp153
g78
I4
ssg79
Nsg72
(lp154
sbasbasbasbag65
(g81
g67
NtRp155
(dp156
g70
(dp157
sg79
g75
sg72
(lp158
g65
(g86
g67
NtRp159
(dp160
g70
(dp161
g90
g91
ssg79
g155
sg72
(lp162
S'body'
p163
asbag65
(g86
g67
NtRp164
(dp165
g70
(dp166
g97
g98
ssg79
g155
sg72
(lp167
S':'
asbag65
(g86
g67
NtRp168
(dp169
g70
(dp170
sg79
g155
sg72
(lp171
g65
(g66
g67
NtRp172
(dp173
g70
(dp174
g78
I5
ssg79
g168
sg72
(lp175
S"<open file '<fdopen>', mode 'w+b' at 0x09E0BE38>"
p176
asbasbasbag65
(g81
g67
NtRp177
(dp178
g70
(dp179
sg79
g75
sg72
(lp180
g65
(g86
g67
NtRp181
(dp182
g70
(dp183
g90
g91
ssg79
g177
sg72
(lp184
S'client'
p185
asbag65
(g86
g67
NtRp186
(dp187
g70
(dp188
g97
g98
ssg79
g177
sg72
(lp189
S':'
asbag65
(g86
g67
NtRp190
(dp191
g70
(dp192
sg79
g177
sg72
(lp193
g65
(g66
g67
NtRp194
(dp195
g70
(dp196
g78
I5
ssg79
g190
sg72
(lp197
S'127.0.0.1'
p198
asbasbasbag65
(g81
g67
NtRp199
(dp200
g70
(dp201
sg79
g75
sg72
(lp202
g65
(g86
g67
NtRp203
(dp204
g70
(dp205
g90
g91
ssg79
g199
sg72
(lp206
S'controller'
p207
asbag65
(g86
g67
NtRp208
(dp209
g70
(dp210
g97
g98
ssg79
g199
sg72
(lp211
S':'
asbag65
(g86
g67
NtRp212
(dp213
g70
(dp214
sg79
g199
sg72
(lp215
g65
(g66
g67
NtRp216
(dp217
g70
(dp218
g78
I5
ssg79
g212
sg72
(lp219
S'default'
p220
asbasbasbag65
(g81
g67
NtRp221
(dp222
g70
(dp223
sg79
g75
sg72
(lp224
g65
(g86
g67
NtRp225
(dp226
g70
(dp227
g90
g91
ssg79
g221
sg72
(lp228
S'cookies'
p229
asbag65
(g86
g67
NtRp230
(dp231
g70
(dp232
g97
g98
ssg79
g221
sg72
(lp233
S':'
asbag65
(g86
g67
NtRp234
(dp235
g70
(dp236
sg79
g221
sg72
(lp237
g65
(g66
g67
NtRp238
(dp239
g70
(dp240
g78
I5
ssg79
g234
sg72
(lp241
g65
(g74
g67
NtRp242
(dp243
g70
(dp244
g78
I4
ssg79
Nsg72
(lp245
g65
(g81
g67
NtRp246
(dp247
g70
(dp248
sg79
g242
sg72
(lp249
g65
(g86
g67
NtRp250
(dp251
g70
(dp252
g90
g91
ssg79
g246
sg72
(lp253
S'session_id_admin'
p254
asbag65
(g86
g67
NtRp255
(dp256
g70
(dp257
g97
g98
ssg79
g246
sg72
(lp258
S':'
asbag65
(g86
g67
NtRp259
(dp260
g70
(dp261
sg79
g246
sg72
(lp262
g65
(g66
g67
NtRp263
(dp264
g70
(dp265
g78
I4
ssg79
g259
sg72
(lp266
g65
(g74
g67
NtRp267
(dp268
g70
(dp269
g78
I3
ssg79
Nsg72
(lp270
g65
(g81
g67
NtRp271
(dp272
g70
(dp273
sg79
g267
sg72
(lp274
g65
(g86
g67
NtRp275
(dp276
g70
(dp277
g90
g91
ssg79
g271
sg72
(lp278
S'comment'
p279
asbag65
(g86
g67
NtRp280
(dp281
g70
(dp282
g97
g98
ssg79
g271
sg72
(lp283
S':'
asbag65
(g86
g67
NtRp284
(dp285
g70
(dp286
sg79
g271
sg72
(lp287
g65
(g66
g67
NtRp288
(dp289
g70
(dp290
g78
I3
ssg79
g284
sg72
(lp291
S''
asbasbasbag65
(g81
g67
NtRp292
(dp293
g70
(dp294
sg79
g267
sg72
(lp295
g65
(g86
g67
NtRp296
(dp297
g70
(dp298
g90
g91
ssg79
g292
sg72
(lp299
S'domain'
p300
asbag65
(g86
g67
NtRp301
(dp302
g70
(dp303
g97
g98
ssg79
g292
sg72
(lp304
S':'
asbag65
(g86
g67
NtRp305
(dp306
g70
(dp307
sg79
g292
sg72
(lp308
g65
(g66
g67
NtRp309
(dp310
g70
(dp311
g78
I3
ssg79
g305
sg72
(lp312
S''
asbasbasbag65
(g81
g67
NtRp313
(dp314
g70
(dp315
sg79
g267
sg72
(lp316
g65
(g86
g67
NtRp317
(dp318
g70
(dp319
g90
g91
ssg79
g313
sg72
(lp320
S'expires'
p321
asbag65
(g86
g67
NtRp322
(dp323
g70
(dp324
g97
g98
ssg79
g313
sg72
(lp325
S':'
asbag65
(g86
g67
NtRp326
(dp327
g70
(dp328
sg79
g313
sg72
(lp329
g65
(g66
g67
NtRp330
(dp331
g70
(dp332
g78
I3
ssg79
g326
sg72
(lp333
S''
asbasbasbag65
(g81
g67
NtRp334
(dp335
g70
(dp336
sg79
g267
sg72
(lp337
g65
(g86
g67
NtRp338
(dp339
g70
(dp340
g90
g91
ssg79
g334
sg72
(lp341
S'httponly'
p342
asbag65
(g86
g67
NtRp343
(dp344
g70
(dp345
g97
g98
ssg79
g334
sg72
(lp346
S':'
asbag65
(g86
g67
NtRp347
(dp348
g70
(dp349
sg79
g334
sg72
(lp350
g65
(g66
g67
NtRp351
(dp352
g70
(dp353
g78
I3
ssg79
g347
sg72
(lp354
S''
asbasbasbag65
(g81
g67
NtRp355
(dp356
g70
(dp357
sg79
g267
sg72
(lp358
g65
(g86
g67
NtRp359
(dp360
g70
(dp361
g90
g91
ssg79
g355
sg72
(lp362
S'max-age'
p363
asbag65
(g86
g67
NtRp364
(dp365
g70
(dp366
g97
g98
ssg79
g355
sg72
(lp367
S':'
asbag65
(g86
g67
NtRp368
(dp369
g70
(dp370
sg79
g355
sg72
(lp371
g65
(g66
g67
NtRp372
(dp373
g70
(dp374
g78
I3
ssg79
g368
sg72
(lp375
S''
asbasbasbag65
(g81
g67
NtRp376
(dp377
g70
(dp378
sg79
g267
sg72
(lp379
g65
(g86
g67
NtRp380
(dp381
g70
(dp382
g90
g91
ssg79
g376
sg72
(lp383
S'path'
p384
asbag65
(g86
g67
NtRp385
(dp386
g70
(dp387
g97
g98
ssg79
g376
sg72
(lp388
S':'
asbag65
(g86
g67
NtRp389
(dp390
g70
(dp391
sg79
g376
sg72
(lp392
g65
(g66
g67
NtRp393
(dp394
g70
(dp395
g78
I3
ssg79
g389
sg72
(lp396
S''
asbasbasbag65
(g81
g67
NtRp397
(dp398
g70
(dp399
sg79
g267
sg72
(lp400
g65
(g86
g67
NtRp401
(dp402
g70
(dp403
g90
g91
ssg79
g397
sg72
(lp404
S'secure'
p405
asbag65
(g86
g67
NtRp406
(dp407
g70
(dp408
g97
g98
ssg79
g397
sg72
(lp409
S':'
asbag65
(g86
g67
NtRp410
(dp411
g70
(dp412
sg79
g397
sg72
(lp413
g65
(g66
g67
NtRp414
(dp415
g70
(dp416
g78
I3
ssg79
g410
sg72
(lp417
S''
asbasbasbag65
(g81
g67
NtRp418
(dp419
g70
(dp420
sg79
g267
sg72
(lp421
g65
(g86
g67
NtRp422
(dp423
g70
(dp424
g90
g91
ssg79
g418
sg72
(lp425
S'version'
p426
asbag65
(g86
g67
NtRp427
(dp428
g70
(dp429
g97
g98
ssg79
g418
sg72
(lp430
S':'
asbag65
(g86
g67
NtRp431
(dp432
g70
(dp433
sg79
g418
sg72
(lp434
g65
(g66
g67
NtRp435
(dp436
g70
(dp437
g78
I3
ssg79
g431
sg72
(lp438
S''
asbasbasbasbasbasbasbag65
(g81
g67
NtRp439
(dp440
g70
(dp441
sg79
g242
sg72
(lp442
g65
(g86
g67
NtRp443
(dp444
g70
(dp445
g90
g91
ssg79
g439
sg72
(lp446
S'session_id_mycrawler'
p447
asbag65
(g86
g67
NtRp448
(dp449
g70
(dp450
g97
g98
ssg79
g439
sg72
(lp451
S':'
asbag65
(g86
g67
NtRp452
(dp453
g70
(dp454
sg79
g439
sg72
(lp455
g65
(g66
g67
NtRp456
(dp457
g70
(dp458
g78
I4
ssg79
g452
sg72
(lp459
g65
(g74
g67
NtRp460
(dp461
g70
(dp462
g78
I3
ssg79
Nsg72
(lp463
g65
(g81
g67
NtRp464
(dp465
g70
(dp466
sg79
g460
sg72
(lp467
g65
(g86
g67
NtRp468
(dp469
g70
(dp470
g90
g91
ssg79
g464
sg72
(lp471
g279
asbag65
(g86
g67
NtRp472
(dp473
g70
(dp474
g97
g98
ssg79
g464
sg72
(lp475
S':'
asbag65
(g86
g67
NtRp476
(dp477
g70
(dp478
sg79
g464
sg72
(lp479
g65
(g66
g67
NtRp480
(dp481
g70
(dp482
g78
I3
ssg79
g476
sg72
(lp483
S''
asbasbasbag65
(g81
g67
NtRp484
(dp485
g70
(dp486
sg79
g460
sg72
(lp487
g65
(g86
g67
NtRp488
(dp489
g70
(dp490
g90
g91
ssg79
g484
sg72
(lp491
g300
asbag65
(g86
g67
NtRp492
(dp493
g70
(dp494
g97
g98
ssg79
g484
sg72
(lp495
S':'
asbag65
(g86
g67
NtRp496
(dp497
g70
(dp498
sg79
g484
sg72
(lp499
g65
(g66
g67
NtRp500
(dp501
g70
(dp502
g78
I3
ssg79
g496
sg72
(lp503
S''
asbasbasbag65
(g81
g67
NtRp504
(dp505
g70
(dp506
sg79
g460
sg72
(lp507
g65
(g86
g67
NtRp508
(dp509
g70
(dp510
g90
g91
ssg79
g504
sg72
(lp511
g321
asbag65
(g86
g67
NtRp512
(dp513
g70
(dp514
g97
g98
ssg79
g504
sg72
(lp515
S':'
asbag65
(g86
g67
NtRp516
(dp517
g70
(dp518
sg79
g504
sg72
(lp519
g65
(g66
g67
NtRp520
(dp521
g70
(dp522
g78
I3
ssg79
g516
sg72
(lp523
S''
asbasbasbag65
(g81
g67
NtRp524
(dp525
g70
(dp526
sg79
g460
sg72
(lp527
g65
(g86
g67
NtRp528
(dp529
g70
(dp530
g90
g91
ssg79
g524
sg72
(lp531
g342
asbag65
(g86
g67
NtRp532
(dp533
g70
(dp534
g97
g98
ssg79
g524
sg72
(lp535
S':'
asbag65
(g86
g67
NtRp536
(dp537
g70
(dp538
sg79
g524
sg72
(lp539
g65
(g66
g67
NtRp540
(dp541
g70
(dp542
g78
I3
ssg79
g536
sg72
(lp543
S''
asbasbasbag65
(g81
g67
NtRp544
(dp545
g70
(dp546
sg79
g460
sg72
(lp547
g65
(g86
g67
NtRp548
(dp549
g70
(dp550
g90
g91
ssg79
g544
sg72
(lp551
g363
asbag65
(g86
g67
NtRp552
(dp553
g70
(dp554
g97
g98
ssg79
g544
sg72
(lp555
S':'
asbag65
(g86
g67
NtRp556
(dp557
g70
(dp558
sg79
g544
sg72
(lp559
g65
(g66
g67
NtRp560
(dp561
g70
(dp562
g78
I3
ssg79
g556
sg72
(lp563
S''
asbasbasbag65
(g81
g67
NtRp564
(dp565
g70
(dp566
sg79
g460
sg72
(lp567
g65
(g86
g67
NtRp568
(dp569
g70
(dp570
g90
g91
ssg79
g564
sg72
(lp571
g384
asbag65
(g86
g67
NtRp572
(dp573
g70
(dp574
g97
g98
ssg79
g564
sg72
(lp575
S':'
asbag65
(g86
g67
NtRp576
(dp577
g70
(dp578
sg79
g564
sg72
(lp579
g65
(g66
g67
NtRp580
(dp581
g70
(dp582
g78
I3
ssg79
g576
sg72
(lp583
S''
asbasbasbag65
(g81
g67
NtRp584
(dp585
g70
(dp586
sg79
g460
sg72
(lp587
g65
(g86
g67
NtRp588
(dp589
g70
(dp590
g90
g91
ssg79
g584
sg72
(lp591
g405
asbag65
(g86
g67
NtRp592
(dp593
g70
(dp594
g97
g98
ssg79
g584
sg72
(lp595
S':'
asbag65
(g86
g67
NtRp596
(dp597
g70
(dp598
sg79
g584
sg72
(lp599
g65
(g66
g67
NtRp600
(dp601
g70
(dp602
g78
I3
ssg79
g596
sg72
(lp603
S''
asbasbasbag65
(g81
g67
NtRp604
(dp605
g70
(dp606
sg79
g460
sg72
(lp607
g65
(g86
g67
NtRp608
(dp609
g70
(dp610
g90
g91
ssg79
g604
sg72
(lp611
g426
asbag65
(g86
g67
NtRp612
(dp613
g70
(dp614
g97
g98
ssg79
g604
sg72
(lp615
S':'
asbag65
(g86
g67
NtRp616
(dp617
g70
(dp618
sg79
g604
sg72
(lp619
g65
(g66
g67
NtRp620
(dp621
g70
(dp622
g78
I3
ssg79
g616
sg72
(lp623
S''
asbasbasbasbasbasbasbag65
(g81
g67
NtRp624
(dp625
g70
(dp626
sg79
g242
sg72
(lp627
g65
(g86
g67
NtRp628
(dp629
g70
(dp630
g90
g91
ssg79
g624
sg72
(lp631
S'session_id_welcome'
p632
asbag65
(g86
g67
NtRp633
(dp634
g70
(dp635
g97
g98
ssg79
g624
sg72
(lp636
S':'
asbag65
(g86
g67
NtRp637
(dp638
g70
(dp639
sg79
g624
sg72
(lp640
g65
(g66
g67
NtRp641
(dp642
g70
(dp643
g78
I4
ssg79
g637
sg72
(lp644
g65
(g74
g67
NtRp645
(dp646
g70
(dp647
g78
I3
ssg79
Nsg72
(lp648
g65
(g81
g67
NtRp649
(dp650
g70
(dp651
sg79
g645
sg72
(lp652
g65
(g86
g67
NtRp653
(dp654
g70
(dp655
g90
g91
ssg79
g649
sg72
(lp656
g279
asbag65
(g86
g67
NtRp657
(dp658
g70
(dp659
g97
g98
ssg79
g649
sg72
(lp660
S':'
asbag65
(g86
g67
NtRp661
(dp662
g70
(dp663
sg79
g649
sg72
(lp664
g65
(g66
g67
NtRp665
(dp666
g70
(dp667
g78
I3
ssg79
g661
sg72
(lp668
S''
asbasbasbag65
(g81
g67
NtRp669
(dp670
g70
(dp671
sg79
g645
sg72
(lp672
g65
(g86
g67
NtRp673
(dp674
g70
(dp675
g90
g91
ssg79
g669
sg72
(lp676
g300
asbag65
(g86
g67
NtRp677
(dp678
g70
(dp679
g97
g98
ssg79
g669
sg72
(lp680
S':'
asbag65
(g86
g67
NtRp681
(dp682
g70
(dp683
sg79
g669
sg72
(lp684
g65
(g66
g67
NtRp685
(dp686
g70
(dp687
g78
I3
ssg79
g681
sg72
(lp688
S''
asbasbasbag65
(g81
g67
NtRp689
(dp690
g70
(dp691
sg79
g645
sg72
(lp692
g65
(g86
g67
NtRp693
(dp694
g70
(dp695
g90
g91
ssg79
g689
sg72
(lp696
g321
asbag65
(g86
g67
NtRp697
(dp698
g70
(dp699
g97
g98
ssg79
g689
sg72
(lp700
S':'
asbag65
(g86
g67
NtRp701
(dp702
g70
(dp703
sg79
g689
sg72
(lp704
g65
(g66
g67
NtRp705
(dp706
g70
(dp707
g78
I3
ssg79
g701
sg72
(lp708
S''
asbasbasbag65
(g81
g67
NtRp709
(dp710
g70
(dp711
sg79
g645
sg72
(lp712
g65
(g86
g67
NtRp713
(dp714
g70
(dp715
g90
g91
ssg79
g709
sg72
(lp716
g342
asbag65
(g86
g67
NtRp717
(dp718
g70
(dp719
g97
g98
ssg79
g709
sg72
(lp720
S':'
asbag65
(g86
g67
NtRp721
(dp722
g70
(dp723
sg79
g709
sg72
(lp724
g65
(g66
g67
NtRp725
(dp726
g70
(dp727
g78
I3
ssg79
g721
sg72
(lp728
S''
asbasbasbag65
(g81
g67
NtRp729
(dp730
g70
(dp731
sg79
g645
sg72
(lp732
g65
(g86
g67
NtRp733
(dp734
g70
(dp735
g90
g91
ssg79
g729
sg72
(lp736
g363
asbag65
(g86
g67
NtRp737
(dp738
g70
(dp739
g97
g98
ssg79
g729
sg72
(lp740
S':'
asbag65
(g86
g67
NtRp741
(dp742
g70
(dp743
sg79
g729
sg72
(lp744
g65
(g66
g67
NtRp745
(dp746
g70
(dp747
g78
I3
ssg79
g741
sg72
(lp748
S''
asbasbasbag65
(g81
g67
NtRp749
(dp750
g70
(dp751
sg79
g645
sg72
(lp752
g65
(g86
g67
NtRp753
(dp754
g70
(dp755
g90
g91
ssg79
g749
sg72
(lp756
g384
asbag65
(g86
g67
NtRp757
(dp758
g70
(dp759
g97
g98
ssg79
g749
sg72
(lp760
S':'
asbag65
(g86
g67
NtRp761
(dp762
g70
(dp763
sg79
g749
sg72
(lp764
g65
(g66
g67
NtRp765
(dp766
g70
(dp767
g78
I3
ssg79
g761
sg72
(lp768
S''
asbasbasbag65
(g81
g67
NtRp769
(dp770
g70
(dp771
sg79
g645
sg72
(lp772
g65
(g86
g67
NtRp773
(dp774
g70
(dp775
g90
g91
ssg79
g769
sg72
(lp776
g405
asbag65
(g86
g67
NtRp777
(dp778
g70
(dp779
g97
g98
ssg79
g769
sg72
(lp780
S':'
asbag65
(g86
g67
NtRp781
(dp782
g70
(dp783
sg79
g769
sg72
(lp784
g65
(g66
g67
NtRp785
(dp786
g70
(dp787
g78
I3
ssg79
g781
sg72
(lp788
S''
asbasbasbag65
(g81
g67
NtRp789
(dp790
g70
(dp791
sg79
g645
sg72
(lp792
g65
(g86
g67
NtRp793
(dp794
g70
(dp795
g90
g91
ssg79
g789
sg72
(lp796
g426
asbag65
(g86
g67
NtRp797
(dp798
g70
(dp799
g97
g98
ssg79
g789
sg72
(lp800
S':'
asbag65
(g86
g67
NtRp801
(dp802
g70
(dp803
sg79
g789
sg72
(lp804
g65
(g66
g67
NtRp805
(dp806
g70
(dp807
g78
I3
ssg79
g801
sg72
(lp808
S''
asbasbasbasbasbasbasbasbasbasbasbag65
(g81
g67
NtRp809
(dp810
g70
(dp811
sg79
g75
sg72
(lp812
g65
(g86
g67
NtRp813
(dp814
g70
(dp815
g90
g91
ssg79
g809
sg72
(lp816
S'env'
p817
asbag65
(g86
g67
NtRp818
(dp819
g70
(dp820
g97
g98
ssg79
g809
sg72
(lp821
S':'
asbag65
(g86
g67
NtRp822
(dp823
g70
(dp824
sg79
g809
sg72
(lp825
g65
(g66
g67
NtRp826
(dp827
g70
(dp828
g78
I5
ssg79
g822
sg72
(lp829
g65
(g74
g67
NtRp830
(dp831
g70
(dp832
g78
I4
ssg79
Nsg72
(lp833
g65
(g81
g67
NtRp834
(dp835
g70
(dp836
sg79
g830
sg72
(lp837
g65
(g86
g67
NtRp838
(dp839
g70
(dp840
g90
g91
ssg79
g834
sg72
(lp841
S'app_folders'
p842
asbag65
(g86
g67
NtRp843
(dp844
g70
(dp845
g97
g98
ssg79
g834
sg72
(lp846
S':'
asbag65
(g86
g67
NtRp847
(dp848
g70
(dp849
sg79
g834
sg72
(lp850
g65
(g66
g67
NtRp851
(dp852
g70
(dp853
g78
I4
ssg79
g847
sg72
(lp854
S"set(['C:\\\\Documents and Settings\\\\agrover\\\\Desktop\\\\previous crawler\\\\web2py\\\\applications\\\\admin\\\\', 'C:\\\\Documents and Settings\\\\agrover\\\\Desktop\\\\previous crawler\\\\web2py\\\\applications\\\\mycrawler\\\\', 'C:\\\\Documents and Settings\\\\agrover\\\\Desktop\\\\previous crawler\\\\web2py\\\\applications\\\\welcome\\\\'])"
p855
asbasbasbag65
(g81
g67
NtRp856
(dp857
g70
(dp858
sg79
g830
sg72
(lp859
g65
(g86
g67
NtRp860
(dp861
g70
(dp862
g90
g91
ssg79
g856
sg72
(lp863
S'applications_parent'
p864
asbag65
(g86
g67
NtRp865
(dp866
g70
(dp867
g97
g98
ssg79
g856
sg72
(lp868
S':'
asbag65
(g86
g67
NtRp869
(dp870
g70
(dp871
sg79
g856
sg72
(lp872
g65
(g66
g67
NtRp873
(dp874
g70
(dp875
g78
I4
ssg79
g869
sg72
(lp876
S'C:\\Documents and Settings\\agrover\\Desktop\\previous crawler\\web2py'
p877
asbasbasbag65
(g81
g67
NtRp878
(dp879
g70
(dp880
sg79
g830
sg72
(lp881
g65
(g86
g67
NtRp882
(dp883
g70
(dp884
g90
g91
ssg79
g878
sg72
(lp885
S'cmd_args'
p886
asbag65
(g86
g67
NtRp887
(dp888
g70
(dp889
g97
g98
ssg79
g878
sg72
(lp890
S':'
asbag65
(g86
g67
NtRp891
(dp892
g70
(dp893
sg79
g878
sg72
(lp894
g65
(g66
g67
NtRp895
(dp896
g70
(dp897
g78
I4
ssg79
g891
sg72
(lp898
g65
(g74
g67
NtRp899
(dp900
g70
(dp901
g78
I3
ssg79
Nsg72
(lp902
sbasbasbasbag65
(g81
g67
NtRp903
(dp904
g70
(dp905
sg79
g830
sg72
(lp906
g65
(g86
g67
NtRp907
(dp908
g70
(dp909
g90
g91
ssg79
g903
sg72
(lp910
S'cmd_options'
p911
asbag65
(g86
g67
NtRp912
(dp913
g70
(dp914
g97
g98
ssg79
g903
sg72
(lp915
S':'
asbag65
(g86
g67
NtRp916
(dp917
g70
(dp918
sg79
g903
sg72
(lp919
g65
(g66
g67
NtRp920
(dp921
g70
(dp922
g78
I4
ssg79
g916
sg72
(lp923
S"<Values at 0x16d63f0: {'verbose': False, 'ip': '127.0.0.1', 'shutdown_timeout': 5, 'taskbar': False, 'nocron': False, 'pid_filename': 'httpserver.pid', 'maxthreads': None, 'softcron': False, 'server_name': 'mniagrover', 'bpython': False, 'nogui': False, 'port': 8000, 'extcron': False, 'debuglevel': 30, 'test': None, 'folder': 'C:\\\\Documents and Settings\\\\agrover\\\\Desktop\\\\previous crawler\\\\web2py', 'config': '', 'import_models': False, 'winservice': '', 'shell': None, 'run': '', 'log_filename': 'httpserver.log', 'args': [''], 'socket_timeout': 5, 'ssl_ca_certificate': None, 'scheduler': None, 'profiler_filename': None, 'ssl_private_key': '', 'password': '<ask>', 'request_queue_size': 5, 'ssl_certificate': '', 'cronjob': False, 'numthreads': None, 'quiet': False, 'interfaces': None, 'minthreads': None, 'timeout': 10, 'plain': False, 'nobanner': False}>"
p924
asbasbasbag65
(g81
g67
NtRp925
(dp926
g70
(dp927
sg79
g830
sg72
(lp928
g65
(g86
g67
NtRp929
(dp930
g70
(dp931
g90
g91
ssg79
g925
sg72
(lp932
S'content_length'
p933
asbag65
(g86
g67
NtRp934
(dp935
g70
(dp936
g97
g98
ssg79
g925
sg72
(lp937
S':'
asbag65
(g86
g67
NtRp938
(dp939
g70
(dp940
sg79
g925
sg72
(lp941
g65
(g66
g67
NtRp942
(dp943
g70
(dp944
g78
I4
ssg79
g938
sg72
(lp945
S'4276'
p946
asbasbasbag65
(g81
g67
NtRp947
(dp948
g70
(dp949
sg79
g830
sg72
(lp950
g65
(g86
g67
NtRp951
(dp952
g70
(dp953
g90
g91
ssg79
g947
sg72
(lp954
S'content_type'
p955
asbag65
(g86
g67
NtRp956
(dp957
g70
(dp958
g97
g98
ssg79
g947
sg72
(lp959
S':'
asbag65
(g86
g67
NtRp960
(dp961
g70
(dp962
sg79
g947
sg72
(lp963
g65
(g66
g67
NtRp964
(dp965
g70
(dp966
g78
I4
ssg79
g960
sg72
(lp967
S'multipart/form-data; boundary=---------------------------114782935826962'
p968
asbasbasbag65
(g81
g67
NtRp969
(dp970
g70
(dp971
sg79
g830
sg72
(lp972
g65
(g86
g67
NtRp973
(dp974
g70
(dp975
g90
g91
ssg79
g969
sg72
(lp976
S'db_sessions'
p977
asbag65
(g86
g67
NtRp978
(dp979
g70
(dp980
g97
g98
ssg79
g969
sg72
(lp981
S':'
asbag65
(g86
g67
NtRp982
(dp983
g70
(dp984
sg79
g969
sg72
(lp985
g65
(g66
g67
NtRp986
(dp987
g70
(dp988
g78
I4
ssg79
g982
sg72
(lp989
S'set([])'
p990
asbasbasbag65
(g81
g67
NtRp991
(dp992
g70
(dp993
sg79
g830
sg72
(lp994
g65
(g86
g67
NtRp995
(dp996
g70
(dp997
g90
g91
ssg79
g991
sg72
(lp998
S'debugging'
p999
asbag65
(g86
g67
NtRp1000
(dp1001
g70
(dp1002
g97
g98
ssg79
g991
sg72
(lp1003
S':'
asbag65
(g86
g67
NtRp1004
(dp1005
g70
(dp1006
sg79
g991
sg72
(lp1007
g65
(g66
g67
NtRp1008
(dp1009
g70
(dp1010
g78
I4
ssg79
g1004
sg72
(lp1011
g108
asbasbasbag65
(g81
g67
NtRp1012
(dp1013
g70
(dp1014
sg79
g830
sg72
(lp1015
g65
(g86
g67
NtRp1016
(dp1017
g70
(dp1018
g90
g91
ssg79
g1012
sg72
(lp1019
S'gluon_parent'
p1020
asbag65
(g86
g67
NtRp1021
(dp1022
g70
(dp1023
g97
g98
ssg79
g1012
sg72
(lp1024
S':'
asbag65
(g86
g67
NtRp1025
(dp1026
g70
(dp1027
sg79
g1012
sg72
(lp1028
g65
(g66
g67
NtRp1029
(dp1030
g70
(dp1031
g78
I4
ssg79
g1025
sg72
(lp1032
S'C:\\Documents and Settings\\agrover\\Desktop\\previous crawler\\web2py'
p1033
asbasbasbag65
(g81
g67
NtRp1034
(dp1035
g70
(dp1036
sg79
g830
sg72
(lp1037
g65
(g86
g67
NtRp1038
(dp1039
g70
(dp1040
g90
g91
ssg79
g1034
sg72
(lp1041
S'http_accept'
p1042
asbag65
(g86
g67
NtRp1043
(dp1044
g70
(dp1045
g97
g98
ssg79
g1034
sg72
(lp1046
S':'
asbag65
(g86
g67
NtRp1047
(dp1048
g70
(dp1049
sg79
g1034
sg72
(lp1050
g65
(g66
g67
NtRp1051
(dp1052
g70
(dp1053
g78
I4
ssg79
g1047
sg72
(lp1054
S'text/html,application/xhtml+xml,application/xml;q=0.9,*/*;q=0.8'
p1055
asbasbasbag65
(g81
g67
NtRp1056
(dp1057
g70
(dp1058
sg79
g830
sg72
(lp1059
g65
(g86
g67
NtRp1060
(dp1061
g70
(dp1062
g90
g91
ssg79
g1056
sg72
(lp1063
S'http_accept_encoding'
p1064
asbag65
(g86
g67
NtRp1065
(dp1066
g70
(dp1067
g97
g98
ssg79
g1056
sg72
(lp1068
S':'
asbag65
(g86
g67
NtRp1069
(dp1070
g70
(dp1071
sg79
g1056
sg72
(lp1072
g65
(g66
g67
NtRp1073
(dp1074
g70
(dp1075
g78
I4
ssg79
g1069
sg72
(lp1076
S'gzip, deflate'
p1077
asbasbasbag65
(g81
g67
NtRp1078
(dp1079
g70
(dp1080
sg79
g830
sg72
(lp1081
g65
(g86
g67
NtRp1082
(dp1083
g70
(dp1084
g90
g91
ssg79
g1078
sg72
(lp1085
S'http_accept_language'
p1086
asbag65
(g86
g67
NtRp1087
(dp1088
g70
(dp1089
g97
g98
ssg79
g1078
sg72
(lp1090
S':'
asbag65
(g86
g67
NtRp1091
(dp1092
g70
(dp1093
sg79
g1078
sg72
(lp1094
g65
(g66
g67
NtRp1095
(dp1096
g70
(dp1097
g78
I4
ssg79
g1091
sg72
(lp1098
S'en-us,en;q=0.5'
p1099
asbasbasbag65
(g81
g67
NtRp1100
(dp1101
g70
(dp1102
sg79
g830
sg72
(lp1103
g65
(g86
g67
NtRp1104
(dp1105
g70
(dp1106
g90
g91
ssg79
g1100
sg72
(lp1107
S'http_connection'
p1108
asbag65
(g86
g67
NtRp1109
(dp1110
g70
(dp1111
g97
g98
ssg79
g1100
sg72
(lp1112
S':'
asbag65
(g86
g67
NtRp1113
(dp1114
g70
(dp1115
sg79
g1100
sg72
(lp1116
g65
(g66
g67
NtRp1117
(dp1118
g70
(dp1119
g78
I4
ssg79
g1113
sg72
(lp1120
S'keep-alive'
p1121
asbasbasbag65
(g81
g67
NtRp1122
(dp1123
g70
(dp1124
sg79
g830
sg72
(lp1125
g65
(g86
g67
NtRp1126
(dp1127
g70
(dp1128
g90
g91
ssg79
g1122
sg72
(lp1129
S'http_content_length'
p1130
asbag65
(g86
g67
NtRp1131
(dp1132
g70
(dp1133
g97
g98
ssg79
g1122
sg72
(lp1134
S':'
asbag65
(g86
g67
NtRp1135
(dp1136
g70
(dp1137
sg79
g1122
sg72
(lp1138
g65
(g66
g67
NtRp1139
(dp1140
g70
(dp1141
g78
I4
ssg79
g1135
sg72
(lp1142
g946
asbasbasbag65
(g81
g67
NtRp1143
(dp1144
g70
(dp1145
sg79
g830
sg72
(lp1146
g65
(g86
g67
NtRp1147
(dp1148
g70
(dp1149
g90
g91
ssg79
g1143
sg72
(lp1150
S'http_content_type'
p1151
asbag65
(g86
g67
NtRp1152
(dp1153
g70
(dp1154
g97
g98
ssg79
g1143
sg72
(lp1155
S':'
asbag65
(g86
g67
NtRp1156
(dp1157
g70
(dp1158
sg79
g1143
sg72
(lp1159
g65
(g66
g67
NtRp1160
(dp1161
g70
(dp1162
g78
I4
ssg79
g1156
sg72
(lp1163
g968
asbasbasbag65
(g81
g67
NtRp1164
(dp1165
g70
(dp1166
sg79
g830
sg72
(lp1167
g65
(g86
g67
NtRp1168
(dp1169
g70
(dp1170
g90
g91
ssg79
g1164
sg72
(lp1171
S'http_cookie'
p1172
asbag65
(g86
g67
NtRp1173
(dp1174
g70
(dp1175
g97
g98
ssg79
g1164
sg72
(lp1176
S':'
asbag65
(g86
g67
NtRp1177
(dp1178
g70
(dp1179
sg79
g1164
sg72
(lp1180
g65
(g66
g67
NtRp1181
(dp1182
g70
(dp1183
g78
I4
ssg79
g1177
sg72
(lp1184
S'session_id_welcome=127.0.0.1-183c78c4-ffb3-4ecf-bad4-9010451b16fb; session_id_admin=127.0.0.1-c156fdf1-5f20-41e8-ad52-557b3d8889a0; session_id_mycrawler=127.0.0.1-e33c895d-efcf-4795-8169-7cf95d1f13b6'
p1185
asbasbasbag65
(g81
g67
NtRp1186
(dp1187
g70
(dp1188
sg79
g830
sg72
(lp1189
g65
(g86
g67
NtRp1190
(dp1191
g70
(dp1192
g90
g91
ssg79
g1186
sg72
(lp1193
S'http_host'
p1194
asbag65
(g86
g67
NtRp1195
(dp1196
g70
(dp1197
g97
g98
ssg79
g1186
sg72
(lp1198
S':'
asbag65
(g86
g67
NtRp1199
(dp1200
g70
(dp1201
sg79
g1186
sg72
(lp1202
g65
(g66
g67
NtRp1203
(dp1204
g70
(dp1205
g78
I4
ssg79
g1199
sg72
(lp1206
S'127.0.0.1:8000'
p1207
asbasbasbag65
(g81
g67
NtRp1208
(dp1209
g70
(dp1210
sg79
g830
sg72
(lp1211
g65
(g86
g67
NtRp1212
(dp1213
g70
(dp1214
g90
g91
ssg79
g1208
sg72
(lp1215
S'http_referer'
p1216
asbag65
(g86
g67
NtRp1217
(dp1218
g70
(dp1219
g97
g98
ssg79
g1208
sg72
(lp1220
S':'
asbag65
(g86
g67
NtRp1221
(dp1222
g70
(dp1223
sg79
g1208
sg72
(lp1224
g65
(g66
g67
NtRp1225
(dp1226
g70
(dp1227
g78
I4
ssg79
g1221
sg72
(lp1228
S'http://127.0.0.1:8000/mycrawler/default/upload'
p1229
asbasbasbag65
(g81
g67
NtRp1230
(dp1231
g70
(dp1232
sg79
g830
sg72
(lp1233
g65
(g86
g67
NtRp1234
(dp1235
g70
(dp1236
g90
g91
ssg79
g1230
sg72
(lp1237
S'http_user_agent'
p1238
asbag65
(g86
g67
NtRp1239
(dp1240
g70
(dp1241
g97
g98
ssg79
g1230
sg72
(lp1242
S':'
asbag65
(g86
g67
NtRp1243
(dp1244
g70
(dp1245
sg79
g1230
sg72
(lp1246
g65
(g66
g67
NtRp1247
(dp1248
g70
(dp1249
g78
I4
ssg79
g1243
sg72
(lp1250
S'Mozilla/5.0 (Windows NT 5.1; rv:13.0) Gecko/20100101 Firefox/13.0.1'
p1251
asbasbasbag65
(g81
g67
NtRp1252
(dp1253
g70
(dp1254
sg79
g830
sg72
(lp1255
g65
(g86
g67
NtRp1256
(dp1257
g70
(dp1258
g90
g91
ssg79
g1252
sg72
(lp1259
S'is_jython'
p1260
asbag65
(g86
g67
NtRp1261
(dp1262
g70
(dp1263
g97
g98
ssg79
g1252
sg72
(lp1264
S':'
asbag65
(g86
g67
NtRp1265
(dp1266
g70
(dp1267
sg79
g1252
sg72
(lp1268
g65
(g66
g67
NtRp1269
(dp1270
g70
(dp1271
g78
I4
ssg79
g1265
sg72
(lp1272
g108
asbasbasbag65
(g81
g67
NtRp1273
(dp1274
g70
(dp1275
sg79
g830
sg72
(lp1276
g65
(g86
g67
NtRp1277
(dp1278
g70
(dp1279
g90
g91
ssg79
g1273
sg72
(lp1280
S'is_pypy'
p1281
asbag65
(g86
g67
NtRp1282
(dp1283
g70
(dp1284
g97
g98
ssg79
g1273
sg72
(lp1285
S':'
asbag65
(g86
g67
NtRp1286
(dp1287
g70
(dp1288
sg79
g1273
sg72
(lp1289
g65
(g66
g67
NtRp1290
(dp1291
g70
(dp1292
g78
I4
ssg79
g1286
sg72
(lp1293
g108
asbasbasbag65
(g81
g67
NtRp1294
(dp1295
g70
(dp1296
sg79
g830
sg72
(lp1297
g65
(g86
g67
NtRp1298
(dp1299
g70
(dp1300
g90
g91
ssg79
g1294
sg72
(lp1301
S'path_info'
p1302
asbag65
(g86
g67
NtRp1303
(dp1304
g70
(dp1305
g97
g98
ssg79
g1294
sg72
(lp1306
S':'
asbag65
(g86
g67
NtRp1307
(dp1308
g70
(dp1309
sg79
g1294
sg72
(lp1310
g65
(g66
g67
NtRp1311
(dp1312
g70
(dp1313
g78
I4
ssg79
g1307
sg72
(lp1314
S'/mycrawler/default/upload'
p1315
asbasbasbag65
(g81
g67
NtRp1316
(dp1317
g70
(dp1318
sg79
g830
sg72
(lp1319
g65
(g86
g67
NtRp1320
(dp1321
g70
(dp1322
g90
g91
ssg79
g1316
sg72
(lp1323
S'query_string'
p1324
asbag65
(g86
g67
NtRp1325
(dp1326
g70
(dp1327
g97
g98
ssg79
g1316
sg72
(lp1328
S':'
asbag65
(g86
g67
NtRp1329
(dp1330
g70
(dp1331
sg79
g1316
sg72
(lp1332
g65
(g66
g67
NtRp1333
(dp1334
g70
(dp1335
g78
I4
ssg79
g1329
sg72
(lp1336
S''
asbasbasbag65
(g81
g67
NtRp1337
(dp1338
g70
(dp1339
sg79
g830
sg72
(lp1340
g65
(g86
g67
NtRp1341
(dp1342
g70
(dp1343
g90
g91
ssg79
g1337
sg72
(lp1344
S'remote_addr'
p1345
asbag65
(g86
g67
NtRp1346
(dp1347
g70
(dp1348
g97
g98
ssg79
g1337
sg72
(lp1349
S':'
asbag65
(g86
g67
NtRp1350
(dp1351
g70
(dp1352
sg79
g1337
sg72
(lp1353
g65
(g66
g67
NtRp1354
(dp1355
g70
(dp1356
g78
I4
ssg79
g1350
sg72
(lp1357
g198
asbasbasbag65
(g81
g67
NtRp1358
(dp1359
g70
(dp1360
sg79
g830
sg72
(lp1361
g65
(g86
g67
NtRp1362
(dp1363
g70
(dp1364
g90
g91
ssg79
g1358
sg72
(lp1365
S'remote_port'
p1366
asbag65
(g86
g67
NtRp1367
(dp1368
g70
(dp1369
g97
g98
ssg79
g1358
sg72
(lp1370
S':'
asbag65
(g86
g67
NtRp1371
(dp1372
g70
(dp1373
sg79
g1358
sg72
(lp1374
g65
(g66
g67
NtRp1375
(dp1376
g70
(dp1377
g78
I4
ssg79
g1371
sg72
(lp1378
S'2293'
p1379
asbasbasbag65
(g81
g67
NtRp1380
(dp1381
g70
(dp1382
sg79
g830
sg72
(lp1383
g65
(g86
g67
NtRp1384
(dp1385
g70
(dp1386
g90
g91
ssg79
g1380
sg72
(lp1387
S'request_method'
p1388
asbag65
(g86
g67
NtRp1389
(dp1390
g70
(dp1391
g97
g98
ssg79
g1380
sg72
(lp1392
S':'
asbag65
(g86
g67
NtRp1393
(dp1394
g70
(dp1395
sg79
g1380
sg72
(lp1396
g65
(g66
g67
NtRp1397
(dp1398
g70
(dp1399
g78
I4
ssg79
g1393
sg72
(lp1400
S'POST'
p1401
asbasbasbag65
(g81
g67
NtRp1402
(dp1403
g70
(dp1404
sg79
g830
sg72
(lp1405
g65
(g86
g67
NtRp1406
(dp1407
g70
(dp1408
g90
g91
ssg79
g1402
sg72
(lp1409
S'script_name'
p1410
asbag65
(g86
g67
NtRp1411
(dp1412
g70
(dp1413
g97
g98
ssg79
g1402
sg72
(lp1414
S':'
asbag65
(g86
g67
NtRp1415
(dp1416
g70
(dp1417
sg79
g1402
sg72
(lp1418
g65
(g66
g67
NtRp1419
(dp1420
g70
(dp1421
g78
I4
ssg79
g1415
sg72
(lp1422
S''
asbasbasbag65
(g81
g67
NtRp1423
(dp1424
g70
(dp1425
sg79
g830
sg72
(lp1426
g65
(g86
g67
NtRp1427
(dp1428
g70
(dp1429
g90
g91
ssg79
g1423
sg72
(lp1430
S'server_name'
p1431
asbag65
(g86
g67
NtRp1432
(dp1433
g70
(dp1434
g97
g98
ssg79
g1423
sg72
(lp1435
S':'
asbag65
(g86
g67
NtRp1436
(dp1437
g70
(dp1438
sg79
g1423
sg72
(lp1439
g65
(g66
g67
NtRp1440
(dp1441
g70
(dp1442
g78
I4
ssg79
g1436
sg72
(lp1443
S'mniagrover'
p1444
asbasbasbag65
(g81
g67
NtRp1445
(dp1446
g70
(dp1447
sg79
g830
sg72
(lp1448
g65
(g86
g67
NtRp1449
(dp1450
g70
(dp1451
g90
g91
ssg79
g1445
sg72
(lp1452
S'server_port'
p1453
asbag65
(g86
g67
NtRp1454
(dp1455
g70
(dp1456
g97
g98
ssg79
g1445
sg72
(lp1457
S':'
asbag65
(g86
g67
NtRp1458
(dp1459
g70
(dp1460
sg79
g1445
sg72
(lp1461
g65
(g66
g67
NtRp1462
(dp1463
g70
(dp1464
g78
I4
ssg79
g1458
sg72
(lp1465
S'8000'
p1466
asbasbasbag65
(g81
g67
NtRp1467
(dp1468
g70
(dp1469
sg79
g830
sg72
(lp1470
g65
(g86
g67
NtRp1471
(dp1472
g70
(dp1473
g90
g91
ssg79
g1467
sg72
(lp1474
S'server_protocol'
p1475
asbag65
(g86
g67
NtRp1476
(dp1477
g70
(dp1478
g97
g98
ssg79
g1467
sg72
(lp1479
S':'
asbag65
(g86
g67
NtRp1480
(dp1481
g70
(dp1482
sg79
g1467
sg72
(lp1483
g65
(g66
g67
NtRp1484
(dp1485
g70
(dp1486
g78
I4
ssg79
g1480
sg72
(lp1487
S'HTTP/1.1'
p1488
asbasbasbag65
(g81
g67
NtRp1489
(dp1490
g70
(dp1491
sg79
g830
sg72
(lp1492
g65
(g86
g67
NtRp1493
(dp1494
g70
(dp1495
g90
g91
ssg79
g1489
sg72
(lp1496
S'server_software'
p1497
asbag65
(g86
g67
NtRp1498
(dp1499
g70
(dp1500
g97
g98
ssg79
g1489
sg72
(lp1501
S':'
asbag65
(g86
g67
NtRp1502
(dp1503
g70
(dp1504
sg79
g1489
sg72
(lp1505
g65
(g66
g67
NtRp1506
(dp1507
g70
(dp1508
g78
I4
ssg79
g1502
sg72
(lp1509
S'Rocket 1.2.4'
p1510
asbasbasbag65
(g81
g67
NtRp1511
(dp1512
g70
(dp1513
sg79
g830
sg72
(lp1514
g65
(g86
g67
NtRp1515
(dp1516
g70
(dp1517
g90
g91
ssg79
g1511
sg72
(lp1518
S'web2py_crontype'
p1519
asbag65
(g86
g67
NtRp1520
(dp1521
g70
(dp1522
g97
g98
ssg79
g1511
sg72
(lp1523
S':'
asbag65
(g86
g67
NtRp1524
(dp1525
g70
(dp1526
sg79
g1511
sg72
(lp1527
g65
(g66
g67
NtRp1528
(dp1529
g70
(dp1530
g78
I4
ssg79
g1524
sg72
(lp1531
S'hard'
p1532
asbasbasbag65
(g81
g67
NtRp1533
(dp1534
g70
(dp1535
sg79
g830
sg72
(lp1536
g65
(g86
g67
NtRp1537
(dp1538
g70
(dp1539
g90
g91
ssg79
g1533
sg72
(lp1540
S'web2py_path'
p1541
asbag65
(g86
g67
NtRp1542
(dp1543
g70
(dp1544
g97
g98
ssg79
g1533
sg72
(lp1545
S':'
asbag65
(g86
g67
NtRp1546
(dp1547
g70
(dp1548
sg79
g1533
sg72
(lp1549
g65
(g66
g67
NtRp1550
(dp1551
g70
(dp1552
g78
I4
ssg79
g1546
sg72
(lp1553
g877
asbasbasbag65
(g81
g67
NtRp1554
(dp1555
g70
(dp1556
sg79
g830
sg72
(lp1557
g65
(g86
g67
NtRp1558
(dp1559
g70
(dp1560
g90
g91
ssg79
g1554
sg72
(lp1561
S'web2py_version'
p1562
asbag65
(g86
g67
NtRp1563
(dp1564
g70
(dp1565
g97
g98
ssg79
g1554
sg72
(lp1566
S':'
asbag65
(g86
g67
NtRp1567
(dp1568
g70
(dp1569
sg79
g1554
sg72
(lp1570
g65
(g66
g67
NtRp1571
(dp1572
g70
(dp1573
g78
I4
ssg79
g1567
sg72
(lp1574
g65
(g74
g67
NtRp1575
(dp1576
g70
(dp1577
g78
I3
ssg79
Nsg72
(lp1578
g65
(g81
g67
NtRp1579
(dp1580
g70
(dp1581
sg79
g1575
sg72
(lp1582
g65
(g86
g67
NtRp1583
(dp1584
g70
(dp1585
sg79
g1579
sg72
(lp1586
g65
(g66
g67
NtRp1587
(dp1588
g70
(dp1589
g78
I3
ssg79
g1583
sg72
(lp1590
S'1'
asbasbasbag65
(g81
g67
NtRp1591
(dp1592
g70
(dp1593
sg79
g1575
sg72
(lp1594
g65
(g86
g67
NtRp1595
(dp1596
g70
(dp1597
sg79
g1591
sg72
(lp1598
g65
(g66
g67
NtRp1599
(dp1600
g70
(dp1601
g78
I3
ssg79
g1595
sg72
(lp1602
S'99'
p1603
asbasbasbag65
(g81
g67
NtRp1604
(dp1605
g70
(dp1606
sg79
g1575
sg72
(lp1607
g65
(g86
g67
NtRp1608
(dp1609
g70
(dp1610
sg79
g1604
sg72
(lp1611
g65
(g66
g67
NtRp1612
(dp1613
g70
(dp1614
g78
I3
ssg79
g1608
sg72
(lp1615
S'7'
asbasbasbag65
(g81
g67
NtRp1616
(dp1617
g70
(dp1618
sg79
g1575
sg72
(lp1619
g65
(g86
g67
NtRp1620
(dp1621
g70
(dp1622
sg79
g1616
sg72
(lp1623
g65
(g66
g67
NtRp1624
(dp1625
g70
(dp1626
g78
I3
ssg79
g1620
sg72
(lp1627
S'datetime.datetime(2012, 3, 4, 22, 12, 8)'
p1628
asbasbasbag65
(g81
g67
NtRp1629
(dp1630
g70
(dp1631
sg79
g1575
sg72
(lp1632
g65
(g86
g67
NtRp1633
(dp1634
g70
(dp1635
sg79
g1629
sg72
(lp1636
g65
(g66
g67
NtRp1637
(dp1638
g70
(dp1639
g78
I3
ssg79
g1633
sg72
(lp1640
S'stable'
p1641
asbasbasbasbasbasbasbag65
(g81
g67
NtRp1642
(dp1643
g70
(dp1644
sg79
g830
sg72
(lp1645
g65
(g86
g67
NtRp1646
(dp1647
g70
(dp1648
g90
g91
ssg79
g1642
sg72
(lp1649
S'wsgi_errors'
p1650
asbag65
(g86
g67
NtRp1651
(dp1652
g70
(dp1653
g97
g98
ssg79
g1642
sg72
(lp1654
S':'
asbag65
(g86
g67
NtRp1655
(dp1656
g70
(dp1657
sg79
g1642
sg72
(lp1658
g65
(g66
g67
NtRp1659
(dp1660
g70
(dp1661
g78
I4
ssg79
g1655
sg72
(lp1662
S"<open file '<stderr>', mode 'w' at 0x00A550D0>"
p1663
asbasbasbag65
(g81
g67
NtRp1664
(dp1665
g70
(dp1666
sg79
g830
sg72
(lp1667
g65
(g86
g67
NtRp1668
(dp1669
g70
(dp1670
g90
g91
ssg79
g1664
sg72
(lp1671
S'wsgi_file_wrapper'
p1672
asbag65
(g86
g67
NtRp1673
(dp1674
g70
(dp1675
g97
g98
ssg79
g1664
sg72
(lp1676
S':'
asbag65
(g86
g67
NtRp1677
(dp1678
g70
(dp1679
sg79
g1664
sg72
(lp1680
g65
(g66
g67
NtRp1681
(dp1682
g70
(dp1683
g78
I4
ssg79
g1677
sg72
(lp1684
S'<class wsgiref.util.FileWrapper at 0x015E8AB0>'
p1685
asbasbasbag65
(g81
g67
NtRp1686
(dp1687
g70
(dp1688
sg79
g830
sg72
(lp1689
g65
(g86
g67
NtRp1690
(dp1691
g70
(dp1692
g90
g91
ssg79
g1686
sg72
(lp1693
S'wsgi_input'
p1694
asbag65
(g86
g67
NtRp1695
(dp1696
g70
(dp1697
g97
g98
ssg79
g1686
sg72
(lp1698
S':'
asbag65
(g86
g67
NtRp1699
(dp1700
g70
(dp1701
sg79
g1686
sg72
(lp1702
g65
(g66
g67
NtRp1703
(dp1704
g70
(dp1705
g78
I4
ssg79
g1699
sg72
(lp1706
S'<socket._fileobject object at 0x049B92B0>'
p1707
asbasbasbag65
(g81
g67
NtRp1708
(dp1709
g70
(dp1710
sg79
g830
sg72
(lp1711
g65
(g86
g67
NtRp1712
(dp1713
g70
(dp1714
g90
g91
ssg79
g1708
sg72
(lp1715
S'wsgi_multiprocess'
p1716
asbag65
(g86
g67
NtRp1717
(dp1718
g70
(dp1719
g97
g98
ssg79
g1708
sg72
(lp1720
S':'
asbag65
(g86
g67
NtRp1721
(dp1722
g70
(dp1723
sg79
g1708
sg72
(lp1724
g65
(g66
g67
NtRp1725
(dp1726
g70
(dp1727
g78
I4
ssg79
g1721
sg72
(lp1728
g108
asbasbasbag65
(g81
g67
NtRp1729
(dp1730
g70
(dp1731
sg79
g830
sg72
(lp1732
g65
(g86
g67
NtRp1733
(dp1734
g70
(dp1735
g90
g91
ssg79
g1729
sg72
(lp1736
S'wsgi_multithread'
p1737
asbag65
(g86
g67
NtRp1738
(dp1739
g70
(dp1740
g97
g98
ssg79
g1729
sg72
(lp1741
S':'
asbag65
(g86
g67
NtRp1742
(dp1743
g70
(dp1744
sg79
g1729
sg72
(lp1745
g65
(g66
g67
NtRp1746
(dp1747
g70
(dp1748
g78
I4
ssg79
g1742
sg72
(lp1749
S'True'
p1750
asbasbasbag65
(g81
g67
NtRp1751
(dp1752
g70
(dp1753
sg79
g830
sg72
(lp1754
g65
(g86
g67
NtRp1755
(dp1756
g70
(dp1757
g90
g91
ssg79
g1751
sg72
(lp1758
S'wsgi_run_once'
p1759
asbag65
(g86
g67
NtRp1760
(dp1761
g70
(dp1762
g97
g98
ssg79
g1751
sg72
(lp1763
S':'
asbag65
(g86
g67
NtRp1764
(dp1765
g70
(dp1766
sg79
g1751
sg72
(lp1767
g65
(g66
g67
NtRp1768
(dp1769
g70
(dp1770
g78
I4
ssg79
g1764
sg72
(lp1771
g108
asbasbasbag65
(g81
g67
NtRp1772
(dp1773
g70
(dp1774
sg79
g830
sg72
(lp1775
g65
(g86
g67
NtRp1776
(dp1777
g70
(dp1778
g90
g91
ssg79
g1772
sg72
(lp1779
S'wsgi_url_scheme'
p1780
asbag65
(g86
g67
NtRp1781
(dp1782
g70
(dp1783
g97
g98
ssg79
g1772
sg72
(lp1784
S':'
asbag65
(g86
g67
NtRp1785
(dp1786
g70
(dp1787
sg79
g1772
sg72
(lp1788
g65
(g66
g67
NtRp1789
(dp1790
g70
(dp1791
g78
I4
ssg79
g1785
sg72
(lp1792
S'http'
p1793
asbasbasbag65
(g81
g67
NtRp1794
(dp1795
g70
(dp1796
sg79
g830
sg72
(lp1797
g65
(g86
g67
NtRp1798
(dp1799
g70
(dp1800
g90
g91
ssg79
g1794
sg72
(lp1801
S'wsgi_version'
p1802
asbag65
(g86
g67
NtRp1803
(dp1804
g70
(dp1805
g97
g98
ssg79
g1794
sg72
(lp1806
S':'
asbag65
(g86
g67
NtRp1807
(dp1808
g70
(dp1809
sg79
g1794
sg72
(lp1810
g65
(g66
g67
NtRp1811
(dp1812
g70
(dp1813
g78
I4
ssg79
g1807
sg72
(lp1814
g65
(g74
g67
NtRp1815
(dp1816
g70
(dp1817
g78
I3
ssg79
Nsg72
(lp1818
g65
(g81
g67
NtRp1819
(dp1820
g70
(dp1821
sg79
g1815
sg72
(lp1822
g65
(g86
g67
NtRp1823
(dp1824
g70
(dp1825
sg79
g1819
sg72
(lp1826
g65
(g66
g67
NtRp1827
(dp1828
g70
(dp1829
g78
I3
ssg79
g1823
sg72
(lp1830
S'1'
asbasbasbag65
(g81
g67
NtRp1831
(dp1832
g70
(dp1833
sg79
g1815
sg72
(lp1834
g65
(g86
g67
NtRp1835
(dp1836
g70
(dp1837
sg79
g1831
sg72
(lp1838
g65
(g66
g67
NtRp1839
(dp1840
g70
(dp1841
g78
I3
ssg79
g1835
sg72
(lp1842
S'0'
asbasbasbasbasbasbasbasbasbasbasbag65
(g81
g67
NtRp1843
(dp1844
g70
(dp1845
sg79
g75
sg72
(lp1846
g65
(g86
g67
NtRp1847
(dp1848
g70
(dp1849
g90
g91
ssg79
g1843
sg72
(lp1850
S'extension'
p1851
asbag65
(g86
g67
NtRp1852
(dp1853
g70
(dp1854
g97
g98
ssg79
g1843
sg72
(lp1855
S':'
asbag65
(g86
g67
NtRp1856
(dp1857
g70
(dp1858
sg79
g1843
sg72
(lp1859
g65
(g66
g67
NtRp1860
(dp1861
g70
(dp1862
g78
I5
ssg79
g1856
sg72
(lp1863
S'html'
p1864
asbasbasbag65
(g81
g67
NtRp1865
(dp1866
g70
(dp1867
sg79
g75
sg72
(lp1868
g65
(g86
g67
NtRp1869
(dp1870
g70
(dp1871
g90
g91
ssg79
g1865
sg72
(lp1872
S'folder'
p1873
asbag65
(g86
g67
NtRp1874
(dp1875
g70
(dp1876
g97
g98
ssg79
g1865
sg72
(lp1877
S':'
asbag65
(g86
g67
NtRp1878
(dp1879
g70
(dp1880
sg79
g1865
sg72
(lp1881
g65
(g66
g67
NtRp1882
(dp1883
g70
(dp1884
g78
I5
ssg79
g1878
sg72
(lp1885
S'C:\\Documents and Settings\\agrover\\Desktop\\previous crawler\\web2py\\applications\\mycrawler\\'
p1886
asbasbasbag65
(g81
g67
NtRp1887
(dp1888
g70
(dp1889
sg79
g75
sg72
(lp1890
g65
(g86
g67
NtRp1891
(dp1892
g70
(dp1893
g90
g91
ssg79
g1887
sg72
(lp1894
S'function'
p1895
asbag65
(g86
g67
NtRp1896
(dp1897
g70
(dp1898
g97
g98
ssg79
g1887
sg72
(lp1899
S':'
asbag65
(g86
g67
NtRp1900
(dp1901
g70
(dp1902
sg79
g1887
sg72
(lp1903
g65
(g66
g67
NtRp1904
(dp1905
g70
(dp1906
g78
I5
ssg79
g1900
sg72
(lp1907
S'upload'
p1908
asbasbasbag65
(g81
g67
NtRp1909
(dp1910
g70
(dp1911
sg79
g75
sg72
(lp1912
g65
(g86
g67
NtRp1913
(dp1914
g70
(dp1915
g90
g91
ssg79
g1909
sg72
(lp1916
S'get_vars'
p1917
asbag65
(g86
g67
NtRp1918
(dp1919
g70
(dp1920
g97
g98
ssg79
g1909
sg72
(lp1921
S':'
asbag65
(g86
g67
NtRp1922
(dp1923
g70
(dp1924
sg79
g1909
sg72
(lp1925
g65
(g66
g67
NtRp1926
(dp1927
g70
(dp1928
g78
I5
ssg79
g1922
sg72
(lp1929
g65
(g74
g67
NtRp1930
(dp1931
g70
(dp1932
g78
I4
ssg79
Nsg72
(lp1933
sbasbasbasbag65
(g81
g67
NtRp1934
(dp1935
g70
(dp1936
sg79
g75
sg72
(lp1937
g65
(g86
g67
NtRp1938
(dp1939
g70
(dp1940
g90
g91
ssg79
g1934
sg72
(lp1941
S'global_settings'
p1942
asbag65
(g86
g67
NtRp1943
(dp1944
g70
(dp1945
g97
g98
ssg79
g1934
sg72
(lp1946
S':'
asbag65
(g86
g67
NtRp1947
(dp1948
g70
(dp1949
sg79
g1934
sg72
(lp1950
g65
(g66
g67
NtRp1951
(dp1952
g70
(dp1953
g78
I5
ssg79
g1947
sg72
(lp1954
g65
(g74
g67
NtRp1955
(dp1956
g70
(dp1957
g78
I4
ssg79
Nsg72
(lp1958
g65
(g81
g67
NtRp1959
(dp1960
g70
(dp1961
sg79
g1955
sg72
(lp1962
g65
(g86
g67
NtRp1963
(dp1964
g70
(dp1965
g90
g91
ssg79
g1959
sg72
(lp1966
g842
asbag65
(g86
g67
NtRp1967
(dp1968
g70
(dp1969
g97
g98
ssg79
g1959
sg72
(lp1970
S':'
asbag65
(g86
g67
NtRp1971
(dp1972
g70
(dp1973
sg79
g1959
sg72
(lp1974
g65
(g66
g67
NtRp1975
(dp1976
g70
(dp1977
g78
I4
ssg79
g1971
sg72
(lp1978
S"set(['C:\\\\Documents and Settings\\\\agrover\\\\Desktop\\\\previous crawler\\\\web2py\\\\applications\\\\admin\\\\', 'C:\\\\Documents and Settings\\\\agrover\\\\Desktop\\\\previous crawler\\\\web2py\\\\applications\\\\mycrawler\\\\', 'C:\\\\Documents and Settings\\\\agrover\\\\Desktop\\\\previous crawler\\\\web2py\\\\applications\\\\welcome\\\\'])"
p1979
asbasbasbag65
(g81
g67
NtRp1980
(dp1981
g70
(dp1982
sg79
g1955
sg72
(lp1983
g65
(g86
g67
NtRp1984
(dp1985
g70
(dp1986
g90
g91
ssg79
g1980
sg72
(lp1987
g864
asbag65
(g86
g67
NtRp1988
(dp1989
g70
(dp1990
g97
g98
ssg79
g1980
sg72
(lp1991
S':'
asbag65
(g86
g67
NtRp1992
(dp1993
g70
(dp1994
sg79
g1980
sg72
(lp1995
g65
(g66
g67
NtRp1996
(dp1997
g70
(dp1998
g78
I4
ssg79
g1992
sg72
(lp1999
g877
asbasbasbag65
(g81
g67
NtRp2000
(dp2001
g70
(dp2002
sg79
g1955
sg72
(lp2003
g65
(g86
g67
NtRp2004
(dp2005
g70
(dp2006
g90
g91
ssg79
g2000
sg72
(lp2007
g886
asbag65
(g86
g67
NtRp2008
(dp2009
g70
(dp2010
g97
g98
ssg79
g2000
sg72
(lp2011
S':'
asbag65
(g86
g67
NtRp2012
(dp2013
g70
(dp2014
sg79
g2000
sg72
(lp2015
g65
(g66
g67
NtRp2016
(dp2017
g70
(dp2018
g78
I4
ssg79
g2012
sg72
(lp2019
g65
(g74
g67
NtRp2020
(dp2021
g70
(dp2022
g78
I3
ssg79
Nsg72
(lp2023
sbasbasbasbag65
(g81
g67
NtRp2024
(dp2025
g70
(dp2026
sg79
g1955
sg72
(lp2027
g65
(g86
g67
NtRp2028
(dp2029
g70
(dp2030
g90
g91
ssg79
g2024
sg72
(lp2031
g911
asbag65
(g86
g67
NtRp2032
(dp2033
g70
(dp2034
g97
g98
ssg79
g2024
sg72
(lp2035
S':'
asbag65
(g86
g67
NtRp2036
(dp2037
g70
(dp2038
sg79
g2024
sg72
(lp2039
g65
(g66
g67
NtRp2040
(dp2041
g70
(dp2042
g78
I4
ssg79
g2036
sg72
(lp2043
S"<Values at 0x16d63f0: {'verbose': False, 'ip': '127.0.0.1', 'shutdown_timeout': 5, 'taskbar': False, 'nocron': False, 'pid_filename': 'httpserver.pid', 'maxthreads': None, 'softcron': False, 'server_name': 'mniagrover', 'bpython': False, 'nogui': False, 'port': 8000, 'extcron': False, 'debuglevel': 30, 'test': None, 'folder': 'C:\\\\Documents and Settings\\\\agrover\\\\Desktop\\\\previous crawler\\\\web2py', 'config': '', 'import_models': False, 'winservice': '', 'shell': None, 'run': '', 'log_filename': 'httpserver.log', 'args': [''], 'socket_timeout': 5, 'ssl_ca_certificate': None, 'scheduler': None, 'profiler_filename': None, 'ssl_private_key': '', 'password': '<ask>', 'request_queue_size': 5, 'ssl_certificate': '', 'cronjob': False, 'numthreads': None, 'quiet': False, 'interfaces': None, 'minthreads': None, 'timeout': 10, 'plain': False, 'nobanner': False}>"
p2044
asbasbasbag65
(g81
g67
NtRp2045
(dp2046
g70
(dp2047
sg79
g1955
sg72
(lp2048
g65
(g86
g67
NtRp2049
(dp2050
g70
(dp2051
g90
g91
ssg79
g2045
sg72
(lp2052
g977
asbag65
(g86
g67
NtRp2053
(dp2054
g70
(dp2055
g97
g98
ssg79
g2045
sg72
(lp2056
S':'
asbag65
(g86
g67
NtRp2057
(dp2058
g70
(dp2059
sg79
g2045
sg72
(lp2060
g65
(g66
g67
NtRp2061
(dp2062
g70
(dp2063
g78
I4
ssg79
g2057
sg72
(lp2064
S'set([])'
p2065
asbasbasbag65
(g81
g67
NtRp2066
(dp2067
g70
(dp2068
sg79
g1955
sg72
(lp2069
g65
(g86
g67
NtRp2070
(dp2071
g70
(dp2072
g90
g91
ssg79
g2066
sg72
(lp2073
g999
asbag65
(g86
g67
NtRp2074
(dp2075
g70
(dp2076
g97
g98
ssg79
g2066
sg72
(lp2077
S':'
asbag65
(g86
g67
NtRp2078
(dp2079
g70
(dp2080
sg79
g2066
sg72
(lp2081
g65
(g66
g67
NtRp2082
(dp2083
g70
(dp2084
g78
I4
ssg79
g2078
sg72
(lp2085
g108
asbasbasbag65
(g81
g67
NtRp2086
(dp2087
g70
(dp2088
sg79
g1955
sg72
(lp2089
g65
(g86
g67
NtRp2090
(dp2091
g70
(dp2092
g90
g91
ssg79
g2086
sg72
(lp2093
g1020
asbag65
(g86
g67
NtRp2094
(dp2095
g70
(dp2096
g97
g98
ssg79
g2086
sg72
(lp2097
S':'
asbag65
(g86
g67
NtRp2098
(dp2099
g70
(dp2100
sg79
g2086
sg72
(lp2101
g65
(g66
g67
NtRp2102
(dp2103
g70
(dp2104
g78
I4
ssg79
g2098
sg72
(lp2105
g1033
asbasbasbag65
(g81
g67
NtRp2106
(dp2107
g70
(dp2108
sg79
g1955
sg72
(lp2109
g65
(g86
g67
NtRp2110
(dp2111
g70
(dp2112
g90
g91
ssg79
g2106
sg72
(lp2113
g1260
asbag65
(g86
g67
NtRp2114
(dp2115
g70
(dp2116
g97
g98
ssg79
g2106
sg72
(lp2117
S':'
asbag65
(g86
g67
NtRp2118
(dp2119
g70
(dp2120
sg79
g2106
sg72
(lp2121
g65
(g66
g67
NtRp2122
(dp2123
g70
(dp2124
g78
I4
ssg79
g2118
sg72
(lp2125
g108
asbasbasbag65
(g81
g67
NtRp2126
(dp2127
g70
(dp2128
sg79
g1955
sg72
(lp2129
g65
(g86
g67
NtRp2130
(dp2131
g70
(dp2132
g90
g91
ssg79
g2126
sg72
(lp2133
g1281
asbag65
(g86
g67
NtRp2134
(dp2135
g70
(dp2136
g97
g98
ssg79
g2126
sg72
(lp2137
S':'
asbag65
(g86
g67
NtRp2138
(dp2139
g70
(dp2140
sg79
g2126
sg72
(lp2141
g65
(g66
g67
NtRp2142
(dp2143
g70
(dp2144
g78
I4
ssg79
g2138
sg72
(lp2145
g108
asbasbasbag65
(g81
g67
NtRp2146
(dp2147
g70
(dp2148
sg79
g1955
sg72
(lp2149
g65
(g86
g67
NtRp2150
(dp2151
g70
(dp2152
g90
g91
ssg79
g2146
sg72
(lp2153
g1519
asbag65
(g86
g67
NtRp2154
(dp2155
g70
(dp2156
g97
g98
ssg79
g2146
sg72
(lp2157
S':'
asbag65
(g86
g67
NtRp2158
(dp2159
g70
(dp2160
sg79
g2146
sg72
(lp2161
g65
(g66
g67
NtRp2162
(dp2163
g70
(dp2164
g78
I4
ssg79
g2158
sg72
(lp2165
g1532
asbasbasbag65
(g81
g67
NtRp2166
(dp2167
g70
(dp2168
sg79
g1955
sg72
(lp2169
g65
(g86
g67
NtRp2170
(dp2171
g70
(dp2172
g90
g91
ssg79
g2166
sg72
(lp2173
g1562
asbag65
(g86
g67
NtRp2174
(dp2175
g70
(dp2176
g97
g98
ssg79
g2166
sg72
(lp2177
S':'
asbag65
(g86
g67
NtRp2178
(dp2179
g70
(dp2180
sg79
g2166
sg72
(lp2181
g65
(g66
g67
NtRp2182
(dp2183
g70
(dp2184
g78
I4
ssg79
g2178
sg72
(lp2185
g65
(g74
g67
NtRp2186
(dp2187
g70
(dp2188
g78
I3
ssg79
Nsg72
(lp2189
g65
(g81
g67
NtRp2190
(dp2191
g70
(dp2192
sg79
g2186
sg72
(lp2193
g65
(g86
g67
NtRp2194
(dp2195
g70
(dp2196
sg79
g2190
sg72
(lp2197
g65
(g66
g67
NtRp2198
(dp2199
g70
(dp2200
g78
I3
ssg79
g2194
sg72
(lp2201
S'1'
asbasbasbag65
(g81
g67
NtRp2202
(dp2203
g70
(dp2204
sg79
g2186
sg72
(lp2205
g65
(g86
g67
NtRp2206
(dp2207
g70
(dp2208
sg79
g2202
sg72
(lp2209
g65
(g66
g67
NtRp2210
(dp2211
g70
(dp2212
g78
I3
ssg79
g2206
sg72
(lp2213
S'99'
p2214
asbasbasbag65
(g81
g67
NtRp2215
(dp2216
g70
(dp2217
sg79
g2186
sg72
(lp2218
g65
(g86
g67
NtRp2219
(dp2220
g70
(dp2221
sg79
g2215
sg72
(lp2222
g65
(g66
g67
NtRp2223
(dp2224
g70
(dp2225
g78
I3
ssg79
g2219
sg72
(lp2226
S'7'
asbasbasbag65
(g81
g67
NtRp2227
(dp2228
g70
(dp2229
sg79
g2186
sg72
(lp2230
g65
(g86
g67
NtRp2231
(dp2232
g70
(dp2233
sg79
g2227
sg72
(lp2234
g65
(g66
g67
NtRp2235
(dp2236
g70
(dp2237
g78
I3
ssg79
g2231
sg72
(lp2238
S'datetime.datetime(2012, 3, 4, 22, 12, 8)'
p2239
asbasbasbag65
(g81
g67
NtRp2240
(dp2241
g70
(dp2242
sg79
g2186
sg72
(lp2243
g65
(g86
g67
NtRp2244
(dp2245
g70
(dp2246
sg79
g2240
sg72
(lp2247
g65
(g66
g67
NtRp2248
(dp2249
g70
(dp2250
g78
I3
ssg79
g2244
sg72
(lp2251
g1641
asbasbasbasbasbasbasbasbasbasbasbag65
(g81
g67
NtRp2252
(dp2253
g70
(dp2254
sg79
g75
sg72
(lp2255
g65
(g86
g67
NtRp2256
(dp2257
g70
(dp2258
g90
g91
ssg79
g2252
sg72
(lp2259
S'is_https'
p2260
asbag65
(g86
g67
NtRp2261
(dp2262
g70
(dp2263
g97
g98
ssg79
g2252
sg72
(lp2264
S':'
asbag65
(g86
g67
NtRp2265
(dp2266
g70
(dp2267
sg79
g2252
sg72
(lp2268
g65
(g66
g67
NtRp2269
(dp2270
g70
(dp2271
g78
I5
ssg79
g2265
sg72
(lp2272
g108
asbasbasbag65
(g81
g67
NtRp2273
(dp2274
g70
(dp2275
sg79
g75
sg72
(lp2276
g65
(g86
g67
NtRp2277
(dp2278
g70
(dp2279
g90
g91
ssg79
g2273
sg72
(lp2280
S'is_local'
p2281
asbag65
(g86
g67
NtRp2282
(dp2283
g70
(dp2284
g97
g98
ssg79
g2273
sg72
(lp2285
S':'
asbag65
(g86
g67
NtRp2286
(dp2287
g70
(dp2288
sg79
g2273
sg72
(lp2289
g65
(g66
g67
NtRp2290
(dp2291
g70
(dp2292
g78
I5
ssg79
g2286
sg72
(lp2293
g1750
asbasbasbag65
(g81
g67
NtRp2294
(dp2295
g70
(dp2296
sg79
g75
sg72
(lp2297
g65
(g86
g67
NtRp2298
(dp2299
g70
(dp2300
g90
g91
ssg79
g2294
sg72
(lp2301
S'is_restful'
p2302
asbag65
(g86
g67
NtRp2303
(dp2304
g70
(dp2305
g97
g98
ssg79
g2294
sg72
(lp2306
S':'
asbag65
(g86
g67
NtRp2307
(dp2308
g70
(dp2309
sg79
g2294
sg72
(lp2310
g65
(g66
g67
NtRp2311
(dp2312
g70
(dp2313
g78
I5
ssg79
g2307
sg72
(lp2314
g108
asbasbasbag65
(g81
g67
NtRp2315
(dp2316
g70
(dp2317
sg79
g75
sg72
(lp2318
g65
(g86
g67
NtRp2319
(dp2320
g70
(dp2321
g90
g91
ssg79
g2315
sg72
(lp2322
S'now'
p2323
asbag65
(g86
g67
NtRp2324
(dp2325
g70
(dp2326
g97
g98
ssg79
g2315
sg72
(lp2327
S':'
asbag65
(g86
g67
NtRp2328
(dp2329
g70
(dp2330
sg79
g2315
sg72
(lp2331
g65
(g66
g67
NtRp2332
(dp2333
g70
(dp2334
g78
I5
ssg79
g2328
sg72
(lp2335
S'datetime.datetime(2012, 7, 6, 12, 27, 57, 828000)'
p2336
asbasbasbag65
(g81
g67
NtRp2337
(dp2338
g70
(dp2339
sg79
g75
sg72
(lp2340
g65
(g86
g67
NtRp2341
(dp2342
g70
(dp2343
g90
g91
ssg79
g2337
sg72
(lp2344
S'post_vars'
p2345
asbag65
(g86
g67
NtRp2346
(dp2347
g70
(dp2348
g97
g98
ssg79
g2337
sg72
(lp2349
S':'
asbag65
(g86
g67
NtRp2350
(dp2351
g70
(dp2352
sg79
g2337
sg72
(lp2353
g65
(g66
g67
NtRp2354
(dp2355
g70
(dp2356
g78
I5
ssg79
g2350
sg72
(lp2357
g65
(g74
g67
NtRp2358
(dp2359
g70
(dp2360
g78
I4
ssg79
Nsg72
(lp2361
g65
(g81
g67
NtRp2362
(dp2363
g70
(dp2364
sg79
g2358
sg72
(lp2365
g65
(g86
g67
NtRp2366
(dp2367
g70
(dp2368
g90
g91
ssg79
g2362
sg72
(lp2369
S'Save_As'
p2370
asbag65
(g86
g67
NtRp2371
(dp2372
g70
(dp2373
g97
g98
ssg79
g2362
sg72
(lp2374
S':'
asbag65
(g86
g67
NtRp2375
(dp2376
g70
(dp2377
sg79
g2362
sg72
(lp2378
g65
(g66
g67
NtRp2379
(dp2380
g70
(dp2381
g78
I4
ssg79
g2375
sg72
(lp2382
S'arre'
p2383
asbasbasbag65
(g81
g67
NtRp2384
(dp2385
g70
(dp2386
sg79
g2358
sg72
(lp2387
g65
(g86
g67
NtRp2388
(dp2389
g70
(dp2390
g90
g91
ssg79
g2384
sg72
(lp2391
S'Upload_File'
p2392
asbag65
(g86
g67
NtRp2393
(dp2394
g70
(dp2395
g97
g98
ssg79
g2384
sg72
(lp2396
S':'
asbag65
(g86
g67
NtRp2397
(dp2398
g70
(dp2399
sg79
g2384
sg72
(lp2400
g65
(g66
g67
NtRp2401
(dp2402
g70
(dp2403
g78
I4
ssg79
g2397
sg72
(lp2404
S'FieldStorage object'
p2405
asbasbasbasbasbasbasbag65
(g81
g67
NtRp2406
(dp2407
g70
(dp2408
sg79
g75
sg72
(lp2409
g65
(g86
g67
NtRp2410
(dp2411
g70
(dp2412
g90
g91
ssg79
g2406
sg72
(lp2413
S'url'
p2414
asbag65
(g86
g67
NtRp2415
(dp2416
g70
(dp2417
g97
g98
ssg79
g2406
sg72
(lp2418
S':'
asbag65
(g86
g67
NtRp2419
(dp2420
g70
(dp2421
sg79
g2406
sg72
(lp2422
g65
(g66
g67
NtRp2423
(dp2424
g70
(dp2425
g78
I5
ssg79
g2419
sg72
(lp2426
S'/mycrawler/default/upload'
p2427
asbasbasbag65
(g81
g67
NtRp2428
(dp2429
g70
(dp2430
sg79
g75
sg72
(lp2431
g65
(g86
g67
NtRp2432
(dp2433
g70
(dp2434
g90
g91
ssg79
g2428
sg72
(lp2435
S'utcnow'
p2436
asbag65
(g86
g67
NtRp2437
(dp2438
g70
(dp2439
g97
g98
ssg79
g2428
sg72
(lp2440
S':'
asbag65
(g86
g67
NtRp2441
(dp2442
g70
(dp2443
sg79
g2428
sg72
(lp2444
g65
(g66
g67
NtRp2445
(dp2446
g70
(dp2447
g78
I5
ssg79
g2441
sg72
(lp2448
S'datetime.datetime(2012, 7, 6, 19, 27, 57, 828000)'
p2449
asbasbasbag65
(g81
g67
NtRp2450
(dp2451
g70
(dp2452
sg79
g75
sg72
(lp2453
g65
(g86
g67
NtRp2454
(dp2455
g70
(dp2456
g90
g91
ssg79
g2450
sg72
(lp2457
S'uuid'
p2458
asbag65
(g86
g67
NtRp2459
(dp2460
g70
(dp2461
g97
g98
ssg79
g2450
sg72
(lp2462
S':'
asbag65
(g86
g67
NtRp2463
(dp2464
g70
(dp2465
sg79
g2450
sg72
(lp2466
g65
(g66
g67
NtRp2467
(dp2468
g70
(dp2469
g78
I5
ssg79
g2463
sg72
(lp2470
S'mycrawler/127.0.0.1.2012-07-06.12-27-57.813ab36a-5259-4576-bb35-853062eff5e0'
p2471
asbasbasbag65
(g81
g67
NtRp2472
(dp2473
g70
(dp2474
sg79
g75
sg72
(lp2475
g65
(g86
g67
NtRp2476
(dp2477
g70
(dp2478
g90
g91
ssg79
g2472
sg72
(lp2479
S'vars'
p2480
asbag65
(g86
g67
NtRp2481
(dp2482
g70
(dp2483
g97
g98
ssg79
g2472
sg72
(lp2484
S':'
asbag65
(g86
g67
NtRp2485
(dp2486
g70
(dp2487
sg79
g2472
sg72
(lp2488
g65
(g66
g67
NtRp2489
(dp2490
g70
(dp2491
g78
I5
ssg79
g2485
sg72
(lp2492
g65
(g74
g67
NtRp2493
(dp2494
g70
(dp2495
g78
I4
ssg79
Nsg72
(lp2496
g65
(g81
g67
NtRp2497
(dp2498
g70
(dp2499
sg79
g2493
sg72
(lp2500
g65
(g86
g67
NtRp2501
(dp2502
g70
(dp2503
g90
g91
ssg79
g2497
sg72
(lp2504
g2370
asbag65
(g86
g67
NtRp2505
(dp2506
g70
(dp2507
g97
g98
ssg79
g2497
sg72
(lp2508
S':'
asbag65
(g86
g67
NtRp2509
(dp2510
g70
(dp2511
sg79
g2497
sg72
(lp2512
g65
(g66
g67
NtRp2513
(dp2514
g70
(dp2515
g78
I4
ssg79
g2509
sg72
(lp2516
g2383
asbasbasbag65
(g81
g67
NtRp2517
(dp2518
g70
(dp2519
sg79
g2493
sg72
(lp2520
g65
(g86
g67
NtRp2521
(dp2522
g70
(dp2523
g90
g91
ssg79
g2517
sg72
(lp2524
g2392
asbag65
(g86
g67
NtRp2525
(dp2526
g70
(dp2527
g97
g98
ssg79
g2517
sg72
(lp2528
S':'
asbag65
(g86
g67
NtRp2529
(dp2530
g70
(dp2531
sg79
g2517
sg72
(lp2532
g65
(g66
g67
NtRp2533
(dp2534
g70
(dp2535
g78
I4
ssg79
g2529
sg72
(lp2536
g2405
asbasbasbasbasbasbasbag65
(g81
g67
NtRp2537
(dp2538
g70
(dp2539
sg79
g75
sg72
(lp2540
g65
(g86
g67
NtRp2541
(dp2542
g70
(dp2543
g90
g91
ssg79
g2537
sg72
(lp2544
S'wsgi'
p2545
asbag65
(g86
g67
NtRp2546
(dp2547
g70
(dp2548
g97
g98
ssg79
g2537
sg72
(lp2549
S':'
asbag65
(g86
g67
NtRp2550
(dp2551
g70
(dp2552
sg79
g2537
sg72
(lp2553
g65
(g66
g67
NtRp2554
(dp2555
g70
(dp2556
g78
I5
ssg79
g2550
sg72
(lp2557
g65
(g74
g67
NtRp2558
(dp2559
g70
(dp2560
g78
I4
ssg79
Nsg72
(lp2561
g65
(g81
g67
NtRp2562
(dp2563
g70
(dp2564
sg79
g2558
sg72
(lp2565
g65
(g86
g67
NtRp2566
(dp2567
g70
(dp2568
g90
g91
ssg79
g2562
sg72
(lp2569
S'environ'
p2570
asbag65
(g86
g67
NtRp2571
(dp2572
g70
(dp2573
g97
g98
ssg79
g2562
sg72
(lp2574
S':'
asbag65
(g86
g67
NtRp2575
(dp2576
g70
(dp2577
sg79
g2562
sg72
(lp2578
g65
(g66
g67
NtRp2579
(dp2580
g70
(dp2581
g78
I4
ssg79
g2575
sg72
(lp2582
g65
(g74
g67
NtRp2583
(dp2584
g70
(dp2585
g78
I3
ssg79
Nsg72
(lp2586
g65
(g81
g67
NtRp2587
(dp2588
g70
(dp2589
sg79
g2583
sg72
(lp2590
g65
(g86
g67
NtRp2591
(dp2592
g70
(dp2593
g90
g91
ssg79
g2587
sg72
(lp2594
S'CONTENT_LENGTH'
p2595
asbag65
(g86
g67
NtRp2596
(dp2597
g70
(dp2598
g97
g98
ssg79
g2587
sg72
(lp2599
S':'
asbag65
(g86
g67
NtRp2600
(dp2601
g70
(dp2602
sg79
g2587
sg72
(lp2603
g65
(g66
g67
NtRp2604
(dp2605
g70
(dp2606
g78
I3
ssg79
g2600
sg72
(lp2607
g946
asbasbasbag65
(g81
g67
NtRp2608
(dp2609
g70
(dp2610
sg79
g2583
sg72
(lp2611
g65
(g86
g67
NtRp2612
(dp2613
g70
(dp2614
g90
g91
ssg79
g2608
sg72
(lp2615
S'CONTENT_TYPE'
p2616
asbag65
(g86
g67
NtRp2617
(dp2618
g70
(dp2619
g97
g98
ssg79
g2608
sg72
(lp2620
S':'
asbag65
(g86
g67
NtRp2621
(dp2622
g70
(dp2623
sg79
g2608
sg72
(lp2624
g65
(g66
g67
NtRp2625
(dp2626
g70
(dp2627
g78
I3
ssg79
g2621
sg72
(lp2628
g968
asbasbasbag65
(g81
g67
NtRp2629
(dp2630
g70
(dp2631
sg79
g2583
sg72
(lp2632
g65
(g86
g67
NtRp2633
(dp2634
g70
(dp2635
g90
g91
ssg79
g2629
sg72
(lp2636
S'HTTP_ACCEPT'
p2637
asbag65
(g86
g67
NtRp2638
(dp2639
g70
(dp2640
g97
g98
ssg79
g2629
sg72
(lp2641
S':'
asbag65
(g86
g67
NtRp2642
(dp2643
g70
(dp2644
sg79
g2629
sg72
(lp2645
g65
(g66
g67
NtRp2646
(dp2647
g70
(dp2648
g78
I3
ssg79
g2642
sg72
(lp2649
g1055
asbasbasbag65
(g81
g67
NtRp2650
(dp2651
g70
(dp2652
sg79
g2583
sg72
(lp2653
g65
(g86
g67
NtRp2654
(dp2655
g70
(dp2656
g90
g91
ssg79
g2650
sg72
(lp2657
S'HTTP_ACCEPT_ENCODING'
p2658
asbag65
(g86
g67
NtRp2659
(dp2660
g70
(dp2661
g97
g98
ssg79
g2650
sg72
(lp2662
S':'
asbag65
(g86
g67
NtRp2663
(dp2664
g70
(dp2665
sg79
g2650
sg72
(lp2666
g65
(g66
g67
NtRp2667
(dp2668
g70
(dp2669
g78
I3
ssg79
g2663
sg72
(lp2670
g1077
asbasbasbag65
(g81
g67
NtRp2671
(dp2672
g70
(dp2673
sg79
g2583
sg72
(lp2674
g65
(g86
g67
NtRp2675
(dp2676
g70
(dp2677
g90
g91
ssg79
g2671
sg72
(lp2678
S'HTTP_ACCEPT_LANGUAGE'
p2679
asbag65
(g86
g67
NtRp2680
(dp2681
g70
(dp2682
g97
g98
ssg79
g2671
sg72
(lp2683
S':'
asbag65
(g86
g67
NtRp2684
(dp2685
g70
(dp2686
sg79
g2671
sg72
(lp2687
g65
(g66
g67
NtRp2688
(dp2689
g70
(dp2690
g78
I3
ssg79
g2684
sg72
(lp2691
g1099
asbasbasbag65
(g81
g67
NtRp2692
(dp2693
g70
(dp2694
sg79
g2583
sg72
(lp2695
g65
(g86
g67
NtRp2696
(dp2697
g70
(dp2698
g90
g91
ssg79
g2692
sg72
(lp2699
S'HTTP_CONNECTION'
p2700
asbag65
(g86
g67
NtRp2701
(dp2702
g70
(dp2703
g97
g98
ssg79
g2692
sg72
(lp2704
S':'
asbag65
(g86
g67
NtRp2705
(dp2706
g70
(dp2707
sg79
g2692
sg72
(lp2708
g65
(g66
g67
NtRp2709
(dp2710
g70
(dp2711
g78
I3
ssg79
g2705
sg72
(lp2712
g1121
asbasbasbag65
(g81
g67
NtRp2713
(dp2714
g70
(dp2715
sg79
g2583
sg72
(lp2716
g65
(g86
g67
NtRp2717
(dp2718
g70
(dp2719
g90
g91
ssg79
g2713
sg72
(lp2720
S'HTTP_CONTENT_LENGTH'
p2721
asbag65
(g86
g67
NtRp2722
(dp2723
g70
(dp2724
g97
g98
ssg79
g2713
sg72
(lp2725
S':'
asbag65
(g86
g67
NtRp2726
(dp2727
g70
(dp2728
sg79
g2713
sg72
(lp2729
g65
(g66
g67
NtRp2730
(dp2731
g70
(dp2732
g78
I3
ssg79
g2726
sg72
(lp2733
g946
asbasbasbag65
(g81
g67
NtRp2734
(dp2735
g70
(dp2736
sg79
g2583
sg72
(lp2737
g65
(g86
g67
NtRp2738
(dp2739
g70
(dp2740
g90
g91
ssg79
g2734
sg72
(lp2741
S'HTTP_CONTENT_TYPE'
p2742
asbag65
(g86
g67
NtRp2743
(dp2744
g70
(dp2745
g97
g98
ssg79
g2734
sg72
(lp2746
S':'
asbag65
(g86
g67
NtRp2747
(dp2748
g70
(dp2749
sg79
g2734
sg72
(lp2750
g65
(g66
g67
NtRp2751
(dp2752
g70
(dp2753
g78
I3
ssg79
g2747
sg72
(lp2754
g968
asbasbasbag65
(g81
g67
NtRp2755
(dp2756
g70
(dp2757
sg79
g2583
sg72
(lp2758
g65
(g86
g67
NtRp2759
(dp2760
g70
(dp2761
g90
g91
ssg79
g2755
sg72
(lp2762
S'HTTP_COOKIE'
p2763
asbag65
(g86
g67
NtRp2764
(dp2765
g70
(dp2766
g97
g98
ssg79
g2755
sg72
(lp2767
S':'
asbag65
(g86
g67
NtRp2768
(dp2769
g70
(dp2770
sg79
g2755
sg72
(lp2771
g65
(g66
g67
NtRp2772
(dp2773
g70
(dp2774
g78
I3
ssg79
g2768
sg72
(lp2775
g1185
asbasbasbag65
(g81
g67
NtRp2776
(dp2777
g70
(dp2778
sg79
g2583
sg72
(lp2779
g65
(g86
g67
NtRp2780
(dp2781
g70
(dp2782
g90
g91
ssg79
g2776
sg72
(lp2783
S'HTTP_HOST'
p2784
asbag65
(g86
g67
NtRp2785
(dp2786
g70
(dp2787
g97
g98
ssg79
g2776
sg72
(lp2788
S':'
asbag65
(g86
g67
NtRp2789
(dp2790
g70
(dp2791
sg79
g2776
sg72
(lp2792
g65
(g66
g67
NtRp2793
(dp2794
g70
(dp2795
g78
I3
ssg79
g2789
sg72
(lp2796
g1207
asbasbasbag65
(g81
g67
NtRp2797
(dp2798
g70
(dp2799
sg79
g2583
sg72
(lp2800
g65
(g86
g67
NtRp2801
(dp2802
g70
(dp2803
g90
g91
ssg79
g2797
sg72
(lp2804
S'HTTP_REFERER'
p2805
asbag65
(g86
g67
NtRp2806
(dp2807
g70
(dp2808
g97
g98
ssg79
g2797
sg72
(lp2809
S':'
asbag65
(g86
g67
NtRp2810
(dp2811
g70
(dp2812
sg79
g2797
sg72
(lp2813
g65
(g66
g67
NtRp2814
(dp2815
g70
(dp2816
g78
I3
ssg79
g2810
sg72
(lp2817
g1229
asbasbasbag65
(g81
g67
NtRp2818
(dp2819
g70
(dp2820
sg79
g2583
sg72
(lp2821
g65
(g86
g67
NtRp2822
(dp2823
g70
(dp2824
g90
g91
ssg79
g2818
sg72
(lp2825
S'HTTP_USER_AGENT'
p2826
asbag65
(g86
g67
NtRp2827
(dp2828
g70
(dp2829
g97
g98
ssg79
g2818
sg72
(lp2830
S':'
asbag65
(g86
g67
NtRp2831
(dp2832
g70
(dp2833
sg79
g2818
sg72
(lp2834
g65
(g66
g67
NtRp2835
(dp2836
g70
(dp2837
g78
I3
ssg79
g2831
sg72
(lp2838
g1251
asbasbasbag65
(g81
g67
NtRp2839
(dp2840
g70
(dp2841
sg79
g2583
sg72
(lp2842
g65
(g86
g67
NtRp2843
(dp2844
g70
(dp2845
g90
g91
ssg79
g2839
sg72
(lp2846
S'PATH_INFO'
p2847
asbag65
(g86
g67
NtRp2848
(dp2849
g70
(dp2850
g97
g98
ssg79
g2839
sg72
(lp2851
S':'
asbag65
(g86
g67
NtRp2852
(dp2853
g70
(dp2854
sg79
g2839
sg72
(lp2855
g65
(g66
g67
NtRp2856
(dp2857
g70
(dp2858
g78
I3
ssg79
g2852
sg72
(lp2859
g1315
asbasbasbag65
(g81
g67
NtRp2860
(dp2861
g70
(dp2862
sg79
g2583
sg72
(lp2863
g65
(g86
g67
NtRp2864
(dp2865
g70
(dp2866
g90
g91
ssg79
g2860
sg72
(lp2867
S'QUERY_STRING'
p2868
asbag65
(g86
g67
NtRp2869
(dp2870
g70
(dp2871
g97
g98
ssg79
g2860
sg72
(lp2872
S':'
asbag65
(g86
g67
NtRp2873
(dp2874
g70
(dp2875
sg79
g2860
sg72
(lp2876
g65
(g66
g67
NtRp2877
(dp2878
g70
(dp2879
g78
I3
ssg79
g2873
sg72
(lp2880
S''
asbasbasbag65
(g81
g67
NtRp2881
(dp2882
g70
(dp2883
sg79
g2583
sg72
(lp2884
g65
(g86
g67
NtRp2885
(dp2886
g70
(dp2887
g90
g91
ssg79
g2881
sg72
(lp2888
S'REMOTE_ADDR'
p2889
asbag65
(g86
g67
NtRp2890
(dp2891
g70
(dp2892
g97
g98
ssg79
g2881
sg72
(lp2893
S':'
asbag65
(g86
g67
NtRp2894
(dp2895
g70
(dp2896
sg79
g2881
sg72
(lp2897
g65
(g66
g67
NtRp2898
(dp2899
g70
(dp2900
g78
I3
ssg79
g2894
sg72
(lp2901
g198
asbasbasbag65
(g81
g67
NtRp2902
(dp2903
g70
(dp2904
sg79
g2583
sg72
(lp2905
g65
(g86
g67
NtRp2906
(dp2907
g70
(dp2908
g90
g91
ssg79
g2902
sg72
(lp2909
S'REMOTE_PORT'
p2910
asbag65
(g86
g67
NtRp2911
(dp2912
g70
(dp2913
g97
g98
ssg79
g2902
sg72
(lp2914
S':'
asbag65
(g86
g67
NtRp2915
(dp2916
g70
(dp2917
sg79
g2902
sg72
(lp2918
g65
(g66
g67
NtRp2919
(dp2920
g70
(dp2921
g78
I3
ssg79
g2915
sg72
(lp2922
g1379
asbasbasbag65
(g81
g67
NtRp2923
(dp2924
g70
(dp2925
sg79
g2583
sg72
(lp2926
g65
(g86
g67
NtRp2927
(dp2928
g70
(dp2929
g90
g91
ssg79
g2923
sg72
(lp2930
S'REQUEST_METHOD'
p2931
asbag65
(g86
g67
NtRp2932
(dp2933
g70
(dp2934
g97
g98
ssg79
g2923
sg72
(lp2935
S':'
asbag65
(g86
g67
NtRp2936
(dp2937
g70
(dp2938
sg79
g2923
sg72
(lp2939
g65
(g66
g67
NtRp2940
(dp2941
g70
(dp2942
g78
I3
ssg79
g2936
sg72
(lp2943
g1401
asbasbasbag65
(g81
g67
NtRp2944
(dp2945
g70
(dp2946
sg79
g2583
sg72
(lp2947
g65
(g86
g67
NtRp2948
(dp2949
g70
(dp2950
g90
g91
ssg79
g2944
sg72
(lp2951
S'SCRIPT_NAME'
p2952
asbag65
(g86
g67
NtRp2953
(dp2954
g70
(dp2955
g97
g98
ssg79
g2944
sg72
(lp2956
S':'
asbag65
(g86
g67
NtRp2957
(dp2958
g70
(dp2959
sg79
g2944
sg72
(lp2960
g65
(g66
g67
NtRp2961
(dp2962
g70
(dp2963
g78
I3
ssg79
g2957
sg72
(lp2964
S''
asbasbasbag65
(g81
g67
NtRp2965
(dp2966
g70
(dp2967
sg79
g2583
sg72
(lp2968
g65
(g86
g67
NtRp2969
(dp2970
g70
(dp2971
g90
g91
ssg79
g2965
sg72
(lp2972
S'SERVER_NAME'
p2973
asbag65
(g86
g67
NtRp2974
(dp2975
g70
(dp2976
g97
g98
ssg79
g2965
sg72
(lp2977
S':'
asbag65
(g86
g67
NtRp2978
(dp2979
g70
(dp2980
sg79
g2965
sg72
(lp2981
g65
(g66
g67
NtRp2982
(dp2983
g70
(dp2984
g78
I3
ssg79
g2978
sg72
(lp2985
g1444
asbasbasbag65
(g81
g67
NtRp2986
(dp2987
g70
(dp2988
sg79
g2583
sg72
(lp2989
g65
(g86
g67
NtRp2990
(dp2991
g70
(dp2992
g90
g91
ssg79
g2986
sg72
(lp2993
S'SERVER_PORT'
p2994
asbag65
(g86
g67
NtRp2995
(dp2996
g70
(dp2997
g97
g98
ssg79
g2986
sg72
(lp2998
S':'
asbag65
(g86
g67
NtRp2999
(dp3000
g70
(dp3001
sg79
g2986
sg72
(lp3002
g65
(g66
g67
NtRp3003
(dp3004
g70
(dp3005
g78
I3
ssg79
g2999
sg72
(lp3006
g1466
asbasbasbag65
(g81
g67
NtRp3007
(dp3008
g70
(dp3009
sg79
g2583
sg72
(lp3010
g65
(g86
g67
NtRp3011
(dp3012
g70
(dp3013
g90
g91
ssg79
g3007
sg72
(lp3014
S'SERVER_PROTOCOL'
p3015
asbag65
(g86
g67
NtRp3016
(dp3017
g70
(dp3018
g97
g98
ssg79
g3007
sg72
(lp3019
S':'
asbag65
(g86
g67
NtRp3020
(dp3021
g70
(dp3022
sg79
g3007
sg72
(lp3023
g65
(g66
g67
NtRp3024
(dp3025
g70
(dp3026
g78
I3
ssg79
g3020
sg72
(lp3027
g1488
asbasbasbag65
(g81
g67
NtRp3028
(dp3029
g70
(dp3030
sg79
g2583
sg72
(lp3031
g65
(g86
g67
NtRp3032
(dp3033
g70
(dp3034
g90
g91
ssg79
g3028
sg72
(lp3035
S'SERVER_SOFTWARE'
p3036
asbag65
(g86
g67
NtRp3037
(dp3038
g70
(dp3039
g97
g98
ssg79
g3028
sg72
(lp3040
S':'
asbag65
(g86
g67
NtRp3041
(dp3042
g70
(dp3043
sg79
g3028
sg72
(lp3044
g65
(g66
g67
NtRp3045
(dp3046
g70
(dp3047
g78
I3
ssg79
g3041
sg72
(lp3048
g1510
asbasbasbag65
(g81
g67
NtRp3049
(dp3050
g70
(dp3051
sg79
g2583
sg72
(lp3052
g65
(g86
g67
NtRp3053
(dp3054
g70
(dp3055
g90
g91
ssg79
g3049
sg72
(lp3056
S'wsgi.errors'
p3057
asbag65
(g86
g67
NtRp3058
(dp3059
g70
(dp3060
g97
g98
ssg79
g3049
sg72
(lp3061
S':'
asbag65
(g86
g67
NtRp3062
(dp3063
g70
(dp3064
sg79
g3049
sg72
(lp3065
g65
(g66
g67
NtRp3066
(dp3067
g70
(dp3068
g78
I3
ssg79
g3062
sg72
(lp3069
S"<open file '<stderr>', mode 'w' at 0x00A550D0>"
p3070
asbasbasbag65
(g81
g67
NtRp3071
(dp3072
g70
(dp3073
sg79
g2583
sg72
(lp3074
g65
(g86
g67
NtRp3075
(dp3076
g70
(dp3077
g90
g91
ssg79
g3071
sg72
(lp3078
S'wsgi.file_wrapper'
p3079
asbag65
(g86
g67
NtRp3080
(dp3081
g70
(dp3082
g97
g98
ssg79
g3071
sg72
(lp3083
S':'
asbag65
(g86
g67
NtRp3084
(dp3085
g70
(dp3086
sg79
g3071
sg72
(lp3087
g65
(g66
g67
NtRp3088
(dp3089
g70
(dp3090
g78
I3
ssg79
g3084
sg72
(lp3091
S'<class wsgiref.util.FileWrapper at 0x015E8AB0>'
p3092
asbasbasbag65
(g81
g67
NtRp3093
(dp3094
g70
(dp3095
sg79
g2583
sg72
(lp3096
g65
(g86
g67
NtRp3097
(dp3098
g70
(dp3099
g90
g91
ssg79
g3093
sg72
(lp3100
S'wsgi.input'
p3101
asbag65
(g86
g67
NtRp3102
(dp3103
g70
(dp3104
g97
g98
ssg79
g3093
sg72
(lp3105
S':'
asbag65
(g86
g67
NtRp3106
(dp3107
g70
(dp3108
sg79
g3093
sg72
(lp3109
g65
(g66
g67
NtRp3110
(dp3111
g70
(dp3112
g78
I3
ssg79
g3106
sg72
(lp3113
S"<open file '<fdopen>', mode 'w+b' at 0x09E0BE38>"
p3114
asbasbasbag65
(g81
g67
NtRp3115
(dp3116
g70
(dp3117
sg79
g2583
sg72
(lp3118
g65
(g86
g67
NtRp3119
(dp3120
g70
(dp3121
g90
g91
ssg79
g3115
sg72
(lp3122
S'wsgi.multiprocess'
p3123
asbag65
(g86
g67
NtRp3124
(dp3125
g70
(dp3126
g97
g98
ssg79
g3115
sg72
(lp3127
S':'
asbag65
(g86
g67
NtRp3128
(dp3129
g70
(dp3130
sg79
g3115
sg72
(lp3131
g65
(g66
g67
NtRp3132
(dp3133
g70
(dp3134
g78
I3
ssg79
g3128
sg72
(lp3135
g108
asbasbasbag65
(g81
g67
NtRp3136
(dp3137
g70
(dp3138
sg79
g2583
sg72
(lp3139
g65
(g86
g67
NtRp3140
(dp3141
g70
(dp3142
g90
g91
ssg79
g3136
sg72
(lp3143
S'wsgi.multithread'
p3144
asbag65
(g86
g67
NtRp3145
(dp3146
g70
(dp3147
g97
g98
ssg79
g3136
sg72
(lp3148
S':'
asbag65
(g86
g67
NtRp3149
(dp3150
g70
(dp3151
sg79
g3136
sg72
(lp3152
g65
(g66
g67
NtRp3153
(dp3154
g70
(dp3155
g78
I3
ssg79
g3149
sg72
(lp3156
g1750
asbasbasbag65
(g81
g67
NtRp3157
(dp3158
g70
(dp3159
sg79
g2583
sg72
(lp3160
g65
(g86
g67
NtRp3161
(dp3162
g70
(dp3163
g90
g91
ssg79
g3157
sg72
(lp3164
S'wsgi.run_once'
p3165
asbag65
(g86
g67
NtRp3166
(dp3167
g70
(dp3168
g97
g98
ssg79
g3157
sg72
(lp3169
S':'
asbag65
(g86
g67
NtRp3170
(dp3171
g70
(dp3172
sg79
g3157
sg72
(lp3173
g65
(g66
g67
NtRp3174
(dp3175
g70
(dp3176
g78
I3
ssg79
g3170
sg72
(lp3177
g108
asbasbasbag65
(g81
g67
NtRp3178
(dp3179
g70
(dp3180
sg79
g2583
sg72
(lp3181
g65
(g86
g67
NtRp3182
(dp3183
g70
(dp3184
g90
g91
ssg79
g3178
sg72
(lp3185
S'wsgi.url_scheme'
p3186
asbag65
(g86
g67
NtRp3187
(dp3188
g70
(dp3189
g97
g98
ssg79
g3178
sg72
(lp3190
S':'
asbag65
(g86
g67
NtRp3191
(dp3192
g70
(dp3193
sg79
g3178
sg72
(lp3194
g65
(g66
g67
NtRp3195
(dp3196
g70
(dp3197
g78
I3
ssg79
g3191
sg72
(lp3198
g1793
asbasbasbag65
(g81
g67
NtRp3199
(dp3200
g70
(dp3201
sg79
g2583
sg72
(lp3202
g65
(g86
g67
NtRp3203
(dp3204
g70
(dp3205
g90
g91
ssg79
g3199
sg72
(lp3206
S'wsgi.version'
p3207
asbag65
(g86
g67
NtRp3208
(dp3209
g70
(dp3210
g97
g98
ssg79
g3199
sg72
(lp3211
S':'
asbag65
(g86
g67
NtRp3212
(dp3213
g70
(dp3214
sg79
g3199
sg72
(lp3215
g65
(g66
g67
NtRp3216
(dp3217
g70
(dp3218
g78
I3
ssg79
g3212
sg72
(lp3219
S'1'
asbasbasbasbasbasbasbasbasbasbasbasbasbsS'frames'
p3220
(lp3221
(dp3222
S'file'
p3223
S'C:\\Documents and Settings\\agrover\\Desktop\\previous crawler\\web2py\\gluon\\restricted.py'
p3224
sS'dump'
p3225
(dp3226
S'environment'
p3227
S"{'A': <class 'gluon.html.A'>, 'Auth': <class 'gluon.tools.Auth'>, 'B': <class 'gluon.html.B'>, 'BEAUTIFY': <class 'gluon.html.BEAUTIFY'>, 'BODY': <class 'gluon.html.BODY'>, 'BR': <class 'gluon.html.BR'>, 'BUTTON': <class 'gluon.html.BUTTON'>, 'CAT': <class 'gluon.html.CAT'>, 'CENTER': <class 'gluon.html.CENTER'>, 'CLEANUP': <class 'gluon.validators.CLEANUP'>, ...}"
p3228
sS'ccode'
p3229
S'<code object <module> at 09EAF458, file "C:\\Docu...tions\\mycrawler\\controllers/default.py", line 11>'
p3230
ssS'lnum'
p3231
I205
sS'lines'
p3232
(dp3233
I200
S'    try:'
p3234
sI201
S'        if type(code) == types.CodeType:'
p3235
sI202
S'            ccode = code'
p3236
sI203
S'        else:'
p3237
sI204
S'            ccode = compile2(code,layer)'
p3238
sI205
S'        exec ccode in environment'
p3239
sI206
S'    except HTTP:'
p3240
sI207
S'        raise'
p3241
sI208
S'    except RestrictedError:'
p3242
sI209
S'        # do not encapsulate (obfuscate) the original RestrictedError'
p3243
ssS'call'
p3244
S"(code='# -*- coding: utf-8 -*-\\n# this file is released ...urrent)\\n\\nresponse._vars=response._caller(upload)\\n', environment={'A': <class 'gluon.html.A'>, 'Auth': <class 'gluon.tools.Auth'>, 'B': <class 'gluon.html.B'>, 'BEAUTIFY': <class 'gluon.html.BEAUTIFY'>, 'BODY': <class 'gluon.html.BODY'>, 'BR': <class 'gluon.html.BR'>, 'BUTTON': <class 'gluon.html.BUTTON'>, 'CAT': <class 'gluon.html.CAT'>, 'CENTER': <class 'gluon.html.CENTER'>, 'CLEANUP': <class 'gluon.validators.CLEANUP'>, ...}, layer=r'C:\\Documents and Settings\\agrover\\Desktop\\previo...2py\\applications\\mycrawler\\controllers/default.py')"
p3245
sS'func'
p3246
S'restricted'
p3247
sa(dp3248
g3223
S'C:\\Documents and Settings\\agrover\\Desktop\\previous crawler\\web2py\\applications\\mycrawler\\controllers\\default.py'
p3249
sg3225
(dp3250
sg3231
I707
sg3232
(dp3251
I704
S''
sI705
S'    #return dict(view_profile=view_profile,name=name,location=location,industry=industry,titl=titl,current=current)'
p3252
sI696
S'    #for i in range(1,10):'
p3253
sI697
S"    #    spamWriter.writerow([name[i].encode('utf-8'),titl[i],current[i],location[i],industry[i],view_profile[i]])"
p3254
sI698
S''
sI699
S''
sI700
S'    #,titl[i],current[i],location[i],industry[i],view_profile[i]'
p3255
sI701
S"    #response.headers['Content-Type'] = 'text/csv'"
p3256
sI702
S"    #response.headers['Content-Disposition'] = 'attachment; filename=%s' % request.vars.File_Name"
p3257
sI703
S''
ssg3244
S'()'
p3258
sg3246
S'<module>'
p3259
sa(dp3260
g3223
S'C:\\Documents and Settings\\agrover\\Desktop\\previous crawler\\web2py\\gluon\\globals.py'
p3261
sg3225
(dp3262
S'self'
p3263
S'undefined'
p3264
sS'f'
S'<function upload>'
p3265
ssg3231
I173
sg3232
(dp3266
I168
S'        self.menu = []             # used by the default view layout'
p3267
sI169
S'        self.files = []            # used by web2py_ajax.html'
p3268
sI170
S'        self.generic_patterns = [] # patterns to allow generic views'
p3269
sI171
S"        self.delimiters = ('{{','}}')"
p3270
sI172
S'        self._vars = None'
p3271
sI173
S'        self._caller = lambda f: f()'
p3272
sI174
S'        self._view_environment = None'
p3273
sI175
S'        self._custom_commit = None'
p3274
sI176
S'        self._custom_rollback = None'
p3275
sI177
S''
ssg3244
S'(f=<function upload>)'
p3276
sg3246
S'<lambda>'
p3277
sa(dp3278
g3223
S'C:\\Documents and Settings\\agrover\\Desktop\\previous crawler\\web2py\\applications\\mycrawler\\controllers\\default.py'
p3279
sg3225
(dp3280
S'global temp'
p3281
S'<function temp>'
p3282
ssg3231
I559
sg3232
(dp3283
I554
S'    form = SQLFORM(db.files)'
p3284
sI555
S'    if form.process().accepted:'
p3285
sI556
S'       fname=form.vars.Upload_File'
p3286
sI557
S'       saveas=request.vars.Save_As'
p3287
sI558
S'       #response.flash = fname'
p3288
sI559
S'       temp()'
p3289
sI560
S'       return up_response.getvalue()'
p3290
sI561
S'    elif form.errors:'
p3291
sI562
S"       response.flash = 'form has errors'"
p3292
sI563
S''
ssg3244
S'()'
p3293
sg3246
S'upload'
p3294
sa(dp3295
g3223
S'C:\\Documents and Settings\\agrover\\Desktop\\previous crawler\\web2py\\applications\\mycrawler\\controllers\\default.py'
p3296
sg3225
(dp3297
sg3231
I630
sg3232
(dp3298
I625
S'           # print entry[fname]'
p3299
sI626
S'            unique.append(records[entry[fname]+entry[lname]+entry[cname]])'
p3300
sI627
S''
sI628
S''
sI629
S'    o.close()'
p3301
sI630
S'    db(db.files.id>0).delete()'
p3302
sI631
S''
sI632
S'    writer.writerow(headers)'
p3303
sI633
S'    for i in unique:'
p3304
sI634
S'        writer.writerow(list(i))'
p3305
ssg3244
S'()'
p3306
sg3246
S'temp'
p3307
sa(dp3308
g3223
S'C:\\Documents and Settings\\agrover\\Desktop\\previous crawler\\web2py\\gluon\\dal.py'
p3309
sg3225
(dp3310
S'self'
p3311
S'<gluon.dal.Set object>'
p3312
sS'self.delete_uploaded_files'
p3313
S'<bound method Set.delete_uploaded_files of <gluon.dal.Set object>>'
p3314
ssg3231
I7582
sg3232
(dp3315
I7584
S''
sI7585
S'    def update(self, **update_fields):'
p3316
sI7586
S'        tablename = self.db._adapter.get_table(self.query)'
p3317
sI7577
S'        fields = adapter.expand_all(fields, adapter.tables(self.query))'
p3318
sI7578
S'        return adapter.select(self.query,fields,attributes)'
p3319
sI7579
S''
sI7580
S'    def delete(self):'
p3320
sI7581
S'        tablename=self.db._adapter.get_table(self.query)'
p3321
sI7582
S'        self.delete_uploaded_files()'
p3322
sI7583
S'        return self.db._adapter.delete(tablename,self.query)'
p3323
ssg3244
S'(self=<gluon.dal.Set object>)'
p3324
sg3246
S'delete'
p3325
sa(dp3326
g3223
S'C:\\Documents and Settings\\agrover\\Desktop\\previous crawler\\web2py\\gluon\\dal.py'
p3327
sg3225
(dp3328
S'os.unlink'
p3329
S'<built-in function unlink>'
p3330
sS'global os'
p3331
S"<module 'os' from 'C:\\Python27\\lib\\os.pyc'>"
p3332
sS'oldpath'
p3333
S"r'C:\\Documents and Settings\\agrover\\Desktop\\previo...load_File.80c61ab8c6241f99.6c657473632e637376.csv'"
p3334
ssg3231
I7647
sg3232
(dp3335
I7648
S''
sI7649
S'def update_record(pack, a=None):'
p3336
sI7650
S'    (colset, table, id) = pack'
p3337
sI7651
S'    b = a or dict(colset)'
p3338
sI7642
S'                        uploadfolder = os.path.join(uploadfolder,'
p3339
sI7643
S'                                                    "%s.%s" % (items[0], items[1]),'
p3340
sI7644
S'                                                    items[2][:2])'
p3341
sI7645
S'                    oldpath = os.path.join(uploadfolder, oldname)'
p3342
sI7646
S'                    if os.path.exists(oldpath):'
p3343
sI7647
S'                        os.unlink(oldpath)'
p3344
ssg3244
S'(self=<gluon.dal.Set object>, upload_fields=None)'
p3345
sg3246
S'delete_uploaded_files'
p3346
sasS'pyver'
p3347
S'Python 2.7.3: C:\\Python27\\python.exe'
p3348
sS'session'
p3349
g65
(g66
g67
NtRp3350
(dp3351
g70
(dp3352
sg72
(lp3353
g65
(g74
g67
NtRp3354
(dp3355
g70
(dp3356
g78
I5
ssg79
Nsg72
(lp3357
g65
(g81
g67
NtRp3358
(dp3359
g70
(dp3360
sg79
g3354
sg72
(lp3361
g65
(g86
g67
NtRp3362
(dp3363
g70
(dp3364
g90
g91
ssg79
g3358
sg72
(lp3365
S'password'
p3366
asbag65
(g86
g67
NtRp3367
(dp3368
g70
(dp3369
g97
g98
ssg79
g3358
sg72
(lp3370
S':'
asbag65
(g86
g67
NtRp3371
(dp3372
g70
(dp3373
sg79
g3358
sg72
(lp3374
g65
(g66
g67
NtRp3375
(dp3376
g70
(dp3377
g78
I5
ssg79
g3371
sg72
(lp3378
S'modeln@1234'
p3379
asbasbasbag65
(g81
g67
NtRp3380
(dp3381
g70
(dp3382
sg79
g3354
sg72
(lp3383
g65
(g86
g67
NtRp3384
(dp3385
g70
(dp3386
g90
g91
ssg79
g3380
sg72
(lp3387
S'username'
p3388
asbag65
(g86
g67
NtRp3389
(dp3390
g70
(dp3391
g97
g98
ssg79
g3380
sg72
(lp3392
S':'
asbag65
(g86
g67
NtRp3393
(dp3394
g70
(dp3395
sg79
g3380
sg72
(lp3396
g65
(g66
g67
NtRp3397
(dp3398
g70
(dp3399
g78
I5
ssg79
g3393
sg72
(lp3400
S'mrigeshgaurav@gmail.com'
p3401
asbasbasbasbasbsS'etype'
p3402
S"<type 'exceptions.WindowsError'>"
p3403
sS'date'
p3404
S'Fri Jul 06 12:27:59 2012'
p3405
sS'response'
p3406
g65
(g66
g67
NtRp3407
(dp3408
g70
(dp3409
sg72
(lp3410
g65
(g74
g67
NtRp3411
(dp3412
g70
(dp3413
g78
I5
ssg79
Nsg72
(lp3414
g65
(g81
g67
NtRp3415
(dp3416
g70
(dp3417
sg79
g3411
sg72
(lp3418
g65
(g86
g67
NtRp3419
(dp3420
g70
(dp3421
g90
g91
ssg79
g3415
sg72
(lp3422
g163
asbag65
(g86
g67
NtRp3423
(dp3424
g70
(dp3425
g97
g98
ssg79
g3415
sg72
(lp3426
S':'
asbag65
(g86
g67
NtRp3427
(dp3428
g70
(dp3429
sg79
g3415
sg72
(lp3430
g65
(g66
g67
NtRp3431
(dp3432
g70
(dp3433
g78
I5
ssg79
g3427
sg72
(lp3434
S'<cStringIO.StringO object at 0x09E18720>'
p3435
asbasbasbag65
(g81
g67
NtRp3436
(dp3437
g70
(dp3438
sg79
g3411
sg72
(lp3439
g65
(g86
g67
NtRp3440
(dp3441
g70
(dp3442
g90
g91
ssg79
g3436
sg72
(lp3443
g229
asbag65
(g86
g67
NtRp3444
(dp3445
g70
(dp3446
g97
g98
ssg79
g3436
sg72
(lp3447
S':'
asbag65
(g86
g67
NtRp3448
(dp3449
g70
(dp3450
sg79
g3436
sg72
(lp3451
g65
(g66
g67
NtRp3452
(dp3453
g70
(dp3454
g78
I5
ssg79
g3448
sg72
(lp3455
g65
(g74
g67
NtRp3456
(dp3457
g70
(dp3458
g78
I4
ssg79
Nsg72
(lp3459
g65
(g81
g67
NtRp3460
(dp3461
g70
(dp3462
sg79
g3456
sg72
(lp3463
g65
(g86
g67
NtRp3464
(dp3465
g70
(dp3466
g90
g91
ssg79
g3460
sg72
(lp3467
S'session_id_mycrawler'
p3468
asbag65
(g86
g67
NtRp3469
(dp3470
g70
(dp3471
g97
g98
ssg79
g3460
sg72
(lp3472
S':'
asbag65
(g86
g67
NtRp3473
(dp3474
g70
(dp3475
sg79
g3460
sg72
(lp3476
g65
(g66
g67
NtRp3477
(dp3478
g70
(dp3479
g78
I4
ssg79
g3473
sg72
(lp3480
g65
(g74
g67
NtRp3481
(dp3482
g70
(dp3483
g78
I3
ssg79
Nsg72
(lp3484
g65
(g81
g67
NtRp3485
(dp3486
g70
(dp3487
sg79
g3481
sg72
(lp3488
g65
(g86
g67
NtRp3489
(dp3490
g70
(dp3491
g90
g91
ssg79
g3485
sg72
(lp3492
g279
asbag65
(g86
g67
NtRp3493
(dp3494
g70
(dp3495
g97
g98
ssg79
g3485
sg72
(lp3496
S':'
asbag65
(g86
g67
NtRp3497
(dp3498
g70
(dp3499
sg79
g3485
sg72
(lp3500
g65
(g66
g67
NtRp3501
(dp3502
g70
(dp3503
g78
I3
ssg79
g3497
sg72
(lp3504
S''
asbasbasbag65
(g81
g67
NtRp3505
(dp3506
g70
(dp3507
sg79
g3481
sg72
(lp3508
g65
(g86
g67
NtRp3509
(dp3510
g70
(dp3511
g90
g91
ssg79
g3505
sg72
(lp3512
g300
asbag65
(g86
g67
NtRp3513
(dp3514
g70
(dp3515
g97
g98
ssg79
g3505
sg72
(lp3516
S':'
asbag65
(g86
g67
NtRp3517
(dp3518
g70
(dp3519
sg79
g3505
sg72
(lp3520
g65
(g66
g67
NtRp3521
(dp3522
g70
(dp3523
g78
I3
ssg79
g3517
sg72
(lp3524
S''
asbasbasbag65
(g81
g67
NtRp3525
(dp3526
g70
(dp3527
sg79
g3481
sg72
(lp3528
g65
(g86
g67
NtRp3529
(dp3530
g70
(dp3531
g90
g91
ssg79
g3525
sg72
(lp3532
g321
asbag65
(g86
g67
NtRp3533
(dp3534
g70
(dp3535
g97
g98
ssg79
g3525
sg72
(lp3536
S':'
asbag65
(g86
g67
NtRp3537
(dp3538
g70
(dp3539
sg79
g3525
sg72
(lp3540
g65
(g66
g67
NtRp3541
(dp3542
g70
(dp3543
g78
I3
ssg79
g3537
sg72
(lp3544
S''
asbasbasbag65
(g81
g67
NtRp3545
(dp3546
g70
(dp3547
sg79
g3481
sg72
(lp3548
g65
(g86
g67
NtRp3549
(dp3550
g70
(dp3551
g90
g91
ssg79
g3545
sg72
(lp3552
g342
asbag65
(g86
g67
NtRp3553
(dp3554
g70
(dp3555
g97
g98
ssg79
g3545
sg72
(lp3556
S':'
asbag65
(g86
g67
NtRp3557
(dp3558
g70
(dp3559
sg79
g3545
sg72
(lp3560
g65
(g66
g67
NtRp3561
(dp3562
g70
(dp3563
g78
I3
ssg79
g3557
sg72
(lp3564
S''
asbasbasbag65
(g81
g67
NtRp3565
(dp3566
g70
(dp3567
sg79
g3481
sg72
(lp3568
g65
(g86
g67
NtRp3569
(dp3570
g70
(dp3571
g90
g91
ssg79
g3565
sg72
(lp3572
g363
asbag65
(g86
g67
NtRp3573
(dp3574
g70
(dp3575
g97
g98
ssg79
g3565
sg72
(lp3576
S':'
asbag65
(g86
g67
NtRp3577
(dp3578
g70
(dp3579
sg79
g3565
sg72
(lp3580
g65
(g66
g67
NtRp3581
(dp3582
g70
(dp3583
g78
I3
ssg79
g3577
sg72
(lp3584
S''
asbasbasbag65
(g81
g67
NtRp3585
(dp3586
g70
(dp3587
sg79
g3481
sg72
(lp3588
g65
(g86
g67
NtRp3589
(dp3590
g70
(dp3591
g90
g91
ssg79
g3585
sg72
(lp3592
g384
asbag65
(g86
g67
NtRp3593
(dp3594
g70
(dp3595
g97
g98
ssg79
g3585
sg72
(lp3596
S':'
asbag65
(g86
g67
NtRp3597
(dp3598
g70
(dp3599
sg79
g3585
sg72
(lp3600
g65
(g66
g67
NtRp3601
(dp3602
g70
(dp3603
g78
I3
ssg79
g3597
sg72
(lp3604
S'/'
asbasbasbag65
(g81
g67
NtRp3605
(dp3606
g70
(dp3607
sg79
g3481
sg72
(lp3608
g65
(g86
g67
NtRp3609
(dp3610
g70
(dp3611
g90
g91
ssg79
g3605
sg72
(lp3612
g405
asbag65
(g86
g67
NtRp3613
(dp3614
g70
(dp3615
g97
g98
ssg79
g3605
sg72
(lp3616
S':'
asbag65
(g86
g67
NtRp3617
(dp3618
g70
(dp3619
sg79
g3605
sg72
(lp3620
g65
(g66
g67
NtRp3621
(dp3622
g70
(dp3623
g78
I3
ssg79
g3617
sg72
(lp3624
S''
asbasbasbag65
(g81
g67
NtRp3625
(dp3626
g70
(dp3627
sg79
g3481
sg72
(lp3628
g65
(g86
g67
NtRp3629
(dp3630
g70
(dp3631
g90
g91
ssg79
g3625
sg72
(lp3632
g426
asbag65
(g86
g67
NtRp3633
(dp3634
g70
(dp3635
g97
g98
ssg79
g3625
sg72
(lp3636
S':'
asbag65
(g86
g67
NtRp3637
(dp3638
g70
(dp3639
sg79
g3625
sg72
(lp3640
g65
(g66
g67
NtRp3641
(dp3642
g70
(dp3643
g78
I3
ssg79
g3637
sg72
(lp3644
S''
asbasbasbasbasbasbasbasbasbasbasbag65
(g81
g67
NtRp3645
(dp3646
g70
(dp3647
sg79
g3411
sg72
(lp3648
g65
(g86
g67
NtRp3649
(dp3650
g70
(dp3651
g90
g91
ssg79
g3645
sg72
(lp3652
S'delimiters'
p3653
asbag65
(g86
g67
NtRp3654
(dp3655
g70
(dp3656
g97
g98
ssg79
g3645
sg72
(lp3657
S':'
asbag65
(g86
g67
NtRp3658
(dp3659
g70
(dp3660
sg79
g3645
sg72
(lp3661
g65
(g66
g67
NtRp3662
(dp3663
g70
(dp3664
g78
I5
ssg79
g3658
sg72
(lp3665
g65
(g74
g67
NtRp3666
(dp3667
g70
(dp3668
g78
I4
ssg79
Nsg72
(lp3669
g65
(g81
g67
NtRp3670
(dp3671
g70
(dp3672
sg79
g3666
sg72
(lp3673
g65
(g86
g67
NtRp3674
(dp3675
g70
(dp3676
sg79
g3670
sg72
(lp3677
g65
(g66
g67
NtRp3678
(dp3679
g70
(dp3680
g78
I4
ssg79
g3674
sg72
(lp3681
S'{{'
p3682
asbasbasbag65
(g81
g67
NtRp3683
(dp3684
g70
(dp3685
sg79
g3666
sg72
(lp3686
g65
(g86
g67
NtRp3687
(dp3688
g70
(dp3689
sg79
g3683
sg72
(lp3690
g65
(g66
g67
NtRp3691
(dp3692
g70
(dp3693
g78
I4
ssg79
g3687
sg72
(lp3694
S'}}'
p3695
asbasbasbasbasbasbasbag65
(g81
g67
NtRp3696
(dp3697
g70
(dp3698
sg79
g3411
sg72
(lp3699
g65
(g86
g67
NtRp3700
(dp3701
g70
(dp3702
g90
g91
ssg79
g3696
sg72
(lp3703
S'files'
p3704
asbag65
(g86
g67
NtRp3705
(dp3706
g70
(dp3707
g97
g98
ssg79
g3696
sg72
(lp3708
S':'
asbag65
(g86
g67
NtRp3709
(dp3710
g70
(dp3711
sg79
g3696
sg72
(lp3712
g65
(g66
g67
NtRp3713
(dp3714
g70
(dp3715
g78
I5
ssg79
g3709
sg72
(lp3716
g65
(g74
g67
NtRp3717
(dp3718
g70
(dp3719
g78
I4
ssg79
Nsg72
(lp3720
sbasbasbasbag65
(g81
g67
NtRp3721
(dp3722
g70
(dp3723
sg79
g3411
sg72
(lp3724
g65
(g86
g67
NtRp3725
(dp3726
g70
(dp3727
g90
g91
ssg79
g3721
sg72
(lp3728
S'flash'
p3729
asbag65
(g86
g67
NtRp3730
(dp3731
g70
(dp3732
g97
g98
ssg79
g3721
sg72
(lp3733
S':'
asbag65
(g86
g67
NtRp3734
(dp3735
g70
(dp3736
sg79
g3721
sg72
(lp3737
g65
(g66
g67
NtRp3738
(dp3739
g70
(dp3740
g78
I5
ssg79
g3734
sg72
(lp3741
cgluon.languages
lazyT_unpickle
p3742
(S's\x08\x00\x00\x00Success!'
tRp3743
asbasbasbag65
(g81
g67
NtRp3744
(dp3745
g70
(dp3746
sg79
g3411
sg72
(lp3747
g65
(g86
g67
NtRp3748
(dp3749
g70
(dp3750
g90
g91
ssg79
g3744
sg72
(lp3751
S'generic_patterns'
p3752
asbag65
(g86
g67
NtRp3753
(dp3754
g70
(dp3755
g97
g98
ssg79
g3744
sg72
(lp3756
S':'
asbag65
(g86
g67
NtRp3757
(dp3758
g70
(dp3759
sg79
g3744
sg72
(lp3760
g65
(g66
g67
NtRp3761
(dp3762
g70
(dp3763
g78
I5
ssg79
g3757
sg72
(lp3764
g65
(g74
g67
NtRp3765
(dp3766
g70
(dp3767
g78
I4
ssg79
Nsg72
(lp3768
g65
(g81
g67
NtRp3769
(dp3770
g70
(dp3771
sg79
g3765
sg72
(lp3772
g65
(g86
g67
NtRp3773
(dp3774
g70
(dp3775
sg79
g3769
sg72
(lp3776
g65
(g66
g67
NtRp3777
(dp3778
g70
(dp3779
g78
I4
ssg79
g3773
sg72
(lp3780
S'*'
asbasbasbasbasbasbasbag65
(g81
g67
NtRp3781
(dp3782
g70
(dp3783
sg79
g3411
sg72
(lp3784
g65
(g86
g67
NtRp3785
(dp3786
g70
(dp3787
g90
g91
ssg79
g3781
sg72
(lp3788
S'headers'
p3789
asbag65
(g86
g67
NtRp3790
(dp3791
g70
(dp3792
g97
g98
ssg79
g3781
sg72
(lp3793
S':'
asbag65
(g86
g67
NtRp3794
(dp3795
g70
(dp3796
sg79
g3781
sg72
(lp3797
g65
(g66
g67
NtRp3798
(dp3799
g70
(dp3800
g78
I5
ssg79
g3794
sg72
(lp3801
g65
(g74
g67
NtRp3802
(dp3803
g70
(dp3804
g78
I4
ssg79
Nsg72
(lp3805
g65
(g81
g67
NtRp3806
(dp3807
g70
(dp3808
sg79
g3802
sg72
(lp3809
g65
(g86
g67
NtRp3810
(dp3811
g70
(dp3812
g90
g91
ssg79
g3806
sg72
(lp3813
S'Cache-Control'
p3814
asbag65
(g86
g67
NtRp3815
(dp3816
g70
(dp3817
g97
g98
ssg79
g3806
sg72
(lp3818
S':'
asbag65
(g86
g67
NtRp3819
(dp3820
g70
(dp3821
sg79
g3806
sg72
(lp3822
g65
(g66
g67
NtRp3823
(dp3824
g70
(dp3825
g78
I4
ssg79
g3819
sg72
(lp3826
S'no-store, no-cache, must-revalidate, post-check=0, pre-check=0'
p3827
asbasbasbag65
(g81
g67
NtRp3828
(dp3829
g70
(dp3830
sg79
g3802
sg72
(lp3831
g65
(g86
g67
NtRp3832
(dp3833
g70
(dp3834
g90
g91
ssg79
g3828
sg72
(lp3835
S'Content-Type'
p3836
asbag65
(g86
g67
NtRp3837
(dp3838
g70
(dp3839
g97
g98
ssg79
g3828
sg72
(lp3840
S':'
asbag65
(g86
g67
NtRp3841
(dp3842
g70
(dp3843
sg79
g3828
sg72
(lp3844
g65
(g66
g67
NtRp3845
(dp3846
g70
(dp3847
g78
I4
ssg79
g3841
sg72
(lp3848
S'text/html; charset=utf-8'
p3849
asbasbasbag65
(g81
g67
NtRp3850
(dp3851
g70
(dp3852
sg79
g3802
sg72
(lp3853
g65
(g86
g67
NtRp3854
(dp3855
g70
(dp3856
g90
g91
ssg79
g3850
sg72
(lp3857
S'Expires'
p3858
asbag65
(g86
g67
NtRp3859
(dp3860
g70
(dp3861
g97
g98
ssg79
g3850
sg72
(lp3862
S':'
asbag65
(g86
g67
NtRp3863
(dp3864
g70
(dp3865
sg79
g3850
sg72
(lp3866
g65
(g66
g67
NtRp3867
(dp3868
g70
(dp3869
g78
I4
ssg79
g3863
sg72
(lp3870
S'Fri, 06 Jul 2012 19:27:57 GMT'
p3871
asbasbasbag65
(g81
g67
NtRp3872
(dp3873
g70
(dp3874
sg79
g3802
sg72
(lp3875
g65
(g86
g67
NtRp3876
(dp3877
g70
(dp3878
g90
g91
ssg79
g3872
sg72
(lp3879
S'Pragma'
p3880
asbag65
(g86
g67
NtRp3881
(dp3882
g70
(dp3883
g97
g98
ssg79
g3872
sg72
(lp3884
S':'
asbag65
(g86
g67
NtRp3885
(dp3886
g70
(dp3887
sg79
g3872
sg72
(lp3888
g65
(g66
g67
NtRp3889
(dp3890
g70
(dp3891
g78
I4
ssg79
g3885
sg72
(lp3892
S'no-cache'
p3893
asbasbasbag65
(g81
g67
NtRp3894
(dp3895
g70
(dp3896
sg79
g3802
sg72
(lp3897
g65
(g86
g67
NtRp3898
(dp3899
g70
(dp3900
g90
g91
ssg79
g3894
sg72
(lp3901
S'X-Powered-By'
p3902
asbag65
(g86
g67
NtRp3903
(dp3904
g70
(dp3905
g97
g98
ssg79
g3894
sg72
(lp3906
S':'
asbag65
(g86
g67
NtRp3907
(dp3908
g70
(dp3909
sg79
g3894
sg72
(lp3910
g65
(g66
g67
NtRp3911
(dp3912
g70
(dp3913
g78
I4
ssg79
g3907
sg72
(lp3914
S'web2py'
p3915
asbasbasbasbasbasbasbag65
(g81
g67
NtRp3916
(dp3917
g70
(dp3918
sg79
g3411
sg72
(lp3919
g65
(g86
g67
NtRp3920
(dp3921
g70
(dp3922
g90
g91
ssg79
g3916
sg72
(lp3923
S'menu'
p3924
asbag65
(g86
g67
NtRp3925
(dp3926
g70
(dp3927
g97
g98
ssg79
g3916
sg72
(lp3928
S':'
asbag65
(g86
g67
NtRp3929
(dp3930
g70
(dp3931
sg79
g3916
sg72
(lp3932
g65
(g66
g67
NtRp3933
(dp3934
g70
(dp3935
g78
I5
ssg79
g3929
sg72
(lp3936
g65
(g74
g67
NtRp3937
(dp3938
g70
(dp3939
g78
I4
ssg79
Nsg72
(lp3940
g65
(g81
g67
NtRp3941
(dp3942
g70
(dp3943
sg79
g3937
sg72
(lp3944
g65
(g86
g67
NtRp3945
(dp3946
g70
(dp3947
sg79
g3941
sg72
(lp3948
g65
(g66
g67
NtRp3949
(dp3950
g70
(dp3951
g78
I4
ssg79
g3945
sg72
(lp3952
g65
(g74
g67
NtRp3953
(dp3954
g70
(dp3955
g78
I3
ssg79
Nsg72
(lp3956
g65
(g81
g67
NtRp3957
(dp3958
g70
(dp3959
sg79
g3953
sg72
(lp3960
g65
(g86
g67
NtRp3961
(dp3962
g70
(dp3963
sg79
g3957
sg72
(lp3964
g65
(g66
g67
NtRp3965
(dp3966
g70
(dp3967
g78
I3
ssg79
g3961
sg72
(lp3968
g3742
(S't\x04\x00\x00\x00Home'
tRp3969
asbasbasbag65
(g81
g67
NtRp3970
(dp3971
g70
(dp3972
sg79
g3953
sg72
(lp3973
g65
(g86
g67
NtRp3974
(dp3975
g70
(dp3976
sg79
g3970
sg72
(lp3977
g65
(g66
g67
NtRp3978
(dp3979
g70
(dp3980
g78
I3
ssg79
g3974
sg72
(lp3981
g108
asbasbasbag65
(g81
g67
NtRp3982
(dp3983
g70
(dp3984
sg79
g3953
sg72
(lp3985
g65
(g86
g67
NtRp3986
(dp3987
g70
(dp3988
sg79
g3982
sg72
(lp3989
g65
(g66
g67
NtRp3990
(dp3991
g70
(dp3992
g78
I3
ssg79
g3986
sg72
(lp3993
S'/mycrawler/default/index'
p3994
asbasbasbag65
(g81
g67
NtRp3995
(dp3996
g70
(dp3997
sg79
g3953
sg72
(lp3998
g65
(g86
g67
NtRp3999
(dp4000
g70
(dp4001
sg79
g3995
sg72
(lp4002
g65
(g66
g67
NtRp4003
(dp4004
g70
(dp4005
g78
I3
ssg79
g3999
sg72
(lp4006
g65
(g74
g67
NtRp4007
(dp4008
g70
(dp4009
g78
I2
ssg79
Nsg72
(lp4010
sbasbasbasbasbasbasbasbag65
(g81
g67
NtRp4011
(dp4012
g70
(dp4013
sg79
g3937
sg72
(lp4014
g65
(g86
g67
NtRp4015
(dp4016
g70
(dp4017
sg79
g4011
sg72
(lp4018
g65
(g66
g67
NtRp4019
(dp4020
g70
(dp4021
g78
I4
ssg79
g4015
sg72
(lp4022
g65
(g74
g67
NtRp4023
(dp4024
g70
(dp4025
g78
I3
ssg79
Nsg72
(lp4026
g65
(g81
g67
NtRp4027
(dp4028
g70
(dp4029
sg79
g4023
sg72
(lp4030
g65
(g86
g67
NtRp4031
(dp4032
g70
(dp4033
sg79
g4027
sg72
(lp4034
g65
(g66
g67
NtRp4035
(dp4036
g70
(dp4037
g78
I3
ssg79
g4031
sg72
(lp4038
g65
(cgluon.html
SPAN
p4039
g67
NtRp4040
(dp4041
g70
(dp4042
g90
S'color:yellow'
p4043
ssg79
Nsg72
(lp4044
g3915
asbasbasbasbag65
(g81
g67
NtRp4045
(dp4046
g70
(dp4047
sg79
g4023
sg72
(lp4048
g65
(g86
g67
NtRp4049
(dp4050
g70
(dp4051
sg79
g4045
sg72
(lp4052
g65
(g66
g67
NtRp4053
(dp4054
g70
(dp4055
g78
I3
ssg79
g4049
sg72
(lp4056
g108
asbasbasbag65
(g81
g67
NtRp4057
(dp4058
g70
(dp4059
sg79
g4023
sg72
(lp4060
g65
(g86
g67
NtRp4061
(dp4062
g70
(dp4063
sg79
g4057
sg72
(lp4064
g65
(g66
g67
NtRp4065
(dp4066
g70
(dp4067
g78
I3
ssg79
g4061
sg72
(lp4068
S'None'
p4069
asbasbasbag65
(g81
g67
NtRp4070
(dp4071
g70
(dp4072
sg79
g4023
sg72
(lp4073
g65
(g86
g67
NtRp4074
(dp4075
g70
(dp4076
sg79
g4070
sg72
(lp4077
g65
(g66
g67
NtRp4078
(dp4079
g70
(dp4080
g78
I3
ssg79
g4074
sg72
(lp4081
g65
(g74
g67
NtRp4082
(dp4083
g70
(dp4084
g78
I2
ssg79
Nsg72
(lp4085
g65
(g81
g67
NtRp4086
(dp4087
g70
(dp4088
sg79
g4082
sg72
(lp4089
g65
(g86
g67
NtRp4090
(dp4091
g70
(dp4092
sg79
g4086
sg72
(lp4093
g65
(g66
g67
NtRp4094
(dp4095
g70
(dp4096
g78
I2
ssg79
g4090
sg72
(lp4097
g65
(g74
g67
NtRp4098
(dp4099
g70
(dp4100
g78
I1
ssg79
Nsg72
(lp4101
g65
(g81
g67
NtRp4102
(dp4103
g70
(dp4104
sg79
g4098
sg72
(lp4105
g65
(g86
g67
NtRp4106
(dp4107
g70
(dp4108
sg79
g4102
sg72
(lp4109
g65
(g66
g67
NtRp4110
(dp4111
g70
(dp4112
g78
I1
ssg79
g4106
sg72
(lp4113
g3742
(S's\x08\x00\x00\x00My Sites'
tRp4114
asbasbasbag65
(g81
g67
NtRp4115
(dp4116
g70
(dp4117
sg79
g4098
sg72
(lp4118
g65
(g86
g67
NtRp4119
(dp4120
g70
(dp4121
sg79
g4115
sg72
(lp4122
g65
(g66
g67
NtRp4123
(dp4124
g70
(dp4125
g78
I1
ssg79
g4119
sg72
(lp4126
I00
asbasbasbag65
(g81
g67
NtRp4127
(dp4128
g70
(dp4129
sg79
g4098
sg72
(lp4130
g65
(g86
g67
NtRp4131
(dp4132
g70
(dp4133
sg79
g4127
sg72
(lp4134
g65
(g66
g67
NtRp4135
(dp4136
g70
(dp4137
g78
I1
ssg79
g4131
sg72
(lp4138
S'/admin/default/site'
p4139
asbasbasbasbasbasbasbag65
(g81
g67
NtRp4140
(dp4141
g70
(dp4142
sg79
g4082
sg72
(lp4143
g65
(g86
g67
NtRp4144
(dp4145
g70
(dp4146
sg79
g4140
sg72
(lp4147
g65
(g66
g67
NtRp4148
(dp4149
g70
(dp4150
g78
I2
ssg79
g4144
sg72
(lp4151
g65
(g74
g67
NtRp4152
(dp4153
g70
(dp4154
g78
I1
ssg79
Nsg72
(lp4155
g65
(g81
g67
NtRp4156
(dp4157
g70
(dp4158
sg79
g4152
sg72
(lp4159
g65
(g86
g67
NtRp4160
(dp4161
g70
(dp4162
sg79
g4156
sg72
(lp4163
g65
(g66
g67
NtRp4164
(dp4165
g70
(dp4166
g78
I1
ssg79
g4160
sg72
(lp4167
g3742
(S's\x08\x00\x00\x00This App'
tRp4168
asbasbasbag65
(g81
g67
NtRp4169
(dp4170
g70
(dp4171
sg79
g4152
sg72
(lp4172
g65
(g86
g67
NtRp4173
(dp4174
g70
(dp4175
sg79
g4169
sg72
(lp4176
g65
(g66
g67
NtRp4177
(dp4178
g70
(dp4179
g78
I1
ssg79
g4173
sg72
(lp4180
I00
asbasbasbag65
(g81
g67
NtRp4181
(dp4182
g70
(dp4183
sg79
g4152
sg72
(lp4184
g65
(g86
g67
NtRp4185
(dp4186
g70
(dp4187
sg79
g4181
sg72
(lp4188
g65
(g66
g67
NtRp4189
(dp4190
g70
(dp4191
g78
I1
ssg79
g4185
sg72
(lp4192
S'/admin/default/design/mycrawler'
p4193
asbasbasbag65
(g81
g67
NtRp4194
(dp4195
g70
(dp4196
sg79
g4152
sg72
(lp4197
g65
(g86
g67
NtRp4198
(dp4199
g70
(dp4200
sg79
g4194
sg72
(lp4201
g65
(g66
g67
NtRp4202
(dp4203
g70
(dp4204
g78
I1
ssg79
g4198
sg72
(lp4205
(lp4206
(g3742
(S't\n\x00\x00\x00Controller'
tRp4207
I00
S'/admin/default/edit/mycrawler/controllers/default.py'
tp4208
a(g3742
(S't\x04\x00\x00\x00View'
tRp4209
I00
S'/admin/default/edit/mycrawler/views/default/upload.html'
tp4210
a(g3742
(S't\x06\x00\x00\x00Layout'
tRp4211
I00
S'/admin/default/edit/mycrawler/views/layout.html'
tp4212
a(g3742
(S't\n\x00\x00\x00Stylesheet'
tRp4213
I00
S'/admin/default/edit/mycrawler/static/css/web2py.css'
tp4214
a(g3742
(S's\x08\x00\x00\x00DB Model'
tRp4215
I00
S'/admin/default/edit/mycrawler/models/db.py'
tp4216
a(g3742
(S's\n\x00\x00\x00Menu Model'
tRp4217
I00
S'/admin/default/edit/mycrawler/models/menu.py'
tp4218
a(g3742
(S't\x08\x00\x00\x00Database'
tRp4219
I00
S'/mycrawler/appadmin/index'
tp4220
a(g3742
(S't\x06\x00\x00\x00Errors'
tRp4221
I00
S'/admin/default/errors/mycrawler'
tp4222
a(g3742
(S't\x05\x00\x00\x00About'
tRp4223
I00
S'/admin/default/about/mycrawler'
tp4224
aasbasbasbasbasbasbasbag65
(g81
g67
NtRp4225
(dp4226
g70
(dp4227
sg79
g4082
sg72
(lp4228
g65
(g86
g67
NtRp4229
(dp4230
g70
(dp4231
sg79
g4225
sg72
(lp4232
g65
(g66
g67
NtRp4233
(dp4234
g70
(dp4235
g78
I2
ssg79
g4229
sg72
(lp4236
g65
(g74
g67
NtRp4237
(dp4238
g70
(dp4239
g78
I1
ssg79
Nsg72
(lp4240
g65
(g81
g67
NtRp4241
(dp4242
g70
(dp4243
sg79
g4237
sg72
(lp4244
g65
(g86
g67
NtRp4245
(dp4246
g70
(dp4247
sg79
g4241
sg72
(lp4248
g65
(g66
g67
NtRp4249
(dp4250
g70
(dp4251
g78
I1
ssg79
g4245
sg72
(lp4252
S'web2py.com'
p4253
asbasbasbag65
(g81
g67
NtRp4254
(dp4255
g70
(dp4256
sg79
g4237
sg72
(lp4257
g65
(g86
g67
NtRp4258
(dp4259
g70
(dp4260
sg79
g4254
sg72
(lp4261
g65
(g66
g67
NtRp4262
(dp4263
g70
(dp4264
g78
I1
ssg79
g4258
sg72
(lp4265
I00
asbasbasbag65
(g81
g67
NtRp4266
(dp4267
g70
(dp4268
sg79
g4237
sg72
(lp4269
g65
(g86
g67
NtRp4270
(dp4271
g70
(dp4272
sg79
g4266
sg72
(lp4273
g65
(g66
g67
NtRp4274
(dp4275
g70
(dp4276
g78
I1
ssg79
g4270
sg72
(lp4277
S'http://www.web2py.com'
p4278
asbasbasbag65
(g81
g67
NtRp4279
(dp4280
g70
(dp4281
sg79
g4237
sg72
(lp4282
g65
(g86
g67
NtRp4283
(dp4284
g70
(dp4285
sg79
g4279
sg72
(lp4286
g65
(g66
g67
NtRp4287
(dp4288
g70
(dp4289
g78
I1
ssg79
g4283
sg72
(lp4290
(lp4291
(g3742
(S't\x08\x00\x00\x00Download'
tRp4292
I00
S'http://www.web2py.com/examples/default/download'
p4293
tp4294
a(g3742
(S't\x07\x00\x00\x00Support'
tRp4295
I00
S'http://www.web2py.com/examples/default/support'
p4296
tp4297
a(g3742
(S't\x04\x00\x00\x00Demo'
tRp4298
I00
S'http://web2py.com/demo_admin'
p4299
tp4300
a(g3742
(S's\x0e\x00\x00\x00Quick Examples'
tRp4301
I00
S'http://web2py.com/examples/default/examples'
p4302
tp4303
a(g3742
(S't\x03\x00\x00\x00FAQ'
tRp4304
I00
S'http://web2py.com/AlterEgo'
p4305
tp4306
a(g3742
(S't\x06\x00\x00\x00Videos'
tRp4307
I00
S'http://www.web2py.com/examples/default/videos/'
p4308
tp4309
a(g3742
(S's\x11\x00\x00\x00Free Applications'
tRp4310
I00
S'http://web2py.com/appliances'
p4311
tp4312
a(g3742
(S't\x07\x00\x00\x00Plugins'
tRp4313
I00
S'http://web2py.com/plugins'
p4314
tp4315
a(g3742
(S't\x07\x00\x00\x00Layouts'
tRp4316
I00
S'http://web2py.com/layouts'
p4317
tp4318
a(g3742
(S't\x07\x00\x00\x00Recipes'
tRp4319
I00
S'http://web2pyslices.com/'
p4320
tp4321
a(g3742
(S't\x08\x00\x00\x00Semantic'
tRp4322
I00
S'http://web2py.com/semantic'
p4323
tp4324
aasbasbasbasbasbasbasbag65
(g81
g67
NtRp4325
(dp4326
g70
(dp4327
sg79
g4082
sg72
(lp4328
g65
(g86
g67
NtRp4329
(dp4330
g70
(dp4331
sg79
g4325
sg72
(lp4332
g65
(g66
g67
NtRp4333
(dp4334
g70
(dp4335
g78
I2
ssg79
g4329
sg72
(lp4336
g65
(g74
g67
NtRp4337
(dp4338
g70
(dp4339
g78
I1
ssg79
Nsg72
(lp4340
g65
(g81
g67
NtRp4341
(dp4342
g70
(dp4343
sg79
g4337
sg72
(lp4344
g65
(g86
g67
NtRp4345
(dp4346
g70
(dp4347
sg79
g4341
sg72
(lp4348
g65
(g66
g67
NtRp4349
(dp4350
g70
(dp4351
g78
I1
ssg79
g4345
sg72
(lp4352
g3742
(S't\r\x00\x00\x00Documentation'
tRp4353
asbasbasbag65
(g81
g67
NtRp4354
(dp4355
g70
(dp4356
sg79
g4337
sg72
(lp4357
g65
(g86
g67
NtRp4358
(dp4359
g70
(dp4360
sg79
g4354
sg72
(lp4361
g65
(g66
g67
NtRp4362
(dp4363
g70
(dp4364
g78
I1
ssg79
g4358
sg72
(lp4365
I00
asbasbasbag65
(g81
g67
NtRp4366
(dp4367
g70
(dp4368
sg79
g4337
sg72
(lp4369
g65
(g86
g67
NtRp4370
(dp4371
g70
(dp4372
sg79
g4366
sg72
(lp4373
g65
(g66
g67
NtRp4374
(dp4375
g70
(dp4376
g78
I1
ssg79
g4370
sg72
(lp4377
S'http://www.web2py.com/book'
p4378
asbasbasbag65
(g81
g67
NtRp4379
(dp4380
g70
(dp4381
sg79
g4337
sg72
(lp4382
g65
(g86
g67
NtRp4383
(dp4384
g70
(dp4385
sg79
g4379
sg72
(lp4386
g65
(g66
g67
NtRp4387
(dp4388
g70
(dp4389
g78
I1
ssg79
g4383
sg72
(lp4390
(lp4391
(g3742
(S't\x07\x00\x00\x00Preface'
tRp4392
I00
S'http://www.web2py.com/book/default/chapter/00'
p4393
tp4394
a(g3742
(S't\x0c\x00\x00\x00Introduction'
tRp4395
I00
S'http://www.web2py.com/book/default/chapter/01'
p4396
tp4397
a(g3742
(S't\x06\x00\x00\x00Python'
tRp4398
I00
S'http://www.web2py.com/book/default/chapter/02'
p4399
tp4400
a(g3742
(S't\x08\x00\x00\x00Overview'
tRp4401
I00
S'http://www.web2py.com/book/default/chapter/03'
p4402
tp4403
a(g3742
(S's\x08\x00\x00\x00The Core'
tRp4404
I00
S'http://www.web2py.com/book/default/chapter/04'
p4405
tp4406
a(g3742
(S's\t\x00\x00\x00The Views'
tRp4407
I00
S'http://www.web2py.com/book/default/chapter/05'
p4408
tp4409
a(g3742
(S't\x08\x00\x00\x00Database'
tRp4410
I00
S'http://www.web2py.com/book/default/chapter/06'
p4411
tp4412
a(g3742
(S's\x14\x00\x00\x00Forms and Validators'
tRp4413
I00
S'http://www.web2py.com/book/default/chapter/07'
p4414
tp4415
a(g3742
(S's\r\x00\x00\x00Email and SMS'
tRp4416
I00
S'http://www.web2py.com/book/default/chapter/08'
p4417
tp4418
a(g3742
(S's\x0e\x00\x00\x00Access Control'
tRp4419
I00
S'http://www.web2py.com/book/default/chapter/09'
p4420
tp4421
a(g3742
(S't\x08\x00\x00\x00Services'
tRp4422
I00
S'http://www.web2py.com/book/default/chapter/10'
p4423
tp4424
a(g3742
(S's\x0c\x00\x00\x00Ajax Recipes'
tRp4425
I00
S'http://www.web2py.com/book/default/chapter/11'
p4426
tp4427
a(g3742
(S's\x16\x00\x00\x00Components and Plugins'
tRp4428
I00
S'http://www.web2py.com/book/default/chapter/12'
p4429
tp4430
a(g3742
(S's\x12\x00\x00\x00Deployment Recipes'
tRp4431
I00
S'http://www.web2py.com/book/default/chapter/13'
p4432
tp4433
a(g3742
(S's\r\x00\x00\x00Other Recipes'
tRp4434
I00
S'http://www.web2py.com/book/default/chapter/14'
p4435
tp4436
a(g3742
(S's\r\x00\x00\x00Buy this book'
tRp4437
I00
S'http://stores.lulu.com/web2py'
p4438
tp4439
aasbasbasbasbasbasbasbag65
(g81
g67
NtRp4440
(dp4441
g70
(dp4442
sg79
g4082
sg72
(lp4443
g65
(g86
g67
NtRp4444
(dp4445
g70
(dp4446
sg79
g4440
sg72
(lp4447
g65
(g66
g67
NtRp4448
(dp4449
g70
(dp4450
g78
I2
ssg79
g4444
sg72
(lp4451
g65
(g74
g67
NtRp4452
(dp4453
g70
(dp4454
g78
I1
ssg79
Nsg72
(lp4455
g65
(g81
g67
NtRp4456
(dp4457
g70
(dp4458
sg79
g4452
sg72
(lp4459
g65
(g86
g67
NtRp4460
(dp4461
g70
(dp4462
sg79
g4456
sg72
(lp4463
g65
(g66
g67
NtRp4464
(dp4465
g70
(dp4466
g78
I1
ssg79
g4460
sg72
(lp4467
g3742
(S't\t\x00\x00\x00Community'
tRp4468
asbasbasbag65
(g81
g67
NtRp4469
(dp4470
g70
(dp4471
sg79
g4452
sg72
(lp4472
g65
(g86
g67
NtRp4473
(dp4474
g70
(dp4475
sg79
g4469
sg72
(lp4476
g65
(g66
g67
NtRp4477
(dp4478
g70
(dp4479
g78
I1
ssg79
g4473
sg72
(lp4480
I00
asbasbasbag65
(g81
g67
NtRp4481
(dp4482
g70
(dp4483
sg79
g4452
sg72
(lp4484
g65
(g86
g67
NtRp4485
(dp4486
g70
(dp4487
sg79
g4481
sg72
(lp4488
g65
(g66
g67
NtRp4489
(dp4490
g70
(dp4491
g78
I1
ssg79
g4485
sg72
(lp4492
Nasbasbasbag65
(g81
g67
NtRp4493
(dp4494
g70
(dp4495
sg79
g4452
sg72
(lp4496
g65
(g86
g67
NtRp4497
(dp4498
g70
(dp4499
sg79
g4493
sg72
(lp4500
g65
(g66
g67
NtRp4501
(dp4502
g70
(dp4503
g78
I1
ssg79
g4497
sg72
(lp4504
(lp4505
(g3742
(S't\x06\x00\x00\x00Groups'
tRp4506
I00
S'http://www.web2py.com/examples/default/usergroups'
p4507
tp4508
a(g3742
(S't\x07\x00\x00\x00Twitter'
tRp4509
I00
S'http://twitter.com/web2py'
p4510
tp4511
a(g3742
(S's\t\x00\x00\x00Live Chat'
tRp4512
I00
S'http://webchat.freenode.net/?channels=web2py'
p4513
tp4514
aasbasbasbasbasbasbasbag65
(g81
g67
NtRp4515
(dp4516
g70
(dp4517
sg79
g4082
sg72
(lp4518
g65
(g86
g67
NtRp4519
(dp4520
g70
(dp4521
sg79
g4515
sg72
(lp4522
g65
(g66
g67
NtRp4523
(dp4524
g70
(dp4525
g78
I2
ssg79
g4519
sg72
(lp4526
g65
(g74
g67
NtRp4527
(dp4528
g70
(dp4529
g78
I1
ssg79
Nsg72
(lp4530
g65
(g81
g67
NtRp4531
(dp4532
g70
(dp4533
sg79
g4527
sg72
(lp4534
g65
(g86
g67
NtRp4535
(dp4536
g70
(dp4537
sg79
g4531
sg72
(lp4538
g65
(g66
g67
NtRp4539
(dp4540
g70
(dp4541
g78
I1
ssg79
g4535
sg72
(lp4542
g3742
(S't\x07\x00\x00\x00Plugins'
tRp4543
asbasbasbag65
(g81
g67
NtRp4544
(dp4545
g70
(dp4546
sg79
g4527
sg72
(lp4547
g65
(g86
g67
NtRp4548
(dp4549
g70
(dp4550
sg79
g4544
sg72
(lp4551
g65
(g66
g67
NtRp4552
(dp4553
g70
(dp4554
g78
I1
ssg79
g4548
sg72
(lp4555
I00
asbasbasbag65
(g81
g67
NtRp4556
(dp4557
g70
(dp4558
sg79
g4527
sg72
(lp4559
g65
(g86
g67
NtRp4560
(dp4561
g70
(dp4562
sg79
g4556
sg72
(lp4563
g65
(g66
g67
NtRp4564
(dp4565
g70
(dp4566
g78
I1
ssg79
g4560
sg72
(lp4567
Nasbasbasbag65
(g81
g67
NtRp4568
(dp4569
g70
(dp4570
sg79
g4527
sg72
(lp4571
g65
(g86
g67
NtRp4572
(dp4573
g70
(dp4574
sg79
g4568
sg72
(lp4575
g65
(g66
g67
NtRp4576
(dp4577
g70
(dp4578
g78
I1
ssg79
g4572
sg72
(lp4579
(lp4580
(S'plugin_wiki'
p4581
I00
S'http://web2py.com/examples/default/download'
p4582
tp4583
a(g3742
(S's\r\x00\x00\x00Other Plugins'
tRp4584
I00
g4314
tp4585
a(g3742
(S's\x0e\x00\x00\x00Layout Plugins'
tRp4586
I00
g4317
tp4587
aasbasbasbasbasbasbasbasbasbasbasbasbasbasbasbasbasbasbasbag65
(g81
g67
NtRp4588
(dp4589
g70
(dp4590
sg79
g3411
sg72
(lp4591
g65
(g86
g67
NtRp4592
(dp4593
g70
(dp4594
g90
g91
ssg79
g4588
sg72
(lp4595
S'meta'
p4596
asbag65
(g86
g67
NtRp4597
(dp4598
g70
(dp4599
g97
g98
ssg79
g4588
sg72
(lp4600
S':'
asbag65
(g86
g67
NtRp4601
(dp4602
g70
(dp4603
sg79
g4588
sg72
(lp4604
g65
(g66
g67
NtRp4605
(dp4606
g70
(dp4607
g78
I5
ssg79
g4601
sg72
(lp4608
g65
(g74
g67
NtRp4609
(dp4610
g70
(dp4611
g78
I4
ssg79
Nsg72
(lp4612
g65
(g81
g67
NtRp4613
(dp4614
g70
(dp4615
sg79
g4609
sg72
(lp4616
g65
(g86
g67
NtRp4617
(dp4618
g70
(dp4619
g90
g91
ssg79
g4613
sg72
(lp4620
S'author'
p4621
asbag65
(g86
g67
NtRp4622
(dp4623
g70
(dp4624
g97
g98
ssg79
g4613
sg72
(lp4625
S':'
asbag65
(g86
g67
NtRp4626
(dp4627
g70
(dp4628
sg79
g4613
sg72
(lp4629
g65
(g66
g67
NtRp4630
(dp4631
g70
(dp4632
g78
I4
ssg79
g4626
sg72
(lp4633
S'Your Name <you@example.com>'
p4634
asbasbasbag65
(g81
g67
NtRp4635
(dp4636
g70
(dp4637
sg79
g4609
sg72
(lp4638
g65
(g86
g67
NtRp4639
(dp4640
g70
(dp4641
g90
g91
ssg79
g4635
sg72
(lp4642
S'copyright'
p4643
asbag65
(g86
g67
NtRp4644
(dp4645
g70
(dp4646
g97
g98
ssg79
g4635
sg72
(lp4647
S':'
asbag65
(g86
g67
NtRp4648
(dp4649
g70
(dp4650
sg79
g4635
sg72
(lp4651
g65
(g66
g67
NtRp4652
(dp4653
g70
(dp4654
g78
I4
ssg79
g4648
sg72
(lp4655
S'Copyright 2011'
p4656
asbasbasbag65
(g81
g67
NtRp4657
(dp4658
g70
(dp4659
sg79
g4609
sg72
(lp4660
g65
(g86
g67
NtRp4661
(dp4662
g70
(dp4663
g90
g91
ssg79
g4657
sg72
(lp4664
S'description'
p4665
asbag65
(g86
g67
NtRp4666
(dp4667
g70
(dp4668
g97
g98
ssg79
g4657
sg72
(lp4669
S':'
asbag65
(g86
g67
NtRp4670
(dp4671
g70
(dp4672
sg79
g4657
sg72
(lp4673
g65
(g66
g67
NtRp4674
(dp4675
g70
(dp4676
g78
I4
ssg79
g4670
sg72
(lp4677
S'a cool new app'
p4678
asbasbasbag65
(g81
g67
NtRp4679
(dp4680
g70
(dp4681
sg79
g4609
sg72
(lp4682
g65
(g86
g67
NtRp4683
(dp4684
g70
(dp4685
g90
g91
ssg79
g4679
sg72
(lp4686
S'generator'
p4687
asbag65
(g86
g67
NtRp4688
(dp4689
g70
(dp4690
g97
g98
ssg79
g4679
sg72
(lp4691
S':'
asbag65
(g86
g67
NtRp4692
(dp4693
g70
(dp4694
sg79
g4679
sg72
(lp4695
g65
(g66
g67
NtRp4696
(dp4697
g70
(dp4698
g78
I4
ssg79
g4692
sg72
(lp4699
S'Web2py Web Framework'
p4700
asbasbasbag65
(g81
g67
NtRp4701
(dp4702
g70
(dp4703
sg79
g4609
sg72
(lp4704
g65
(g86
g67
NtRp4705
(dp4706
g70
(dp4707
g90
g91
ssg79
g4701
sg72
(lp4708
S'keywords'
p4709
asbag65
(g86
g67
NtRp4710
(dp4711
g70
(dp4712
g97
g98
ssg79
g4701
sg72
(lp4713
S':'
asbag65
(g86
g67
NtRp4714
(dp4715
g70
(dp4716
sg79
g4701
sg72
(lp4717
g65
(g66
g67
NtRp4718
(dp4719
g70
(dp4720
g78
I4
ssg79
g4714
sg72
(lp4721
S'web2py, python, framework'
p4722
asbasbasbasbasbasbasbag65
(g81
g67
NtRp4723
(dp4724
g70
(dp4725
sg79
g3411
sg72
(lp4726
g65
(g86
g67
NtRp4727
(dp4728
g70
(dp4729
g90
g91
ssg79
g4723
sg72
(lp4730
S'postprocessing'
p4731
asbag65
(g86
g67
NtRp4732
(dp4733
g70
(dp4734
g97
g98
ssg79
g4723
sg72
(lp4735
S':'
asbag65
(g86
g67
NtRp4736
(dp4737
g70
(dp4738
sg79
g4723
sg72
(lp4739
g65
(g66
g67
NtRp4740
(dp4741
g70
(dp4742
g78
I5
ssg79
g4736
sg72
(lp4743
g65
(g74
g67
NtRp4744
(dp4745
g70
(dp4746
g78
I4
ssg79
Nsg72
(lp4747
sbasbasbasbag65
(g81
g67
NtRp4748
(dp4749
g70
(dp4750
sg79
g3411
sg72
(lp4751
g65
(g86
g67
NtRp4752
(dp4753
g70
(dp4754
g90
g91
ssg79
g4748
sg72
(lp4755
S'session_file'
p4756
asbag65
(g86
g67
NtRp4757
(dp4758
g70
(dp4759
g97
g98
ssg79
g4748
sg72
(lp4760
S':'
asbag65
(g86
g67
NtRp4761
(dp4762
g70
(dp4763
sg79
g4748
sg72
(lp4764
g65
(g66
g67
NtRp4765
(dp4766
g70
(dp4767
g78
I5
ssg79
g4761
sg72
(lp4768
S"<open file 'C:\\Documents and Settings\\agrover\\Desktop\\previous crawler\\web2py\\applications\\mycrawler\\sessions\\127.0.0.1-e33c895d-efcf-4795-8169-7cf95d1f13b6', mode 'rb+' at 0x09E89020>"
p4769
asbasbasbag65
(g81
g67
NtRp4770
(dp4771
g70
(dp4772
sg79
g3411
sg72
(lp4773
g65
(g86
g67
NtRp4774
(dp4775
g70
(dp4776
g90
g91
ssg79
g4770
sg72
(lp4777
S'session_filename'
p4778
asbag65
(g86
g67
NtRp4779
(dp4780
g70
(dp4781
g97
g98
ssg79
g4770
sg72
(lp4782
S':'
asbag65
(g86
g67
NtRp4783
(dp4784
g70
(dp4785
sg79
g4770
sg72
(lp4786
g65
(g66
g67
NtRp4787
(dp4788
g70
(dp4789
g78
I5
ssg79
g4783
sg72
(lp4790
S'C:\\Documents and Settings\\agrover\\Desktop\\previous crawler\\web2py\\applications\\mycrawler\\sessions\\127.0.0.1-e33c895d-efcf-4795-8169-7cf95d1f13b6'
p4791
asbasbasbag65
(g81
g67
NtRp4792
(dp4793
g70
(dp4794
sg79
g3411
sg72
(lp4795
g65
(g86
g67
NtRp4796
(dp4797
g70
(dp4798
g90
g91
ssg79
g4792
sg72
(lp4799
S'session_id'
p4800
asbag65
(g86
g67
NtRp4801
(dp4802
g70
(dp4803
g97
g98
ssg79
g4792
sg72
(lp4804
S':'
asbag65
(g86
g67
NtRp4805
(dp4806
g70
(dp4807
sg79
g4792
sg72
(lp4808
g65
(g66
g67
NtRp4809
(dp4810
g70
(dp4811
g78
I5
ssg79
g4805
sg72
(lp4812
S'127.0.0.1-e33c895d-efcf-4795-8169-7cf95d1f13b6'
p4813
asbasbasbag65
(g81
g67
NtRp4814
(dp4815
g70
(dp4816
sg79
g3411
sg72
(lp4817
g65
(g86
g67
NtRp4818
(dp4819
g70
(dp4820
g90
g91
ssg79
g4814
sg72
(lp4821
S'session_id_name'
p4822
asbag65
(g86
g67
NtRp4823
(dp4824
g70
(dp4825
g97
g98
ssg79
g4814
sg72
(lp4826
S':'
asbag65
(g86
g67
NtRp4827
(dp4828
g70
(dp4829
sg79
g4814
sg72
(lp4830
g65
(g66
g67
NtRp4831
(dp4832
g70
(dp4833
g78
I5
ssg79
g4827
sg72
(lp4834
g3468
asbasbasbag65
(g81
g67
NtRp4835
(dp4836
g70
(dp4837
sg79
g3411
sg72
(lp4838
g65
(g86
g67
NtRp4839
(dp4840
g70
(dp4841
g90
g91
ssg79
g4835
sg72
(lp4842
S'session_locked'
p4843
asbag65
(g86
g67
NtRp4844
(dp4845
g70
(dp4846
g97
g98
ssg79
g4835
sg72
(lp4847
S':'
asbag65
(g86
g67
NtRp4848
(dp4849
g70
(dp4850
sg79
g4835
sg72
(lp4851
g65
(g66
g67
NtRp4852
(dp4853
g70
(dp4854
g78
I5
ssg79
g4848
sg72
(lp4855
g1750
asbasbasbag65
(g81
g67
NtRp4856
(dp4857
g70
(dp4858
sg79
g3411
sg72
(lp4859
g65
(g86
g67
NtRp4860
(dp4861
g70
(dp4862
g90
g91
ssg79
g4856
sg72
(lp4863
S'session_new'
p4864
asbag65
(g86
g67
NtRp4865
(dp4866
g70
(dp4867
g97
g98
ssg79
g4856
sg72
(lp4868
S':'
asbag65
(g86
g67
NtRp4869
(dp4870
g70
(dp4871
sg79
g4856
sg72
(lp4872
g65
(g66
g67
NtRp4873
(dp4874
g70
(dp4875
g78
I5
ssg79
g4869
sg72
(lp4876
g108
asbasbasbag65
(g81
g67
NtRp4877
(dp4878
g70
(dp4879
sg79
g3411
sg72
(lp4880
g65
(g86
g67
NtRp4881
(dp4882
g70
(dp4883
g90
g91
ssg79
g4877
sg72
(lp4884
S'status'
p4885
asbag65
(g86
g67
NtRp4886
(dp4887
g70
(dp4888
g97
g98
ssg79
g4877
sg72
(lp4889
S':'
asbag65
(g86
g67
NtRp4890
(dp4891
g70
(dp4892
sg79
g4877
sg72
(lp4893
g65
(g66
g67
NtRp4894
(dp4895
g70
(dp4896
g78
I5
ssg79
g4890
sg72
(lp4897
S'200'
p4898
asbasbasbag65
(g81
g67
NtRp4899
(dp4900
g70
(dp4901
sg79
g3411
sg72
(lp4902
g65
(g86
g67
NtRp4903
(dp4904
g70
(dp4905
g90
g91
ssg79
g4899
sg72
(lp4906
S'subtitle'
p4907
asbag65
(g86
g67
NtRp4908
(dp4909
g70
(dp4910
g97
g98
ssg79
g4899
sg72
(lp4911
S':'
asbag65
(g86
g67
NtRp4912
(dp4913
g70
(dp4914
sg79
g4899
sg72
(lp4915
g65
(g66
g67
NtRp4916
(dp4917
g70
(dp4918
g78
I5
ssg79
g4912
sg72
(lp4919
g3742
(S's\r\x00\x00\x00customize me!'
tRp4920
asbasbasbag65
(g81
g67
NtRp4921
(dp4922
g70
(dp4923
sg79
g3411
sg72
(lp4924
g65
(g86
g67
NtRp4925
(dp4926
g70
(dp4927
g90
g91
ssg79
g4921
sg72
(lp4928
S'title'
p4929
asbag65
(g86
g67
NtRp4930
(dp4931
g70
(dp4932
g97
g98
ssg79
g4921
sg72
(lp4933
S':'
asbag65
(g86
g67
NtRp4934
(dp4935
g70
(dp4936
sg79
g4921
sg72
(lp4937
g65
(g66
g67
NtRp4938
(dp4939
g70
(dp4940
g78
I5
ssg79
g4934
sg72
(lp4941
S'Mycrawler'
p4942
asbasbasbag65
(g81
g67
NtRp4943
(dp4944
g70
(dp4945
sg79
g3411
sg72
(lp4946
g65
(g86
g67
NtRp4947
(dp4948
g70
(dp4949
g90
g91
ssg79
g4943
sg72
(lp4950
g2458
asbag65
(g86
g67
NtRp4951
(dp4952
g70
(dp4953
g97
g98
ssg79
g4943
sg72
(lp4954
S':'
asbag65
(g86
g67
NtRp4955
(dp4956
g70
(dp4957
sg79
g4943
sg72
(lp4958
g65
(g66
g67
NtRp4959
(dp4960
g70
(dp4961
g78
I5
ssg79
g4955
sg72
(lp4962
g2471
asbasbasbag65
(g81
g67
NtRp4963
(dp4964
g70
(dp4965
sg79
g3411
sg72
(lp4966
g65
(g86
g67
NtRp4967
(dp4968
g70
(dp4969
g90
g91
ssg79
g4963
sg72
(lp4970
S'view'
p4971
asbag65
(g86
g67
NtRp4972
(dp4973
g70
(dp4974
g97
g98
ssg79
g4963
sg72
(lp4975
S':'
asbag65
(g86
g67
NtRp4976
(dp4977
g70
(dp4978
sg79
g4963
sg72
(lp4979
g65
(g66
g67
NtRp4980
(dp4981
g70
(dp4982
g78
I5
ssg79
g4976
sg72
(lp4983
S'default/upload.html'
p4984
asbasbasbasbasbsS'locals'
p4985
(dp4986
S'upload_fields'
p4987
S'None'
p4988
sS'field'
p4989
S'<gluon.dal.Field object>'
p4990
sS'f'
S"'Upload_File'"
p4991
sS'fields'
p4992
S"['Upload_File']"
p4993
sS'self'
p4994
S'<gluon.dal.Set object>'
p4995
sS'record'
p4996
S"<Row {'Upload_File': 'files.Upload_File.80c61ab8c6241f99.6c657473632e637376.csv'}>"
p4997
sS'fieldname'
p4998
S"'Upload_File'"
p4999
sS'oldname'
p5000
S"'files.Upload_File.80c61ab8c6241f99.6c657473632e637376.csv'"
p5001
sS'uploadfolder'
p5002
S"r'C:\\Documents and Settings\\agrover\\Desktop\\previo...eb2py\\applications\\mycrawler\\databases\\..\\uploads'"
p5003
sS'table'
p5004
S"<Table {'Save_As': <gluon.dal.Field object at 0x...d_File': <gluon.dal.Field object at 0x0A02B710>}>"
p5005
sS'oldpath'
p5006
S"r'C:\\Documents and Settings\\agrover\\Desktop\\previo...load_File.80c61ab8c6241f99.6c657473632e637376.csv'"
p5007
sssS'traceback'
p5008
S'Traceback (most recent call last):\n  File "C:\\Documents and Settings\\agrover\\Desktop\\previous crawler\\web2py\\gluon\\restricted.py", line 205, in restricted\n    exec ccode in environment\n  File "C:\\Documents and Settings\\agrover\\Desktop\\previous crawler\\web2py\\applications\\mycrawler\\controllers/default.py", line 707, in <module>\n  File "C:\\Documents and Settings\\agrover\\Desktop\\previous crawler\\web2py\\gluon\\globals.py", line 173, in <lambda>\n    self._caller = lambda f: f()\n  File "C:\\Documents and Settings\\agrover\\Desktop\\previous crawler\\web2py\\applications\\mycrawler\\controllers/default.py", line 559, in upload\n    temp()\n  File "C:\\Documents and Settings\\agrover\\Desktop\\previous crawler\\web2py\\applications\\mycrawler\\controllers/default.py", line 630, in temp\n    db(db.files.id>0).delete()\n  File "C:\\Documents and Settings\\agrover\\Desktop\\previous crawler\\web2py\\gluon\\dal.py", line 7582, in delete\n    self.delete_uploaded_files()\n  File "C:\\Documents and Settings\\agrover\\Desktop\\previous crawler\\web2py\\gluon\\dal.py", line 7647, in delete_uploaded_files\n    os.unlink(oldpath)\nWindowsError: [Error 32] The process cannot access the file because it is being used by another process: \'C:\\\\Documents and Settings\\\\agrover\\\\Desktop\\\\previous crawler\\\\web2py\\\\applications\\\\mycrawler\\\\databases\\\\..\\\\uploads\\\\files.Upload_File.80c61ab8c6241f99.6c657473632e637376.csv\'\n'
p5009
s.