(dp1
S'output'
p2
S"<type 'exceptions.UnicodeEncodeError'> 'ascii' codec can't encode character u'\\u2122' in position 50: ordinal not in range(128)"
p3
sS'layer'
p4
S'C:\\Documents and Settings\\agrover\\Desktop\\previous crawler\\web2py\\applications\\mycrawler\\controllers/default.py'
p5
sS'code'
p6
S'# -*- coding: utf-8 -*-\n# this file is released under public domain and you can use without limitations\n\n#########################################################################\n## This is a samples controller\n## - index is the default action of any application\n## - user is required for authentication and authorization\n## - download is for downloading files uploaded in the db (does streaming)\n## - call exposes all registered services (none by default)\n#########################################################################\nimport cStringIO\nimport csv\nimport re\ncountry=[\'United States\', \'Afghanistan\', \'Aland Islands\', \'Albania\', \'Algeria\', \'American Samoa\', \'Andorra\', \'Angola\', \'Anguilla\', \'Antarctica\', \'Antigua and Barbuda\', \'Argentina\', \'Armenia\', \'Aruba\', \'Australia\', \'Austria\', \'Azerbaijan\', \'Bahamas\', \'Bahrain\', \'Bangladesh\', \'Barbados\', \'Belarus\', \'Belgium\', \'Belize\', \'Benin\', \'Bermuda\', \'Bhutan\', \'Bolivia\', \'Bosnia and Herzegovina\', \'Botswana\', \'Brazil\', \'British Indian Ocean Territory\', \'Brunei Darussalam\', \'Bulgaria\', \'Burkina Faso\', \'Burundi\', \'Cambodia\', \'Cameroon\', \'Canada\', \'Cape Verde\', \'Caribbean Nations\', \'Cayman Islands\', \'Central African Republic\', \'Chad\', \'Chile\', \'China\', \'Christmas Island\', \'Cocos (Keeling) Islands\', \'Colombia\', \'Comoros\', \'Congo\', \'Cook Islands\', \'Costa Rica\', "Cote D\'Ivoire (Ivory Coast)", \'Croatia\', \'Cuba\', \'Cyprus\', \'Czech Republic\', \'Democratic Republic of the Congo\', \'Denmark\', \'Djibouti\', \'Dominica\', \'Dominican Republic\', \'East Timor\', \'Ecuador\', \'Egypt\', \'El Salvador\', \'Equatorial Guinea\', \'Eritrea\', \'Estonia\', \'Ethiopia\', \'Falkland Islands (Malvinas)\', \'Faroe Islands\', \'Federated States of Micronesia\', \'Fiji\', \'Finland\', \'France\', \'French Guiana\', \'French Polynesia\', \'French Southern Territories\', \'Gabon\', \'Gambia\', \'Georgia\', \'Germany\', \'Ghana\', \'Gibraltar\', \'Greece\', \'Greenland\', \'Grenada\', \'Guadeloupe\', \'Guam\', \'Guatemala\', \'Guernsey\', \'Guinea\', \'Guinea-Bissau\', \'Guyana\', \'Haiti\', \'Honduras\', \'Hong Kong\', \'Hungary\', \'Iceland\', \'India\', \'Indonesia\', \'Iran\', \'Iraq\', \'Ireland\', \'Isle of Man\', \'Israel\', \'Italy\', \'Jamaica\', \'Japan\', \'Jersey\', \'Jordan\', \'Kazakhstan\', \'Kenya\', \'Kiribati\', \'Korea\', \'Korea (North)\', \'Kuwait\', \'Kyrgyzstan\', \'Laos\', \'Latvia\', \'Lebanon\', \'Lesotho\', \'Liberia\', \'Libya\', \'Liechtenstein\', \'Lithuania\', \'Luxembourg\', \'Macao\', \'Macedonia\', \'Madagascar\', \'Malawi\', \'Malaysia\', \'Maldives\', \'Mali\', \'Malta\', \'Marshall Islands\', \'Martinique\', \'Mauritania\', \'Mauritius\', \'Mayotte\', \'Mexico\', \'Moldova\', \'Monaco\', \'Mongolia\', \'Montenegro\', \'Montserrat\', \'Morocco\', \'Mozambique\', \'Myanmar\', \'Namibia\', \'Nauru\', \'Nepal\', \'Netherlands\', \'Netherlands Antilles\', \'New Caledonia\', \'New Zealand\', \'Nicaragua\', \'Niger\', \'Nigeria\', \'Niue\', \'Norfolk Island\', \'Northern Mariana Islands\', \'Norway\', \'Oman\', \'Pakistan\', \'Palau\', \'Palestinian Territory\', \'Panama\', \'Papua New Guinea\', \'Paraguay\', \'Peru\', \'Philippines\', \'Pitcairn\', \'Poland\', \'Portugal\', \'Puerto Rico\', \'Qatar\', \'Reunion\', \'Romania\', \'Russian Federation\', \'Rwanda\', \'Saint Helena\', \'Saint Kitts and Nevis\', \'Saint Lucia\', \'Saint Pierre and Miquelon\', \'Saint Vincent and the Grenadines\', \'Samoa\', \'San Marino\', \'Sao Tome and Principe\', \'Saudi Arabia\', \'Senegal\', \'Serbia\', \'Seychelles\', \'Sierra Leone\', \'Singapore\', \'Slovak Republic\', \'Slovenia\', \'Solomon Islands\', \'Somalia\', \'South Africa\', \'Spain\', \'Sri Lanka\', \'Sudan\', \'Suriname\', \'Svalbard and Jan Mayen\', \'Swaziland\', \'Sweden\', \'Switzerland\', \'Syria\', \'Taiwan\', \'Tajikistan\', \'Tanzania\', \'Thailand\', \'Timor-Leste\', \'Togo\', \'Tokelau\', \'Tonga\', \'Trinidad and Tobago\', \'Tunisia\', \'Turkey\', \'Turkmenistan\', \'Turks and Caicos Islands\', \'Tuvalu\', \'Uganda\', \'Ukraine\', \'United Arab Emirates\', \'United Kingdom\', \'Uruguay\', \'Uzbekistan\', \'Vanuatu\', \'Vatican City State (Holy See)\', \'Venezuela\', \'Vietnam\', \'Virgin Islands (British)\', \'Virgin Islands (U.S.)\', \'Wallis and Futuna\', \'Western Sahara\', \'Yemen\', \'Zambia\', \'Zimbabwe\', \'Other\']\n    \ncountryid=[\'us\', \'af\', \'ax\', \'al\', \'dz\', \'as\', \'ad\', \'ao\', \'ai\', \'aq\', \'ag\', \'ar\', \'am\', \'aw\', \'au\', \'at\', \'az\', \'bs\', \'bh\', \'bd\', \'bb\', \'by\', \'be\', \'bz\', \'bj\', \'bm\', \'bt\', \'bo\', \'ba\', \'bw\', \'br\', \'io\', \'bn\', \'bg\', \'bf\', \'bi\', \'kh\', \'cm\', \'ca\', \'cv\', \'cb\', \'ky\', \'cf\', \'td\', \'cl\', \'cn\', \'cx\', \'cc\', \'co\', \'km\', \'cg\', \'ck\', \'cr\', \'ci\', \'hr\', \'cu\', \'cy\', \'cz\', \'cd\', \'dk\', \'dj\', \'dm\', \'do\', \'tp\', \'ec\', \'eg\', \'sv\', \'gq\', \'er\', \'ee\', \'et\', \'fk\', \'fo\', \'fm\', \'fj\', \'fi\', \'fr\', \'gf\', \'pf\', \'tf\', \'ga\', \'gm\', \'ge\', \'de\', \'gh\', \'gi\', \'gr\', \'gl\', \'gd\', \'gp\', \'gu\', \'gt\', \'gg\', \'gn\', \'gw\', \'gy\', \'ht\', \'hn\', \'hk\', \'hu\', \'is\', \'in\', \'id\', \'ir\', \'iq\', \'ie\', \'im\', \'il\', \'it\', \'jm\', \'jp\', \'je\', \'jo\', \'kz\', \'ke\', \'ki\', \'kr\', \'kp\', \'kw\', \'kg\', \'la\', \'lv\', \'lb\', \'ls\', \'lr\', \'ly\', \'li\', \'lt\', \'lu\', \'mo\', \'mk\', \'mg\', \'mw\', \'my\', \'mv\', \'ml\', \'mt\', \'mh\', \'mq\', \'mr\', \'mu\', \'yt\', \'mx\', \'md\', \'mc\', \'mn\', \'me\', \'ms\', \'ma\', \'mz\', \'mm\', \'na\', \'nr\', \'np\', \'nl\', \'an\', \'nc\', \'nz\', \'ni\', \'ne\', \'ng\', \'nu\', \'nf\', \'mp\', \'no\', \'om\', \'pk\', \'pw\', \'ps\', \'pa\', \'pg\', \'py\', \'pe\', \'ph\', \'pn\', \'pl\', \'pt\', \'pr\', \'qa\', \'re\', \'ro\', \'ru\', \'rw\', \'sh\', \'kn\', \'lc\', \'pm\', \'vc\', \'ws\', \'sm\', \'st\', \'sa\', \'sn\', \'rs\', \'sc\', \'sl\', \'sg\', \'sk\', \'si\', \'sb\', \'so\', \'za\', \'es\', \'lk\', \'sd\', \'sr\', \'sj\', \'sz\', \'se\', \'ch\', \'sy\', \'tw\', \'tj\', \'tz\', \'th\', \'tl\', \'tg\', \'tk\', \'to\', \'tt\', \'tn\', \'tr\', \'tm\', \'tc\', \'tv\', \'ug\', \'ua\', \'ae\', \'gb\', \'uy\', \'uz\', \'vu\', \'va\', \'ve\', \'vn\', \'vg\', \'vi\', \'wf\', \'eh\', \'ye\', \'zm\', \'zw\', \'oo\']\n\nindustries=[\'All Industries\',\'Accounting\', \'Airlines/Aviation\', \'Alternative Dispute Resolution\', \'Alternative Medicine\', \'Animation\', \'Apparel & Fashion\', \'Architecture & Planning\', \'Arts and Crafts\', \'Automotive\', \'Aviation & Aerospace\', \'Banking\', \'Biotechnology\', \'Broadcast Media\', \'Building Materials\', \'Business Supplies and Equipment\', \'Capital Markets\', \'Chemicals\', \'Civic & Social Organization\', \'Civil Engineering\', \'Commercial Real Estate\', \'Computer & Network Security\', \'Computer Games\', \'Computer Hardware\', \'Computer Networking\', \'Computer Software\', \'Construction\', \'Consumer Electronics\', \'Consumer Goods\', \'Consumer Services\', \'Cosmetics\', \'Dairy\', \'Defense & Space\', \'Design\', \'Education Management\', \'E-Learning\', \'Electrical/Electronic Manufacturing\', \'Entertainment\', \'Environmental Services\', \'Events Services\', \'Executive Office\', \'Facilities Services\', \'Farming\', \'Financial Services\', \'Fine Art\', \'Fishery\', \'Food & Beverages\', \'Food Production\', \'Fund-Raising\', \'Furniture\', \'Gambling & Casinos\', \'Glass, Ceramics & Concrete\', \'Government Administration\', \'Government Relations\', \'Graphic Design\', \'Health, Wellness and Fitness\', \'Higher Education\', \'Hospital & Health Care\', \'Hospitality\', \'Human Resources\', \'Import and Export\', \'Individual & Family Services\', \'Industrial Automation\', \'Information Services\', \'Information Technology and Services\', \'Insurance\', \'International Affairs\', \'International Trade and Development\', \'Internet\', \'Investment Banking\', \'Investment Management\', \'Judiciary\', \'Law Enforcement\', \'Law Practice\', \'Legal Services\', \'Legislative Office\', \'Leisure, Travel & Tourism\', \'Libraries\', \'Logistics and Supply Chain\', \'Luxury Goods & Jewelry\', \'Machinery\', \'Management Consulting\', \'Maritime\', \'Marketing and Advertising\', \'Market Research\', \'Mechanical or Industrial Engineering\', \'Media Production\', \'Medical Devices\', \'Medical Practice\', \'Mental Health Care\', \'Military\', \'Mining & Metals\', \'Motion Pictures and Film\', \'Museums and Institutions\', \'Music\', \'Nanotechnology\', \'Newspapers\', \'Nonprofit Organization Management\', \'Oil & Energy\', \'Online Media\', \'Outsourcing/Offshoring\', \'Package/Freight Delivery\', \'Packaging and Containers\', \'Paper & Forest Products\', \'Performing Arts\', \'Pharmaceuticals\', \'Philanthropy\', \'Photography\', \'Plastics\', \'Political Organization\', \'Primary/Secondary Education\', \'Printing\', \'Professional Training & Coaching\', \'Program Development\', \'Public Policy\', \'Public Relations and Communications\', \'Public Safety\', \'Publishing\', \'Railroad Manufacture\', \'Ranching\', \'Real Estate\', \'Recreational Facilities and Services\', \'Religious Institutions\', \'Renewables & Environment\', \'Research\', \'Restaurants\', \'Retail\', \'Security and Investigations\', \'Semiconductors\', \'Shipbuilding\', \'Sporting Goods\', \'Sports\', \'Staffing and Recruiting\', \'Supermarkets\', \'Telecommunications\', \'Textiles\', \'Think Tanks\', \'Tobacco\', \'Translation and Localization\', \'Transportation/Trucking/Railroad\', \'Utilities\', \'Venture Capital & Private Equity\', \'Veterinary\', \'Warehousing\', \'Wholesale\', \'Wine and Spirits\', \'Wireless\', \'Writing and Editing\']\n\nseniority=[\'All Seniority Levels\', \'Manager\', \'Owner\', \'Partner\', \'CXO\', \'VP\', \'Director\', \'Senior\', \'Entry\', \'Students & Interns\', \'Volunteer\']\n    \ndef index():\n    """\n    example action using the internationalization operator T and flash\n    rendered by views/default/index.html or views/generic.html\n    """\n    response.flash = "Welcome to web2py!"\n    return dict(message=T(\'Hello World\'))\n\ndef user():\n    """\n    exposes:\n    http://..../[app]/default/user/login\n    http://..../[app]/default/user/logout\n    http://..../[app]/default/user/register\n    http://..../[app]/default/user/profile\n    http://..../[app]/default/user/retrieve_password\n    http://..../[app]/default/user/change_password\n    use @auth.requires_login()\n        @auth.requires_membership(\'group name\')\n        @auth.requires_permission(\'read\',\'table name\',record_id)\n    to decorate functions that need access control\n    """\n    return dict(form=auth())\n\n\ndef download():\n    """\n    allows downloading of uploaded files\n    http://..../[app]/default/download/[filename]\n    """\n    return response.download(request,db)\n\n\ndef call():\n    """\n    exposes services. for example:\n    http://..../[app]/default/call/jsonrpc\n    decorate with @services.jsonrpc the functions to expose\n    supports xml, json, xmlrpc, jsonrpc, amfrpc, rss, csv\n    """\n    return service()\n\n\n@auth.requires_signature()\ndef data():\n    """\n    http://..../[app]/default/data/tables\n    http://..../[app]/default/data/create/[table]\n    http://..../[app]/default/data/read/[table]/[id]\n    http://..../[app]/default/data/update/[table]/[id]\n    http://..../[app]/default/data/delete/[table]/[id]\n    http://..../[app]/default/data/select/[table]\n    http://..../[app]/default/data/search/[table]\n    but URLs must be signed, i.e. linked with\n      A(\'table\',_href=URL(\'data/tables\',user_signature=True))\n    or with the signed load operator\n      LOAD(\'default\',\'data.load\',args=\'tables\',ajax=True,user_signature=True)\n    """\n    return dict(form=crud())\n\n#def enter_info():\n\n#     form = SQLFORM.factory(\n#         Field(\'First_Name\'),\n#         Field(\'Last_Name\'),\n#         Field(\'Keywords\'),\n#         Field(\'Title\'),\n#         Field(\'Company\'),\n#         Field(\'School\'))\n         #Field(\'Submit\',\'submit\'))\n#    if form.process().accepted:\n#        response.flash = \'form accepted\'\n#    elif form.errors:\n#        response.flash = \'form has errors\'\n    \n    #form=FORM(\'First Name:\',INPUT(_name=\'fname\',_id=\'fname\'),\n     #         \'Last Name:\',INPUT(_name=\'lname\',_id=\'lname\'),\n      #        \'Keywords:\',INPUT(_name=\'keywords\',_id=\'keywords\'),\n       #       \'Title:\',INPUT(_name=\'title\',_id=\'title\'),\n       #       \'Company:\',INPUT(_name=\'company\',_id=\'company\'),\n       #       \'School:\',INPUT(_name=\'school\',_id=\'school\'),\n              \n        #      INPUT(_type=\'submit\',_value=\'Submit\',_id=\'submit\'))\n    #if form.accepts(request,session):\n    #    response.flash = \'form accepted\'\n    #    redirect(URL(r=request,f=\'search\',vars=request.vars))\n#    return dict(form=form\n    \ndef enter_info():\n    \n    form = SQLFORM.factory(\n       Field(\'First_Name\'),\n       Field(\'Last_Name\'),\n       Field(\'Keywords\'),\n       Field(\'Title\'),\n       Field(\'Company\'),\n       Field(\'School\'),\n       Field(\'File_Name\',requires=IS_NOT_EMPTY()),\n       Field(\'Country\',requires=IS_IN_SET(country),default=\'India\'),\n       Field(\'Industry\',requires=IS_IN_SET(industries,multiple=\'multiple\'),default=\'All Industries\'),\n       Field(\'Seniority_Levels\',requires=IS_IN_SET(seniority,multiple=\'multiple\'),default=\'All Seniority Levels\'))\n    \n    if form.process().accepted:\n        response.flash = \'form accepted\'\n        redirect(URL(r=request,f=\'search\',vars=request.vars))\n    #    session.your_name = form.vars.your_name\n     #   session.filename = form.vars.your_image\n    elif form.errors:\n        response.flash = \'form has errors\'\n    return dict(form=form)\n    \n\ndef search():\n    import mechanize\n    import cookielib\n    import html2text\n    from bs4 import BeautifulSoup\n    \n    ii=[]\n    # Browser    \n    br = mechanize.Browser()\n\n    # Cookie Jar\n    cj = cookielib.LWPCookieJar()\n    br.set_cookiejar(cj)\n\n    # Browser options\n    br.set_handle_equiv(True)\n    br.set_handle_gzip(True)\n    br.set_handle_redirect(True)\n    br.set_handle_referer(True)\n    br.set_handle_robots(False)\n\n    # Follows refresh 0 but not hangs on refresh > 0\n    br.set_handle_refresh(mechanize._http.HTTPRefreshProcessor(), max_time=1)\n\n    # User-Agent (this is cheating, ok?)\n    br.addheaders = [(\'User-agent\', \'Mozilla/5.0 (X11; U; Linux i686; en-US; rv:1.9.0.1) Gecko/2008071615 Fedora/3.0.1-1.fc9 Firefox/3.0.1\')]\n\n\n    # The site we will navigate into, handling it\'s session    \n    br.open(\'https://www.linkedin.com\')\n\n    # Select the first (index zero) form\n    br.select_form(nr=0)\n\n    #for b in br.forms():\n    #    print b\n\n    # User credentials\n    br.form[\'session_key\'] = \'mrigeshgaurav@gmail.com\'\n    br.form[\'session_password\'] = \'modeln@1234\'\n\n\n    # Login\n    br.submit()\n\n    br.open(\'http://www.linkedin.com/search?trk=advsrch\')\n    br.select_form(nr=1)\n    #print br\n\n    if request.vars.Last_Name:\n        br["lname"]=request.vars.Last_Name\n\n    if request.vars.First_Name:\n        br["fname"]=request.vars.First_Name\n    \n    if request.vars.Keywords:\n        br["keywords"]=request.vars.Keywords\n\n    if request.vars.Company:\n        br["company"]=request.vars.Company\n\n    if request.vars.School:\n        br["school"]=request.vars.School\n\n    if request.vars.Title:\n        br["title"]=request.vars.Title\n        \n    if request.vars.Country:\n        br["countryCode"]=[countryid[country.index(request.vars.Country)]]\n    \n    if request.vars.Industry and request.vars.Industry!=\'All Industries\':\n        if isinstance(request.vars.Industry,list):\n            for i in request.vars.Industry:\n                br.find_control("facet_I").items[industries.index(i)-1].selected=True\n        else:\n            br.find_control("facet_I").items[industries.index(request.vars.Industry)].selected=True\n            \n    if request.vars.Seniority_Level and request.vars.Senioirity_Level!=\'All Seniority Levels\':\n        if isinstance(request.vars.Seniority_Level,list):\n            for i in request.vars.Seniority_Level:\n                br.find_control("facet_SE").items[seniority.index(i)-1].selected=True\n        else:\n            br.find_control("facet_SE").items[seniority.index(request.vars.Seniority_Level)].selected=True\n    \n    br.submit()\n\n    view_profile=[]\n    name=[]\n    titl=[]\n    location=[]\n    industry=[]\n    current=[]\n\n    spamWriter = csv.writer(open(request.vars.File_Name+\'.csv\', \'wb\'), delimiter=\',\')\n    soup = BeautifulSoup(br.response().read())\n    spamWriter.writerow([\'NAME\',\'JOB-TITLE\',\'Current\',\'LOCATION\',\'INDUSTRY\',\'PROFLE-URL\'])\n    \n    while soup.find(\'a\',{"class" : "paginator-next"}):\n    #for i in range(1,2):\n        soup = BeautifulSoup(br.response().read())\n        view_profile=[]\n        name=[]\n        titl=[]\n        location=[]\n        industry=[]\n        current=[]\n        for k in soup.find_all(\'dl\',{"class" : "vcard-basic"}):\n            if k.find(\'dd\',{"class" : "title"}):\n                    titl.append(k.find(\'dd\',{"class" : "title"}).get_text())\n            else:\n                    titl.append(\'NONE\')\n                            \n            if k.find(\'span\',{"class" : "location"}):\n                    location.append(k.find(\'span\',{"class" : "location"}).get_text())\n            else:\n                    location.append(\'NONE\')\n            if k.find(\'span\',{"class" : "industry"}):\n                    industry.append(k.find(\'span\',{"class" : "industry"}).get_text())\n            else:\n                    industry.append(\'NONE\')\n                \n        for k in soup.find_all(\'dl\',{"class" : "vcard-expanded"}):\n            if k.find(\'span\',{"class" : "current-details more-text"}):\n                    current.append(k.find(\'span\',{"class" : "current-details more-text"}).get_text())\n            elif k.find(\'span\',{"class" : "current-details"}):\n                    current.append(k.find(\'span\',{"class" : "current-details"}).get_text())\n            else:\n                    current.append(\'NONE\')\n                \n        for l in soup.find_all(\'a\',{"title" : "View Profile"}):\n            #print l.get_text()\n            view_profile.append(\'http://www.linkedin.com\'+l.get(\'href\'))\n            name.append(l.get_text().encode(\'utf-8\'))\n        \n        for i in range(0,len(name)):\n            spamWriter.writerow([name[i][1:len(name[i])-1].encode(\'utf-8\'),titl[i],current[i],location[i][1:len(location[i])-1],industry[i][1:len(industry[i])-1],view_profile[i]])\n        \n        if soup.find(\'a\',{"class" : "paginator-next"}):\n            br.open(\'http://www.linkedin.com\'+ soup.find(\'a\',{"class" : "paginator-next"}).get(\'href\'))\n        #soup = BeautifulSoup(br.response().read())\n     \n        \n\n    #for link in soup.find_all(\'a\'):\n    #    if link.get(\'title\')==\'View Profile\':\n    #        #print(link.get(\'href\'))\n    #        #print link.get_text()\n    #        view_profile.append(\'http://www.linkedin.com\'+link.get(\'href\'))\n    #        name.append(link.get_text())\n#for l in soup.find_all("span", { "class" : "given-name" }):\n    #print l.get_text()\n\n        \n\n#    for l in soup.find_all(\'dd\',{"class" : "title"}):\n        #print l.get_text()\n#        titl.append(l.get_text())\n    \n#    for l in soup.find_all(\'span\',{"class" : "location"}):\n        #print l.get_text()\n#        location.append(l.get_text())\n\n#    for l in soup.find_all(\'span\',{"class" : "industry"}):\n        #print l.get_text()\n#        industry.append(l.get_text())\n        \n#    for l in soup.find_all(\'span\', {"class" : "current-details"}):\n#        k=l.get_text()\n#        if k[len(k)-4:len(k)]!=\'more\':\n#            current.append(k)\n        #elif(l.get["class"]==\'current-details more text\'):\n        #    current.append(l.get_text())\n    #for l in soup.find_all(\'span\',{"class" : "current-details"}):\n        #print l.get_text()\n        #current.append(l.get_text())\n\n    \n    #global filename,csv_response\n\n    #csv_response = cStringIO.StringIO()\n    \n    #spamWriter = csv.writer(csv_response, delimiter=\',\')\n    \n    #spamWriter.writerow([\'NAME\',\'JOB-TITLE\',\'COMPANY-NAME\',\'LOCATION\',\'INDUSTRY\',\'PROFLE-URL\'])\n   \n    #spamWriter = csv.writer(open(request.vars.File_Name+\'.csv\', \'wb\'), delimiter=\',\')\n    #spamWriter.writerow([\'NAME\',\'JOB-TITLE\',\'Current\',\'LOCATION\',\'INDUSTRY\',\'PROFLE-URL\'])\n    #for i in range(1,10):\n    #    spamWriter.writerow([name[i].encode(\'utf-8\'),titl[i],current[i],location[i],industry[i],view_profile[i]])\n        \n        \n    #,titl[i],current[i],location[i],industry[i],view_profile[i]\n    #response.headers[\'Content-Type\'] = \'text/csv\'\n    #response.headers[\'Content-Disposition\'] = \'attachment; filename=%s\' % request.vars.File_Name\n\n    #print view_profile\n    #print name\n    #print location\n    #print industry\n    #print titl\n    \n    return dict(view_profile=view_profile,name=name,location=location,industry=industry,titl=titl,current=current)\n\nresponse._vars=response._caller(search)\n'
p7
sS'snapshot'
p8
(dp9
S'exception'
p10
(dp11
S'__getslice__'
p12
S"<method-wrapper '__getslice__' of exceptions.UnicodeEncodeError object>"
p13
sS'encoding'
p14
S"'ascii'"
p15
sS'__str__'
p16
S"<method-wrapper '__str__' of exceptions.UnicodeEncodeError object>"
p17
sS'__reduce__'
p18
S'<built-in method __reduce__ of exceptions.UnicodeEncodeError object>'
p19
sS'__dict__'
p20
S'{}'
p21
sS'__sizeof__'
p22
S'<built-in method __sizeof__ of exceptions.UnicodeEncodeError object>'
p23
sS'__init__'
p24
S"<method-wrapper '__init__' of exceptions.UnicodeEncodeError object>"
p25
sS'__setattr__'
p26
S"<method-wrapper '__setattr__' of exceptions.UnicodeEncodeError object>"
p27
sS'__reduce_ex__'
p28
S'<built-in method __reduce_ex__ of exceptions.UnicodeEncodeError object>'
p29
sS'end'
p30
S'51'
p31
sS'__new__'
p32
S'<built-in method __new__ of type object>'
p33
sS'__format__'
p34
S'<built-in method __format__ of exceptions.UnicodeEncodeError object>'
p35
sS'__class__'
p36
S"<type 'exceptions.UnicodeEncodeError'>"
p37
sS'start'
p38
S'50'
p39
sS'__doc__'
p40
S"'Unicode encoding error.'"
p41
sS'object'
p42
S"u'Global Sales & Account Management, InMobi SmartPay\\u2122 at InMobi'"
p43
sS'__getitem__'
p44
S"<method-wrapper '__getitem__' of exceptions.UnicodeEncodeError object>"
p45
sS'__setstate__'
p46
S'<built-in method __setstate__ of exceptions.UnicodeEncodeError object>'
p47
sS'__getattribute__'
p48
S"<method-wrapper '__getattribute__' of exceptions.UnicodeEncodeError object>"
p49
sS'args'
p50
S"('ascii', u'Global Sales & Account Management, InMobi SmartPay\\u2122 at InMobi', 50, 51, 'ordinal not in range(128)')"
p51
sS'reason'
p52
S"'ordinal not in range(128)'"
p53
sS'__subclasshook__'
p54
S'<built-in method __subclasshook__ of type object>'
p55
sS'__unicode__'
p56
S'<built-in method __unicode__ of exceptions.UnicodeEncodeError object>'
p57
sS'__delattr__'
p58
S"<method-wrapper '__delattr__' of exceptions.UnicodeEncodeError object>"
p59
sS'__repr__'
p60
S"<method-wrapper '__repr__' of exceptions.UnicodeEncodeError object>"
p61
sS'__hash__'
p62
S"<method-wrapper '__hash__' of exceptions.UnicodeEncodeError object>"
p63
ssS'evalue'
p64
S"'ascii' codec can't encode character u'\\u2122' in position 50: ordinal not in range(128)"
p65
sS'request'
p66
ccopy_reg
_reconstructor
p67
(cgluon.html
BEAUTIFY
p68
c__builtin__
object
p69
NtRp70
(dp71
S'attributes'
p72
(dp73
sS'components'
p74
(lp75
g67
(cgluon.html
TABLE
p76
g69
NtRp77
(dp78
g72
(dp79
S'level'
p80
I5
ssS'parent'
p81
Nsg74
(lp82
g67
(cgluon.html
TR
p83
g69
NtRp84
(dp85
g72
(dp86
sg81
g77
sg74
(lp87
g67
(cgluon.html
TD
p88
g69
NtRp89
(dp90
g72
(dp91
S'_style'
p92
S'font-weight:bold;vertical-align:top'
p93
ssg81
g84
sg74
(lp94
S'ajax'
p95
asbag67
(g88
g69
NtRp96
(dp97
g72
(dp98
S'_valign'
p99
S'top'
p100
ssg81
g84
sg74
(lp101
S':'
asbag67
(g88
g69
NtRp102
(dp103
g72
(dp104
sg81
g84
sg74
(lp105
g67
(g68
g69
NtRp106
(dp107
g72
(dp108
g80
I5
ssg81
g102
sg74
(lp109
S'False'
p110
asbasbasbag67
(g83
g69
NtRp111
(dp112
g72
(dp113
sg81
g77
sg74
(lp114
g67
(g88
g69
NtRp115
(dp116
g72
(dp117
g92
g93
ssg81
g111
sg74
(lp118
S'application'
p119
asbag67
(g88
g69
NtRp120
(dp121
g72
(dp122
g99
g100
ssg81
g111
sg74
(lp123
S':'
asbag67
(g88
g69
NtRp124
(dp125
g72
(dp126
sg81
g111
sg74
(lp127
g67
(g68
g69
NtRp128
(dp129
g72
(dp130
g80
I5
ssg81
g124
sg74
(lp131
S'mycrawler'
p132
asbasbasbag67
(g83
g69
NtRp133
(dp134
g72
(dp135
sg81
g77
sg74
(lp136
g67
(g88
g69
NtRp137
(dp138
g72
(dp139
g92
g93
ssg81
g133
sg74
(lp140
g50
asbag67
(g88
g69
NtRp141
(dp142
g72
(dp143
g99
g100
ssg81
g133
sg74
(lp144
S':'
asbag67
(g88
g69
NtRp145
(dp146
g72
(dp147
sg81
g133
sg74
(lp148
g67
(g68
g69
NtRp149
(dp150
g72
(dp151
g80
I5
ssg81
g145
sg74
(lp152
g67
(g76
g69
NtRp153
(dp154
g72
(dp155
g80
I4
ssg81
Nsg74
(lp156
sbasbasbasbag67
(g83
g69
NtRp157
(dp158
g72
(dp159
sg81
g77
sg74
(lp160
g67
(g88
g69
NtRp161
(dp162
g72
(dp163
g92
g93
ssg81
g157
sg74
(lp164
S'body'
p165
asbag67
(g88
g69
NtRp166
(dp167
g72
(dp168
g99
g100
ssg81
g157
sg74
(lp169
S':'
asbag67
(g88
g69
NtRp170
(dp171
g72
(dp172
sg81
g157
sg74
(lp173
g67
(g68
g69
NtRp174
(dp175
g72
(dp176
g80
I5
ssg81
g170
sg74
(lp177
S'<cStringIO.StringO object at 0x05D5C920>'
p178
asbasbasbag67
(g83
g69
NtRp179
(dp180
g72
(dp181
sg81
g77
sg74
(lp182
g67
(g88
g69
NtRp183
(dp184
g72
(dp185
g92
g93
ssg81
g179
sg74
(lp186
S'client'
p187
asbag67
(g88
g69
NtRp188
(dp189
g72
(dp190
g99
g100
ssg81
g179
sg74
(lp191
S':'
asbag67
(g88
g69
NtRp192
(dp193
g72
(dp194
sg81
g179
sg74
(lp195
g67
(g68
g69
NtRp196
(dp197
g72
(dp198
g80
I5
ssg81
g192
sg74
(lp199
S'127.0.0.1'
p200
asbasbasbag67
(g83
g69
NtRp201
(dp202
g72
(dp203
sg81
g77
sg74
(lp204
g67
(g88
g69
NtRp205
(dp206
g72
(dp207
g92
g93
ssg81
g201
sg74
(lp208
S'controller'
p209
asbag67
(g88
g69
NtRp210
(dp211
g72
(dp212
g99
g100
ssg81
g201
sg74
(lp213
S':'
asbag67
(g88
g69
NtRp214
(dp215
g72
(dp216
sg81
g201
sg74
(lp217
g67
(g68
g69
NtRp218
(dp219
g72
(dp220
g80
I5
ssg81
g214
sg74
(lp221
S'default'
p222
asbasbasbag67
(g83
g69
NtRp223
(dp224
g72
(dp225
sg81
g77
sg74
(lp226
g67
(g88
g69
NtRp227
(dp228
g72
(dp229
g92
g93
ssg81
g223
sg74
(lp230
S'cookies'
p231
asbag67
(g88
g69
NtRp232
(dp233
g72
(dp234
g99
g100
ssg81
g223
sg74
(lp235
S':'
asbag67
(g88
g69
NtRp236
(dp237
g72
(dp238
sg81
g223
sg74
(lp239
g67
(g68
g69
NtRp240
(dp241
g72
(dp242
g80
I5
ssg81
g236
sg74
(lp243
g67
(g76
g69
NtRp244
(dp245
g72
(dp246
g80
I4
ssg81
Nsg74
(lp247
g67
(g83
g69
NtRp248
(dp249
g72
(dp250
sg81
g244
sg74
(lp251
g67
(g88
g69
NtRp252
(dp253
g72
(dp254
g92
g93
ssg81
g248
sg74
(lp255
S'session_id_admin'
p256
asbag67
(g88
g69
NtRp257
(dp258
g72
(dp259
g99
g100
ssg81
g248
sg74
(lp260
S':'
asbag67
(g88
g69
NtRp261
(dp262
g72
(dp263
sg81
g248
sg74
(lp264
g67
(g68
g69
NtRp265
(dp266
g72
(dp267
g80
I4
ssg81
g261
sg74
(lp268
g67
(g76
g69
NtRp269
(dp270
g72
(dp271
g80
I3
ssg81
Nsg74
(lp272
g67
(g83
g69
NtRp273
(dp274
g72
(dp275
sg81
g269
sg74
(lp276
g67
(g88
g69
NtRp277
(dp278
g72
(dp279
g92
g93
ssg81
g273
sg74
(lp280
S'comment'
p281
asbag67
(g88
g69
NtRp282
(dp283
g72
(dp284
g99
g100
ssg81
g273
sg74
(lp285
S':'
asbag67
(g88
g69
NtRp286
(dp287
g72
(dp288
sg81
g273
sg74
(lp289
g67
(g68
g69
NtRp290
(dp291
g72
(dp292
g80
I3
ssg81
g286
sg74
(lp293
S''
asbasbasbag67
(g83
g69
NtRp294
(dp295
g72
(dp296
sg81
g269
sg74
(lp297
g67
(g88
g69
NtRp298
(dp299
g72
(dp300
g92
g93
ssg81
g294
sg74
(lp301
S'domain'
p302
asbag67
(g88
g69
NtRp303
(dp304
g72
(dp305
g99
g100
ssg81
g294
sg74
(lp306
S':'
asbag67
(g88
g69
NtRp307
(dp308
g72
(dp309
sg81
g294
sg74
(lp310
g67
(g68
g69
NtRp311
(dp312
g72
(dp313
g80
I3
ssg81
g307
sg74
(lp314
S''
asbasbasbag67
(g83
g69
NtRp315
(dp316
g72
(dp317
sg81
g269
sg74
(lp318
g67
(g88
g69
NtRp319
(dp320
g72
(dp321
g92
g93
ssg81
g315
sg74
(lp322
S'expires'
p323
asbag67
(g88
g69
NtRp324
(dp325
g72
(dp326
g99
g100
ssg81
g315
sg74
(lp327
S':'
asbag67
(g88
g69
NtRp328
(dp329
g72
(dp330
sg81
g315
sg74
(lp331
g67
(g68
g69
NtRp332
(dp333
g72
(dp334
g80
I3
ssg81
g328
sg74
(lp335
S''
asbasbasbag67
(g83
g69
NtRp336
(dp337
g72
(dp338
sg81
g269
sg74
(lp339
g67
(g88
g69
NtRp340
(dp341
g72
(dp342
g92
g93
ssg81
g336
sg74
(lp343
S'httponly'
p344
asbag67
(g88
g69
NtRp345
(dp346
g72
(dp347
g99
g100
ssg81
g336
sg74
(lp348
S':'
asbag67
(g88
g69
NtRp349
(dp350
g72
(dp351
sg81
g336
sg74
(lp352
g67
(g68
g69
NtRp353
(dp354
g72
(dp355
g80
I3
ssg81
g349
sg74
(lp356
S''
asbasbasbag67
(g83
g69
NtRp357
(dp358
g72
(dp359
sg81
g269
sg74
(lp360
g67
(g88
g69
NtRp361
(dp362
g72
(dp363
g92
g93
ssg81
g357
sg74
(lp364
S'max-age'
p365
asbag67
(g88
g69
NtRp366
(dp367
g72
(dp368
g99
g100
ssg81
g357
sg74
(lp369
S':'
asbag67
(g88
g69
NtRp370
(dp371
g72
(dp372
sg81
g357
sg74
(lp373
g67
(g68
g69
NtRp374
(dp375
g72
(dp376
g80
I3
ssg81
g370
sg74
(lp377
S''
asbasbasbag67
(g83
g69
NtRp378
(dp379
g72
(dp380
sg81
g269
sg74
(lp381
g67
(g88
g69
NtRp382
(dp383
g72
(dp384
g92
g93
ssg81
g378
sg74
(lp385
S'path'
p386
asbag67
(g88
g69
NtRp387
(dp388
g72
(dp389
g99
g100
ssg81
g378
sg74
(lp390
S':'
asbag67
(g88
g69
NtRp391
(dp392
g72
(dp393
sg81
g378
sg74
(lp394
g67
(g68
g69
NtRp395
(dp396
g72
(dp397
g80
I3
ssg81
g391
sg74
(lp398
S''
asbasbasbag67
(g83
g69
NtRp399
(dp400
g72
(dp401
sg81
g269
sg74
(lp402
g67
(g88
g69
NtRp403
(dp404
g72
(dp405
g92
g93
ssg81
g399
sg74
(lp406
S'secure'
p407
asbag67
(g88
g69
NtRp408
(dp409
g72
(dp410
g99
g100
ssg81
g399
sg74
(lp411
S':'
asbag67
(g88
g69
NtRp412
(dp413
g72
(dp414
sg81
g399
sg74
(lp415
g67
(g68
g69
NtRp416
(dp417
g72
(dp418
g80
I3
ssg81
g412
sg74
(lp419
S''
asbasbasbag67
(g83
g69
NtRp420
(dp421
g72
(dp422
sg81
g269
sg74
(lp423
g67
(g88
g69
NtRp424
(dp425
g72
(dp426
g92
g93
ssg81
g420
sg74
(lp427
S'version'
p428
asbag67
(g88
g69
NtRp429
(dp430
g72
(dp431
g99
g100
ssg81
g420
sg74
(lp432
S':'
asbag67
(g88
g69
NtRp433
(dp434
g72
(dp435
sg81
g420
sg74
(lp436
g67
(g68
g69
NtRp437
(dp438
g72
(dp439
g80
I3
ssg81
g433
sg74
(lp440
S''
asbasbasbasbasbasbasbag67
(g83
g69
NtRp441
(dp442
g72
(dp443
sg81
g244
sg74
(lp444
g67
(g88
g69
NtRp445
(dp446
g72
(dp447
g92
g93
ssg81
g441
sg74
(lp448
S'session_id_crawler'
p449
asbag67
(g88
g69
NtRp450
(dp451
g72
(dp452
g99
g100
ssg81
g441
sg74
(lp453
S':'
asbag67
(g88
g69
NtRp454
(dp455
g72
(dp456
sg81
g441
sg74
(lp457
g67
(g68
g69
NtRp458
(dp459
g72
(dp460
g80
I4
ssg81
g454
sg74
(lp461
g67
(g76
g69
NtRp462
(dp463
g72
(dp464
g80
I3
ssg81
Nsg74
(lp465
g67
(g83
g69
NtRp466
(dp467
g72
(dp468
sg81
g462
sg74
(lp469
g67
(g88
g69
NtRp470
(dp471
g72
(dp472
g92
g93
ssg81
g466
sg74
(lp473
g281
asbag67
(g88
g69
NtRp474
(dp475
g72
(dp476
g99
g100
ssg81
g466
sg74
(lp477
S':'
asbag67
(g88
g69
NtRp478
(dp479
g72
(dp480
sg81
g466
sg74
(lp481
g67
(g68
g69
NtRp482
(dp483
g72
(dp484
g80
I3
ssg81
g478
sg74
(lp485
S''
asbasbasbag67
(g83
g69
NtRp486
(dp487
g72
(dp488
sg81
g462
sg74
(lp489
g67
(g88
g69
NtRp490
(dp491
g72
(dp492
g92
g93
ssg81
g486
sg74
(lp493
g302
asbag67
(g88
g69
NtRp494
(dp495
g72
(dp496
g99
g100
ssg81
g486
sg74
(lp497
S':'
asbag67
(g88
g69
NtRp498
(dp499
g72
(dp500
sg81
g486
sg74
(lp501
g67
(g68
g69
NtRp502
(dp503
g72
(dp504
g80
I3
ssg81
g498
sg74
(lp505
S''
asbasbasbag67
(g83
g69
NtRp506
(dp507
g72
(dp508
sg81
g462
sg74
(lp509
g67
(g88
g69
NtRp510
(dp511
g72
(dp512
g92
g93
ssg81
g506
sg74
(lp513
g323
asbag67
(g88
g69
NtRp514
(dp515
g72
(dp516
g99
g100
ssg81
g506
sg74
(lp517
S':'
asbag67
(g88
g69
NtRp518
(dp519
g72
(dp520
sg81
g506
sg74
(lp521
g67
(g68
g69
NtRp522
(dp523
g72
(dp524
g80
I3
ssg81
g518
sg74
(lp525
S''
asbasbasbag67
(g83
g69
NtRp526
(dp527
g72
(dp528
sg81
g462
sg74
(lp529
g67
(g88
g69
NtRp530
(dp531
g72
(dp532
g92
g93
ssg81
g526
sg74
(lp533
g344
asbag67
(g88
g69
NtRp534
(dp535
g72
(dp536
g99
g100
ssg81
g526
sg74
(lp537
S':'
asbag67
(g88
g69
NtRp538
(dp539
g72
(dp540
sg81
g526
sg74
(lp541
g67
(g68
g69
NtRp542
(dp543
g72
(dp544
g80
I3
ssg81
g538
sg74
(lp545
S''
asbasbasbag67
(g83
g69
NtRp546
(dp547
g72
(dp548
sg81
g462
sg74
(lp549
g67
(g88
g69
NtRp550
(dp551
g72
(dp552
g92
g93
ssg81
g546
sg74
(lp553
g365
asbag67
(g88
g69
NtRp554
(dp555
g72
(dp556
g99
g100
ssg81
g546
sg74
(lp557
S':'
asbag67
(g88
g69
NtRp558
(dp559
g72
(dp560
sg81
g546
sg74
(lp561
g67
(g68
g69
NtRp562
(dp563
g72
(dp564
g80
I3
ssg81
g558
sg74
(lp565
S''
asbasbasbag67
(g83
g69
NtRp566
(dp567
g72
(dp568
sg81
g462
sg74
(lp569
g67
(g88
g69
NtRp570
(dp571
g72
(dp572
g92
g93
ssg81
g566
sg74
(lp573
g386
asbag67
(g88
g69
NtRp574
(dp575
g72
(dp576
g99
g100
ssg81
g566
sg74
(lp577
S':'
asbag67
(g88
g69
NtRp578
(dp579
g72
(dp580
sg81
g566
sg74
(lp581
g67
(g68
g69
NtRp582
(dp583
g72
(dp584
g80
I3
ssg81
g578
sg74
(lp585
S''
asbasbasbag67
(g83
g69
NtRp586
(dp587
g72
(dp588
sg81
g462
sg74
(lp589
g67
(g88
g69
NtRp590
(dp591
g72
(dp592
g92
g93
ssg81
g586
sg74
(lp593
g407
asbag67
(g88
g69
NtRp594
(dp595
g72
(dp596
g99
g100
ssg81
g586
sg74
(lp597
S':'
asbag67
(g88
g69
NtRp598
(dp599
g72
(dp600
sg81
g586
sg74
(lp601
g67
(g68
g69
NtRp602
(dp603
g72
(dp604
g80
I3
ssg81
g598
sg74
(lp605
S''
asbasbasbag67
(g83
g69
NtRp606
(dp607
g72
(dp608
sg81
g462
sg74
(lp609
g67
(g88
g69
NtRp610
(dp611
g72
(dp612
g92
g93
ssg81
g606
sg74
(lp613
g428
asbag67
(g88
g69
NtRp614
(dp615
g72
(dp616
g99
g100
ssg81
g606
sg74
(lp617
S':'
asbag67
(g88
g69
NtRp618
(dp619
g72
(dp620
sg81
g606
sg74
(lp621
g67
(g68
g69
NtRp622
(dp623
g72
(dp624
g80
I3
ssg81
g618
sg74
(lp625
S''
asbasbasbasbasbasbasbag67
(g83
g69
NtRp626
(dp627
g72
(dp628
sg81
g244
sg74
(lp629
g67
(g88
g69
NtRp630
(dp631
g72
(dp632
g92
g93
ssg81
g626
sg74
(lp633
S'session_id_mycrawler'
p634
asbag67
(g88
g69
NtRp635
(dp636
g72
(dp637
g99
g100
ssg81
g626
sg74
(lp638
S':'
asbag67
(g88
g69
NtRp639
(dp640
g72
(dp641
sg81
g626
sg74
(lp642
g67
(g68
g69
NtRp643
(dp644
g72
(dp645
g80
I4
ssg81
g639
sg74
(lp646
g67
(g76
g69
NtRp647
(dp648
g72
(dp649
g80
I3
ssg81
Nsg74
(lp650
g67
(g83
g69
NtRp651
(dp652
g72
(dp653
sg81
g647
sg74
(lp654
g67
(g88
g69
NtRp655
(dp656
g72
(dp657
g92
g93
ssg81
g651
sg74
(lp658
g281
asbag67
(g88
g69
NtRp659
(dp660
g72
(dp661
g99
g100
ssg81
g651
sg74
(lp662
S':'
asbag67
(g88
g69
NtRp663
(dp664
g72
(dp665
sg81
g651
sg74
(lp666
g67
(g68
g69
NtRp667
(dp668
g72
(dp669
g80
I3
ssg81
g663
sg74
(lp670
S''
asbasbasbag67
(g83
g69
NtRp671
(dp672
g72
(dp673
sg81
g647
sg74
(lp674
g67
(g88
g69
NtRp675
(dp676
g72
(dp677
g92
g93
ssg81
g671
sg74
(lp678
g302
asbag67
(g88
g69
NtRp679
(dp680
g72
(dp681
g99
g100
ssg81
g671
sg74
(lp682
S':'
asbag67
(g88
g69
NtRp683
(dp684
g72
(dp685
sg81
g671
sg74
(lp686
g67
(g68
g69
NtRp687
(dp688
g72
(dp689
g80
I3
ssg81
g683
sg74
(lp690
S''
asbasbasbag67
(g83
g69
NtRp691
(dp692
g72
(dp693
sg81
g647
sg74
(lp694
g67
(g88
g69
NtRp695
(dp696
g72
(dp697
g92
g93
ssg81
g691
sg74
(lp698
g323
asbag67
(g88
g69
NtRp699
(dp700
g72
(dp701
g99
g100
ssg81
g691
sg74
(lp702
S':'
asbag67
(g88
g69
NtRp703
(dp704
g72
(dp705
sg81
g691
sg74
(lp706
g67
(g68
g69
NtRp707
(dp708
g72
(dp709
g80
I3
ssg81
g703
sg74
(lp710
S''
asbasbasbag67
(g83
g69
NtRp711
(dp712
g72
(dp713
sg81
g647
sg74
(lp714
g67
(g88
g69
NtRp715
(dp716
g72
(dp717
g92
g93
ssg81
g711
sg74
(lp718
g344
asbag67
(g88
g69
NtRp719
(dp720
g72
(dp721
g99
g100
ssg81
g711
sg74
(lp722
S':'
asbag67
(g88
g69
NtRp723
(dp724
g72
(dp725
sg81
g711
sg74
(lp726
g67
(g68
g69
NtRp727
(dp728
g72
(dp729
g80
I3
ssg81
g723
sg74
(lp730
S''
asbasbasbag67
(g83
g69
NtRp731
(dp732
g72
(dp733
sg81
g647
sg74
(lp734
g67
(g88
g69
NtRp735
(dp736
g72
(dp737
g92
g93
ssg81
g731
sg74
(lp738
g365
asbag67
(g88
g69
NtRp739
(dp740
g72
(dp741
g99
g100
ssg81
g731
sg74
(lp742
S':'
asbag67
(g88
g69
NtRp743
(dp744
g72
(dp745
sg81
g731
sg74
(lp746
g67
(g68
g69
NtRp747
(dp748
g72
(dp749
g80
I3
ssg81
g743
sg74
(lp750
S''
asbasbasbag67
(g83
g69
NtRp751
(dp752
g72
(dp753
sg81
g647
sg74
(lp754
g67
(g88
g69
NtRp755
(dp756
g72
(dp757
g92
g93
ssg81
g751
sg74
(lp758
g386
asbag67
(g88
g69
NtRp759
(dp760
g72
(dp761
g99
g100
ssg81
g751
sg74
(lp762
S':'
asbag67
(g88
g69
NtRp763
(dp764
g72
(dp765
sg81
g751
sg74
(lp766
g67
(g68
g69
NtRp767
(dp768
g72
(dp769
g80
I3
ssg81
g763
sg74
(lp770
S''
asbasbasbag67
(g83
g69
NtRp771
(dp772
g72
(dp773
sg81
g647
sg74
(lp774
g67
(g88
g69
NtRp775
(dp776
g72
(dp777
g92
g93
ssg81
g771
sg74
(lp778
g407
asbag67
(g88
g69
NtRp779
(dp780
g72
(dp781
g99
g100
ssg81
g771
sg74
(lp782
S':'
asbag67
(g88
g69
NtRp783
(dp784
g72
(dp785
sg81
g771
sg74
(lp786
g67
(g68
g69
NtRp787
(dp788
g72
(dp789
g80
I3
ssg81
g783
sg74
(lp790
S''
asbasbasbag67
(g83
g69
NtRp791
(dp792
g72
(dp793
sg81
g647
sg74
(lp794
g67
(g88
g69
NtRp795
(dp796
g72
(dp797
g92
g93
ssg81
g791
sg74
(lp798
g428
asbag67
(g88
g69
NtRp799
(dp800
g72
(dp801
g99
g100
ssg81
g791
sg74
(lp802
S':'
asbag67
(g88
g69
NtRp803
(dp804
g72
(dp805
sg81
g791
sg74
(lp806
g67
(g68
g69
NtRp807
(dp808
g72
(dp809
g80
I3
ssg81
g803
sg74
(lp810
S''
asbasbasbasbasbasbasbag67
(g83
g69
NtRp811
(dp812
g72
(dp813
sg81
g244
sg74
(lp814
g67
(g88
g69
NtRp815
(dp816
g72
(dp817
g92
g93
ssg81
g811
sg74
(lp818
S'session_id_mycrawler_2'
p819
asbag67
(g88
g69
NtRp820
(dp821
g72
(dp822
g99
g100
ssg81
g811
sg74
(lp823
S':'
asbag67
(g88
g69
NtRp824
(dp825
g72
(dp826
sg81
g811
sg74
(lp827
g67
(g68
g69
NtRp828
(dp829
g72
(dp830
g80
I4
ssg81
g824
sg74
(lp831
g67
(g76
g69
NtRp832
(dp833
g72
(dp834
g80
I3
ssg81
Nsg74
(lp835
g67
(g83
g69
NtRp836
(dp837
g72
(dp838
sg81
g832
sg74
(lp839
g67
(g88
g69
NtRp840
(dp841
g72
(dp842
g92
g93
ssg81
g836
sg74
(lp843
g281
asbag67
(g88
g69
NtRp844
(dp845
g72
(dp846
g99
g100
ssg81
g836
sg74
(lp847
S':'
asbag67
(g88
g69
NtRp848
(dp849
g72
(dp850
sg81
g836
sg74
(lp851
g67
(g68
g69
NtRp852
(dp853
g72
(dp854
g80
I3
ssg81
g848
sg74
(lp855
S''
asbasbasbag67
(g83
g69
NtRp856
(dp857
g72
(dp858
sg81
g832
sg74
(lp859
g67
(g88
g69
NtRp860
(dp861
g72
(dp862
g92
g93
ssg81
g856
sg74
(lp863
g302
asbag67
(g88
g69
NtRp864
(dp865
g72
(dp866
g99
g100
ssg81
g856
sg74
(lp867
S':'
asbag67
(g88
g69
NtRp868
(dp869
g72
(dp870
sg81
g856
sg74
(lp871
g67
(g68
g69
NtRp872
(dp873
g72
(dp874
g80
I3
ssg81
g868
sg74
(lp875
S''
asbasbasbag67
(g83
g69
NtRp876
(dp877
g72
(dp878
sg81
g832
sg74
(lp879
g67
(g88
g69
NtRp880
(dp881
g72
(dp882
g92
g93
ssg81
g876
sg74
(lp883
g323
asbag67
(g88
g69
NtRp884
(dp885
g72
(dp886
g99
g100
ssg81
g876
sg74
(lp887
S':'
asbag67
(g88
g69
NtRp888
(dp889
g72
(dp890
sg81
g876
sg74
(lp891
g67
(g68
g69
NtRp892
(dp893
g72
(dp894
g80
I3
ssg81
g888
sg74
(lp895
S''
asbasbasbag67
(g83
g69
NtRp896
(dp897
g72
(dp898
sg81
g832
sg74
(lp899
g67
(g88
g69
NtRp900
(dp901
g72
(dp902
g92
g93
ssg81
g896
sg74
(lp903
g344
asbag67
(g88
g69
NtRp904
(dp905
g72
(dp906
g99
g100
ssg81
g896
sg74
(lp907
S':'
asbag67
(g88
g69
NtRp908
(dp909
g72
(dp910
sg81
g896
sg74
(lp911
g67
(g68
g69
NtRp912
(dp913
g72
(dp914
g80
I3
ssg81
g908
sg74
(lp915
S''
asbasbasbag67
(g83
g69
NtRp916
(dp917
g72
(dp918
sg81
g832
sg74
(lp919
g67
(g88
g69
NtRp920
(dp921
g72
(dp922
g92
g93
ssg81
g916
sg74
(lp923
g365
asbag67
(g88
g69
NtRp924
(dp925
g72
(dp926
g99
g100
ssg81
g916
sg74
(lp927
S':'
asbag67
(g88
g69
NtRp928
(dp929
g72
(dp930
sg81
g916
sg74
(lp931
g67
(g68
g69
NtRp932
(dp933
g72
(dp934
g80
I3
ssg81
g928
sg74
(lp935
S''
asbasbasbag67
(g83
g69
NtRp936
(dp937
g72
(dp938
sg81
g832
sg74
(lp939
g67
(g88
g69
NtRp940
(dp941
g72
(dp942
g92
g93
ssg81
g936
sg74
(lp943
g386
asbag67
(g88
g69
NtRp944
(dp945
g72
(dp946
g99
g100
ssg81
g936
sg74
(lp947
S':'
asbag67
(g88
g69
NtRp948
(dp949
g72
(dp950
sg81
g936
sg74
(lp951
g67
(g68
g69
NtRp952
(dp953
g72
(dp954
g80
I3
ssg81
g948
sg74
(lp955
S''
asbasbasbag67
(g83
g69
NtRp956
(dp957
g72
(dp958
sg81
g832
sg74
(lp959
g67
(g88
g69
NtRp960
(dp961
g72
(dp962
g92
g93
ssg81
g956
sg74
(lp963
g407
asbag67
(g88
g69
NtRp964
(dp965
g72
(dp966
g99
g100
ssg81
g956
sg74
(lp967
S':'
asbag67
(g88
g69
NtRp968
(dp969
g72
(dp970
sg81
g956
sg74
(lp971
g67
(g68
g69
NtRp972
(dp973
g72
(dp974
g80
I3
ssg81
g968
sg74
(lp975
S''
asbasbasbag67
(g83
g69
NtRp976
(dp977
g72
(dp978
sg81
g832
sg74
(lp979
g67
(g88
g69
NtRp980
(dp981
g72
(dp982
g92
g93
ssg81
g976
sg74
(lp983
g428
asbag67
(g88
g69
NtRp984
(dp985
g72
(dp986
g99
g100
ssg81
g976
sg74
(lp987
S':'
asbag67
(g88
g69
NtRp988
(dp989
g72
(dp990
sg81
g976
sg74
(lp991
g67
(g68
g69
NtRp992
(dp993
g72
(dp994
g80
I3
ssg81
g988
sg74
(lp995
S''
asbasbasbasbasbasbasbag67
(g83
g69
NtRp996
(dp997
g72
(dp998
sg81
g244
sg74
(lp999
g67
(g88
g69
NtRp1000
(dp1001
g72
(dp1002
g92
g93
ssg81
g996
sg74
(lp1003
S'session_id_welcome'
p1004
asbag67
(g88
g69
NtRp1005
(dp1006
g72
(dp1007
g99
g100
ssg81
g996
sg74
(lp1008
S':'
asbag67
(g88
g69
NtRp1009
(dp1010
g72
(dp1011
sg81
g996
sg74
(lp1012
g67
(g68
g69
NtRp1013
(dp1014
g72
(dp1015
g80
I4
ssg81
g1009
sg74
(lp1016
g67
(g76
g69
NtRp1017
(dp1018
g72
(dp1019
g80
I3
ssg81
Nsg74
(lp1020
g67
(g83
g69
NtRp1021
(dp1022
g72
(dp1023
sg81
g1017
sg74
(lp1024
g67
(g88
g69
NtRp1025
(dp1026
g72
(dp1027
g92
g93
ssg81
g1021
sg74
(lp1028
g281
asbag67
(g88
g69
NtRp1029
(dp1030
g72
(dp1031
g99
g100
ssg81
g1021
sg74
(lp1032
S':'
asbag67
(g88
g69
NtRp1033
(dp1034
g72
(dp1035
sg81
g1021
sg74
(lp1036
g67
(g68
g69
NtRp1037
(dp1038
g72
(dp1039
g80
I3
ssg81
g1033
sg74
(lp1040
S''
asbasbasbag67
(g83
g69
NtRp1041
(dp1042
g72
(dp1043
sg81
g1017
sg74
(lp1044
g67
(g88
g69
NtRp1045
(dp1046
g72
(dp1047
g92
g93
ssg81
g1041
sg74
(lp1048
g302
asbag67
(g88
g69
NtRp1049
(dp1050
g72
(dp1051
g99
g100
ssg81
g1041
sg74
(lp1052
S':'
asbag67
(g88
g69
NtRp1053
(dp1054
g72
(dp1055
sg81
g1041
sg74
(lp1056
g67
(g68
g69
NtRp1057
(dp1058
g72
(dp1059
g80
I3
ssg81
g1053
sg74
(lp1060
S''
asbasbasbag67
(g83
g69
NtRp1061
(dp1062
g72
(dp1063
sg81
g1017
sg74
(lp1064
g67
(g88
g69
NtRp1065
(dp1066
g72
(dp1067
g92
g93
ssg81
g1061
sg74
(lp1068
g323
asbag67
(g88
g69
NtRp1069
(dp1070
g72
(dp1071
g99
g100
ssg81
g1061
sg74
(lp1072
S':'
asbag67
(g88
g69
NtRp1073
(dp1074
g72
(dp1075
sg81
g1061
sg74
(lp1076
g67
(g68
g69
NtRp1077
(dp1078
g72
(dp1079
g80
I3
ssg81
g1073
sg74
(lp1080
S''
asbasbasbag67
(g83
g69
NtRp1081
(dp1082
g72
(dp1083
sg81
g1017
sg74
(lp1084
g67
(g88
g69
NtRp1085
(dp1086
g72
(dp1087
g92
g93
ssg81
g1081
sg74
(lp1088
g344
asbag67
(g88
g69
NtRp1089
(dp1090
g72
(dp1091
g99
g100
ssg81
g1081
sg74
(lp1092
S':'
asbag67
(g88
g69
NtRp1093
(dp1094
g72
(dp1095
sg81
g1081
sg74
(lp1096
g67
(g68
g69
NtRp1097
(dp1098
g72
(dp1099
g80
I3
ssg81
g1093
sg74
(lp1100
S''
asbasbasbag67
(g83
g69
NtRp1101
(dp1102
g72
(dp1103
sg81
g1017
sg74
(lp1104
g67
(g88
g69
NtRp1105
(dp1106
g72
(dp1107
g92
g93
ssg81
g1101
sg74
(lp1108
g365
asbag67
(g88
g69
NtRp1109
(dp1110
g72
(dp1111
g99
g100
ssg81
g1101
sg74
(lp1112
S':'
asbag67
(g88
g69
NtRp1113
(dp1114
g72
(dp1115
sg81
g1101
sg74
(lp1116
g67
(g68
g69
NtRp1117
(dp1118
g72
(dp1119
g80
I3
ssg81
g1113
sg74
(lp1120
S''
asbasbasbag67
(g83
g69
NtRp1121
(dp1122
g72
(dp1123
sg81
g1017
sg74
(lp1124
g67
(g88
g69
NtRp1125
(dp1126
g72
(dp1127
g92
g93
ssg81
g1121
sg74
(lp1128
g386
asbag67
(g88
g69
NtRp1129
(dp1130
g72
(dp1131
g99
g100
ssg81
g1121
sg74
(lp1132
S':'
asbag67
(g88
g69
NtRp1133
(dp1134
g72
(dp1135
sg81
g1121
sg74
(lp1136
g67
(g68
g69
NtRp1137
(dp1138
g72
(dp1139
g80
I3
ssg81
g1133
sg74
(lp1140
S''
asbasbasbag67
(g83
g69
NtRp1141
(dp1142
g72
(dp1143
sg81
g1017
sg74
(lp1144
g67
(g88
g69
NtRp1145
(dp1146
g72
(dp1147
g92
g93
ssg81
g1141
sg74
(lp1148
g407
asbag67
(g88
g69
NtRp1149
(dp1150
g72
(dp1151
g99
g100
ssg81
g1141
sg74
(lp1152
S':'
asbag67
(g88
g69
NtRp1153
(dp1154
g72
(dp1155
sg81
g1141
sg74
(lp1156
g67
(g68
g69
NtRp1157
(dp1158
g72
(dp1159
g80
I3
ssg81
g1153
sg74
(lp1160
S''
asbasbasbag67
(g83
g69
NtRp1161
(dp1162
g72
(dp1163
sg81
g1017
sg74
(lp1164
g67
(g88
g69
NtRp1165
(dp1166
g72
(dp1167
g92
g93
ssg81
g1161
sg74
(lp1168
g428
asbag67
(g88
g69
NtRp1169
(dp1170
g72
(dp1171
g99
g100
ssg81
g1161
sg74
(lp1172
S':'
asbag67
(g88
g69
NtRp1173
(dp1174
g72
(dp1175
sg81
g1161
sg74
(lp1176
g67
(g68
g69
NtRp1177
(dp1178
g72
(dp1179
g80
I3
ssg81
g1173
sg74
(lp1180
S''
asbasbasbasbasbasbasbasbasbasbasbag67
(g83
g69
NtRp1181
(dp1182
g72
(dp1183
sg81
g77
sg74
(lp1184
g67
(g88
g69
NtRp1185
(dp1186
g72
(dp1187
g92
g93
ssg81
g1181
sg74
(lp1188
S'env'
p1189
asbag67
(g88
g69
NtRp1190
(dp1191
g72
(dp1192
g99
g100
ssg81
g1181
sg74
(lp1193
S':'
asbag67
(g88
g69
NtRp1194
(dp1195
g72
(dp1196
sg81
g1181
sg74
(lp1197
g67
(g68
g69
NtRp1198
(dp1199
g72
(dp1200
g80
I5
ssg81
g1194
sg74
(lp1201
g67
(g76
g69
NtRp1202
(dp1203
g72
(dp1204
g80
I4
ssg81
Nsg74
(lp1205
g67
(g83
g69
NtRp1206
(dp1207
g72
(dp1208
sg81
g1202
sg74
(lp1209
g67
(g88
g69
NtRp1210
(dp1211
g72
(dp1212
g92
g93
ssg81
g1206
sg74
(lp1213
S'app_folders'
p1214
asbag67
(g88
g69
NtRp1215
(dp1216
g72
(dp1217
g99
g100
ssg81
g1206
sg74
(lp1218
S':'
asbag67
(g88
g69
NtRp1219
(dp1220
g72
(dp1221
sg81
g1206
sg74
(lp1222
g67
(g68
g69
NtRp1223
(dp1224
g72
(dp1225
g80
I4
ssg81
g1219
sg74
(lp1226
S"set(['C:\\\\Documents and Settings\\\\agrover\\\\Desktop\\\\previous crawler\\\\web2py\\\\applications\\\\admin\\\\', 'C:\\\\Documents and Settings\\\\agrover\\\\Desktop\\\\previous crawler\\\\web2py\\\\applications\\\\mycrawler\\\\', 'C:\\\\Documents and Settings\\\\agrover\\\\Desktop\\\\previous crawler\\\\web2py\\\\applications\\\\welcome\\\\'])"
p1227
asbasbasbag67
(g83
g69
NtRp1228
(dp1229
g72
(dp1230
sg81
g1202
sg74
(lp1231
g67
(g88
g69
NtRp1232
(dp1233
g72
(dp1234
g92
g93
ssg81
g1228
sg74
(lp1235
S'applications_parent'
p1236
asbag67
(g88
g69
NtRp1237
(dp1238
g72
(dp1239
g99
g100
ssg81
g1228
sg74
(lp1240
S':'
asbag67
(g88
g69
NtRp1241
(dp1242
g72
(dp1243
sg81
g1228
sg74
(lp1244
g67
(g68
g69
NtRp1245
(dp1246
g72
(dp1247
g80
I4
ssg81
g1241
sg74
(lp1248
S'C:\\Documents and Settings\\agrover\\Desktop\\previous crawler\\web2py'
p1249
asbasbasbag67
(g83
g69
NtRp1250
(dp1251
g72
(dp1252
sg81
g1202
sg74
(lp1253
g67
(g88
g69
NtRp1254
(dp1255
g72
(dp1256
g92
g93
ssg81
g1250
sg74
(lp1257
S'cmd_args'
p1258
asbag67
(g88
g69
NtRp1259
(dp1260
g72
(dp1261
g99
g100
ssg81
g1250
sg74
(lp1262
S':'
asbag67
(g88
g69
NtRp1263
(dp1264
g72
(dp1265
sg81
g1250
sg74
(lp1266
g67
(g68
g69
NtRp1267
(dp1268
g72
(dp1269
g80
I4
ssg81
g1263
sg74
(lp1270
g67
(g76
g69
NtRp1271
(dp1272
g72
(dp1273
g80
I3
ssg81
Nsg74
(lp1274
sbasbasbasbag67
(g83
g69
NtRp1275
(dp1276
g72
(dp1277
sg81
g1202
sg74
(lp1278
g67
(g88
g69
NtRp1279
(dp1280
g72
(dp1281
g92
g93
ssg81
g1275
sg74
(lp1282
S'cmd_options'
p1283
asbag67
(g88
g69
NtRp1284
(dp1285
g72
(dp1286
g99
g100
ssg81
g1275
sg74
(lp1287
S':'
asbag67
(g88
g69
NtRp1288
(dp1289
g72
(dp1290
sg81
g1275
sg74
(lp1291
g67
(g68
g69
NtRp1292
(dp1293
g72
(dp1294
g80
I4
ssg81
g1288
sg74
(lp1295
S"<Values at 0x16d63f0: {'verbose': False, 'ip': '127.0.0.1', 'shutdown_timeout': 5, 'taskbar': False, 'nocron': False, 'pid_filename': 'httpserver.pid', 'maxthreads': None, 'softcron': False, 'server_name': 'mniagrover', 'bpython': False, 'nogui': False, 'port': 8000, 'extcron': False, 'debuglevel': 30, 'test': None, 'folder': 'C:\\\\Documents and Settings\\\\agrover\\\\Desktop\\\\previous crawler\\\\web2py', 'config': '', 'import_models': False, 'winservice': '', 'shell': None, 'run': '', 'log_filename': 'httpserver.log', 'args': [''], 'socket_timeout': 5, 'ssl_ca_certificate': None, 'scheduler': None, 'profiler_filename': None, 'ssl_private_key': '', 'password': '<ask>', 'request_queue_size': 5, 'ssl_certificate': '', 'cronjob': False, 'numthreads': None, 'quiet': False, 'interfaces': None, 'minthreads': None, 'timeout': 10, 'plain': False, 'nobanner': False}>"
p1296
asbasbasbag67
(g83
g69
NtRp1297
(dp1298
g72
(dp1299
sg81
g1202
sg74
(lp1300
g67
(g88
g69
NtRp1301
(dp1302
g72
(dp1303
g92
g93
ssg81
g1297
sg74
(lp1304
S'db_sessions'
p1305
asbag67
(g88
g69
NtRp1306
(dp1307
g72
(dp1308
g99
g100
ssg81
g1297
sg74
(lp1309
S':'
asbag67
(g88
g69
NtRp1310
(dp1311
g72
(dp1312
sg81
g1297
sg74
(lp1313
g67
(g68
g69
NtRp1314
(dp1315
g72
(dp1316
g80
I4
ssg81
g1310
sg74
(lp1317
S'set([])'
p1318
asbasbasbag67
(g83
g69
NtRp1319
(dp1320
g72
(dp1321
sg81
g1202
sg74
(lp1322
g67
(g88
g69
NtRp1323
(dp1324
g72
(dp1325
g92
g93
ssg81
g1319
sg74
(lp1326
S'debugging'
p1327
asbag67
(g88
g69
NtRp1328
(dp1329
g72
(dp1330
g99
g100
ssg81
g1319
sg74
(lp1331
S':'
asbag67
(g88
g69
NtRp1332
(dp1333
g72
(dp1334
sg81
g1319
sg74
(lp1335
g67
(g68
g69
NtRp1336
(dp1337
g72
(dp1338
g80
I4
ssg81
g1332
sg74
(lp1339
g110
asbasbasbag67
(g83
g69
NtRp1340
(dp1341
g72
(dp1342
sg81
g1202
sg74
(lp1343
g67
(g88
g69
NtRp1344
(dp1345
g72
(dp1346
g92
g93
ssg81
g1340
sg74
(lp1347
S'gluon_parent'
p1348
asbag67
(g88
g69
NtRp1349
(dp1350
g72
(dp1351
g99
g100
ssg81
g1340
sg74
(lp1352
S':'
asbag67
(g88
g69
NtRp1353
(dp1354
g72
(dp1355
sg81
g1340
sg74
(lp1356
g67
(g68
g69
NtRp1357
(dp1358
g72
(dp1359
g80
I4
ssg81
g1353
sg74
(lp1360
S'C:\\Documents and Settings\\agrover\\Desktop\\previous crawler\\web2py'
p1361
asbasbasbag67
(g83
g69
NtRp1362
(dp1363
g72
(dp1364
sg81
g1202
sg74
(lp1365
g67
(g88
g69
NtRp1366
(dp1367
g72
(dp1368
g92
g93
ssg81
g1362
sg74
(lp1369
S'http_accept'
p1370
asbag67
(g88
g69
NtRp1371
(dp1372
g72
(dp1373
g99
g100
ssg81
g1362
sg74
(lp1374
S':'
asbag67
(g88
g69
NtRp1375
(dp1376
g72
(dp1377
sg81
g1362
sg74
(lp1378
g67
(g68
g69
NtRp1379
(dp1380
g72
(dp1381
g80
I4
ssg81
g1375
sg74
(lp1382
S'text/html,application/xhtml+xml,application/xml;q=0.9,*/*;q=0.8'
p1383
asbasbasbag67
(g83
g69
NtRp1384
(dp1385
g72
(dp1386
sg81
g1202
sg74
(lp1387
g67
(g88
g69
NtRp1388
(dp1389
g72
(dp1390
g92
g93
ssg81
g1384
sg74
(lp1391
S'http_accept_encoding'
p1392
asbag67
(g88
g69
NtRp1393
(dp1394
g72
(dp1395
g99
g100
ssg81
g1384
sg74
(lp1396
S':'
asbag67
(g88
g69
NtRp1397
(dp1398
g72
(dp1399
sg81
g1384
sg74
(lp1400
g67
(g68
g69
NtRp1401
(dp1402
g72
(dp1403
g80
I4
ssg81
g1397
sg74
(lp1404
S'gzip, deflate'
p1405
asbasbasbag67
(g83
g69
NtRp1406
(dp1407
g72
(dp1408
sg81
g1202
sg74
(lp1409
g67
(g88
g69
NtRp1410
(dp1411
g72
(dp1412
g92
g93
ssg81
g1406
sg74
(lp1413
S'http_accept_language'
p1414
asbag67
(g88
g69
NtRp1415
(dp1416
g72
(dp1417
g99
g100
ssg81
g1406
sg74
(lp1418
S':'
asbag67
(g88
g69
NtRp1419
(dp1420
g72
(dp1421
sg81
g1406
sg74
(lp1422
g67
(g68
g69
NtRp1423
(dp1424
g72
(dp1425
g80
I4
ssg81
g1419
sg74
(lp1426
S'en-us,en;q=0.5'
p1427
asbasbasbag67
(g83
g69
NtRp1428
(dp1429
g72
(dp1430
sg81
g1202
sg74
(lp1431
g67
(g88
g69
NtRp1432
(dp1433
g72
(dp1434
g92
g93
ssg81
g1428
sg74
(lp1435
S'http_connection'
p1436
asbag67
(g88
g69
NtRp1437
(dp1438
g72
(dp1439
g99
g100
ssg81
g1428
sg74
(lp1440
S':'
asbag67
(g88
g69
NtRp1441
(dp1442
g72
(dp1443
sg81
g1428
sg74
(lp1444
g67
(g68
g69
NtRp1445
(dp1446
g72
(dp1447
g80
I4
ssg81
g1441
sg74
(lp1448
S'keep-alive'
p1449
asbasbasbag67
(g83
g69
NtRp1450
(dp1451
g72
(dp1452
sg81
g1202
sg74
(lp1453
g67
(g88
g69
NtRp1454
(dp1455
g72
(dp1456
g92
g93
ssg81
g1450
sg74
(lp1457
S'http_cookie'
p1458
asbag67
(g88
g69
NtRp1459
(dp1460
g72
(dp1461
g99
g100
ssg81
g1450
sg74
(lp1462
S':'
asbag67
(g88
g69
NtRp1463
(dp1464
g72
(dp1465
sg81
g1450
sg74
(lp1466
g67
(g68
g69
NtRp1467
(dp1468
g72
(dp1469
g80
I4
ssg81
g1463
sg74
(lp1470
S'session_id_mycrawler=127.0.0.1-32a946d8-ad2c-43d8-be0f-c8249d02766a; session_id_welcome=127.0.0.1-73caaae4-ee5b-4ac4-b73c-0ff18efdb3ae; session_id_mycrawler_2=127.0.0.1-98a9ea69-51ec-42be-9710-06bc291f7746; session_id_admin=127.0.0.1-009fc510-0f0d-40b6-8d37-931711bfe1b4; session_id_crawler=127.0.0.1-b1c96db0-4cef-48f5-a53b-5d185261332f'
p1471
asbasbasbag67
(g83
g69
NtRp1472
(dp1473
g72
(dp1474
sg81
g1202
sg74
(lp1475
g67
(g88
g69
NtRp1476
(dp1477
g72
(dp1478
g92
g93
ssg81
g1472
sg74
(lp1479
S'http_host'
p1480
asbag67
(g88
g69
NtRp1481
(dp1482
g72
(dp1483
g99
g100
ssg81
g1472
sg74
(lp1484
S':'
asbag67
(g88
g69
NtRp1485
(dp1486
g72
(dp1487
sg81
g1472
sg74
(lp1488
g67
(g68
g69
NtRp1489
(dp1490
g72
(dp1491
g80
I4
ssg81
g1485
sg74
(lp1492
S'127.0.0.1:8000'
p1493
asbasbasbag67
(g83
g69
NtRp1494
(dp1495
g72
(dp1496
sg81
g1202
sg74
(lp1497
g67
(g88
g69
NtRp1498
(dp1499
g72
(dp1500
g92
g93
ssg81
g1494
sg74
(lp1501
S'http_referer'
p1502
asbag67
(g88
g69
NtRp1503
(dp1504
g72
(dp1505
g99
g100
ssg81
g1494
sg74
(lp1506
S':'
asbag67
(g88
g69
NtRp1507
(dp1508
g72
(dp1509
sg81
g1494
sg74
(lp1510
g67
(g68
g69
NtRp1511
(dp1512
g72
(dp1513
g80
I4
ssg81
g1507
sg74
(lp1514
S'http://127.0.0.1:8000/mycrawler/default/enter_info'
p1515
asbasbasbag67
(g83
g69
NtRp1516
(dp1517
g72
(dp1518
sg81
g1202
sg74
(lp1519
g67
(g88
g69
NtRp1520
(dp1521
g72
(dp1522
g92
g93
ssg81
g1516
sg74
(lp1523
S'http_user_agent'
p1524
asbag67
(g88
g69
NtRp1525
(dp1526
g72
(dp1527
g99
g100
ssg81
g1516
sg74
(lp1528
S':'
asbag67
(g88
g69
NtRp1529
(dp1530
g72
(dp1531
sg81
g1516
sg74
(lp1532
g67
(g68
g69
NtRp1533
(dp1534
g72
(dp1535
g80
I4
ssg81
g1529
sg74
(lp1536
S'Mozilla/5.0 (Windows NT 5.1; rv:12.0) Gecko/20100101 Firefox/12.0'
p1537
asbasbasbag67
(g83
g69
NtRp1538
(dp1539
g72
(dp1540
sg81
g1202
sg74
(lp1541
g67
(g88
g69
NtRp1542
(dp1543
g72
(dp1544
g92
g93
ssg81
g1538
sg74
(lp1545
S'is_jython'
p1546
asbag67
(g88
g69
NtRp1547
(dp1548
g72
(dp1549
g99
g100
ssg81
g1538
sg74
(lp1550
S':'
asbag67
(g88
g69
NtRp1551
(dp1552
g72
(dp1553
sg81
g1538
sg74
(lp1554
g67
(g68
g69
NtRp1555
(dp1556
g72
(dp1557
g80
I4
ssg81
g1551
sg74
(lp1558
g110
asbasbasbag67
(g83
g69
NtRp1559
(dp1560
g72
(dp1561
sg81
g1202
sg74
(lp1562
g67
(g88
g69
NtRp1563
(dp1564
g72
(dp1565
g92
g93
ssg81
g1559
sg74
(lp1566
S'is_pypy'
p1567
asbag67
(g88
g69
NtRp1568
(dp1569
g72
(dp1570
g99
g100
ssg81
g1559
sg74
(lp1571
S':'
asbag67
(g88
g69
NtRp1572
(dp1573
g72
(dp1574
sg81
g1559
sg74
(lp1575
g67
(g68
g69
NtRp1576
(dp1577
g72
(dp1578
g80
I4
ssg81
g1572
sg74
(lp1579
g110
asbasbasbag67
(g83
g69
NtRp1580
(dp1581
g72
(dp1582
sg81
g1202
sg74
(lp1583
g67
(g88
g69
NtRp1584
(dp1585
g72
(dp1586
g92
g93
ssg81
g1580
sg74
(lp1587
S'path_info'
p1588
asbag67
(g88
g69
NtRp1589
(dp1590
g72
(dp1591
g99
g100
ssg81
g1580
sg74
(lp1592
S':'
asbag67
(g88
g69
NtRp1593
(dp1594
g72
(dp1595
sg81
g1580
sg74
(lp1596
g67
(g68
g69
NtRp1597
(dp1598
g72
(dp1599
g80
I4
ssg81
g1593
sg74
(lp1600
S'/mycrawler/default/search'
p1601
asbasbasbag67
(g83
g69
NtRp1602
(dp1603
g72
(dp1604
sg81
g1202
sg74
(lp1605
g67
(g88
g69
NtRp1606
(dp1607
g72
(dp1608
g92
g93
ssg81
g1602
sg74
(lp1609
S'query_string'
p1610
asbag67
(g88
g69
NtRp1611
(dp1612
g72
(dp1613
g99
g100
ssg81
g1602
sg74
(lp1614
S':'
asbag67
(g88
g69
NtRp1615
(dp1616
g72
(dp1617
sg81
g1602
sg74
(lp1618
g67
(g68
g69
NtRp1619
(dp1620
g72
(dp1621
g80
I4
ssg81
g1615
sg74
(lp1622
S'Company=&Country=India&File_Name=16&First_Name=&Industry=All+Industries&Keywords=&Last_Name=pai&School=&Seniority_Levels=Manager&Title=&_formkey=d0d676d5-021b-4858-bd95-fec0a8b4adaa&_formname=no_table%2Fcreate'
p1623
asbasbasbag67
(g83
g69
NtRp1624
(dp1625
g72
(dp1626
sg81
g1202
sg74
(lp1627
g67
(g88
g69
NtRp1628
(dp1629
g72
(dp1630
g92
g93
ssg81
g1624
sg74
(lp1631
S'remote_addr'
p1632
asbag67
(g88
g69
NtRp1633
(dp1634
g72
(dp1635
g99
g100
ssg81
g1624
sg74
(lp1636
S':'
asbag67
(g88
g69
NtRp1637
(dp1638
g72
(dp1639
sg81
g1624
sg74
(lp1640
g67
(g68
g69
NtRp1641
(dp1642
g72
(dp1643
g80
I4
ssg81
g1637
sg74
(lp1644
g200
asbasbasbag67
(g83
g69
NtRp1645
(dp1646
g72
(dp1647
sg81
g1202
sg74
(lp1648
g67
(g88
g69
NtRp1649
(dp1650
g72
(dp1651
g92
g93
ssg81
g1645
sg74
(lp1652
S'remote_port'
p1653
asbag67
(g88
g69
NtRp1654
(dp1655
g72
(dp1656
g99
g100
ssg81
g1645
sg74
(lp1657
S':'
asbag67
(g88
g69
NtRp1658
(dp1659
g72
(dp1660
sg81
g1645
sg74
(lp1661
g67
(g68
g69
NtRp1662
(dp1663
g72
(dp1664
g80
I4
ssg81
g1658
sg74
(lp1665
S'2340'
p1666
asbasbasbag67
(g83
g69
NtRp1667
(dp1668
g72
(dp1669
sg81
g1202
sg74
(lp1670
g67
(g88
g69
NtRp1671
(dp1672
g72
(dp1673
g92
g93
ssg81
g1667
sg74
(lp1674
S'request_method'
p1675
asbag67
(g88
g69
NtRp1676
(dp1677
g72
(dp1678
g99
g100
ssg81
g1667
sg74
(lp1679
S':'
asbag67
(g88
g69
NtRp1680
(dp1681
g72
(dp1682
sg81
g1667
sg74
(lp1683
g67
(g68
g69
NtRp1684
(dp1685
g72
(dp1686
g80
I4
ssg81
g1680
sg74
(lp1687
S'GET'
p1688
asbasbasbag67
(g83
g69
NtRp1689
(dp1690
g72
(dp1691
sg81
g1202
sg74
(lp1692
g67
(g88
g69
NtRp1693
(dp1694
g72
(dp1695
g92
g93
ssg81
g1689
sg74
(lp1696
S'script_name'
p1697
asbag67
(g88
g69
NtRp1698
(dp1699
g72
(dp1700
g99
g100
ssg81
g1689
sg74
(lp1701
S':'
asbag67
(g88
g69
NtRp1702
(dp1703
g72
(dp1704
sg81
g1689
sg74
(lp1705
g67
(g68
g69
NtRp1706
(dp1707
g72
(dp1708
g80
I4
ssg81
g1702
sg74
(lp1709
S''
asbasbasbag67
(g83
g69
NtRp1710
(dp1711
g72
(dp1712
sg81
g1202
sg74
(lp1713
g67
(g88
g69
NtRp1714
(dp1715
g72
(dp1716
g92
g93
ssg81
g1710
sg74
(lp1717
S'server_name'
p1718
asbag67
(g88
g69
NtRp1719
(dp1720
g72
(dp1721
g99
g100
ssg81
g1710
sg74
(lp1722
S':'
asbag67
(g88
g69
NtRp1723
(dp1724
g72
(dp1725
sg81
g1710
sg74
(lp1726
g67
(g68
g69
NtRp1727
(dp1728
g72
(dp1729
g80
I4
ssg81
g1723
sg74
(lp1730
S'mniagrover'
p1731
asbasbasbag67
(g83
g69
NtRp1732
(dp1733
g72
(dp1734
sg81
g1202
sg74
(lp1735
g67
(g88
g69
NtRp1736
(dp1737
g72
(dp1738
g92
g93
ssg81
g1732
sg74
(lp1739
S'server_port'
p1740
asbag67
(g88
g69
NtRp1741
(dp1742
g72
(dp1743
g99
g100
ssg81
g1732
sg74
(lp1744
S':'
asbag67
(g88
g69
NtRp1745
(dp1746
g72
(dp1747
sg81
g1732
sg74
(lp1748
g67
(g68
g69
NtRp1749
(dp1750
g72
(dp1751
g80
I4
ssg81
g1745
sg74
(lp1752
S'8000'
p1753
asbasbasbag67
(g83
g69
NtRp1754
(dp1755
g72
(dp1756
sg81
g1202
sg74
(lp1757
g67
(g88
g69
NtRp1758
(dp1759
g72
(dp1760
g92
g93
ssg81
g1754
sg74
(lp1761
S'server_protocol'
p1762
asbag67
(g88
g69
NtRp1763
(dp1764
g72
(dp1765
g99
g100
ssg81
g1754
sg74
(lp1766
S':'
asbag67
(g88
g69
NtRp1767
(dp1768
g72
(dp1769
sg81
g1754
sg74
(lp1770
g67
(g68
g69
NtRp1771
(dp1772
g72
(dp1773
g80
I4
ssg81
g1767
sg74
(lp1774
S'HTTP/1.1'
p1775
asbasbasbag67
(g83
g69
NtRp1776
(dp1777
g72
(dp1778
sg81
g1202
sg74
(lp1779
g67
(g88
g69
NtRp1780
(dp1781
g72
(dp1782
g92
g93
ssg81
g1776
sg74
(lp1783
S'server_software'
p1784
asbag67
(g88
g69
NtRp1785
(dp1786
g72
(dp1787
g99
g100
ssg81
g1776
sg74
(lp1788
S':'
asbag67
(g88
g69
NtRp1789
(dp1790
g72
(dp1791
sg81
g1776
sg74
(lp1792
g67
(g68
g69
NtRp1793
(dp1794
g72
(dp1795
g80
I4
ssg81
g1789
sg74
(lp1796
S'Rocket 1.2.4'
p1797
asbasbasbag67
(g83
g69
NtRp1798
(dp1799
g72
(dp1800
sg81
g1202
sg74
(lp1801
g67
(g88
g69
NtRp1802
(dp1803
g72
(dp1804
g92
g93
ssg81
g1798
sg74
(lp1805
S'web2py_crontype'
p1806
asbag67
(g88
g69
NtRp1807
(dp1808
g72
(dp1809
g99
g100
ssg81
g1798
sg74
(lp1810
S':'
asbag67
(g88
g69
NtRp1811
(dp1812
g72
(dp1813
sg81
g1798
sg74
(lp1814
g67
(g68
g69
NtRp1815
(dp1816
g72
(dp1817
g80
I4
ssg81
g1811
sg74
(lp1818
S'hard'
p1819
asbasbasbag67
(g83
g69
NtRp1820
(dp1821
g72
(dp1822
sg81
g1202
sg74
(lp1823
g67
(g88
g69
NtRp1824
(dp1825
g72
(dp1826
g92
g93
ssg81
g1820
sg74
(lp1827
S'web2py_path'
p1828
asbag67
(g88
g69
NtRp1829
(dp1830
g72
(dp1831
g99
g100
ssg81
g1820
sg74
(lp1832
S':'
asbag67
(g88
g69
NtRp1833
(dp1834
g72
(dp1835
sg81
g1820
sg74
(lp1836
g67
(g68
g69
NtRp1837
(dp1838
g72
(dp1839
g80
I4
ssg81
g1833
sg74
(lp1840
g1249
asbasbasbag67
(g83
g69
NtRp1841
(dp1842
g72
(dp1843
sg81
g1202
sg74
(lp1844
g67
(g88
g69
NtRp1845
(dp1846
g72
(dp1847
g92
g93
ssg81
g1841
sg74
(lp1848
S'web2py_version'
p1849
asbag67
(g88
g69
NtRp1850
(dp1851
g72
(dp1852
g99
g100
ssg81
g1841
sg74
(lp1853
S':'
asbag67
(g88
g69
NtRp1854
(dp1855
g72
(dp1856
sg81
g1841
sg74
(lp1857
g67
(g68
g69
NtRp1858
(dp1859
g72
(dp1860
g80
I4
ssg81
g1854
sg74
(lp1861
g67
(g76
g69
NtRp1862
(dp1863
g72
(dp1864
g80
I3
ssg81
Nsg74
(lp1865
g67
(g83
g69
NtRp1866
(dp1867
g72
(dp1868
sg81
g1862
sg74
(lp1869
g67
(g88
g69
NtRp1870
(dp1871
g72
(dp1872
sg81
g1866
sg74
(lp1873
g67
(g68
g69
NtRp1874
(dp1875
g72
(dp1876
g80
I3
ssg81
g1870
sg74
(lp1877
S'1'
asbasbasbag67
(g83
g69
NtRp1878
(dp1879
g72
(dp1880
sg81
g1862
sg74
(lp1881
g67
(g88
g69
NtRp1882
(dp1883
g72
(dp1884
sg81
g1878
sg74
(lp1885
g67
(g68
g69
NtRp1886
(dp1887
g72
(dp1888
g80
I3
ssg81
g1882
sg74
(lp1889
S'99'
p1890
asbasbasbag67
(g83
g69
NtRp1891
(dp1892
g72
(dp1893
sg81
g1862
sg74
(lp1894
g67
(g88
g69
NtRp1895
(dp1896
g72
(dp1897
sg81
g1891
sg74
(lp1898
g67
(g68
g69
NtRp1899
(dp1900
g72
(dp1901
g80
I3
ssg81
g1895
sg74
(lp1902
S'7'
asbasbasbag67
(g83
g69
NtRp1903
(dp1904
g72
(dp1905
sg81
g1862
sg74
(lp1906
g67
(g88
g69
NtRp1907
(dp1908
g72
(dp1909
sg81
g1903
sg74
(lp1910
g67
(g68
g69
NtRp1911
(dp1912
g72
(dp1913
g80
I3
ssg81
g1907
sg74
(lp1914
S'datetime.datetime(2012, 3, 4, 22, 12, 8)'
p1915
asbasbasbag67
(g83
g69
NtRp1916
(dp1917
g72
(dp1918
sg81
g1862
sg74
(lp1919
g67
(g88
g69
NtRp1920
(dp1921
g72
(dp1922
sg81
g1916
sg74
(lp1923
g67
(g68
g69
NtRp1924
(dp1925
g72
(dp1926
g80
I3
ssg81
g1920
sg74
(lp1927
S'stable'
p1928
asbasbasbasbasbasbasbag67
(g83
g69
NtRp1929
(dp1930
g72
(dp1931
sg81
g1202
sg74
(lp1932
g67
(g88
g69
NtRp1933
(dp1934
g72
(dp1935
g92
g93
ssg81
g1929
sg74
(lp1936
S'wsgi_errors'
p1937
asbag67
(g88
g69
NtRp1938
(dp1939
g72
(dp1940
g99
g100
ssg81
g1929
sg74
(lp1941
S':'
asbag67
(g88
g69
NtRp1942
(dp1943
g72
(dp1944
sg81
g1929
sg74
(lp1945
g67
(g68
g69
NtRp1946
(dp1947
g72
(dp1948
g80
I4
ssg81
g1942
sg74
(lp1949
S"<open file '<stderr>', mode 'w' at 0x00A550D0>"
p1950
asbasbasbag67
(g83
g69
NtRp1951
(dp1952
g72
(dp1953
sg81
g1202
sg74
(lp1954
g67
(g88
g69
NtRp1955
(dp1956
g72
(dp1957
g92
g93
ssg81
g1951
sg74
(lp1958
S'wsgi_file_wrapper'
p1959
asbag67
(g88
g69
NtRp1960
(dp1961
g72
(dp1962
g99
g100
ssg81
g1951
sg74
(lp1963
S':'
asbag67
(g88
g69
NtRp1964
(dp1965
g72
(dp1966
sg81
g1951
sg74
(lp1967
g67
(g68
g69
NtRp1968
(dp1969
g72
(dp1970
g80
I4
ssg81
g1964
sg74
(lp1971
S'<class wsgiref.util.FileWrapper at 0x015E8AB0>'
p1972
asbasbasbag67
(g83
g69
NtRp1973
(dp1974
g72
(dp1975
sg81
g1202
sg74
(lp1976
g67
(g88
g69
NtRp1977
(dp1978
g72
(dp1979
g92
g93
ssg81
g1973
sg74
(lp1980
S'wsgi_input'
p1981
asbag67
(g88
g69
NtRp1982
(dp1983
g72
(dp1984
g99
g100
ssg81
g1973
sg74
(lp1985
S':'
asbag67
(g88
g69
NtRp1986
(dp1987
g72
(dp1988
sg81
g1973
sg74
(lp1989
g67
(g68
g69
NtRp1990
(dp1991
g72
(dp1992
g80
I4
ssg81
g1986
sg74
(lp1993
S'<socket._fileobject object at 0x04B523F0>'
p1994
asbasbasbag67
(g83
g69
NtRp1995
(dp1996
g72
(dp1997
sg81
g1202
sg74
(lp1998
g67
(g88
g69
NtRp1999
(dp2000
g72
(dp2001
g92
g93
ssg81
g1995
sg74
(lp2002
S'wsgi_multiprocess'
p2003
asbag67
(g88
g69
NtRp2004
(dp2005
g72
(dp2006
g99
g100
ssg81
g1995
sg74
(lp2007
S':'
asbag67
(g88
g69
NtRp2008
(dp2009
g72
(dp2010
sg81
g1995
sg74
(lp2011
g67
(g68
g69
NtRp2012
(dp2013
g72
(dp2014
g80
I4
ssg81
g2008
sg74
(lp2015
g110
asbasbasbag67
(g83
g69
NtRp2016
(dp2017
g72
(dp2018
sg81
g1202
sg74
(lp2019
g67
(g88
g69
NtRp2020
(dp2021
g72
(dp2022
g92
g93
ssg81
g2016
sg74
(lp2023
S'wsgi_multithread'
p2024
asbag67
(g88
g69
NtRp2025
(dp2026
g72
(dp2027
g99
g100
ssg81
g2016
sg74
(lp2028
S':'
asbag67
(g88
g69
NtRp2029
(dp2030
g72
(dp2031
sg81
g2016
sg74
(lp2032
g67
(g68
g69
NtRp2033
(dp2034
g72
(dp2035
g80
I4
ssg81
g2029
sg74
(lp2036
S'True'
p2037
asbasbasbag67
(g83
g69
NtRp2038
(dp2039
g72
(dp2040
sg81
g1202
sg74
(lp2041
g67
(g88
g69
NtRp2042
(dp2043
g72
(dp2044
g92
g93
ssg81
g2038
sg74
(lp2045
S'wsgi_run_once'
p2046
asbag67
(g88
g69
NtRp2047
(dp2048
g72
(dp2049
g99
g100
ssg81
g2038
sg74
(lp2050
S':'
asbag67
(g88
g69
NtRp2051
(dp2052
g72
(dp2053
sg81
g2038
sg74
(lp2054
g67
(g68
g69
NtRp2055
(dp2056
g72
(dp2057
g80
I4
ssg81
g2051
sg74
(lp2058
g110
asbasbasbag67
(g83
g69
NtRp2059
(dp2060
g72
(dp2061
sg81
g1202
sg74
(lp2062
g67
(g88
g69
NtRp2063
(dp2064
g72
(dp2065
g92
g93
ssg81
g2059
sg74
(lp2066
S'wsgi_url_scheme'
p2067
asbag67
(g88
g69
NtRp2068
(dp2069
g72
(dp2070
g99
g100
ssg81
g2059
sg74
(lp2071
S':'
asbag67
(g88
g69
NtRp2072
(dp2073
g72
(dp2074
sg81
g2059
sg74
(lp2075
g67
(g68
g69
NtRp2076
(dp2077
g72
(dp2078
g80
I4
ssg81
g2072
sg74
(lp2079
S'http'
p2080
asbasbasbag67
(g83
g69
NtRp2081
(dp2082
g72
(dp2083
sg81
g1202
sg74
(lp2084
g67
(g88
g69
NtRp2085
(dp2086
g72
(dp2087
g92
g93
ssg81
g2081
sg74
(lp2088
S'wsgi_version'
p2089
asbag67
(g88
g69
NtRp2090
(dp2091
g72
(dp2092
g99
g100
ssg81
g2081
sg74
(lp2093
S':'
asbag67
(g88
g69
NtRp2094
(dp2095
g72
(dp2096
sg81
g2081
sg74
(lp2097
g67
(g68
g69
NtRp2098
(dp2099
g72
(dp2100
g80
I4
ssg81
g2094
sg74
(lp2101
g67
(g76
g69
NtRp2102
(dp2103
g72
(dp2104
g80
I3
ssg81
Nsg74
(lp2105
g67
(g83
g69
NtRp2106
(dp2107
g72
(dp2108
sg81
g2102
sg74
(lp2109
g67
(g88
g69
NtRp2110
(dp2111
g72
(dp2112
sg81
g2106
sg74
(lp2113
g67
(g68
g69
NtRp2114
(dp2115
g72
(dp2116
g80
I3
ssg81
g2110
sg74
(lp2117
S'1'
asbasbasbag67
(g83
g69
NtRp2118
(dp2119
g72
(dp2120
sg81
g2102
sg74
(lp2121
g67
(g88
g69
NtRp2122
(dp2123
g72
(dp2124
sg81
g2118
sg74
(lp2125
g67
(g68
g69
NtRp2126
(dp2127
g72
(dp2128
g80
I3
ssg81
g2122
sg74
(lp2129
S'0'
asbasbasbasbasbasbasbasbasbasbasbag67
(g83
g69
NtRp2130
(dp2131
g72
(dp2132
sg81
g77
sg74
(lp2133
g67
(g88
g69
NtRp2134
(dp2135
g72
(dp2136
g92
g93
ssg81
g2130
sg74
(lp2137
S'extension'
p2138
asbag67
(g88
g69
NtRp2139
(dp2140
g72
(dp2141
g99
g100
ssg81
g2130
sg74
(lp2142
S':'
asbag67
(g88
g69
NtRp2143
(dp2144
g72
(dp2145
sg81
g2130
sg74
(lp2146
g67
(g68
g69
NtRp2147
(dp2148
g72
(dp2149
g80
I5
ssg81
g2143
sg74
(lp2150
S'html'
p2151
asbasbasbag67
(g83
g69
NtRp2152
(dp2153
g72
(dp2154
sg81
g77
sg74
(lp2155
g67
(g88
g69
NtRp2156
(dp2157
g72
(dp2158
g92
g93
ssg81
g2152
sg74
(lp2159
S'folder'
p2160
asbag67
(g88
g69
NtRp2161
(dp2162
g72
(dp2163
g99
g100
ssg81
g2152
sg74
(lp2164
S':'
asbag67
(g88
g69
NtRp2165
(dp2166
g72
(dp2167
sg81
g2152
sg74
(lp2168
g67
(g68
g69
NtRp2169
(dp2170
g72
(dp2171
g80
I5
ssg81
g2165
sg74
(lp2172
S'C:\\Documents and Settings\\agrover\\Desktop\\previous crawler\\web2py\\applications\\mycrawler\\'
p2173
asbasbasbag67
(g83
g69
NtRp2174
(dp2175
g72
(dp2176
sg81
g77
sg74
(lp2177
g67
(g88
g69
NtRp2178
(dp2179
g72
(dp2180
g92
g93
ssg81
g2174
sg74
(lp2181
S'function'
p2182
asbag67
(g88
g69
NtRp2183
(dp2184
g72
(dp2185
g99
g100
ssg81
g2174
sg74
(lp2186
S':'
asbag67
(g88
g69
NtRp2187
(dp2188
g72
(dp2189
sg81
g2174
sg74
(lp2190
g67
(g68
g69
NtRp2191
(dp2192
g72
(dp2193
g80
I5
ssg81
g2187
sg74
(lp2194
S'search'
p2195
asbasbasbag67
(g83
g69
NtRp2196
(dp2197
g72
(dp2198
sg81
g77
sg74
(lp2199
g67
(g88
g69
NtRp2200
(dp2201
g72
(dp2202
g92
g93
ssg81
g2196
sg74
(lp2203
S'get_vars'
p2204
asbag67
(g88
g69
NtRp2205
(dp2206
g72
(dp2207
g99
g100
ssg81
g2196
sg74
(lp2208
S':'
asbag67
(g88
g69
NtRp2209
(dp2210
g72
(dp2211
sg81
g2196
sg74
(lp2212
g67
(g68
g69
NtRp2213
(dp2214
g72
(dp2215
g80
I5
ssg81
g2209
sg74
(lp2216
g67
(g76
g69
NtRp2217
(dp2218
g72
(dp2219
g80
I4
ssg81
Nsg74
(lp2220
g67
(g83
g69
NtRp2221
(dp2222
g72
(dp2223
sg81
g2217
sg74
(lp2224
g67
(g88
g69
NtRp2225
(dp2226
g72
(dp2227
g92
g93
ssg81
g2221
sg74
(lp2228
S'Company'
p2229
asbag67
(g88
g69
NtRp2230
(dp2231
g72
(dp2232
g99
g100
ssg81
g2221
sg74
(lp2233
S':'
asbag67
(g88
g69
NtRp2234
(dp2235
g72
(dp2236
sg81
g2221
sg74
(lp2237
g67
(g68
g69
NtRp2238
(dp2239
g72
(dp2240
g80
I4
ssg81
g2234
sg74
(lp2241
S''
asbasbasbag67
(g83
g69
NtRp2242
(dp2243
g72
(dp2244
sg81
g2217
sg74
(lp2245
g67
(g88
g69
NtRp2246
(dp2247
g72
(dp2248
g92
g93
ssg81
g2242
sg74
(lp2249
S'Country'
p2250
asbag67
(g88
g69
NtRp2251
(dp2252
g72
(dp2253
g99
g100
ssg81
g2242
sg74
(lp2254
S':'
asbag67
(g88
g69
NtRp2255
(dp2256
g72
(dp2257
sg81
g2242
sg74
(lp2258
g67
(g68
g69
NtRp2259
(dp2260
g72
(dp2261
g80
I4
ssg81
g2255
sg74
(lp2262
S'India'
p2263
asbasbasbag67
(g83
g69
NtRp2264
(dp2265
g72
(dp2266
sg81
g2217
sg74
(lp2267
g67
(g88
g69
NtRp2268
(dp2269
g72
(dp2270
g92
g93
ssg81
g2264
sg74
(lp2271
S'File_Name'
p2272
asbag67
(g88
g69
NtRp2273
(dp2274
g72
(dp2275
g99
g100
ssg81
g2264
sg74
(lp2276
S':'
asbag67
(g88
g69
NtRp2277
(dp2278
g72
(dp2279
sg81
g2264
sg74
(lp2280
g67
(g68
g69
NtRp2281
(dp2282
g72
(dp2283
g80
I4
ssg81
g2277
sg74
(lp2284
S'16'
p2285
asbasbasbag67
(g83
g69
NtRp2286
(dp2287
g72
(dp2288
sg81
g2217
sg74
(lp2289
g67
(g88
g69
NtRp2290
(dp2291
g72
(dp2292
g92
g93
ssg81
g2286
sg74
(lp2293
S'First_Name'
p2294
asbag67
(g88
g69
NtRp2295
(dp2296
g72
(dp2297
g99
g100
ssg81
g2286
sg74
(lp2298
S':'
asbag67
(g88
g69
NtRp2299
(dp2300
g72
(dp2301
sg81
g2286
sg74
(lp2302
g67
(g68
g69
NtRp2303
(dp2304
g72
(dp2305
g80
I4
ssg81
g2299
sg74
(lp2306
S''
asbasbasbag67
(g83
g69
NtRp2307
(dp2308
g72
(dp2309
sg81
g2217
sg74
(lp2310
g67
(g88
g69
NtRp2311
(dp2312
g72
(dp2313
g92
g93
ssg81
g2307
sg74
(lp2314
S'Industry'
p2315
asbag67
(g88
g69
NtRp2316
(dp2317
g72
(dp2318
g99
g100
ssg81
g2307
sg74
(lp2319
S':'
asbag67
(g88
g69
NtRp2320
(dp2321
g72
(dp2322
sg81
g2307
sg74
(lp2323
g67
(g68
g69
NtRp2324
(dp2325
g72
(dp2326
g80
I4
ssg81
g2320
sg74
(lp2327
S'All Industries'
p2328
asbasbasbag67
(g83
g69
NtRp2329
(dp2330
g72
(dp2331
sg81
g2217
sg74
(lp2332
g67
(g88
g69
NtRp2333
(dp2334
g72
(dp2335
g92
g93
ssg81
g2329
sg74
(lp2336
S'Keywords'
p2337
asbag67
(g88
g69
NtRp2338
(dp2339
g72
(dp2340
g99
g100
ssg81
g2329
sg74
(lp2341
S':'
asbag67
(g88
g69
NtRp2342
(dp2343
g72
(dp2344
sg81
g2329
sg74
(lp2345
g67
(g68
g69
NtRp2346
(dp2347
g72
(dp2348
g80
I4
ssg81
g2342
sg74
(lp2349
S''
asbasbasbag67
(g83
g69
NtRp2350
(dp2351
g72
(dp2352
sg81
g2217
sg74
(lp2353
g67
(g88
g69
NtRp2354
(dp2355
g72
(dp2356
g92
g93
ssg81
g2350
sg74
(lp2357
S'Last_Name'
p2358
asbag67
(g88
g69
NtRp2359
(dp2360
g72
(dp2361
g99
g100
ssg81
g2350
sg74
(lp2362
S':'
asbag67
(g88
g69
NtRp2363
(dp2364
g72
(dp2365
sg81
g2350
sg74
(lp2366
g67
(g68
g69
NtRp2367
(dp2368
g72
(dp2369
g80
I4
ssg81
g2363
sg74
(lp2370
S'pai'
p2371
asbasbasbag67
(g83
g69
NtRp2372
(dp2373
g72
(dp2374
sg81
g2217
sg74
(lp2375
g67
(g88
g69
NtRp2376
(dp2377
g72
(dp2378
g92
g93
ssg81
g2372
sg74
(lp2379
S'School'
p2380
asbag67
(g88
g69
NtRp2381
(dp2382
g72
(dp2383
g99
g100
ssg81
g2372
sg74
(lp2384
S':'
asbag67
(g88
g69
NtRp2385
(dp2386
g72
(dp2387
sg81
g2372
sg74
(lp2388
g67
(g68
g69
NtRp2389
(dp2390
g72
(dp2391
g80
I4
ssg81
g2385
sg74
(lp2392
S''
asbasbasbag67
(g83
g69
NtRp2393
(dp2394
g72
(dp2395
sg81
g2217
sg74
(lp2396
g67
(g88
g69
NtRp2397
(dp2398
g72
(dp2399
g92
g93
ssg81
g2393
sg74
(lp2400
S'Seniority_Levels'
p2401
asbag67
(g88
g69
NtRp2402
(dp2403
g72
(dp2404
g99
g100
ssg81
g2393
sg74
(lp2405
S':'
asbag67
(g88
g69
NtRp2406
(dp2407
g72
(dp2408
sg81
g2393
sg74
(lp2409
g67
(g68
g69
NtRp2410
(dp2411
g72
(dp2412
g80
I4
ssg81
g2406
sg74
(lp2413
S'Manager'
p2414
asbasbasbag67
(g83
g69
NtRp2415
(dp2416
g72
(dp2417
sg81
g2217
sg74
(lp2418
g67
(g88
g69
NtRp2419
(dp2420
g72
(dp2421
g92
g93
ssg81
g2415
sg74
(lp2422
S'Title'
p2423
asbag67
(g88
g69
NtRp2424
(dp2425
g72
(dp2426
g99
g100
ssg81
g2415
sg74
(lp2427
S':'
asbag67
(g88
g69
NtRp2428
(dp2429
g72
(dp2430
sg81
g2415
sg74
(lp2431
g67
(g68
g69
NtRp2432
(dp2433
g72
(dp2434
g80
I4
ssg81
g2428
sg74
(lp2435
S''
asbasbasbasbasbasbasbag67
(g83
g69
NtRp2436
(dp2437
g72
(dp2438
sg81
g77
sg74
(lp2439
g67
(g88
g69
NtRp2440
(dp2441
g72
(dp2442
g92
g93
ssg81
g2436
sg74
(lp2443
S'global_settings'
p2444
asbag67
(g88
g69
NtRp2445
(dp2446
g72
(dp2447
g99
g100
ssg81
g2436
sg74
(lp2448
S':'
asbag67
(g88
g69
NtRp2449
(dp2450
g72
(dp2451
sg81
g2436
sg74
(lp2452
g67
(g68
g69
NtRp2453
(dp2454
g72
(dp2455
g80
I5
ssg81
g2449
sg74
(lp2456
g67
(g76
g69
NtRp2457
(dp2458
g72
(dp2459
g80
I4
ssg81
Nsg74
(lp2460
g67
(g83
g69
NtRp2461
(dp2462
g72
(dp2463
sg81
g2457
sg74
(lp2464
g67
(g88
g69
NtRp2465
(dp2466
g72
(dp2467
g92
g93
ssg81
g2461
sg74
(lp2468
g1214
asbag67
(g88
g69
NtRp2469
(dp2470
g72
(dp2471
g99
g100
ssg81
g2461
sg74
(lp2472
S':'
asbag67
(g88
g69
NtRp2473
(dp2474
g72
(dp2475
sg81
g2461
sg74
(lp2476
g67
(g68
g69
NtRp2477
(dp2478
g72
(dp2479
g80
I4
ssg81
g2473
sg74
(lp2480
S"set(['C:\\\\Documents and Settings\\\\agrover\\\\Desktop\\\\previous crawler\\\\web2py\\\\applications\\\\admin\\\\', 'C:\\\\Documents and Settings\\\\agrover\\\\Desktop\\\\previous crawler\\\\web2py\\\\applications\\\\mycrawler\\\\', 'C:\\\\Documents and Settings\\\\agrover\\\\Desktop\\\\previous crawler\\\\web2py\\\\applications\\\\welcome\\\\'])"
p2481
asbasbasbag67
(g83
g69
NtRp2482
(dp2483
g72
(dp2484
sg81
g2457
sg74
(lp2485
g67
(g88
g69
NtRp2486
(dp2487
g72
(dp2488
g92
g93
ssg81
g2482
sg74
(lp2489
g1236
asbag67
(g88
g69
NtRp2490
(dp2491
g72
(dp2492
g99
g100
ssg81
g2482
sg74
(lp2493
S':'
asbag67
(g88
g69
NtRp2494
(dp2495
g72
(dp2496
sg81
g2482
sg74
(lp2497
g67
(g68
g69
NtRp2498
(dp2499
g72
(dp2500
g80
I4
ssg81
g2494
sg74
(lp2501
g1249
asbasbasbag67
(g83
g69
NtRp2502
(dp2503
g72
(dp2504
sg81
g2457
sg74
(lp2505
g67
(g88
g69
NtRp2506
(dp2507
g72
(dp2508
g92
g93
ssg81
g2502
sg74
(lp2509
g1258
asbag67
(g88
g69
NtRp2510
(dp2511
g72
(dp2512
g99
g100
ssg81
g2502
sg74
(lp2513
S':'
asbag67
(g88
g69
NtRp2514
(dp2515
g72
(dp2516
sg81
g2502
sg74
(lp2517
g67
(g68
g69
NtRp2518
(dp2519
g72
(dp2520
g80
I4
ssg81
g2514
sg74
(lp2521
g67
(g76
g69
NtRp2522
(dp2523
g72
(dp2524
g80
I3
ssg81
Nsg74
(lp2525
sbasbasbasbag67
(g83
g69
NtRp2526
(dp2527
g72
(dp2528
sg81
g2457
sg74
(lp2529
g67
(g88
g69
NtRp2530
(dp2531
g72
(dp2532
g92
g93
ssg81
g2526
sg74
(lp2533
g1283
asbag67
(g88
g69
NtRp2534
(dp2535
g72
(dp2536
g99
g100
ssg81
g2526
sg74
(lp2537
S':'
asbag67
(g88
g69
NtRp2538
(dp2539
g72
(dp2540
sg81
g2526
sg74
(lp2541
g67
(g68
g69
NtRp2542
(dp2543
g72
(dp2544
g80
I4
ssg81
g2538
sg74
(lp2545
S"<Values at 0x16d63f0: {'verbose': False, 'ip': '127.0.0.1', 'shutdown_timeout': 5, 'taskbar': False, 'nocron': False, 'pid_filename': 'httpserver.pid', 'maxthreads': None, 'softcron': False, 'server_name': 'mniagrover', 'bpython': False, 'nogui': False, 'port': 8000, 'extcron': False, 'debuglevel': 30, 'test': None, 'folder': 'C:\\\\Documents and Settings\\\\agrover\\\\Desktop\\\\previous crawler\\\\web2py', 'config': '', 'import_models': False, 'winservice': '', 'shell': None, 'run': '', 'log_filename': 'httpserver.log', 'args': [''], 'socket_timeout': 5, 'ssl_ca_certificate': None, 'scheduler': None, 'profiler_filename': None, 'ssl_private_key': '', 'password': '<ask>', 'request_queue_size': 5, 'ssl_certificate': '', 'cronjob': False, 'numthreads': None, 'quiet': False, 'interfaces': None, 'minthreads': None, 'timeout': 10, 'plain': False, 'nobanner': False}>"
p2546
asbasbasbag67
(g83
g69
NtRp2547
(dp2548
g72
(dp2549
sg81
g2457
sg74
(lp2550
g67
(g88
g69
NtRp2551
(dp2552
g72
(dp2553
g92
g93
ssg81
g2547
sg74
(lp2554
g1305
asbag67
(g88
g69
NtRp2555
(dp2556
g72
(dp2557
g99
g100
ssg81
g2547
sg74
(lp2558
S':'
asbag67
(g88
g69
NtRp2559
(dp2560
g72
(dp2561
sg81
g2547
sg74
(lp2562
g67
(g68
g69
NtRp2563
(dp2564
g72
(dp2565
g80
I4
ssg81
g2559
sg74
(lp2566
S'set([])'
p2567
asbasbasbag67
(g83
g69
NtRp2568
(dp2569
g72
(dp2570
sg81
g2457
sg74
(lp2571
g67
(g88
g69
NtRp2572
(dp2573
g72
(dp2574
g92
g93
ssg81
g2568
sg74
(lp2575
g1327
asbag67
(g88
g69
NtRp2576
(dp2577
g72
(dp2578
g99
g100
ssg81
g2568
sg74
(lp2579
S':'
asbag67
(g88
g69
NtRp2580
(dp2581
g72
(dp2582
sg81
g2568
sg74
(lp2583
g67
(g68
g69
NtRp2584
(dp2585
g72
(dp2586
g80
I4
ssg81
g2580
sg74
(lp2587
g110
asbasbasbag67
(g83
g69
NtRp2588
(dp2589
g72
(dp2590
sg81
g2457
sg74
(lp2591
g67
(g88
g69
NtRp2592
(dp2593
g72
(dp2594
g92
g93
ssg81
g2588
sg74
(lp2595
g1348
asbag67
(g88
g69
NtRp2596
(dp2597
g72
(dp2598
g99
g100
ssg81
g2588
sg74
(lp2599
S':'
asbag67
(g88
g69
NtRp2600
(dp2601
g72
(dp2602
sg81
g2588
sg74
(lp2603
g67
(g68
g69
NtRp2604
(dp2605
g72
(dp2606
g80
I4
ssg81
g2600
sg74
(lp2607
g1361
asbasbasbag67
(g83
g69
NtRp2608
(dp2609
g72
(dp2610
sg81
g2457
sg74
(lp2611
g67
(g88
g69
NtRp2612
(dp2613
g72
(dp2614
g92
g93
ssg81
g2608
sg74
(lp2615
g1546
asbag67
(g88
g69
NtRp2616
(dp2617
g72
(dp2618
g99
g100
ssg81
g2608
sg74
(lp2619
S':'
asbag67
(g88
g69
NtRp2620
(dp2621
g72
(dp2622
sg81
g2608
sg74
(lp2623
g67
(g68
g69
NtRp2624
(dp2625
g72
(dp2626
g80
I4
ssg81
g2620
sg74
(lp2627
g110
asbasbasbag67
(g83
g69
NtRp2628
(dp2629
g72
(dp2630
sg81
g2457
sg74
(lp2631
g67
(g88
g69
NtRp2632
(dp2633
g72
(dp2634
g92
g93
ssg81
g2628
sg74
(lp2635
g1567
asbag67
(g88
g69
NtRp2636
(dp2637
g72
(dp2638
g99
g100
ssg81
g2628
sg74
(lp2639
S':'
asbag67
(g88
g69
NtRp2640
(dp2641
g72
(dp2642
sg81
g2628
sg74
(lp2643
g67
(g68
g69
NtRp2644
(dp2645
g72
(dp2646
g80
I4
ssg81
g2640
sg74
(lp2647
g110
asbasbasbag67
(g83
g69
NtRp2648
(dp2649
g72
(dp2650
sg81
g2457
sg74
(lp2651
g67
(g88
g69
NtRp2652
(dp2653
g72
(dp2654
g92
g93
ssg81
g2648
sg74
(lp2655
g1806
asbag67
(g88
g69
NtRp2656
(dp2657
g72
(dp2658
g99
g100
ssg81
g2648
sg74
(lp2659
S':'
asbag67
(g88
g69
NtRp2660
(dp2661
g72
(dp2662
sg81
g2648
sg74
(lp2663
g67
(g68
g69
NtRp2664
(dp2665
g72
(dp2666
g80
I4
ssg81
g2660
sg74
(lp2667
g1819
asbasbasbag67
(g83
g69
NtRp2668
(dp2669
g72
(dp2670
sg81
g2457
sg74
(lp2671
g67
(g88
g69
NtRp2672
(dp2673
g72
(dp2674
g92
g93
ssg81
g2668
sg74
(lp2675
g1849
asbag67
(g88
g69
NtRp2676
(dp2677
g72
(dp2678
g99
g100
ssg81
g2668
sg74
(lp2679
S':'
asbag67
(g88
g69
NtRp2680
(dp2681
g72
(dp2682
sg81
g2668
sg74
(lp2683
g67
(g68
g69
NtRp2684
(dp2685
g72
(dp2686
g80
I4
ssg81
g2680
sg74
(lp2687
g67
(g76
g69
NtRp2688
(dp2689
g72
(dp2690
g80
I3
ssg81
Nsg74
(lp2691
g67
(g83
g69
NtRp2692
(dp2693
g72
(dp2694
sg81
g2688
sg74
(lp2695
g67
(g88
g69
NtRp2696
(dp2697
g72
(dp2698
sg81
g2692
sg74
(lp2699
g67
(g68
g69
NtRp2700
(dp2701
g72
(dp2702
g80
I3
ssg81
g2696
sg74
(lp2703
S'1'
asbasbasbag67
(g83
g69
NtRp2704
(dp2705
g72
(dp2706
sg81
g2688
sg74
(lp2707
g67
(g88
g69
NtRp2708
(dp2709
g72
(dp2710
sg81
g2704
sg74
(lp2711
g67
(g68
g69
NtRp2712
(dp2713
g72
(dp2714
g80
I3
ssg81
g2708
sg74
(lp2715
S'99'
p2716
asbasbasbag67
(g83
g69
NtRp2717
(dp2718
g72
(dp2719
sg81
g2688
sg74
(lp2720
g67
(g88
g69
NtRp2721
(dp2722
g72
(dp2723
sg81
g2717
sg74
(lp2724
g67
(g68
g69
NtRp2725
(dp2726
g72
(dp2727
g80
I3
ssg81
g2721
sg74
(lp2728
S'7'
asbasbasbag67
(g83
g69
NtRp2729
(dp2730
g72
(dp2731
sg81
g2688
sg74
(lp2732
g67
(g88
g69
NtRp2733
(dp2734
g72
(dp2735
sg81
g2729
sg74
(lp2736
g67
(g68
g69
NtRp2737
(dp2738
g72
(dp2739
g80
I3
ssg81
g2733
sg74
(lp2740
S'datetime.datetime(2012, 3, 4, 22, 12, 8)'
p2741
asbasbasbag67
(g83
g69
NtRp2742
(dp2743
g72
(dp2744
sg81
g2688
sg74
(lp2745
g67
(g88
g69
NtRp2746
(dp2747
g72
(dp2748
sg81
g2742
sg74
(lp2749
g67
(g68
g69
NtRp2750
(dp2751
g72
(dp2752
g80
I3
ssg81
g2746
sg74
(lp2753
g1928
asbasbasbasbasbasbasbasbasbasbasbag67
(g83
g69
NtRp2754
(dp2755
g72
(dp2756
sg81
g77
sg74
(lp2757
g67
(g88
g69
NtRp2758
(dp2759
g72
(dp2760
g92
g93
ssg81
g2754
sg74
(lp2761
S'is_https'
p2762
asbag67
(g88
g69
NtRp2763
(dp2764
g72
(dp2765
g99
g100
ssg81
g2754
sg74
(lp2766
S':'
asbag67
(g88
g69
NtRp2767
(dp2768
g72
(dp2769
sg81
g2754
sg74
(lp2770
g67
(g68
g69
NtRp2771
(dp2772
g72
(dp2773
g80
I5
ssg81
g2767
sg74
(lp2774
g110
asbasbasbag67
(g83
g69
NtRp2775
(dp2776
g72
(dp2777
sg81
g77
sg74
(lp2778
g67
(g88
g69
NtRp2779
(dp2780
g72
(dp2781
g92
g93
ssg81
g2775
sg74
(lp2782
S'is_local'
p2783
asbag67
(g88
g69
NtRp2784
(dp2785
g72
(dp2786
g99
g100
ssg81
g2775
sg74
(lp2787
S':'
asbag67
(g88
g69
NtRp2788
(dp2789
g72
(dp2790
sg81
g2775
sg74
(lp2791
g67
(g68
g69
NtRp2792
(dp2793
g72
(dp2794
g80
I5
ssg81
g2788
sg74
(lp2795
g2037
asbasbasbag67
(g83
g69
NtRp2796
(dp2797
g72
(dp2798
sg81
g77
sg74
(lp2799
g67
(g88
g69
NtRp2800
(dp2801
g72
(dp2802
g92
g93
ssg81
g2796
sg74
(lp2803
S'is_restful'
p2804
asbag67
(g88
g69
NtRp2805
(dp2806
g72
(dp2807
g99
g100
ssg81
g2796
sg74
(lp2808
S':'
asbag67
(g88
g69
NtRp2809
(dp2810
g72
(dp2811
sg81
g2796
sg74
(lp2812
g67
(g68
g69
NtRp2813
(dp2814
g72
(dp2815
g80
I5
ssg81
g2809
sg74
(lp2816
g110
asbasbasbag67
(g83
g69
NtRp2817
(dp2818
g72
(dp2819
sg81
g77
sg74
(lp2820
g67
(g88
g69
NtRp2821
(dp2822
g72
(dp2823
g92
g93
ssg81
g2817
sg74
(lp2824
S'now'
p2825
asbag67
(g88
g69
NtRp2826
(dp2827
g72
(dp2828
g99
g100
ssg81
g2817
sg74
(lp2829
S':'
asbag67
(g88
g69
NtRp2830
(dp2831
g72
(dp2832
sg81
g2817
sg74
(lp2833
g67
(g68
g69
NtRp2834
(dp2835
g72
(dp2836
g80
I5
ssg81
g2830
sg74
(lp2837
S'datetime.datetime(2012, 6, 11, 12, 46, 10, 515000)'
p2838
asbasbasbag67
(g83
g69
NtRp2839
(dp2840
g72
(dp2841
sg81
g77
sg74
(lp2842
g67
(g88
g69
NtRp2843
(dp2844
g72
(dp2845
g92
g93
ssg81
g2839
sg74
(lp2846
S'post_vars'
p2847
asbag67
(g88
g69
NtRp2848
(dp2849
g72
(dp2850
g99
g100
ssg81
g2839
sg74
(lp2851
S':'
asbag67
(g88
g69
NtRp2852
(dp2853
g72
(dp2854
sg81
g2839
sg74
(lp2855
g67
(g68
g69
NtRp2856
(dp2857
g72
(dp2858
g80
I5
ssg81
g2852
sg74
(lp2859
g67
(g76
g69
NtRp2860
(dp2861
g72
(dp2862
g80
I4
ssg81
Nsg74
(lp2863
sbasbasbasbag67
(g83
g69
NtRp2864
(dp2865
g72
(dp2866
sg81
g77
sg74
(lp2867
g67
(g88
g69
NtRp2868
(dp2869
g72
(dp2870
g92
g93
ssg81
g2864
sg74
(lp2871
S'url'
p2872
asbag67
(g88
g69
NtRp2873
(dp2874
g72
(dp2875
g99
g100
ssg81
g2864
sg74
(lp2876
S':'
asbag67
(g88
g69
NtRp2877
(dp2878
g72
(dp2879
sg81
g2864
sg74
(lp2880
g67
(g68
g69
NtRp2881
(dp2882
g72
(dp2883
g80
I5
ssg81
g2877
sg74
(lp2884
S'/mycrawler/default/search'
p2885
asbasbasbag67
(g83
g69
NtRp2886
(dp2887
g72
(dp2888
sg81
g77
sg74
(lp2889
g67
(g88
g69
NtRp2890
(dp2891
g72
(dp2892
g92
g93
ssg81
g2886
sg74
(lp2893
S'utcnow'
p2894
asbag67
(g88
g69
NtRp2895
(dp2896
g72
(dp2897
g99
g100
ssg81
g2886
sg74
(lp2898
S':'
asbag67
(g88
g69
NtRp2899
(dp2900
g72
(dp2901
sg81
g2886
sg74
(lp2902
g67
(g68
g69
NtRp2903
(dp2904
g72
(dp2905
g80
I5
ssg81
g2899
sg74
(lp2906
S'datetime.datetime(2012, 6, 11, 19, 46, 10, 515000)'
p2907
asbasbasbag67
(g83
g69
NtRp2908
(dp2909
g72
(dp2910
sg81
g77
sg74
(lp2911
g67
(g88
g69
NtRp2912
(dp2913
g72
(dp2914
g92
g93
ssg81
g2908
sg74
(lp2915
S'uuid'
p2916
asbag67
(g88
g69
NtRp2917
(dp2918
g72
(dp2919
g99
g100
ssg81
g2908
sg74
(lp2920
S':'
asbag67
(g88
g69
NtRp2921
(dp2922
g72
(dp2923
sg81
g2908
sg74
(lp2924
g67
(g68
g69
NtRp2925
(dp2926
g72
(dp2927
g80
I5
ssg81
g2921
sg74
(lp2928
S'mycrawler/127.0.0.1.2012-06-11.12-46-10.1d2c58e2-49e8-4480-b3ca-bda2ed95fa61'
p2929
asbasbasbag67
(g83
g69
NtRp2930
(dp2931
g72
(dp2932
sg81
g77
sg74
(lp2933
g67
(g88
g69
NtRp2934
(dp2935
g72
(dp2936
g92
g93
ssg81
g2930
sg74
(lp2937
S'vars'
p2938
asbag67
(g88
g69
NtRp2939
(dp2940
g72
(dp2941
g99
g100
ssg81
g2930
sg74
(lp2942
S':'
asbag67
(g88
g69
NtRp2943
(dp2944
g72
(dp2945
sg81
g2930
sg74
(lp2946
g67
(g68
g69
NtRp2947
(dp2948
g72
(dp2949
g80
I5
ssg81
g2943
sg74
(lp2950
g67
(g76
g69
NtRp2951
(dp2952
g72
(dp2953
g80
I4
ssg81
Nsg74
(lp2954
g67
(g83
g69
NtRp2955
(dp2956
g72
(dp2957
sg81
g2951
sg74
(lp2958
g67
(g88
g69
NtRp2959
(dp2960
g72
(dp2961
g92
g93
ssg81
g2955
sg74
(lp2962
g2229
asbag67
(g88
g69
NtRp2963
(dp2964
g72
(dp2965
g99
g100
ssg81
g2955
sg74
(lp2966
S':'
asbag67
(g88
g69
NtRp2967
(dp2968
g72
(dp2969
sg81
g2955
sg74
(lp2970
g67
(g68
g69
NtRp2971
(dp2972
g72
(dp2973
g80
I4
ssg81
g2967
sg74
(lp2974
S''
asbasbasbag67
(g83
g69
NtRp2975
(dp2976
g72
(dp2977
sg81
g2951
sg74
(lp2978
g67
(g88
g69
NtRp2979
(dp2980
g72
(dp2981
g92
g93
ssg81
g2975
sg74
(lp2982
g2250
asbag67
(g88
g69
NtRp2983
(dp2984
g72
(dp2985
g99
g100
ssg81
g2975
sg74
(lp2986
S':'
asbag67
(g88
g69
NtRp2987
(dp2988
g72
(dp2989
sg81
g2975
sg74
(lp2990
g67
(g68
g69
NtRp2991
(dp2992
g72
(dp2993
g80
I4
ssg81
g2987
sg74
(lp2994
g2263
asbasbasbag67
(g83
g69
NtRp2995
(dp2996
g72
(dp2997
sg81
g2951
sg74
(lp2998
g67
(g88
g69
NtRp2999
(dp3000
g72
(dp3001
g92
g93
ssg81
g2995
sg74
(lp3002
g2272
asbag67
(g88
g69
NtRp3003
(dp3004
g72
(dp3005
g99
g100
ssg81
g2995
sg74
(lp3006
S':'
asbag67
(g88
g69
NtRp3007
(dp3008
g72
(dp3009
sg81
g2995
sg74
(lp3010
g67
(g68
g69
NtRp3011
(dp3012
g72
(dp3013
g80
I4
ssg81
g3007
sg74
(lp3014
g2285
asbasbasbag67
(g83
g69
NtRp3015
(dp3016
g72
(dp3017
sg81
g2951
sg74
(lp3018
g67
(g88
g69
NtRp3019
(dp3020
g72
(dp3021
g92
g93
ssg81
g3015
sg74
(lp3022
g2294
asbag67
(g88
g69
NtRp3023
(dp3024
g72
(dp3025
g99
g100
ssg81
g3015
sg74
(lp3026
S':'
asbag67
(g88
g69
NtRp3027
(dp3028
g72
(dp3029
sg81
g3015
sg74
(lp3030
g67
(g68
g69
NtRp3031
(dp3032
g72
(dp3033
g80
I4
ssg81
g3027
sg74
(lp3034
S''
asbasbasbag67
(g83
g69
NtRp3035
(dp3036
g72
(dp3037
sg81
g2951
sg74
(lp3038
g67
(g88
g69
NtRp3039
(dp3040
g72
(dp3041
g92
g93
ssg81
g3035
sg74
(lp3042
g2315
asbag67
(g88
g69
NtRp3043
(dp3044
g72
(dp3045
g99
g100
ssg81
g3035
sg74
(lp3046
S':'
asbag67
(g88
g69
NtRp3047
(dp3048
g72
(dp3049
sg81
g3035
sg74
(lp3050
g67
(g68
g69
NtRp3051
(dp3052
g72
(dp3053
g80
I4
ssg81
g3047
sg74
(lp3054
g2328
asbasbasbag67
(g83
g69
NtRp3055
(dp3056
g72
(dp3057
sg81
g2951
sg74
(lp3058
g67
(g88
g69
NtRp3059
(dp3060
g72
(dp3061
g92
g93
ssg81
g3055
sg74
(lp3062
g2337
asbag67
(g88
g69
NtRp3063
(dp3064
g72
(dp3065
g99
g100
ssg81
g3055
sg74
(lp3066
S':'
asbag67
(g88
g69
NtRp3067
(dp3068
g72
(dp3069
sg81
g3055
sg74
(lp3070
g67
(g68
g69
NtRp3071
(dp3072
g72
(dp3073
g80
I4
ssg81
g3067
sg74
(lp3074
S''
asbasbasbag67
(g83
g69
NtRp3075
(dp3076
g72
(dp3077
sg81
g2951
sg74
(lp3078
g67
(g88
g69
NtRp3079
(dp3080
g72
(dp3081
g92
g93
ssg81
g3075
sg74
(lp3082
g2358
asbag67
(g88
g69
NtRp3083
(dp3084
g72
(dp3085
g99
g100
ssg81
g3075
sg74
(lp3086
S':'
asbag67
(g88
g69
NtRp3087
(dp3088
g72
(dp3089
sg81
g3075
sg74
(lp3090
g67
(g68
g69
NtRp3091
(dp3092
g72
(dp3093
g80
I4
ssg81
g3087
sg74
(lp3094
g2371
asbasbasbag67
(g83
g69
NtRp3095
(dp3096
g72
(dp3097
sg81
g2951
sg74
(lp3098
g67
(g88
g69
NtRp3099
(dp3100
g72
(dp3101
g92
g93
ssg81
g3095
sg74
(lp3102
g2380
asbag67
(g88
g69
NtRp3103
(dp3104
g72
(dp3105
g99
g100
ssg81
g3095
sg74
(lp3106
S':'
asbag67
(g88
g69
NtRp3107
(dp3108
g72
(dp3109
sg81
g3095
sg74
(lp3110
g67
(g68
g69
NtRp3111
(dp3112
g72
(dp3113
g80
I4
ssg81
g3107
sg74
(lp3114
S''
asbasbasbag67
(g83
g69
NtRp3115
(dp3116
g72
(dp3117
sg81
g2951
sg74
(lp3118
g67
(g88
g69
NtRp3119
(dp3120
g72
(dp3121
g92
g93
ssg81
g3115
sg74
(lp3122
g2401
asbag67
(g88
g69
NtRp3123
(dp3124
g72
(dp3125
g99
g100
ssg81
g3115
sg74
(lp3126
S':'
asbag67
(g88
g69
NtRp3127
(dp3128
g72
(dp3129
sg81
g3115
sg74
(lp3130
g67
(g68
g69
NtRp3131
(dp3132
g72
(dp3133
g80
I4
ssg81
g3127
sg74
(lp3134
g2414
asbasbasbag67
(g83
g69
NtRp3135
(dp3136
g72
(dp3137
sg81
g2951
sg74
(lp3138
g67
(g88
g69
NtRp3139
(dp3140
g72
(dp3141
g92
g93
ssg81
g3135
sg74
(lp3142
g2423
asbag67
(g88
g69
NtRp3143
(dp3144
g72
(dp3145
g99
g100
ssg81
g3135
sg74
(lp3146
S':'
asbag67
(g88
g69
NtRp3147
(dp3148
g72
(dp3149
sg81
g3135
sg74
(lp3150
g67
(g68
g69
NtRp3151
(dp3152
g72
(dp3153
g80
I4
ssg81
g3147
sg74
(lp3154
S''
asbasbasbasbasbasbasbag67
(g83
g69
NtRp3155
(dp3156
g72
(dp3157
sg81
g77
sg74
(lp3158
g67
(g88
g69
NtRp3159
(dp3160
g72
(dp3161
g92
g93
ssg81
g3155
sg74
(lp3162
S'wsgi'
p3163
asbag67
(g88
g69
NtRp3164
(dp3165
g72
(dp3166
g99
g100
ssg81
g3155
sg74
(lp3167
S':'
asbag67
(g88
g69
NtRp3168
(dp3169
g72
(dp3170
sg81
g3155
sg74
(lp3171
g67
(g68
g69
NtRp3172
(dp3173
g72
(dp3174
g80
I5
ssg81
g3168
sg74
(lp3175
g67
(g76
g69
NtRp3176
(dp3177
g72
(dp3178
g80
I4
ssg81
Nsg74
(lp3179
g67
(g83
g69
NtRp3180
(dp3181
g72
(dp3182
sg81
g3176
sg74
(lp3183
g67
(g88
g69
NtRp3184
(dp3185
g72
(dp3186
g92
g93
ssg81
g3180
sg74
(lp3187
S'environ'
p3188
asbag67
(g88
g69
NtRp3189
(dp3190
g72
(dp3191
g99
g100
ssg81
g3180
sg74
(lp3192
S':'
asbag67
(g88
g69
NtRp3193
(dp3194
g72
(dp3195
sg81
g3180
sg74
(lp3196
g67
(g68
g69
NtRp3197
(dp3198
g72
(dp3199
g80
I4
ssg81
g3193
sg74
(lp3200
g67
(g76
g69
NtRp3201
(dp3202
g72
(dp3203
g80
I3
ssg81
Nsg74
(lp3204
g67
(g83
g69
NtRp3205
(dp3206
g72
(dp3207
sg81
g3201
sg74
(lp3208
g67
(g88
g69
NtRp3209
(dp3210
g72
(dp3211
g92
g93
ssg81
g3205
sg74
(lp3212
S'HTTP_ACCEPT'
p3213
asbag67
(g88
g69
NtRp3214
(dp3215
g72
(dp3216
g99
g100
ssg81
g3205
sg74
(lp3217
S':'
asbag67
(g88
g69
NtRp3218
(dp3219
g72
(dp3220
sg81
g3205
sg74
(lp3221
g67
(g68
g69
NtRp3222
(dp3223
g72
(dp3224
g80
I3
ssg81
g3218
sg74
(lp3225
g1383
asbasbasbag67
(g83
g69
NtRp3226
(dp3227
g72
(dp3228
sg81
g3201
sg74
(lp3229
g67
(g88
g69
NtRp3230
(dp3231
g72
(dp3232
g92
g93
ssg81
g3226
sg74
(lp3233
S'HTTP_ACCEPT_ENCODING'
p3234
asbag67
(g88
g69
NtRp3235
(dp3236
g72
(dp3237
g99
g100
ssg81
g3226
sg74
(lp3238
S':'
asbag67
(g88
g69
NtRp3239
(dp3240
g72
(dp3241
sg81
g3226
sg74
(lp3242
g67
(g68
g69
NtRp3243
(dp3244
g72
(dp3245
g80
I3
ssg81
g3239
sg74
(lp3246
g1405
asbasbasbag67
(g83
g69
NtRp3247
(dp3248
g72
(dp3249
sg81
g3201
sg74
(lp3250
g67
(g88
g69
NtRp3251
(dp3252
g72
(dp3253
g92
g93
ssg81
g3247
sg74
(lp3254
S'HTTP_ACCEPT_LANGUAGE'
p3255
asbag67
(g88
g69
NtRp3256
(dp3257
g72
(dp3258
g99
g100
ssg81
g3247
sg74
(lp3259
S':'
asbag67
(g88
g69
NtRp3260
(dp3261
g72
(dp3262
sg81
g3247
sg74
(lp3263
g67
(g68
g69
NtRp3264
(dp3265
g72
(dp3266
g80
I3
ssg81
g3260
sg74
(lp3267
g1427
asbasbasbag67
(g83
g69
NtRp3268
(dp3269
g72
(dp3270
sg81
g3201
sg74
(lp3271
g67
(g88
g69
NtRp3272
(dp3273
g72
(dp3274
g92
g93
ssg81
g3268
sg74
(lp3275
S'HTTP_CONNECTION'
p3276
asbag67
(g88
g69
NtRp3277
(dp3278
g72
(dp3279
g99
g100
ssg81
g3268
sg74
(lp3280
S':'
asbag67
(g88
g69
NtRp3281
(dp3282
g72
(dp3283
sg81
g3268
sg74
(lp3284
g67
(g68
g69
NtRp3285
(dp3286
g72
(dp3287
g80
I3
ssg81
g3281
sg74
(lp3288
g1449
asbasbasbag67
(g83
g69
NtRp3289
(dp3290
g72
(dp3291
sg81
g3201
sg74
(lp3292
g67
(g88
g69
NtRp3293
(dp3294
g72
(dp3295
g92
g93
ssg81
g3289
sg74
(lp3296
S'HTTP_COOKIE'
p3297
asbag67
(g88
g69
NtRp3298
(dp3299
g72
(dp3300
g99
g100
ssg81
g3289
sg74
(lp3301
S':'
asbag67
(g88
g69
NtRp3302
(dp3303
g72
(dp3304
sg81
g3289
sg74
(lp3305
g67
(g68
g69
NtRp3306
(dp3307
g72
(dp3308
g80
I3
ssg81
g3302
sg74
(lp3309
g1471
asbasbasbag67
(g83
g69
NtRp3310
(dp3311
g72
(dp3312
sg81
g3201
sg74
(lp3313
g67
(g88
g69
NtRp3314
(dp3315
g72
(dp3316
g92
g93
ssg81
g3310
sg74
(lp3317
S'HTTP_HOST'
p3318
asbag67
(g88
g69
NtRp3319
(dp3320
g72
(dp3321
g99
g100
ssg81
g3310
sg74
(lp3322
S':'
asbag67
(g88
g69
NtRp3323
(dp3324
g72
(dp3325
sg81
g3310
sg74
(lp3326
g67
(g68
g69
NtRp3327
(dp3328
g72
(dp3329
g80
I3
ssg81
g3323
sg74
(lp3330
g1493
asbasbasbag67
(g83
g69
NtRp3331
(dp3332
g72
(dp3333
sg81
g3201
sg74
(lp3334
g67
(g88
g69
NtRp3335
(dp3336
g72
(dp3337
g92
g93
ssg81
g3331
sg74
(lp3338
S'HTTP_REFERER'
p3339
asbag67
(g88
g69
NtRp3340
(dp3341
g72
(dp3342
g99
g100
ssg81
g3331
sg74
(lp3343
S':'
asbag67
(g88
g69
NtRp3344
(dp3345
g72
(dp3346
sg81
g3331
sg74
(lp3347
g67
(g68
g69
NtRp3348
(dp3349
g72
(dp3350
g80
I3
ssg81
g3344
sg74
(lp3351
g1515
asbasbasbag67
(g83
g69
NtRp3352
(dp3353
g72
(dp3354
sg81
g3201
sg74
(lp3355
g67
(g88
g69
NtRp3356
(dp3357
g72
(dp3358
g92
g93
ssg81
g3352
sg74
(lp3359
S'HTTP_USER_AGENT'
p3360
asbag67
(g88
g69
NtRp3361
(dp3362
g72
(dp3363
g99
g100
ssg81
g3352
sg74
(lp3364
S':'
asbag67
(g88
g69
NtRp3365
(dp3366
g72
(dp3367
sg81
g3352
sg74
(lp3368
g67
(g68
g69
NtRp3369
(dp3370
g72
(dp3371
g80
I3
ssg81
g3365
sg74
(lp3372
g1537
asbasbasbag67
(g83
g69
NtRp3373
(dp3374
g72
(dp3375
sg81
g3201
sg74
(lp3376
g67
(g88
g69
NtRp3377
(dp3378
g72
(dp3379
g92
g93
ssg81
g3373
sg74
(lp3380
S'PATH_INFO'
p3381
asbag67
(g88
g69
NtRp3382
(dp3383
g72
(dp3384
g99
g100
ssg81
g3373
sg74
(lp3385
S':'
asbag67
(g88
g69
NtRp3386
(dp3387
g72
(dp3388
sg81
g3373
sg74
(lp3389
g67
(g68
g69
NtRp3390
(dp3391
g72
(dp3392
g80
I3
ssg81
g3386
sg74
(lp3393
g1601
asbasbasbag67
(g83
g69
NtRp3394
(dp3395
g72
(dp3396
sg81
g3201
sg74
(lp3397
g67
(g88
g69
NtRp3398
(dp3399
g72
(dp3400
g92
g93
ssg81
g3394
sg74
(lp3401
S'QUERY_STRING'
p3402
asbag67
(g88
g69
NtRp3403
(dp3404
g72
(dp3405
g99
g100
ssg81
g3394
sg74
(lp3406
S':'
asbag67
(g88
g69
NtRp3407
(dp3408
g72
(dp3409
sg81
g3394
sg74
(lp3410
g67
(g68
g69
NtRp3411
(dp3412
g72
(dp3413
g80
I3
ssg81
g3407
sg74
(lp3414
g1623
asbasbasbag67
(g83
g69
NtRp3415
(dp3416
g72
(dp3417
sg81
g3201
sg74
(lp3418
g67
(g88
g69
NtRp3419
(dp3420
g72
(dp3421
g92
g93
ssg81
g3415
sg74
(lp3422
S'REMOTE_ADDR'
p3423
asbag67
(g88
g69
NtRp3424
(dp3425
g72
(dp3426
g99
g100
ssg81
g3415
sg74
(lp3427
S':'
asbag67
(g88
g69
NtRp3428
(dp3429
g72
(dp3430
sg81
g3415
sg74
(lp3431
g67
(g68
g69
NtRp3432
(dp3433
g72
(dp3434
g80
I3
ssg81
g3428
sg74
(lp3435
g200
asbasbasbag67
(g83
g69
NtRp3436
(dp3437
g72
(dp3438
sg81
g3201
sg74
(lp3439
g67
(g88
g69
NtRp3440
(dp3441
g72
(dp3442
g92
g93
ssg81
g3436
sg74
(lp3443
S'REMOTE_PORT'
p3444
asbag67
(g88
g69
NtRp3445
(dp3446
g72
(dp3447
g99
g100
ssg81
g3436
sg74
(lp3448
S':'
asbag67
(g88
g69
NtRp3449
(dp3450
g72
(dp3451
sg81
g3436
sg74
(lp3452
g67
(g68
g69
NtRp3453
(dp3454
g72
(dp3455
g80
I3
ssg81
g3449
sg74
(lp3456
g1666
asbasbasbag67
(g83
g69
NtRp3457
(dp3458
g72
(dp3459
sg81
g3201
sg74
(lp3460
g67
(g88
g69
NtRp3461
(dp3462
g72
(dp3463
g92
g93
ssg81
g3457
sg74
(lp3464
S'REQUEST_METHOD'
p3465
asbag67
(g88
g69
NtRp3466
(dp3467
g72
(dp3468
g99
g100
ssg81
g3457
sg74
(lp3469
S':'
asbag67
(g88
g69
NtRp3470
(dp3471
g72
(dp3472
sg81
g3457
sg74
(lp3473
g67
(g68
g69
NtRp3474
(dp3475
g72
(dp3476
g80
I3
ssg81
g3470
sg74
(lp3477
g1688
asbasbasbag67
(g83
g69
NtRp3478
(dp3479
g72
(dp3480
sg81
g3201
sg74
(lp3481
g67
(g88
g69
NtRp3482
(dp3483
g72
(dp3484
g92
g93
ssg81
g3478
sg74
(lp3485
S'SCRIPT_NAME'
p3486
asbag67
(g88
g69
NtRp3487
(dp3488
g72
(dp3489
g99
g100
ssg81
g3478
sg74
(lp3490
S':'
asbag67
(g88
g69
NtRp3491
(dp3492
g72
(dp3493
sg81
g3478
sg74
(lp3494
g67
(g68
g69
NtRp3495
(dp3496
g72
(dp3497
g80
I3
ssg81
g3491
sg74
(lp3498
S''
asbasbasbag67
(g83
g69
NtRp3499
(dp3500
g72
(dp3501
sg81
g3201
sg74
(lp3502
g67
(g88
g69
NtRp3503
(dp3504
g72
(dp3505
g92
g93
ssg81
g3499
sg74
(lp3506
S'SERVER_NAME'
p3507
asbag67
(g88
g69
NtRp3508
(dp3509
g72
(dp3510
g99
g100
ssg81
g3499
sg74
(lp3511
S':'
asbag67
(g88
g69
NtRp3512
(dp3513
g72
(dp3514
sg81
g3499
sg74
(lp3515
g67
(g68
g69
NtRp3516
(dp3517
g72
(dp3518
g80
I3
ssg81
g3512
sg74
(lp3519
g1731
asbasbasbag67
(g83
g69
NtRp3520
(dp3521
g72
(dp3522
sg81
g3201
sg74
(lp3523
g67
(g88
g69
NtRp3524
(dp3525
g72
(dp3526
g92
g93
ssg81
g3520
sg74
(lp3527
S'SERVER_PORT'
p3528
asbag67
(g88
g69
NtRp3529
(dp3530
g72
(dp3531
g99
g100
ssg81
g3520
sg74
(lp3532
S':'
asbag67
(g88
g69
NtRp3533
(dp3534
g72
(dp3535
sg81
g3520
sg74
(lp3536
g67
(g68
g69
NtRp3537
(dp3538
g72
(dp3539
g80
I3
ssg81
g3533
sg74
(lp3540
g1753
asbasbasbag67
(g83
g69
NtRp3541
(dp3542
g72
(dp3543
sg81
g3201
sg74
(lp3544
g67
(g88
g69
NtRp3545
(dp3546
g72
(dp3547
g92
g93
ssg81
g3541
sg74
(lp3548
S'SERVER_PROTOCOL'
p3549
asbag67
(g88
g69
NtRp3550
(dp3551
g72
(dp3552
g99
g100
ssg81
g3541
sg74
(lp3553
S':'
asbag67
(g88
g69
NtRp3554
(dp3555
g72
(dp3556
sg81
g3541
sg74
(lp3557
g67
(g68
g69
NtRp3558
(dp3559
g72
(dp3560
g80
I3
ssg81
g3554
sg74
(lp3561
g1775
asbasbasbag67
(g83
g69
NtRp3562
(dp3563
g72
(dp3564
sg81
g3201
sg74
(lp3565
g67
(g88
g69
NtRp3566
(dp3567
g72
(dp3568
g92
g93
ssg81
g3562
sg74
(lp3569
S'SERVER_SOFTWARE'
p3570
asbag67
(g88
g69
NtRp3571
(dp3572
g72
(dp3573
g99
g100
ssg81
g3562
sg74
(lp3574
S':'
asbag67
(g88
g69
NtRp3575
(dp3576
g72
(dp3577
sg81
g3562
sg74
(lp3578
g67
(g68
g69
NtRp3579
(dp3580
g72
(dp3581
g80
I3
ssg81
g3575
sg74
(lp3582
g1797
asbasbasbag67
(g83
g69
NtRp3583
(dp3584
g72
(dp3585
sg81
g3201
sg74
(lp3586
g67
(g88
g69
NtRp3587
(dp3588
g72
(dp3589
g92
g93
ssg81
g3583
sg74
(lp3590
S'wsgi.errors'
p3591
asbag67
(g88
g69
NtRp3592
(dp3593
g72
(dp3594
g99
g100
ssg81
g3583
sg74
(lp3595
S':'
asbag67
(g88
g69
NtRp3596
(dp3597
g72
(dp3598
sg81
g3583
sg74
(lp3599
g67
(g68
g69
NtRp3600
(dp3601
g72
(dp3602
g80
I3
ssg81
g3596
sg74
(lp3603
S"<open file '<stderr>', mode 'w' at 0x00A550D0>"
p3604
asbasbasbag67
(g83
g69
NtRp3605
(dp3606
g72
(dp3607
sg81
g3201
sg74
(lp3608
g67
(g88
g69
NtRp3609
(dp3610
g72
(dp3611
g92
g93
ssg81
g3605
sg74
(lp3612
S'wsgi.file_wrapper'
p3613
asbag67
(g88
g69
NtRp3614
(dp3615
g72
(dp3616
g99
g100
ssg81
g3605
sg74
(lp3617
S':'
asbag67
(g88
g69
NtRp3618
(dp3619
g72
(dp3620
sg81
g3605
sg74
(lp3621
g67
(g68
g69
NtRp3622
(dp3623
g72
(dp3624
g80
I3
ssg81
g3618
sg74
(lp3625
S'<class wsgiref.util.FileWrapper at 0x015E8AB0>'
p3626
asbasbasbag67
(g83
g69
NtRp3627
(dp3628
g72
(dp3629
sg81
g3201
sg74
(lp3630
g67
(g88
g69
NtRp3631
(dp3632
g72
(dp3633
g92
g93
ssg81
g3627
sg74
(lp3634
S'wsgi.input'
p3635
asbag67
(g88
g69
NtRp3636
(dp3637
g72
(dp3638
g99
g100
ssg81
g3627
sg74
(lp3639
S':'
asbag67
(g88
g69
NtRp3640
(dp3641
g72
(dp3642
sg81
g3627
sg74
(lp3643
g67
(g68
g69
NtRp3644
(dp3645
g72
(dp3646
g80
I3
ssg81
g3640
sg74
(lp3647
S'<cStringIO.StringO object at 0x05D5C920>'
p3648
asbasbasbag67
(g83
g69
NtRp3649
(dp3650
g72
(dp3651
sg81
g3201
sg74
(lp3652
g67
(g88
g69
NtRp3653
(dp3654
g72
(dp3655
g92
g93
ssg81
g3649
sg74
(lp3656
S'wsgi.multiprocess'
p3657
asbag67
(g88
g69
NtRp3658
(dp3659
g72
(dp3660
g99
g100
ssg81
g3649
sg74
(lp3661
S':'
asbag67
(g88
g69
NtRp3662
(dp3663
g72
(dp3664
sg81
g3649
sg74
(lp3665
g67
(g68
g69
NtRp3666
(dp3667
g72
(dp3668
g80
I3
ssg81
g3662
sg74
(lp3669
g110
asbasbasbag67
(g83
g69
NtRp3670
(dp3671
g72
(dp3672
sg81
g3201
sg74
(lp3673
g67
(g88
g69
NtRp3674
(dp3675
g72
(dp3676
g92
g93
ssg81
g3670
sg74
(lp3677
S'wsgi.multithread'
p3678
asbag67
(g88
g69
NtRp3679
(dp3680
g72
(dp3681
g99
g100
ssg81
g3670
sg74
(lp3682
S':'
asbag67
(g88
g69
NtRp3683
(dp3684
g72
(dp3685
sg81
g3670
sg74
(lp3686
g67
(g68
g69
NtRp3687
(dp3688
g72
(dp3689
g80
I3
ssg81
g3683
sg74
(lp3690
g2037
asbasbasbag67
(g83
g69
NtRp3691
(dp3692
g72
(dp3693
sg81
g3201
sg74
(lp3694
g67
(g88
g69
NtRp3695
(dp3696
g72
(dp3697
g92
g93
ssg81
g3691
sg74
(lp3698
S'wsgi.run_once'
p3699
asbag67
(g88
g69
NtRp3700
(dp3701
g72
(dp3702
g99
g100
ssg81
g3691
sg74
(lp3703
S':'
asbag67
(g88
g69
NtRp3704
(dp3705
g72
(dp3706
sg81
g3691
sg74
(lp3707
g67
(g68
g69
NtRp3708
(dp3709
g72
(dp3710
g80
I3
ssg81
g3704
sg74
(lp3711
g110
asbasbasbag67
(g83
g69
NtRp3712
(dp3713
g72
(dp3714
sg81
g3201
sg74
(lp3715
g67
(g88
g69
NtRp3716
(dp3717
g72
(dp3718
g92
g93
ssg81
g3712
sg74
(lp3719
S'wsgi.url_scheme'
p3720
asbag67
(g88
g69
NtRp3721
(dp3722
g72
(dp3723
g99
g100
ssg81
g3712
sg74
(lp3724
S':'
asbag67
(g88
g69
NtRp3725
(dp3726
g72
(dp3727
sg81
g3712
sg74
(lp3728
g67
(g68
g69
NtRp3729
(dp3730
g72
(dp3731
g80
I3
ssg81
g3725
sg74
(lp3732
g2080
asbasbasbag67
(g83
g69
NtRp3733
(dp3734
g72
(dp3735
sg81
g3201
sg74
(lp3736
g67
(g88
g69
NtRp3737
(dp3738
g72
(dp3739
g92
g93
ssg81
g3733
sg74
(lp3740
S'wsgi.version'
p3741
asbag67
(g88
g69
NtRp3742
(dp3743
g72
(dp3744
g99
g100
ssg81
g3733
sg74
(lp3745
S':'
asbag67
(g88
g69
NtRp3746
(dp3747
g72
(dp3748
sg81
g3733
sg74
(lp3749
g67
(g68
g69
NtRp3750
(dp3751
g72
(dp3752
g80
I3
ssg81
g3746
sg74
(lp3753
S'1'
asbasbasbasbasbasbasbasbasbasbasbasbasbsS'frames'
p3754
(lp3755
(dp3756
S'file'
p3757
S'C:\\Documents and Settings\\agrover\\Desktop\\previous crawler\\web2py\\gluon\\restricted.py'
p3758
sS'dump'
p3759
(dp3760
S'environment'
p3761
S"{'A': <class 'gluon.html.A'>, 'Auth': <class 'gluon.tools.Auth'>, 'B': <class 'gluon.html.B'>, 'BEAUTIFY': <class 'gluon.html.BEAUTIFY'>, 'BODY': <class 'gluon.html.BODY'>, 'BR': <class 'gluon.html.BR'>, 'BUTTON': <class 'gluon.html.BUTTON'>, 'CAT': <class 'gluon.html.CAT'>, 'CENTER': <class 'gluon.html.CENTER'>, 'CLEANUP': <class 'gluon.validators.CLEANUP'>, ...}"
p3762
sS'ccode'
p3763
S'<code object <module> at 050954A0, file "C:\\Docu...tions\\mycrawler\\controllers/default.py", line 11>'
p3764
ssS'lnum'
p3765
I205
sS'lines'
p3766
(dp3767
I200
S'    try:'
p3768
sI201
S'        if type(code) == types.CodeType:'
p3769
sI202
S'            ccode = code'
p3770
sI203
S'        else:'
p3771
sI204
S'            ccode = compile2(code,layer)'
p3772
sI205
S'        exec ccode in environment'
p3773
sI206
S'    except HTTP:'
p3774
sI207
S'        raise'
p3775
sI208
S'    except RestrictedError:'
p3776
sI209
S'        # do not encapsulate (obfuscate) the original RestrictedError'
p3777
ssS'call'
p3778
S"(code='# -*- coding: utf-8 -*-\\n# this file is released ...urrent)\\n\\nresponse._vars=response._caller(search)\\n', environment={'A': <class 'gluon.html.A'>, 'Auth': <class 'gluon.tools.Auth'>, 'B': <class 'gluon.html.B'>, 'BEAUTIFY': <class 'gluon.html.BEAUTIFY'>, 'BODY': <class 'gluon.html.BODY'>, 'BR': <class 'gluon.html.BR'>, 'BUTTON': <class 'gluon.html.BUTTON'>, 'CAT': <class 'gluon.html.CAT'>, 'CENTER': <class 'gluon.html.CENTER'>, 'CLEANUP': <class 'gluon.validators.CLEANUP'>, ...}, layer=r'C:\\Documents and Settings\\agrover\\Desktop\\previo...2py\\applications\\mycrawler\\controllers/default.py')"
p3779
sS'func'
p3780
S'restricted'
p3781
sa(dp3782
g3757
S'C:\\Documents and Settings\\agrover\\Desktop\\previous crawler\\web2py\\applications\\mycrawler\\controllers\\default.py'
p3783
sg3759
(dp3784
sg3765
I337
sg3766
(dp3785
I326
S"    #response.headers['Content-Type'] = 'text/csv'"
p3786
sI327
S"    #response.headers['Content-Disposition'] = 'attachment; filename=%s' % request.vars.File_Name"
p3787
sI328
S''
sI329
S'    #print view_profile'
p3788
sI330
S'    #print name'
p3789
sI331
S'    #print location'
p3790
sI332
S'    #print industry'
p3791
sI333
S'    #print titl'
p3792
sI334
S''
sI335
S'    return dict(view_profile=view_profile,name=name,location=location,industry=industry,titl=titl,current=current)'
p3793
ssg3778
S'()'
p3794
sg3780
S'<module>'
p3795
sa(dp3796
g3757
S'C:\\Documents and Settings\\agrover\\Desktop\\previous crawler\\web2py\\gluon\\globals.py'
p3797
sg3759
(dp3798
S'self'
p3799
S'undefined'
p3800
sS'f'
S'<function search>'
p3801
ssg3765
I173
sg3766
(dp3802
I168
S'        self.menu = []             # used by the default view layout'
p3803
sI169
S'        self.files = []            # used by web2py_ajax.html'
p3804
sI170
S'        self.generic_patterns = [] # patterns to allow generic views'
p3805
sI171
S"        self.delimiters = ('{{','}}')"
p3806
sI172
S'        self._vars = None'
p3807
sI173
S'        self._caller = lambda f: f()'
p3808
sI174
S'        self._view_environment = None'
p3809
sI175
S'        self._custom_commit = None'
p3810
sI176
S'        self._custom_rollback = None'
p3811
sI177
S''
ssg3778
S'(f=<function search>)'
p3812
sg3780
S'<lambda>'
p3813
sa(dp3814
g3757
S'C:\\Documents and Settings\\agrover\\Desktop\\previous crawler\\web2py\\applications\\mycrawler\\controllers\\default.py'
p3815
sg3759
(dp3816
S'current'
p3817
S"[u'Director of Engineering at Model N', u'Head of Program Delivery at Tesco', u'Strategy Manager (Global Analytics) at Hewlett-Packard less', u'Editorial Consultant and Content Developer at Editing and Publishing Organizations less', u'Chairman at Primacy Industries, Managing Direc...), Managing Director at Manipal Media Group less', u'Vice President at Axis Bank Limited', u'Founder at Jnaapti (Sole Proprietorship) less', u'DGM - Human Resources at Jubilant Retail less', u'Global Account Manager, Mobile Payment Solutions at InMobi less', 'NONE']"
p3818
sS'spamWriter.writerow'
p3819
S'<built-in method writerow of _csv.writer object>'
p3820
sS'name'
p3821
S"['\\n Ravindra Pai\\n ', '\\n Muraleedhar Pai\\n ', '\\n Savita Pai\\n ', '\\n Amrita Pai\\n ', '\\n Gautham Pai\\n ', '\\n Anuradha Pai\\n ', '\\n Gautham Pai\\n ', '\\n Shyam S Pai, GPHR\\n ', '\\n Shubha Pai\\n ', '\\n Vedavyas Pai\\n ']"
p3822
sS'view_profile'
p3823
S"[u'http://www.linkedin.com/profile/view?id=342129...2_*2_*2_*2_*2_*2&pvs=ps&trk=pp_profile_name_link', u'http://www.linkedin.com/profile/view?id=887349...2_*2_*2_*2_*2_*2&pvs=ps&trk=pp_profile_name_link', u'http://www.linkedin.com/profile/view?id=117262...2_*2_*2_*2_*2_*2&pvs=ps&trk=pp_profile_name_link', u'http://www.linkedin.com/profile/view?id=161398...2_*2_*2_*2_*2_*2&pvs=ps&trk=pp_profile_name_link', u'http://www.linkedin.com/profile/view?id=252892...2_*2_*2_*2_*2_*2&pvs=ps&trk=pp_profile_name_link', u'http://www.linkedin.com/profile/view?id=342366...2_*2_*2_*2_*2_*2&pvs=ps&trk=pp_profile_name_link', u'http://www.linkedin.com/profile/view?id=366902...2_*2_*2_*2_*2_*2&pvs=ps&trk=pp_profile_name_link', u'http://www.linkedin.com/profile/view?id=378731...2_*2_*2_*2_*2_*2&pvs=ps&trk=pp_profile_name_link', u'http://www.linkedin.com/profile/view?id=432982...2_*2_*2_*2_*2_*2&pvs=ps&trk=pp_profile_name_link', u'http://www.linkedin.com/profile/view?id=442886...2_*2_*2_*2_*2_*2&pvs=ps&trk=pp_profile_name_link']"
p3824
sS'spamWriter'
p3825
S'<_csv.writer object>'
p3826
sS'titl'
p3827
S"[u'Director of Engineering', u'.', u'IPG Strategy Manager at Hewlett-Packard', u'Editorial Consultant and Content Developer. Founder, HUES Art and Craft.', u'Owner,Manipal Media Group', u'Vice President at Axis Bank Limited', u'Entrepreneur, tech coach, blogger, free software evangelist & geek', u'DGM - Human Resources at Jubilant Retail', u'Global Sales & Account Management, InMobi SmartPay\\u2122 at InMobi', u'QA Engineer at Vendio Inc.']"
p3828
sS'industry'
p3829
S"[u'\\n Computer Software\\n ', u'\\n Information Technology and Services\\n ', u'\\n Retail\\n ', u'\\n Writing and Editing\\n ', u'\\n Printing\\n ', u'\\n Banking\\n ', u'\\n Computer Software\\n ', u'\\n Human Resources\\n ', u'\\n Telecommunications\\n ', u'\\n Information Technology and Services\\n ']"
p3830
sS'].encode'
p3831
g3800
sS'builtinlen'
p3832
S'<built-in function len>'
p3833
sS'i'
S'8'
sS'location'
p3834
S"[u'\\n Bengaluru Area, India\\n ', u'\\n Bengaluru Area, India\\n ', u'\\n Bengaluru Area, India\\n ', u'\\n Mumbai Area, India\\n ', u'\\n Udipi Area, India\\n ', u'\\n Mumbai Area, India\\n ', u'\\n Bengaluru Area, India\\n ', u'\\n Bengaluru Area, India\\n ', u'\\n Bengaluru Area, India\\n ', u'\\n Bengaluru Area, India\\n ']"
p3835
ssg3765
I269
sg3766
(dp3836
I264
S'            #print l.get_text()'
p3837
sI265
S"            view_profile.append('http://www.linkedin.com'+l.get('href'))"
p3838
sI266
S"            name.append(l.get_text().encode('utf-8'))"
p3839
sI267
S''
sI268
S'        for i in range(0,len(name)):'
p3840
sI269
S"            spamWriter.writerow([name[i][1:len(name[i])-1].encode('utf-8'),titl[i],current[i],location[i][1:len(location[i])-1],industry[i][1:len(industry[i])-1],view_profile[i]])"
p3841
sI270
S''
sI271
S'        if soup.find(\'a\',{"class" : "paginator-next"}):'
p3842
sI272
S'            br.open(\'http://www.linkedin.com\'+ soup.find(\'a\',{"class" : "paginator-next"}).get(\'href\'))'
p3843
sI273
S'        #soup = BeautifulSoup(br.response().read())'
p3844
ssg3778
S'()'
p3845
sg3780
S'search'
p3846
sasS'pyver'
p3847
S'Python 2.7.3: C:\\Python27\\python.exe'
p3848
sS'session'
p3849
g67
(g68
g69
NtRp3850
(dp3851
g72
(dp3852
sg74
(lp3853
g67
(g76
g69
NtRp3854
(dp3855
g72
(dp3856
g80
I5
ssg81
Nsg74
(lp3857
sbasbsS'etype'
p3858
S"<type 'exceptions.UnicodeEncodeError'>"
p3859
sS'date'
p3860
S'Mon Jun 11 12:46:20 2012'
p3861
sS'response'
p3862
g67
(g68
g69
NtRp3863
(dp3864
g72
(dp3865
sg74
(lp3866
g67
(g76
g69
NtRp3867
(dp3868
g72
(dp3869
g80
I5
ssg81
Nsg74
(lp3870
g67
(g83
g69
NtRp3871
(dp3872
g72
(dp3873
sg81
g3867
sg74
(lp3874
g67
(g88
g69
NtRp3875
(dp3876
g72
(dp3877
g92
g93
ssg81
g3871
sg74
(lp3878
g165
asbag67
(g88
g69
NtRp3879
(dp3880
g72
(dp3881
g99
g100
ssg81
g3871
sg74
(lp3882
S':'
asbag67
(g88
g69
NtRp3883
(dp3884
g72
(dp3885
sg81
g3871
sg74
(lp3886
g67
(g68
g69
NtRp3887
(dp3888
g72
(dp3889
g80
I5
ssg81
g3883
sg74
(lp3890
S'<cStringIO.StringO object at 0x05CE0920>'
p3891
asbasbasbag67
(g83
g69
NtRp3892
(dp3893
g72
(dp3894
sg81
g3867
sg74
(lp3895
g67
(g88
g69
NtRp3896
(dp3897
g72
(dp3898
g92
g93
ssg81
g3892
sg74
(lp3899
g231
asbag67
(g88
g69
NtRp3900
(dp3901
g72
(dp3902
g99
g100
ssg81
g3892
sg74
(lp3903
S':'
asbag67
(g88
g69
NtRp3904
(dp3905
g72
(dp3906
sg81
g3892
sg74
(lp3907
g67
(g68
g69
NtRp3908
(dp3909
g72
(dp3910
g80
I5
ssg81
g3904
sg74
(lp3911
g67
(g76
g69
NtRp3912
(dp3913
g72
(dp3914
g80
I4
ssg81
Nsg74
(lp3915
g67
(g83
g69
NtRp3916
(dp3917
g72
(dp3918
sg81
g3912
sg74
(lp3919
g67
(g88
g69
NtRp3920
(dp3921
g72
(dp3922
g92
g93
ssg81
g3916
sg74
(lp3923
S'session_id_mycrawler'
p3924
asbag67
(g88
g69
NtRp3925
(dp3926
g72
(dp3927
g99
g100
ssg81
g3916
sg74
(lp3928
S':'
asbag67
(g88
g69
NtRp3929
(dp3930
g72
(dp3931
sg81
g3916
sg74
(lp3932
g67
(g68
g69
NtRp3933
(dp3934
g72
(dp3935
g80
I4
ssg81
g3929
sg74
(lp3936
g67
(g76
g69
NtRp3937
(dp3938
g72
(dp3939
g80
I3
ssg81
Nsg74
(lp3940
g67
(g83
g69
NtRp3941
(dp3942
g72
(dp3943
sg81
g3937
sg74
(lp3944
g67
(g88
g69
NtRp3945
(dp3946
g72
(dp3947
g92
g93
ssg81
g3941
sg74
(lp3948
g281
asbag67
(g88
g69
NtRp3949
(dp3950
g72
(dp3951
g99
g100
ssg81
g3941
sg74
(lp3952
S':'
asbag67
(g88
g69
NtRp3953
(dp3954
g72
(dp3955
sg81
g3941
sg74
(lp3956
g67
(g68
g69
NtRp3957
(dp3958
g72
(dp3959
g80
I3
ssg81
g3953
sg74
(lp3960
S''
asbasbasbag67
(g83
g69
NtRp3961
(dp3962
g72
(dp3963
sg81
g3937
sg74
(lp3964
g67
(g88
g69
NtRp3965
(dp3966
g72
(dp3967
g92
g93
ssg81
g3961
sg74
(lp3968
g302
asbag67
(g88
g69
NtRp3969
(dp3970
g72
(dp3971
g99
g100
ssg81
g3961
sg74
(lp3972
S':'
asbag67
(g88
g69
NtRp3973
(dp3974
g72
(dp3975
sg81
g3961
sg74
(lp3976
g67
(g68
g69
NtRp3977
(dp3978
g72
(dp3979
g80
I3
ssg81
g3973
sg74
(lp3980
S''
asbasbasbag67
(g83
g69
NtRp3981
(dp3982
g72
(dp3983
sg81
g3937
sg74
(lp3984
g67
(g88
g69
NtRp3985
(dp3986
g72
(dp3987
g92
g93
ssg81
g3981
sg74
(lp3988
g323
asbag67
(g88
g69
NtRp3989
(dp3990
g72
(dp3991
g99
g100
ssg81
g3981
sg74
(lp3992
S':'
asbag67
(g88
g69
NtRp3993
(dp3994
g72
(dp3995
sg81
g3981
sg74
(lp3996
g67
(g68
g69
NtRp3997
(dp3998
g72
(dp3999
g80
I3
ssg81
g3993
sg74
(lp4000
S''
asbasbasbag67
(g83
g69
NtRp4001
(dp4002
g72
(dp4003
sg81
g3937
sg74
(lp4004
g67
(g88
g69
NtRp4005
(dp4006
g72
(dp4007
g92
g93
ssg81
g4001
sg74
(lp4008
g344
asbag67
(g88
g69
NtRp4009
(dp4010
g72
(dp4011
g99
g100
ssg81
g4001
sg74
(lp4012
S':'
asbag67
(g88
g69
NtRp4013
(dp4014
g72
(dp4015
sg81
g4001
sg74
(lp4016
g67
(g68
g69
NtRp4017
(dp4018
g72
(dp4019
g80
I3
ssg81
g4013
sg74
(lp4020
S''
asbasbasbag67
(g83
g69
NtRp4021
(dp4022
g72
(dp4023
sg81
g3937
sg74
(lp4024
g67
(g88
g69
NtRp4025
(dp4026
g72
(dp4027
g92
g93
ssg81
g4021
sg74
(lp4028
g365
asbag67
(g88
g69
NtRp4029
(dp4030
g72
(dp4031
g99
g100
ssg81
g4021
sg74
(lp4032
S':'
asbag67
(g88
g69
NtRp4033
(dp4034
g72
(dp4035
sg81
g4021
sg74
(lp4036
g67
(g68
g69
NtRp4037
(dp4038
g72
(dp4039
g80
I3
ssg81
g4033
sg74
(lp4040
S''
asbasbasbag67
(g83
g69
NtRp4041
(dp4042
g72
(dp4043
sg81
g3937
sg74
(lp4044
g67
(g88
g69
NtRp4045
(dp4046
g72
(dp4047
g92
g93
ssg81
g4041
sg74
(lp4048
g386
asbag67
(g88
g69
NtRp4049
(dp4050
g72
(dp4051
g99
g100
ssg81
g4041
sg74
(lp4052
S':'
asbag67
(g88
g69
NtRp4053
(dp4054
g72
(dp4055
sg81
g4041
sg74
(lp4056
g67
(g68
g69
NtRp4057
(dp4058
g72
(dp4059
g80
I3
ssg81
g4053
sg74
(lp4060
S'/'
asbasbasbag67
(g83
g69
NtRp4061
(dp4062
g72
(dp4063
sg81
g3937
sg74
(lp4064
g67
(g88
g69
NtRp4065
(dp4066
g72
(dp4067
g92
g93
ssg81
g4061
sg74
(lp4068
g407
asbag67
(g88
g69
NtRp4069
(dp4070
g72
(dp4071
g99
g100
ssg81
g4061
sg74
(lp4072
S':'
asbag67
(g88
g69
NtRp4073
(dp4074
g72
(dp4075
sg81
g4061
sg74
(lp4076
g67
(g68
g69
NtRp4077
(dp4078
g72
(dp4079
g80
I3
ssg81
g4073
sg74
(lp4080
S''
asbasbasbag67
(g83
g69
NtRp4081
(dp4082
g72
(dp4083
sg81
g3937
sg74
(lp4084
g67
(g88
g69
NtRp4085
(dp4086
g72
(dp4087
g92
g93
ssg81
g4081
sg74
(lp4088
g428
asbag67
(g88
g69
NtRp4089
(dp4090
g72
(dp4091
g99
g100
ssg81
g4081
sg74
(lp4092
S':'
asbag67
(g88
g69
NtRp4093
(dp4094
g72
(dp4095
sg81
g4081
sg74
(lp4096
g67
(g68
g69
NtRp4097
(dp4098
g72
(dp4099
g80
I3
ssg81
g4093
sg74
(lp4100
S''
asbasbasbasbasbasbasbasbasbasbasbag67
(g83
g69
NtRp4101
(dp4102
g72
(dp4103
sg81
g3867
sg74
(lp4104
g67
(g88
g69
NtRp4105
(dp4106
g72
(dp4107
g92
g93
ssg81
g4101
sg74
(lp4108
S'delimiters'
p4109
asbag67
(g88
g69
NtRp4110
(dp4111
g72
(dp4112
g99
g100
ssg81
g4101
sg74
(lp4113
S':'
asbag67
(g88
g69
NtRp4114
(dp4115
g72
(dp4116
sg81
g4101
sg74
(lp4117
g67
(g68
g69
NtRp4118
(dp4119
g72
(dp4120
g80
I5
ssg81
g4114
sg74
(lp4121
g67
(g76
g69
NtRp4122
(dp4123
g72
(dp4124
g80
I4
ssg81
Nsg74
(lp4125
g67
(g83
g69
NtRp4126
(dp4127
g72
(dp4128
sg81
g4122
sg74
(lp4129
g67
(g88
g69
NtRp4130
(dp4131
g72
(dp4132
sg81
g4126
sg74
(lp4133
g67
(g68
g69
NtRp4134
(dp4135
g72
(dp4136
g80
I4
ssg81
g4130
sg74
(lp4137
S'{{'
p4138
asbasbasbag67
(g83
g69
NtRp4139
(dp4140
g72
(dp4141
sg81
g4122
sg74
(lp4142
g67
(g88
g69
NtRp4143
(dp4144
g72
(dp4145
sg81
g4139
sg74
(lp4146
g67
(g68
g69
NtRp4147
(dp4148
g72
(dp4149
g80
I4
ssg81
g4143
sg74
(lp4150
S'}}'
p4151
asbasbasbasbasbasbasbag67
(g83
g69
NtRp4152
(dp4153
g72
(dp4154
sg81
g3867
sg74
(lp4155
g67
(g88
g69
NtRp4156
(dp4157
g72
(dp4158
g92
g93
ssg81
g4152
sg74
(lp4159
S'files'
p4160
asbag67
(g88
g69
NtRp4161
(dp4162
g72
(dp4163
g99
g100
ssg81
g4152
sg74
(lp4164
S':'
asbag67
(g88
g69
NtRp4165
(dp4166
g72
(dp4167
sg81
g4152
sg74
(lp4168
g67
(g68
g69
NtRp4169
(dp4170
g72
(dp4171
g80
I5
ssg81
g4165
sg74
(lp4172
g67
(g76
g69
NtRp4173
(dp4174
g72
(dp4175
g80
I4
ssg81
Nsg74
(lp4176
sbasbasbasbag67
(g83
g69
NtRp4177
(dp4178
g72
(dp4179
sg81
g3867
sg74
(lp4180
g67
(g88
g69
NtRp4181
(dp4182
g72
(dp4183
g92
g93
ssg81
g4177
sg74
(lp4184
S'flash'
p4185
asbag67
(g88
g69
NtRp4186
(dp4187
g72
(dp4188
g99
g100
ssg81
g4177
sg74
(lp4189
S':'
asbag67
(g88
g69
NtRp4190
(dp4191
g72
(dp4192
sg81
g4177
sg74
(lp4193
g67
(g68
g69
NtRp4194
(dp4195
g72
(dp4196
g80
I5
ssg81
g4190
sg74
(lp4197
S''
asbasbasbag67
(g83
g69
NtRp4198
(dp4199
g72
(dp4200
sg81
g3867
sg74
(lp4201
g67
(g88
g69
NtRp4202
(dp4203
g72
(dp4204
g92
g93
ssg81
g4198
sg74
(lp4205
S'generic_patterns'
p4206
asbag67
(g88
g69
NtRp4207
(dp4208
g72
(dp4209
g99
g100
ssg81
g4198
sg74
(lp4210
S':'
asbag67
(g88
g69
NtRp4211
(dp4212
g72
(dp4213
sg81
g4198
sg74
(lp4214
g67
(g68
g69
NtRp4215
(dp4216
g72
(dp4217
g80
I5
ssg81
g4211
sg74
(lp4218
g67
(g76
g69
NtRp4219
(dp4220
g72
(dp4221
g80
I4
ssg81
Nsg74
(lp4222
g67
(g83
g69
NtRp4223
(dp4224
g72
(dp4225
sg81
g4219
sg74
(lp4226
g67
(g88
g69
NtRp4227
(dp4228
g72
(dp4229
sg81
g4223
sg74
(lp4230
g67
(g68
g69
NtRp4231
(dp4232
g72
(dp4233
g80
I4
ssg81
g4227
sg74
(lp4234
S'*'
asbasbasbasbasbasbasbag67
(g83
g69
NtRp4235
(dp4236
g72
(dp4237
sg81
g3867
sg74
(lp4238
g67
(g88
g69
NtRp4239
(dp4240
g72
(dp4241
g92
g93
ssg81
g4235
sg74
(lp4242
S'headers'
p4243
asbag67
(g88
g69
NtRp4244
(dp4245
g72
(dp4246
g99
g100
ssg81
g4235
sg74
(lp4247
S':'
asbag67
(g88
g69
NtRp4248
(dp4249
g72
(dp4250
sg81
g4235
sg74
(lp4251
g67
(g68
g69
NtRp4252
(dp4253
g72
(dp4254
g80
I5
ssg81
g4248
sg74
(lp4255
g67
(g76
g69
NtRp4256
(dp4257
g72
(dp4258
g80
I4
ssg81
Nsg74
(lp4259
g67
(g83
g69
NtRp4260
(dp4261
g72
(dp4262
sg81
g4256
sg74
(lp4263
g67
(g88
g69
NtRp4264
(dp4265
g72
(dp4266
g92
g93
ssg81
g4260
sg74
(lp4267
S'Cache-Control'
p4268
asbag67
(g88
g69
NtRp4269
(dp4270
g72
(dp4271
g99
g100
ssg81
g4260
sg74
(lp4272
S':'
asbag67
(g88
g69
NtRp4273
(dp4274
g72
(dp4275
sg81
g4260
sg74
(lp4276
g67
(g68
g69
NtRp4277
(dp4278
g72
(dp4279
g80
I4
ssg81
g4273
sg74
(lp4280
S'no-store, no-cache, must-revalidate, post-check=0, pre-check=0'
p4281
asbasbasbag67
(g83
g69
NtRp4282
(dp4283
g72
(dp4284
sg81
g4256
sg74
(lp4285
g67
(g88
g69
NtRp4286
(dp4287
g72
(dp4288
g92
g93
ssg81
g4282
sg74
(lp4289
S'Content-Type'
p4290
asbag67
(g88
g69
NtRp4291
(dp4292
g72
(dp4293
g99
g100
ssg81
g4282
sg74
(lp4294
S':'
asbag67
(g88
g69
NtRp4295
(dp4296
g72
(dp4297
sg81
g4282
sg74
(lp4298
g67
(g68
g69
NtRp4299
(dp4300
g72
(dp4301
g80
I4
ssg81
g4295
sg74
(lp4302
S'text/html; charset=utf-8'
p4303
asbasbasbag67
(g83
g69
NtRp4304
(dp4305
g72
(dp4306
sg81
g4256
sg74
(lp4307
g67
(g88
g69
NtRp4308
(dp4309
g72
(dp4310
g92
g93
ssg81
g4304
sg74
(lp4311
S'Expires'
p4312
asbag67
(g88
g69
NtRp4313
(dp4314
g72
(dp4315
g99
g100
ssg81
g4304
sg74
(lp4316
S':'
asbag67
(g88
g69
NtRp4317
(dp4318
g72
(dp4319
sg81
g4304
sg74
(lp4320
g67
(g68
g69
NtRp4321
(dp4322
g72
(dp4323
g80
I4
ssg81
g4317
sg74
(lp4324
S'Mon, 11 Jun 2012 19:46:10 GMT'
p4325
asbasbasbag67
(g83
g69
NtRp4326
(dp4327
g72
(dp4328
sg81
g4256
sg74
(lp4329
g67
(g88
g69
NtRp4330
(dp4331
g72
(dp4332
g92
g93
ssg81
g4326
sg74
(lp4333
S'Pragma'
p4334
asbag67
(g88
g69
NtRp4335
(dp4336
g72
(dp4337
g99
g100
ssg81
g4326
sg74
(lp4338
S':'
asbag67
(g88
g69
NtRp4339
(dp4340
g72
(dp4341
sg81
g4326
sg74
(lp4342
g67
(g68
g69
NtRp4343
(dp4344
g72
(dp4345
g80
I4
ssg81
g4339
sg74
(lp4346
S'no-cache'
p4347
asbasbasbag67
(g83
g69
NtRp4348
(dp4349
g72
(dp4350
sg81
g4256
sg74
(lp4351
g67
(g88
g69
NtRp4352
(dp4353
g72
(dp4354
g92
g93
ssg81
g4348
sg74
(lp4355
S'X-Powered-By'
p4356
asbag67
(g88
g69
NtRp4357
(dp4358
g72
(dp4359
g99
g100
ssg81
g4348
sg74
(lp4360
S':'
asbag67
(g88
g69
NtRp4361
(dp4362
g72
(dp4363
sg81
g4348
sg74
(lp4364
g67
(g68
g69
NtRp4365
(dp4366
g72
(dp4367
g80
I4
ssg81
g4361
sg74
(lp4368
S'web2py'
p4369
asbasbasbasbasbasbasbag67
(g83
g69
NtRp4370
(dp4371
g72
(dp4372
sg81
g3867
sg74
(lp4373
g67
(g88
g69
NtRp4374
(dp4375
g72
(dp4376
g92
g93
ssg81
g4370
sg74
(lp4377
S'menu'
p4378
asbag67
(g88
g69
NtRp4379
(dp4380
g72
(dp4381
g99
g100
ssg81
g4370
sg74
(lp4382
S':'
asbag67
(g88
g69
NtRp4383
(dp4384
g72
(dp4385
sg81
g4370
sg74
(lp4386
g67
(g68
g69
NtRp4387
(dp4388
g72
(dp4389
g80
I5
ssg81
g4383
sg74
(lp4390
g67
(g76
g69
NtRp4391
(dp4392
g72
(dp4393
g80
I4
ssg81
Nsg74
(lp4394
g67
(g83
g69
NtRp4395
(dp4396
g72
(dp4397
sg81
g4391
sg74
(lp4398
g67
(g88
g69
NtRp4399
(dp4400
g72
(dp4401
sg81
g4395
sg74
(lp4402
g67
(g68
g69
NtRp4403
(dp4404
g72
(dp4405
g80
I4
ssg81
g4399
sg74
(lp4406
g67
(g76
g69
NtRp4407
(dp4408
g72
(dp4409
g80
I3
ssg81
Nsg74
(lp4410
g67
(g83
g69
NtRp4411
(dp4412
g72
(dp4413
sg81
g4407
sg74
(lp4414
g67
(g88
g69
NtRp4415
(dp4416
g72
(dp4417
sg81
g4411
sg74
(lp4418
g67
(g68
g69
NtRp4419
(dp4420
g72
(dp4421
g80
I3
ssg81
g4415
sg74
(lp4422
cgluon.languages
lazyT_unpickle
p4423
(S't\x04\x00\x00\x00Home'
tRp4424
asbasbasbag67
(g83
g69
NtRp4425
(dp4426
g72
(dp4427
sg81
g4407
sg74
(lp4428
g67
(g88
g69
NtRp4429
(dp4430
g72
(dp4431
sg81
g4425
sg74
(lp4432
g67
(g68
g69
NtRp4433
(dp4434
g72
(dp4435
g80
I3
ssg81
g4429
sg74
(lp4436
g110
asbasbasbag67
(g83
g69
NtRp4437
(dp4438
g72
(dp4439
sg81
g4407
sg74
(lp4440
g67
(g88
g69
NtRp4441
(dp4442
g72
(dp4443
sg81
g4437
sg74
(lp4444
g67
(g68
g69
NtRp4445
(dp4446
g72
(dp4447
g80
I3
ssg81
g4441
sg74
(lp4448
S'/mycrawler/default/index'
p4449
asbasbasbag67
(g83
g69
NtRp4450
(dp4451
g72
(dp4452
sg81
g4407
sg74
(lp4453
g67
(g88
g69
NtRp4454
(dp4455
g72
(dp4456
sg81
g4450
sg74
(lp4457
g67
(g68
g69
NtRp4458
(dp4459
g72
(dp4460
g80
I3
ssg81
g4454
sg74
(lp4461
g67
(g76
g69
NtRp4462
(dp4463
g72
(dp4464
g80
I2
ssg81
Nsg74
(lp4465
sbasbasbasbasbasbasbasbag67
(g83
g69
NtRp4466
(dp4467
g72
(dp4468
sg81
g4391
sg74
(lp4469
g67
(g88
g69
NtRp4470
(dp4471
g72
(dp4472
sg81
g4466
sg74
(lp4473
g67
(g68
g69
NtRp4474
(dp4475
g72
(dp4476
g80
I4
ssg81
g4470
sg74
(lp4477
g67
(g76
g69
NtRp4478
(dp4479
g72
(dp4480
g80
I3
ssg81
Nsg74
(lp4481
g67
(g83
g69
NtRp4482
(dp4483
g72
(dp4484
sg81
g4478
sg74
(lp4485
g67
(g88
g69
NtRp4486
(dp4487
g72
(dp4488
sg81
g4482
sg74
(lp4489
g67
(g68
g69
NtRp4490
(dp4491
g72
(dp4492
g80
I3
ssg81
g4486
sg74
(lp4493
g67
(cgluon.html
SPAN
p4494
g69
NtRp4495
(dp4496
g72
(dp4497
g92
S'color:yellow'
p4498
ssg81
Nsg74
(lp4499
g4369
asbasbasbasbag67
(g83
g69
NtRp4500
(dp4501
g72
(dp4502
sg81
g4478
sg74
(lp4503
g67
(g88
g69
NtRp4504
(dp4505
g72
(dp4506
sg81
g4500
sg74
(lp4507
g67
(g68
g69
NtRp4508
(dp4509
g72
(dp4510
g80
I3
ssg81
g4504
sg74
(lp4511
g110
asbasbasbag67
(g83
g69
NtRp4512
(dp4513
g72
(dp4514
sg81
g4478
sg74
(lp4515
g67
(g88
g69
NtRp4516
(dp4517
g72
(dp4518
sg81
g4512
sg74
(lp4519
g67
(g68
g69
NtRp4520
(dp4521
g72
(dp4522
g80
I3
ssg81
g4516
sg74
(lp4523
S'None'
p4524
asbasbasbag67
(g83
g69
NtRp4525
(dp4526
g72
(dp4527
sg81
g4478
sg74
(lp4528
g67
(g88
g69
NtRp4529
(dp4530
g72
(dp4531
sg81
g4525
sg74
(lp4532
g67
(g68
g69
NtRp4533
(dp4534
g72
(dp4535
g80
I3
ssg81
g4529
sg74
(lp4536
g67
(g76
g69
NtRp4537
(dp4538
g72
(dp4539
g80
I2
ssg81
Nsg74
(lp4540
g67
(g83
g69
NtRp4541
(dp4542
g72
(dp4543
sg81
g4537
sg74
(lp4544
g67
(g88
g69
NtRp4545
(dp4546
g72
(dp4547
sg81
g4541
sg74
(lp4548
g67
(g68
g69
NtRp4549
(dp4550
g72
(dp4551
g80
I2
ssg81
g4545
sg74
(lp4552
g67
(g76
g69
NtRp4553
(dp4554
g72
(dp4555
g80
I1
ssg81
Nsg74
(lp4556
g67
(g83
g69
NtRp4557
(dp4558
g72
(dp4559
sg81
g4553
sg74
(lp4560
g67
(g88
g69
NtRp4561
(dp4562
g72
(dp4563
sg81
g4557
sg74
(lp4564
g67
(g68
g69
NtRp4565
(dp4566
g72
(dp4567
g80
I1
ssg81
g4561
sg74
(lp4568
g4423
(S's\x08\x00\x00\x00My Sites'
tRp4569
asbasbasbag67
(g83
g69
NtRp4570
(dp4571
g72
(dp4572
sg81
g4553
sg74
(lp4573
g67
(g88
g69
NtRp4574
(dp4575
g72
(dp4576
sg81
g4570
sg74
(lp4577
g67
(g68
g69
NtRp4578
(dp4579
g72
(dp4580
g80
I1
ssg81
g4574
sg74
(lp4581
I00
asbasbasbag67
(g83
g69
NtRp4582
(dp4583
g72
(dp4584
sg81
g4553
sg74
(lp4585
g67
(g88
g69
NtRp4586
(dp4587
g72
(dp4588
sg81
g4582
sg74
(lp4589
g67
(g68
g69
NtRp4590
(dp4591
g72
(dp4592
g80
I1
ssg81
g4586
sg74
(lp4593
S'/admin/default/site'
p4594
asbasbasbasbasbasbasbag67
(g83
g69
NtRp4595
(dp4596
g72
(dp4597
sg81
g4537
sg74
(lp4598
g67
(g88
g69
NtRp4599
(dp4600
g72
(dp4601
sg81
g4595
sg74
(lp4602
g67
(g68
g69
NtRp4603
(dp4604
g72
(dp4605
g80
I2
ssg81
g4599
sg74
(lp4606
g67
(g76
g69
NtRp4607
(dp4608
g72
(dp4609
g80
I1
ssg81
Nsg74
(lp4610
g67
(g83
g69
NtRp4611
(dp4612
g72
(dp4613
sg81
g4607
sg74
(lp4614
g67
(g88
g69
NtRp4615
(dp4616
g72
(dp4617
sg81
g4611
sg74
(lp4618
g67
(g68
g69
NtRp4619
(dp4620
g72
(dp4621
g80
I1
ssg81
g4615
sg74
(lp4622
g4423
(S's\x08\x00\x00\x00This App'
tRp4623
asbasbasbag67
(g83
g69
NtRp4624
(dp4625
g72
(dp4626
sg81
g4607
sg74
(lp4627
g67
(g88
g69
NtRp4628
(dp4629
g72
(dp4630
sg81
g4624
sg74
(lp4631
g67
(g68
g69
NtRp4632
(dp4633
g72
(dp4634
g80
I1
ssg81
g4628
sg74
(lp4635
I00
asbasbasbag67
(g83
g69
NtRp4636
(dp4637
g72
(dp4638
sg81
g4607
sg74
(lp4639
g67
(g88
g69
NtRp4640
(dp4641
g72
(dp4642
sg81
g4636
sg74
(lp4643
g67
(g68
g69
NtRp4644
(dp4645
g72
(dp4646
g80
I1
ssg81
g4640
sg74
(lp4647
S'/admin/default/design/mycrawler'
p4648
asbasbasbag67
(g83
g69
NtRp4649
(dp4650
g72
(dp4651
sg81
g4607
sg74
(lp4652
g67
(g88
g69
NtRp4653
(dp4654
g72
(dp4655
sg81
g4649
sg74
(lp4656
g67
(g68
g69
NtRp4657
(dp4658
g72
(dp4659
g80
I1
ssg81
g4653
sg74
(lp4660
(lp4661
(g4423
(S't\n\x00\x00\x00Controller'
tRp4662
I00
S'/admin/default/edit/mycrawler/controllers/default.py'
tp4663
a(g4423
(S't\x04\x00\x00\x00View'
tRp4664
I00
S'/admin/default/edit/mycrawler/views/default/search.html'
tp4665
a(g4423
(S't\x06\x00\x00\x00Layout'
tRp4666
I00
S'/admin/default/edit/mycrawler/views/layout.html'
tp4667
a(g4423
(S't\n\x00\x00\x00Stylesheet'
tRp4668
I00
S'/admin/default/edit/mycrawler/static/css/web2py.css'
tp4669
a(g4423
(S's\x08\x00\x00\x00DB Model'
tRp4670
I00
S'/admin/default/edit/mycrawler/models/db.py'
tp4671
a(g4423
(S's\n\x00\x00\x00Menu Model'
tRp4672
I00
S'/admin/default/edit/mycrawler/models/menu.py'
tp4673
a(g4423
(S't\x08\x00\x00\x00Database'
tRp4674
I00
S'/mycrawler/appadmin/index'
tp4675
a(g4423
(S't\x06\x00\x00\x00Errors'
tRp4676
I00
S'/admin/default/errors/mycrawler'
tp4677
a(g4423
(S't\x05\x00\x00\x00About'
tRp4678
I00
S'/admin/default/about/mycrawler'
tp4679
aasbasbasbasbasbasbasbag67
(g83
g69
NtRp4680
(dp4681
g72
(dp4682
sg81
g4537
sg74
(lp4683
g67
(g88
g69
NtRp4684
(dp4685
g72
(dp4686
sg81
g4680
sg74
(lp4687
g67
(g68
g69
NtRp4688
(dp4689
g72
(dp4690
g80
I2
ssg81
g4684
sg74
(lp4691
g67
(g76
g69
NtRp4692
(dp4693
g72
(dp4694
g80
I1
ssg81
Nsg74
(lp4695
g67
(g83
g69
NtRp4696
(dp4697
g72
(dp4698
sg81
g4692
sg74
(lp4699
g67
(g88
g69
NtRp4700
(dp4701
g72
(dp4702
sg81
g4696
sg74
(lp4703
g67
(g68
g69
NtRp4704
(dp4705
g72
(dp4706
g80
I1
ssg81
g4700
sg74
(lp4707
S'web2py.com'
p4708
asbasbasbag67
(g83
g69
NtRp4709
(dp4710
g72
(dp4711
sg81
g4692
sg74
(lp4712
g67
(g88
g69
NtRp4713
(dp4714
g72
(dp4715
sg81
g4709
sg74
(lp4716
g67
(g68
g69
NtRp4717
(dp4718
g72
(dp4719
g80
I1
ssg81
g4713
sg74
(lp4720
I00
asbasbasbag67
(g83
g69
NtRp4721
(dp4722
g72
(dp4723
sg81
g4692
sg74
(lp4724
g67
(g88
g69
NtRp4725
(dp4726
g72
(dp4727
sg81
g4721
sg74
(lp4728
g67
(g68
g69
NtRp4729
(dp4730
g72
(dp4731
g80
I1
ssg81
g4725
sg74
(lp4732
S'http://www.web2py.com'
p4733
asbasbasbag67
(g83
g69
NtRp4734
(dp4735
g72
(dp4736
sg81
g4692
sg74
(lp4737
g67
(g88
g69
NtRp4738
(dp4739
g72
(dp4740
sg81
g4734
sg74
(lp4741
g67
(g68
g69
NtRp4742
(dp4743
g72
(dp4744
g80
I1
ssg81
g4738
sg74
(lp4745
(lp4746
(g4423
(S't\x08\x00\x00\x00Download'
tRp4747
I00
S'http://www.web2py.com/examples/default/download'
p4748
tp4749
a(g4423
(S't\x07\x00\x00\x00Support'
tRp4750
I00
S'http://www.web2py.com/examples/default/support'
p4751
tp4752
a(g4423
(S't\x04\x00\x00\x00Demo'
tRp4753
I00
S'http://web2py.com/demo_admin'
p4754
tp4755
a(g4423
(S's\x0e\x00\x00\x00Quick Examples'
tRp4756
I00
S'http://web2py.com/examples/default/examples'
p4757
tp4758
a(g4423
(S't\x03\x00\x00\x00FAQ'
tRp4759
I00
S'http://web2py.com/AlterEgo'
p4760
tp4761
a(g4423
(S't\x06\x00\x00\x00Videos'
tRp4762
I00
S'http://www.web2py.com/examples/default/videos/'
p4763
tp4764
a(g4423
(S's\x11\x00\x00\x00Free Applications'
tRp4765
I00
S'http://web2py.com/appliances'
p4766
tp4767
a(g4423
(S't\x07\x00\x00\x00Plugins'
tRp4768
I00
S'http://web2py.com/plugins'
p4769
tp4770
a(g4423
(S't\x07\x00\x00\x00Layouts'
tRp4771
I00
S'http://web2py.com/layouts'
p4772
tp4773
a(g4423
(S't\x07\x00\x00\x00Recipes'
tRp4774
I00
S'http://web2pyslices.com/'
p4775
tp4776
a(g4423
(S't\x08\x00\x00\x00Semantic'
tRp4777
I00
S'http://web2py.com/semantic'
p4778
tp4779
aasbasbasbasbasbasbasbag67
(g83
g69
NtRp4780
(dp4781
g72
(dp4782
sg81
g4537
sg74
(lp4783
g67
(g88
g69
NtRp4784
(dp4785
g72
(dp4786
sg81
g4780
sg74
(lp4787
g67
(g68
g69
NtRp4788
(dp4789
g72
(dp4790
g80
I2
ssg81
g4784
sg74
(lp4791
g67
(g76
g69
NtRp4792
(dp4793
g72
(dp4794
g80
I1
ssg81
Nsg74
(lp4795
g67
(g83
g69
NtRp4796
(dp4797
g72
(dp4798
sg81
g4792
sg74
(lp4799
g67
(g88
g69
NtRp4800
(dp4801
g72
(dp4802
sg81
g4796
sg74
(lp4803
g67
(g68
g69
NtRp4804
(dp4805
g72
(dp4806
g80
I1
ssg81
g4800
sg74
(lp4807
g4423
(S't\r\x00\x00\x00Documentation'
tRp4808
asbasbasbag67
(g83
g69
NtRp4809
(dp4810
g72
(dp4811
sg81
g4792
sg74
(lp4812
g67
(g88
g69
NtRp4813
(dp4814
g72
(dp4815
sg81
g4809
sg74
(lp4816
g67
(g68
g69
NtRp4817
(dp4818
g72
(dp4819
g80
I1
ssg81
g4813
sg74
(lp4820
I00
asbasbasbag67
(g83
g69
NtRp4821
(dp4822
g72
(dp4823
sg81
g4792
sg74
(lp4824
g67
(g88
g69
NtRp4825
(dp4826
g72
(dp4827
sg81
g4821
sg74
(lp4828
g67
(g68
g69
NtRp4829
(dp4830
g72
(dp4831
g80
I1
ssg81
g4825
sg74
(lp4832
S'http://www.web2py.com/book'
p4833
asbasbasbag67
(g83
g69
NtRp4834
(dp4835
g72
(dp4836
sg81
g4792
sg74
(lp4837
g67
(g88
g69
NtRp4838
(dp4839
g72
(dp4840
sg81
g4834
sg74
(lp4841
g67
(g68
g69
NtRp4842
(dp4843
g72
(dp4844
g80
I1
ssg81
g4838
sg74
(lp4845
(lp4846
(g4423
(S't\x07\x00\x00\x00Preface'
tRp4847
I00
S'http://www.web2py.com/book/default/chapter/00'
p4848
tp4849
a(g4423
(S't\x0c\x00\x00\x00Introduction'
tRp4850
I00
S'http://www.web2py.com/book/default/chapter/01'
p4851
tp4852
a(g4423
(S't\x06\x00\x00\x00Python'
tRp4853
I00
S'http://www.web2py.com/book/default/chapter/02'
p4854
tp4855
a(g4423
(S't\x08\x00\x00\x00Overview'
tRp4856
I00
S'http://www.web2py.com/book/default/chapter/03'
p4857
tp4858
a(g4423
(S's\x08\x00\x00\x00The Core'
tRp4859
I00
S'http://www.web2py.com/book/default/chapter/04'
p4860
tp4861
a(g4423
(S's\t\x00\x00\x00The Views'
tRp4862
I00
S'http://www.web2py.com/book/default/chapter/05'
p4863
tp4864
a(g4423
(S't\x08\x00\x00\x00Database'
tRp4865
I00
S'http://www.web2py.com/book/default/chapter/06'
p4866
tp4867
a(g4423
(S's\x14\x00\x00\x00Forms and Validators'
tRp4868
I00
S'http://www.web2py.com/book/default/chapter/07'
p4869
tp4870
a(g4423
(S's\r\x00\x00\x00Email and SMS'
tRp4871
I00
S'http://www.web2py.com/book/default/chapter/08'
p4872
tp4873
a(g4423
(S's\x0e\x00\x00\x00Access Control'
tRp4874
I00
S'http://www.web2py.com/book/default/chapter/09'
p4875
tp4876
a(g4423
(S't\x08\x00\x00\x00Services'
tRp4877
I00
S'http://www.web2py.com/book/default/chapter/10'
p4878
tp4879
a(g4423
(S's\x0c\x00\x00\x00Ajax Recipes'
tRp4880
I00
S'http://www.web2py.com/book/default/chapter/11'
p4881
tp4882
a(g4423
(S's\x16\x00\x00\x00Components and Plugins'
tRp4883
I00
S'http://www.web2py.com/book/default/chapter/12'
p4884
tp4885
a(g4423
(S's\x12\x00\x00\x00Deployment Recipes'
tRp4886
I00
S'http://www.web2py.com/book/default/chapter/13'
p4887
tp4888
a(g4423
(S's\r\x00\x00\x00Other Recipes'
tRp4889
I00
S'http://www.web2py.com/book/default/chapter/14'
p4890
tp4891
a(g4423
(S's\r\x00\x00\x00Buy this book'
tRp4892
I00
S'http://stores.lulu.com/web2py'
p4893
tp4894
aasbasbasbasbasbasbasbag67
(g83
g69
NtRp4895
(dp4896
g72
(dp4897
sg81
g4537
sg74
(lp4898
g67
(g88
g69
NtRp4899
(dp4900
g72
(dp4901
sg81
g4895
sg74
(lp4902
g67
(g68
g69
NtRp4903
(dp4904
g72
(dp4905
g80
I2
ssg81
g4899
sg74
(lp4906
g67
(g76
g69
NtRp4907
(dp4908
g72
(dp4909
g80
I1
ssg81
Nsg74
(lp4910
g67
(g83
g69
NtRp4911
(dp4912
g72
(dp4913
sg81
g4907
sg74
(lp4914
g67
(g88
g69
NtRp4915
(dp4916
g72
(dp4917
sg81
g4911
sg74
(lp4918
g67
(g68
g69
NtRp4919
(dp4920
g72
(dp4921
g80
I1
ssg81
g4915
sg74
(lp4922
g4423
(S't\t\x00\x00\x00Community'
tRp4923
asbasbasbag67
(g83
g69
NtRp4924
(dp4925
g72
(dp4926
sg81
g4907
sg74
(lp4927
g67
(g88
g69
NtRp4928
(dp4929
g72
(dp4930
sg81
g4924
sg74
(lp4931
g67
(g68
g69
NtRp4932
(dp4933
g72
(dp4934
g80
I1
ssg81
g4928
sg74
(lp4935
I00
asbasbasbag67
(g83
g69
NtRp4936
(dp4937
g72
(dp4938
sg81
g4907
sg74
(lp4939
g67
(g88
g69
NtRp4940
(dp4941
g72
(dp4942
sg81
g4936
sg74
(lp4943
g67
(g68
g69
NtRp4944
(dp4945
g72
(dp4946
g80
I1
ssg81
g4940
sg74
(lp4947
Nasbasbasbag67
(g83
g69
NtRp4948
(dp4949
g72
(dp4950
sg81
g4907
sg74
(lp4951
g67
(g88
g69
NtRp4952
(dp4953
g72
(dp4954
sg81
g4948
sg74
(lp4955
g67
(g68
g69
NtRp4956
(dp4957
g72
(dp4958
g80
I1
ssg81
g4952
sg74
(lp4959
(lp4960
(g4423
(S't\x06\x00\x00\x00Groups'
tRp4961
I00
S'http://www.web2py.com/examples/default/usergroups'
p4962
tp4963
a(g4423
(S't\x07\x00\x00\x00Twitter'
tRp4964
I00
S'http://twitter.com/web2py'
p4965
tp4966
a(g4423
(S's\t\x00\x00\x00Live Chat'
tRp4967
I00
S'http://webchat.freenode.net/?channels=web2py'
p4968
tp4969
aasbasbasbasbasbasbasbag67
(g83
g69
NtRp4970
(dp4971
g72
(dp4972
sg81
g4537
sg74
(lp4973
g67
(g88
g69
NtRp4974
(dp4975
g72
(dp4976
sg81
g4970
sg74
(lp4977
g67
(g68
g69
NtRp4978
(dp4979
g72
(dp4980
g80
I2
ssg81
g4974
sg74
(lp4981
g67
(g76
g69
NtRp4982
(dp4983
g72
(dp4984
g80
I1
ssg81
Nsg74
(lp4985
g67
(g83
g69
NtRp4986
(dp4987
g72
(dp4988
sg81
g4982
sg74
(lp4989
g67
(g88
g69
NtRp4990
(dp4991
g72
(dp4992
sg81
g4986
sg74
(lp4993
g67
(g68
g69
NtRp4994
(dp4995
g72
(dp4996
g80
I1
ssg81
g4990
sg74
(lp4997
g4423
(S't\x07\x00\x00\x00Plugins'
tRp4998
asbasbasbag67
(g83
g69
NtRp4999
(dp5000
g72
(dp5001
sg81
g4982
sg74
(lp5002
g67
(g88
g69
NtRp5003
(dp5004
g72
(dp5005
sg81
g4999
sg74
(lp5006
g67
(g68
g69
NtRp5007
(dp5008
g72
(dp5009
g80
I1
ssg81
g5003
sg74
(lp5010
I00
asbasbasbag67
(g83
g69
NtRp5011
(dp5012
g72
(dp5013
sg81
g4982
sg74
(lp5014
g67
(g88
g69
NtRp5015
(dp5016
g72
(dp5017
sg81
g5011
sg74
(lp5018
g67
(g68
g69
NtRp5019
(dp5020
g72
(dp5021
g80
I1
ssg81
g5015
sg74
(lp5022
Nasbasbasbag67
(g83
g69
NtRp5023
(dp5024
g72
(dp5025
sg81
g4982
sg74
(lp5026
g67
(g88
g69
NtRp5027
(dp5028
g72
(dp5029
sg81
g5023
sg74
(lp5030
g67
(g68
g69
NtRp5031
(dp5032
g72
(dp5033
g80
I1
ssg81
g5027
sg74
(lp5034
(lp5035
(S'plugin_wiki'
p5036
I00
S'http://web2py.com/examples/default/download'
p5037
tp5038
a(g4423
(S's\r\x00\x00\x00Other Plugins'
tRp5039
I00
g4769
tp5040
a(g4423
(S's\x0e\x00\x00\x00Layout Plugins'
tRp5041
I00
g4772
tp5042
aasbasbasbasbasbasbasbasbasbasbasbasbasbasbasbasbasbasbasbag67
(g83
g69
NtRp5043
(dp5044
g72
(dp5045
sg81
g3867
sg74
(lp5046
g67
(g88
g69
NtRp5047
(dp5048
g72
(dp5049
g92
g93
ssg81
g5043
sg74
(lp5050
S'meta'
p5051
asbag67
(g88
g69
NtRp5052
(dp5053
g72
(dp5054
g99
g100
ssg81
g5043
sg74
(lp5055
S':'
asbag67
(g88
g69
NtRp5056
(dp5057
g72
(dp5058
sg81
g5043
sg74
(lp5059
g67
(g68
g69
NtRp5060
(dp5061
g72
(dp5062
g80
I5
ssg81
g5056
sg74
(lp5063
g67
(g76
g69
NtRp5064
(dp5065
g72
(dp5066
g80
I4
ssg81
Nsg74
(lp5067
g67
(g83
g69
NtRp5068
(dp5069
g72
(dp5070
sg81
g5064
sg74
(lp5071
g67
(g88
g69
NtRp5072
(dp5073
g72
(dp5074
g92
g93
ssg81
g5068
sg74
(lp5075
S'author'
p5076
asbag67
(g88
g69
NtRp5077
(dp5078
g72
(dp5079
g99
g100
ssg81
g5068
sg74
(lp5080
S':'
asbag67
(g88
g69
NtRp5081
(dp5082
g72
(dp5083
sg81
g5068
sg74
(lp5084
g67
(g68
g69
NtRp5085
(dp5086
g72
(dp5087
g80
I4
ssg81
g5081
sg74
(lp5088
S'Your Name <you@example.com>'
p5089
asbasbasbag67
(g83
g69
NtRp5090
(dp5091
g72
(dp5092
sg81
g5064
sg74
(lp5093
g67
(g88
g69
NtRp5094
(dp5095
g72
(dp5096
g92
g93
ssg81
g5090
sg74
(lp5097
S'copyright'
p5098
asbag67
(g88
g69
NtRp5099
(dp5100
g72
(dp5101
g99
g100
ssg81
g5090
sg74
(lp5102
S':'
asbag67
(g88
g69
NtRp5103
(dp5104
g72
(dp5105
sg81
g5090
sg74
(lp5106
g67
(g68
g69
NtRp5107
(dp5108
g72
(dp5109
g80
I4
ssg81
g5103
sg74
(lp5110
S'Copyright 2011'
p5111
asbasbasbag67
(g83
g69
NtRp5112
(dp5113
g72
(dp5114
sg81
g5064
sg74
(lp5115
g67
(g88
g69
NtRp5116
(dp5117
g72
(dp5118
g92
g93
ssg81
g5112
sg74
(lp5119
S'description'
p5120
asbag67
(g88
g69
NtRp5121
(dp5122
g72
(dp5123
g99
g100
ssg81
g5112
sg74
(lp5124
S':'
asbag67
(g88
g69
NtRp5125
(dp5126
g72
(dp5127
sg81
g5112
sg74
(lp5128
g67
(g68
g69
NtRp5129
(dp5130
g72
(dp5131
g80
I4
ssg81
g5125
sg74
(lp5132
S'a cool new app'
p5133
asbasbasbag67
(g83
g69
NtRp5134
(dp5135
g72
(dp5136
sg81
g5064
sg74
(lp5137
g67
(g88
g69
NtRp5138
(dp5139
g72
(dp5140
g92
g93
ssg81
g5134
sg74
(lp5141
S'generator'
p5142
asbag67
(g88
g69
NtRp5143
(dp5144
g72
(dp5145
g99
g100
ssg81
g5134
sg74
(lp5146
S':'
asbag67
(g88
g69
NtRp5147
(dp5148
g72
(dp5149
sg81
g5134
sg74
(lp5150
g67
(g68
g69
NtRp5151
(dp5152
g72
(dp5153
g80
I4
ssg81
g5147
sg74
(lp5154
S'Web2py Web Framework'
p5155
asbasbasbag67
(g83
g69
NtRp5156
(dp5157
g72
(dp5158
sg81
g5064
sg74
(lp5159
g67
(g88
g69
NtRp5160
(dp5161
g72
(dp5162
g92
g93
ssg81
g5156
sg74
(lp5163
S'keywords'
p5164
asbag67
(g88
g69
NtRp5165
(dp5166
g72
(dp5167
g99
g100
ssg81
g5156
sg74
(lp5168
S':'
asbag67
(g88
g69
NtRp5169
(dp5170
g72
(dp5171
sg81
g5156
sg74
(lp5172
g67
(g68
g69
NtRp5173
(dp5174
g72
(dp5175
g80
I4
ssg81
g5169
sg74
(lp5176
S'web2py, python, framework'
p5177
asbasbasbasbasbasbasbag67
(g83
g69
NtRp5178
(dp5179
g72
(dp5180
sg81
g3867
sg74
(lp5181
g67
(g88
g69
NtRp5182
(dp5183
g72
(dp5184
g92
g93
ssg81
g5178
sg74
(lp5185
S'postprocessing'
p5186
asbag67
(g88
g69
NtRp5187
(dp5188
g72
(dp5189
g99
g100
ssg81
g5178
sg74
(lp5190
S':'
asbag67
(g88
g69
NtRp5191
(dp5192
g72
(dp5193
sg81
g5178
sg74
(lp5194
g67
(g68
g69
NtRp5195
(dp5196
g72
(dp5197
g80
I5
ssg81
g5191
sg74
(lp5198
g67
(g76
g69
NtRp5199
(dp5200
g72
(dp5201
g80
I4
ssg81
Nsg74
(lp5202
sbasbasbasbag67
(g83
g69
NtRp5203
(dp5204
g72
(dp5205
sg81
g3867
sg74
(lp5206
g67
(g88
g69
NtRp5207
(dp5208
g72
(dp5209
g92
g93
ssg81
g5203
sg74
(lp5210
S'session_file'
p5211
asbag67
(g88
g69
NtRp5212
(dp5213
g72
(dp5214
g99
g100
ssg81
g5203
sg74
(lp5215
S':'
asbag67
(g88
g69
NtRp5216
(dp5217
g72
(dp5218
sg81
g5203
sg74
(lp5219
g67
(g68
g69
NtRp5220
(dp5221
g72
(dp5222
g80
I5
ssg81
g5216
sg74
(lp5223
S"<open file 'C:\\Documents and Settings\\agrover\\Desktop\\previous crawler\\web2py\\applications\\mycrawler\\sessions\\127.0.0.1-32a946d8-ad2c-43d8-be0f-c8249d02766a', mode 'rb+' at 0x050EC078>"
p5224
asbasbasbag67
(g83
g69
NtRp5225
(dp5226
g72
(dp5227
sg81
g3867
sg74
(lp5228
g67
(g88
g69
NtRp5229
(dp5230
g72
(dp5231
g92
g93
ssg81
g5225
sg74
(lp5232
S'session_filename'
p5233
asbag67
(g88
g69
NtRp5234
(dp5235
g72
(dp5236
g99
g100
ssg81
g5225
sg74
(lp5237
S':'
asbag67
(g88
g69
NtRp5238
(dp5239
g72
(dp5240
sg81
g5225
sg74
(lp5241
g67
(g68
g69
NtRp5242
(dp5243
g72
(dp5244
g80
I5
ssg81
g5238
sg74
(lp5245
S'C:\\Documents and Settings\\agrover\\Desktop\\previous crawler\\web2py\\applications\\mycrawler\\sessions\\127.0.0.1-32a946d8-ad2c-43d8-be0f-c8249d02766a'
p5246
asbasbasbag67
(g83
g69
NtRp5247
(dp5248
g72
(dp5249
sg81
g3867
sg74
(lp5250
g67
(g88
g69
NtRp5251
(dp5252
g72
(dp5253
g92
g93
ssg81
g5247
sg74
(lp5254
S'session_id'
p5255
asbag67
(g88
g69
NtRp5256
(dp5257
g72
(dp5258
g99
g100
ssg81
g5247
sg74
(lp5259
S':'
asbag67
(g88
g69
NtRp5260
(dp5261
g72
(dp5262
sg81
g5247
sg74
(lp5263
g67
(g68
g69
NtRp5264
(dp5265
g72
(dp5266
g80
I5
ssg81
g5260
sg74
(lp5267
S'127.0.0.1-32a946d8-ad2c-43d8-be0f-c8249d02766a'
p5268
asbasbasbag67
(g83
g69
NtRp5269
(dp5270
g72
(dp5271
sg81
g3867
sg74
(lp5272
g67
(g88
g69
NtRp5273
(dp5274
g72
(dp5275
g92
g93
ssg81
g5269
sg74
(lp5276
S'session_id_name'
p5277
asbag67
(g88
g69
NtRp5278
(dp5279
g72
(dp5280
g99
g100
ssg81
g5269
sg74
(lp5281
S':'
asbag67
(g88
g69
NtRp5282
(dp5283
g72
(dp5284
sg81
g5269
sg74
(lp5285
g67
(g68
g69
NtRp5286
(dp5287
g72
(dp5288
g80
I5
ssg81
g5282
sg74
(lp5289
g3924
asbasbasbag67
(g83
g69
NtRp5290
(dp5291
g72
(dp5292
sg81
g3867
sg74
(lp5293
g67
(g88
g69
NtRp5294
(dp5295
g72
(dp5296
g92
g93
ssg81
g5290
sg74
(lp5297
S'session_locked'
p5298
asbag67
(g88
g69
NtRp5299
(dp5300
g72
(dp5301
g99
g100
ssg81
g5290
sg74
(lp5302
S':'
asbag67
(g88
g69
NtRp5303
(dp5304
g72
(dp5305
sg81
g5290
sg74
(lp5306
g67
(g68
g69
NtRp5307
(dp5308
g72
(dp5309
g80
I5
ssg81
g5303
sg74
(lp5310
g2037
asbasbasbag67
(g83
g69
NtRp5311
(dp5312
g72
(dp5313
sg81
g3867
sg74
(lp5314
g67
(g88
g69
NtRp5315
(dp5316
g72
(dp5317
g92
g93
ssg81
g5311
sg74
(lp5318
S'session_new'
p5319
asbag67
(g88
g69
NtRp5320
(dp5321
g72
(dp5322
g99
g100
ssg81
g5311
sg74
(lp5323
S':'
asbag67
(g88
g69
NtRp5324
(dp5325
g72
(dp5326
sg81
g5311
sg74
(lp5327
g67
(g68
g69
NtRp5328
(dp5329
g72
(dp5330
g80
I5
ssg81
g5324
sg74
(lp5331
g110
asbasbasbag67
(g83
g69
NtRp5332
(dp5333
g72
(dp5334
sg81
g3867
sg74
(lp5335
g67
(g88
g69
NtRp5336
(dp5337
g72
(dp5338
g92
g93
ssg81
g5332
sg74
(lp5339
S'status'
p5340
asbag67
(g88
g69
NtRp5341
(dp5342
g72
(dp5343
g99
g100
ssg81
g5332
sg74
(lp5344
S':'
asbag67
(g88
g69
NtRp5345
(dp5346
g72
(dp5347
sg81
g5332
sg74
(lp5348
g67
(g68
g69
NtRp5349
(dp5350
g72
(dp5351
g80
I5
ssg81
g5345
sg74
(lp5352
S'200'
p5353
asbasbasbag67
(g83
g69
NtRp5354
(dp5355
g72
(dp5356
sg81
g3867
sg74
(lp5357
g67
(g88
g69
NtRp5358
(dp5359
g72
(dp5360
g92
g93
ssg81
g5354
sg74
(lp5361
S'subtitle'
p5362
asbag67
(g88
g69
NtRp5363
(dp5364
g72
(dp5365
g99
g100
ssg81
g5354
sg74
(lp5366
S':'
asbag67
(g88
g69
NtRp5367
(dp5368
g72
(dp5369
sg81
g5354
sg74
(lp5370
g67
(g68
g69
NtRp5371
(dp5372
g72
(dp5373
g80
I5
ssg81
g5367
sg74
(lp5374
g4423
(S's\r\x00\x00\x00customize me!'
tRp5375
asbasbasbag67
(g83
g69
NtRp5376
(dp5377
g72
(dp5378
sg81
g3867
sg74
(lp5379
g67
(g88
g69
NtRp5380
(dp5381
g72
(dp5382
g92
g93
ssg81
g5376
sg74
(lp5383
S'title'
p5384
asbag67
(g88
g69
NtRp5385
(dp5386
g72
(dp5387
g99
g100
ssg81
g5376
sg74
(lp5388
S':'
asbag67
(g88
g69
NtRp5389
(dp5390
g72
(dp5391
sg81
g5376
sg74
(lp5392
g67
(g68
g69
NtRp5393
(dp5394
g72
(dp5395
g80
I5
ssg81
g5389
sg74
(lp5396
S'Mycrawler'
p5397
asbasbasbag67
(g83
g69
NtRp5398
(dp5399
g72
(dp5400
sg81
g3867
sg74
(lp5401
g67
(g88
g69
NtRp5402
(dp5403
g72
(dp5404
g92
g93
ssg81
g5398
sg74
(lp5405
g2916
asbag67
(g88
g69
NtRp5406
(dp5407
g72
(dp5408
g99
g100
ssg81
g5398
sg74
(lp5409
S':'
asbag67
(g88
g69
NtRp5410
(dp5411
g72
(dp5412
sg81
g5398
sg74
(lp5413
g67
(g68
g69
NtRp5414
(dp5415
g72
(dp5416
g80
I5
ssg81
g5410
sg74
(lp5417
g2929
asbasbasbag67
(g83
g69
NtRp5418
(dp5419
g72
(dp5420
sg81
g3867
sg74
(lp5421
g67
(g88
g69
NtRp5422
(dp5423
g72
(dp5424
g92
g93
ssg81
g5418
sg74
(lp5425
S'view'
p5426
asbag67
(g88
g69
NtRp5427
(dp5428
g72
(dp5429
g99
g100
ssg81
g5418
sg74
(lp5430
S':'
asbag67
(g88
g69
NtRp5431
(dp5432
g72
(dp5433
sg81
g5418
sg74
(lp5434
g67
(g68
g69
NtRp5435
(dp5436
g72
(dp5437
g80
I5
ssg81
g5431
sg74
(lp5438
S'default/search.html'
p5439
asbasbasbasbasbsS'locals'
p5440
(dp5441
S'cj'
p5442
S'<_LWPCookieJar.LWPCookieJar[Cookie(version=0, na...=None, comment_url=None, rest={}, rfc2109=True)]>'
p5443
sS'name'
p5444
S"['\\n Ravindra Pai\\n ', '\\n Muraleedhar Pai\\n ', '\\n Savita Pai\\n ', '\\n Amrita Pai\\n ', '\\n Gautham Pai\\n ', '\\n Anuradha Pai\\n ', '\\n Gautham Pai\\n ', '\\n Shyam S Pai, GPHR\\n ', '\\n Shubha Pai\\n ', '\\n Vedavyas Pai\\n ']"
p5445
sS'soup'
p5446
S'<!DOCTYPE html>\n\n<!--[if lt IE 7]> <html lang="e...563" width="1">\n</img></img></hr></body>\n</html>\n'
p5447
sS'spamWriter'
p5448
S'<_csv.writer object>'
p5449
sS'titl'
p5450
S"[u'Director of Engineering', u'.', u'IPG Strategy Manager at Hewlett-Packard', u'Editorial Consultant and Content Developer. Founder, HUES Art and Craft.', u'Owner,Manipal Media Group', u'Vice President at Axis Bank Limited', u'Entrepreneur, tech coach, blogger, free software evangelist & geek', u'DGM - Human Resources at Jubilant Retail', u'Global Sales & Account Management, InMobi SmartPay\\u2122 at InMobi', u'QA Engineer at Vendio Inc.']"
p5451
sS'k'
S'<dl class="vcard-expanded">\n<dt class="current-e...w similar people">Similar</a>\n</span>\n</dd>\n</dl>'
p5452
sS'l'
S'<a class="fn n external-link trk-profile-name" h...e_link" title="View Profile">\n Vedavyas Pai\n </a>'
p5453
sS'BeautifulSoup'
p5454
S"<class 'bs4.BeautifulSoup'>"
p5455
sS'current'
p5456
S"[u'Director of Engineering at Model N', u'Head of Program Delivery at Tesco', u'Strategy Manager (Global Analytics) at Hewlett-Packard less', u'Editorial Consultant and Content Developer at Editing and Publishing Organizations less', u'Chairman at Primacy Industries, Managing Direc...), Managing Director at Manipal Media Group less', u'Vice President at Axis Bank Limited', u'Founder at Jnaapti (Sole Proprietorship) less', u'DGM - Human Resources at Jubilant Retail less', u'Global Account Manager, Mobile Payment Solutions at InMobi less', 'NONE']"
p5457
sS'view_profile'
p5458
S"[u'http://www.linkedin.com/profile/view?id=342129...2_*2_*2_*2_*2_*2&pvs=ps&trk=pp_profile_name_link', u'http://www.linkedin.com/profile/view?id=887349...2_*2_*2_*2_*2_*2&pvs=ps&trk=pp_profile_name_link', u'http://www.linkedin.com/profile/view?id=117262...2_*2_*2_*2_*2_*2&pvs=ps&trk=pp_profile_name_link', u'http://www.linkedin.com/profile/view?id=161398...2_*2_*2_*2_*2_*2&pvs=ps&trk=pp_profile_name_link', u'http://www.linkedin.com/profile/view?id=252892...2_*2_*2_*2_*2_*2&pvs=ps&trk=pp_profile_name_link', u'http://www.linkedin.com/profile/view?id=342366...2_*2_*2_*2_*2_*2&pvs=ps&trk=pp_profile_name_link', u'http://www.linkedin.com/profile/view?id=366902...2_*2_*2_*2_*2_*2&pvs=ps&trk=pp_profile_name_link', u'http://www.linkedin.com/profile/view?id=378731...2_*2_*2_*2_*2_*2&pvs=ps&trk=pp_profile_name_link', u'http://www.linkedin.com/profile/view?id=432982...2_*2_*2_*2_*2_*2&pvs=ps&trk=pp_profile_name_link', u'http://www.linkedin.com/profile/view?id=442886...2_*2_*2_*2_*2_*2&pvs=ps&trk=pp_profile_name_link']"
p5459
sS'ii'
p5460
S'[]'
p5461
sS'html2text'
p5462
S"<module 'html2text' from 'C:\\Python27\\lib\\site-packages\\html2text-3.200.3-py2.7.egg\\html2text.pyc'>"
p5463
sS'location'
p5464
S"[u'\\n Bengaluru Area, India\\n ', u'\\n Bengaluru Area, India\\n ', u'\\n Bengaluru Area, India\\n ', u'\\n Mumbai Area, India\\n ', u'\\n Udipi Area, India\\n ', u'\\n Mumbai Area, India\\n ', u'\\n Bengaluru Area, India\\n ', u'\\n Bengaluru Area, India\\n ', u'\\n Bengaluru Area, India\\n ', u'\\n Bengaluru Area, India\\n ']"
p5465
sS'br'
p5466
S'<mechanize._mechanize.Browser instance>'
p5467
sS'mechanize'
p5468
S"<module 'mechanize' from 'C:\\Python27\\lib\\site-p...echanize-0.2.5-py2.7.egg\\mechanize\\__init__.pyc'>"
p5469
sS'i'
S'8'
sS'industry'
p5470
S"[u'\\n Computer Software\\n ', u'\\n Information Technology and Services\\n ', u'\\n Retail\\n ', u'\\n Writing and Editing\\n ', u'\\n Printing\\n ', u'\\n Banking\\n ', u'\\n Computer Software\\n ', u'\\n Human Resources\\n ', u'\\n Telecommunications\\n ', u'\\n Information Technology and Services\\n ']"
p5471
sS'cookielib'
p5472
S"<module 'cookielib' from 'C:\\Python27\\lib\\cookielib.pyc'>"
p5473
sssS'traceback'
p5474
S'Traceback (most recent call last):\n  File "C:\\Documents and Settings\\agrover\\Desktop\\previous crawler\\web2py\\gluon\\restricted.py", line 205, in restricted\n    exec ccode in environment\n  File "C:\\Documents and Settings\\agrover\\Desktop\\previous crawler\\web2py\\applications\\mycrawler\\controllers/default.py", line 337, in <module>\n  File "C:\\Documents and Settings\\agrover\\Desktop\\previous crawler\\web2py\\gluon\\globals.py", line 173, in <lambda>\n    self._caller = lambda f: f()\n  File "C:\\Documents and Settings\\agrover\\Desktop\\previous crawler\\web2py\\applications\\mycrawler\\controllers/default.py", line 269, in search\n    spamWriter.writerow([name[i][1:len(name[i])-1].encode(\'utf-8\'),titl[i],current[i],location[i][1:len(location[i])-1],industry[i][1:len(industry[i])-1],view_profile[i]])\nUnicodeEncodeError: \'ascii\' codec can\'t encode character u\'\\u2122\' in position 50: ordinal not in range(128)\n'
p5475
s.