(dp1
S'output'
p2
S"<type 'exceptions.NameError'> global name 'c_response' is not defined"
p3
sS'layer'
p4
S'C:\\Documents and Settings\\agrover\\Desktop\\previous crawler\\web2py\\applications\\mycrawler\\controllers/default.py'
p5
sS'code'
p6
S'# -*- coding: utf-8 -*-\n# this file is released under public domain and you can use without limitations\n\n#########################################################################\n## This is a samples controller\n## - index is the default action of any application\n## - user is required for authentication and authorization\n## - download is for downloading files uploaded in the db (does streaming)\n## - call exposes all registered services (none by default)\n#########################################################################\nimport cStringIO\nimport csv\nimport re\nimport string\nimport subprocess\nimport time\ncountry=[\'United States\', \'Afghanistan\', \'Aland Islands\', \'Albania\', \'Algeria\', \'American Samoa\', \'Andorra\', \'Angola\', \'Anguilla\', \'Antarctica\', \'Antigua and Barbuda\', \'Argentina\', \'Armenia\', \'Aruba\', \'Australia\', \'Austria\', \'Azerbaijan\', \'Bahamas\', \'Bahrain\', \'Bangladesh\', \'Barbados\', \'Belarus\', \'Belgium\', \'Belize\', \'Benin\', \'Bermuda\', \'Bhutan\', \'Bolivia\', \'Bosnia and Herzegovina\', \'Botswana\', \'Brazil\', \'British Indian Ocean Territory\', \'Brunei Darussalam\', \'Bulgaria\', \'Burkina Faso\', \'Burundi\', \'Cambodia\', \'Cameroon\', \'Canada\', \'Cape Verde\', \'Caribbean Nations\', \'Cayman Islands\', \'Central African Republic\', \'Chad\', \'Chile\', \'China\', \'Christmas Island\', \'Cocos (Keeling) Islands\', \'Colombia\', \'Comoros\', \'Congo\', \'Cook Islands\', \'Costa Rica\', "Cote D\'Ivoire (Ivory Coast)", \'Croatia\', \'Cuba\', \'Cyprus\', \'Czech Republic\', \'Democratic Republic of the Congo\', \'Denmark\', \'Djibouti\', \'Dominica\', \'Dominican Republic\', \'East Timor\', \'Ecuador\', \'Egypt\', \'El Salvador\', \'Equatorial Guinea\', \'Eritrea\', \'Estonia\', \'Ethiopia\', \'Falkland Islands (Malvinas)\', \'Faroe Islands\', \'Federated States of Micronesia\', \'Fiji\', \'Finland\', \'France\', \'French Guiana\', \'French Polynesia\', \'French Southern Territories\', \'Gabon\', \'Gambia\', \'Georgia\', \'Germany\', \'Ghana\', \'Gibraltar\', \'Greece\', \'Greenland\', \'Grenada\', \'Guadeloupe\', \'Guam\', \'Guatemala\', \'Guernsey\', \'Guinea\', \'Guinea-Bissau\', \'Guyana\', \'Haiti\', \'Honduras\', \'Hong Kong\', \'Hungary\', \'Iceland\', \'India\', \'Indonesia\', \'Iran\', \'Iraq\', \'Ireland\', \'Isle of Man\', \'Israel\', \'Italy\', \'Jamaica\', \'Japan\', \'Jersey\', \'Jordan\', \'Kazakhstan\', \'Kenya\', \'Kiribati\', \'Korea\', \'Korea (North)\', \'Kuwait\', \'Kyrgyzstan\', \'Laos\', \'Latvia\', \'Lebanon\', \'Lesotho\', \'Liberia\', \'Libya\', \'Liechtenstein\', \'Lithuania\', \'Luxembourg\', \'Macao\', \'Macedonia\', \'Madagascar\', \'Malawi\', \'Malaysia\', \'Maldives\', \'Mali\', \'Malta\', \'Marshall Islands\', \'Martinique\', \'Mauritania\', \'Mauritius\', \'Mayotte\', \'Mexico\', \'Moldova\', \'Monaco\', \'Mongolia\', \'Montenegro\', \'Montserrat\', \'Morocco\', \'Mozambique\', \'Myanmar\', \'Namibia\', \'Nauru\', \'Nepal\', \'Netherlands\', \'Netherlands Antilles\', \'New Caledonia\', \'New Zealand\', \'Nicaragua\', \'Niger\', \'Nigeria\', \'Niue\', \'Norfolk Island\', \'Northern Mariana Islands\', \'Norway\', \'Oman\', \'Pakistan\', \'Palau\', \'Palestinian Territory\', \'Panama\', \'Papua New Guinea\', \'Paraguay\', \'Peru\', \'Philippines\', \'Pitcairn\', \'Poland\', \'Portugal\', \'Puerto Rico\', \'Qatar\', \'Reunion\', \'Romania\', \'Russian Federation\', \'Rwanda\', \'Saint Helena\', \'Saint Kitts and Nevis\', \'Saint Lucia\', \'Saint Pierre and Miquelon\', \'Saint Vincent and the Grenadines\', \'Samoa\', \'San Marino\', \'Sao Tome and Principe\', \'Saudi Arabia\', \'Senegal\', \'Serbia\', \'Seychelles\', \'Sierra Leone\', \'Singapore\', \'Slovak Republic\', \'Slovenia\', \'Solomon Islands\', \'Somalia\', \'South Africa\', \'Spain\', \'Sri Lanka\', \'Sudan\', \'Suriname\', \'Svalbard and Jan Mayen\', \'Swaziland\', \'Sweden\', \'Switzerland\', \'Syria\', \'Taiwan\', \'Tajikistan\', \'Tanzania\', \'Thailand\', \'Timor-Leste\', \'Togo\', \'Tokelau\', \'Tonga\', \'Trinidad and Tobago\', \'Tunisia\', \'Turkey\', \'Turkmenistan\', \'Turks and Caicos Islands\', \'Tuvalu\', \'Uganda\', \'Ukraine\', \'United Arab Emirates\', \'United Kingdom\', \'Uruguay\', \'Uzbekistan\', \'Vanuatu\', \'Vatican City State (Holy See)\', \'Venezuela\', \'Vietnam\', \'Virgin Islands (British)\', \'Virgin Islands (U.S.)\', \'Wallis and Futuna\', \'Western Sahara\', \'Yemen\', \'Zambia\', \'Zimbabwe\', \'Other\']\n    \ncountryid=[\'us\', \'af\', \'ax\', \'al\', \'dz\', \'as\', \'ad\', \'ao\', \'ai\', \'aq\', \'ag\', \'ar\', \'am\', \'aw\', \'au\', \'at\', \'az\', \'bs\', \'bh\', \'bd\', \'bb\', \'by\', \'be\', \'bz\', \'bj\', \'bm\', \'bt\', \'bo\', \'ba\', \'bw\', \'br\', \'io\', \'bn\', \'bg\', \'bf\', \'bi\', \'kh\', \'cm\', \'ca\', \'cv\', \'cb\', \'ky\', \'cf\', \'td\', \'cl\', \'cn\', \'cx\', \'cc\', \'co\', \'km\', \'cg\', \'ck\', \'cr\', \'ci\', \'hr\', \'cu\', \'cy\', \'cz\', \'cd\', \'dk\', \'dj\', \'dm\', \'do\', \'tp\', \'ec\', \'eg\', \'sv\', \'gq\', \'er\', \'ee\', \'et\', \'fk\', \'fo\', \'fm\', \'fj\', \'fi\', \'fr\', \'gf\', \'pf\', \'tf\', \'ga\', \'gm\', \'ge\', \'de\', \'gh\', \'gi\', \'gr\', \'gl\', \'gd\', \'gp\', \'gu\', \'gt\', \'gg\', \'gn\', \'gw\', \'gy\', \'ht\', \'hn\', \'hk\', \'hu\', \'is\', \'in\', \'id\', \'ir\', \'iq\', \'ie\', \'im\', \'il\', \'it\', \'jm\', \'jp\', \'je\', \'jo\', \'kz\', \'ke\', \'ki\', \'kr\', \'kp\', \'kw\', \'kg\', \'la\', \'lv\', \'lb\', \'ls\', \'lr\', \'ly\', \'li\', \'lt\', \'lu\', \'mo\', \'mk\', \'mg\', \'mw\', \'my\', \'mv\', \'ml\', \'mt\', \'mh\', \'mq\', \'mr\', \'mu\', \'yt\', \'mx\', \'md\', \'mc\', \'mn\', \'me\', \'ms\', \'ma\', \'mz\', \'mm\', \'na\', \'nr\', \'np\', \'nl\', \'an\', \'nc\', \'nz\', \'ni\', \'ne\', \'ng\', \'nu\', \'nf\', \'mp\', \'no\', \'om\', \'pk\', \'pw\', \'ps\', \'pa\', \'pg\', \'py\', \'pe\', \'ph\', \'pn\', \'pl\', \'pt\', \'pr\', \'qa\', \'re\', \'ro\', \'ru\', \'rw\', \'sh\', \'kn\', \'lc\', \'pm\', \'vc\', \'ws\', \'sm\', \'st\', \'sa\', \'sn\', \'rs\', \'sc\', \'sl\', \'sg\', \'sk\', \'si\', \'sb\', \'so\', \'za\', \'es\', \'lk\', \'sd\', \'sr\', \'sj\', \'sz\', \'se\', \'ch\', \'sy\', \'tw\', \'tj\', \'tz\', \'th\', \'tl\', \'tg\', \'tk\', \'to\', \'tt\', \'tn\', \'tr\', \'tm\', \'tc\', \'tv\', \'ug\', \'ua\', \'ae\', \'gb\', \'uy\', \'uz\', \'vu\', \'va\', \'ve\', \'vn\', \'vg\', \'vi\', \'wf\', \'eh\', \'ye\', \'zm\', \'zw\', \'oo\']\n\nindustries=[\'All Industries\',\'Accounting\', \'Airlines/Aviation\', \'Alternative Dispute Resolution\', \'Alternative Medicine\', \'Animation\', \'Apparel & Fashion\', \'Architecture & Planning\', \'Arts and Crafts\', \'Automotive\', \'Aviation & Aerospace\', \'Banking\', \'Biotechnology\', \'Broadcast Media\', \'Building Materials\', \'Business Supplies and Equipment\', \'Capital Markets\', \'Chemicals\', \'Civic & Social Organization\', \'Civil Engineering\', \'Commercial Real Estate\', \'Computer & Network Security\', \'Computer Games\', \'Computer Hardware\', \'Computer Networking\', \'Computer Software\', \'Construction\', \'Consumer Electronics\', \'Consumer Goods\', \'Consumer Services\', \'Cosmetics\', \'Dairy\', \'Defense & Space\', \'Design\', \'Education Management\', \'E-Learning\', \'Electrical/Electronic Manufacturing\', \'Entertainment\', \'Environmental Services\', \'Events Services\', \'Executive Office\', \'Facilities Services\', \'Farming\', \'Financial Services\', \'Fine Art\', \'Fishery\', \'Food & Beverages\', \'Food Production\', \'Fund-Raising\', \'Furniture\', \'Gambling & Casinos\', \'Glass, Ceramics & Concrete\', \'Government Administration\', \'Government Relations\', \'Graphic Design\', \'Health, Wellness and Fitness\', \'Higher Education\', \'Hospital & Health Care\', \'Hospitality\', \'Human Resources\', \'Import and Export\', \'Individual & Family Services\', \'Industrial Automation\', \'Information Services\', \'Information Technology and Services\', \'Insurance\', \'International Affairs\', \'International Trade and Development\', \'Internet\', \'Investment Banking\', \'Investment Management\', \'Judiciary\', \'Law Enforcement\', \'Law Practice\', \'Legal Services\', \'Legislative Office\', \'Leisure, Travel & Tourism\', \'Libraries\', \'Logistics and Supply Chain\', \'Luxury Goods & Jewelry\', \'Machinery\', \'Management Consulting\', \'Maritime\', \'Marketing and Advertising\', \'Market Research\', \'Mechanical or Industrial Engineering\', \'Media Production\', \'Medical Devices\', \'Medical Practice\', \'Mental Health Care\', \'Military\', \'Mining & Metals\', \'Motion Pictures and Film\', \'Museums and Institutions\', \'Music\', \'Nanotechnology\', \'Newspapers\', \'Nonprofit Organization Management\', \'Oil & Energy\', \'Online Media\', \'Outsourcing/Offshoring\', \'Package/Freight Delivery\', \'Packaging and Containers\', \'Paper & Forest Products\', \'Performing Arts\', \'Pharmaceuticals\', \'Philanthropy\', \'Photography\', \'Plastics\', \'Political Organization\', \'Primary/Secondary Education\', \'Printing\', \'Professional Training & Coaching\', \'Program Development\', \'Public Policy\', \'Public Relations and Communications\', \'Public Safety\', \'Publishing\', \'Railroad Manufacture\', \'Ranching\', \'Real Estate\', \'Recreational Facilities and Services\', \'Religious Institutions\', \'Renewables & Environment\', \'Research\', \'Restaurants\', \'Retail\', \'Security and Investigations\', \'Semiconductors\', \'Shipbuilding\', \'Sporting Goods\', \'Sports\', \'Staffing and Recruiting\', \'Supermarkets\', \'Telecommunications\', \'Textiles\', \'Think Tanks\', \'Tobacco\', \'Translation and Localization\', \'Transportation/Trucking/Railroad\', \'Utilities\', \'Venture Capital & Private Equity\', \'Veterinary\', \'Warehousing\', \'Wholesale\', \'Wine and Spirits\', \'Wireless\', \'Writing and Editing\']\n\nseniority=[\'All Seniority Levels\', \'Manager\', \'Owner\', \'Partner\', \'CXO\', \'VP\', \'Director\', \'Senior\', \'Entry\', \'Students & Interns\', \'Volunteer\']\n\nfunctions=[\'All Functions\', \'Academics\', \'Accounting\', \'Administrative\', \'Business development\', \'Buyer\', \'Consultant\', \'Creative\', \'Engineering\', \'Entrepreneur\', \'Finance\', \'Human resources\', \'Information technology\', \'Legal\', \'Marketing\', \'Medical\', \'Operations\', \'Product\', \'Public relations\', \'Real estate\', \'Sales\', \'Support\']\n\n#THIS IS THE LOGIN PAGE\ndef index():\n    """\n    example action using the internationalization operator T and flash\n    rendered by views/default/index.html or views/generic.html\n    """\n    #login form\n    form = SQLFORM.factory(\n       Field(\'LinkedIn_User_Id\'),\n       Field(\'Password\',type=\'password\'))\n       \n    #checking if there is already a user logged in,i.e. creating a session\n    if session.username:\n        session.flash =\'Login Successful\'\n        redirect(URL(r=request,f=\'enter_info\')) \n       \n\n    session.username=request.vars.LinkedIn_User_Id\n    session.password=request.vars.Password\n    #if form is accepted call enterinfo function\n    if form.process().accepted:\n        session.flash =T(\'Login Successful\')\n        redirect(URL(r=request,f=\'enter_info\')) \n    return dict(form=form)   \n\ndef user():\n    """\n    exposes:\n    http://..../[app]/default/user/login\n    http://..../[app]/default/user/logout\n    http://..../[app]/default/user/register\n    http://..../[app]/default/user/profile\n    http://..../[app]/default/user/retrieve_password\n    http://..../[app]/default/user/change_password\n    use @auth.requires_login()\n        @auth.requires_membership(\'group name\')\n        @auth.requires_permission(\'read\',\'table name\',record_id)\n    to decorate functions that need access control\n    """\n    return dict(form=auth())\n\n\ndef download():\n    """\n    allows downloading of uploaded files\n    http://..../[app]/default/download/[filename]\n    """\n    return response.download(request,db)\n\n\ndef call():\n    """\n    exposes services. for example:\n    http://..../[app]/default/call/jsonrpc\n    decorate with @services.jsonrpc the functions to expose\n    supports xml, json, xmlrpc, jsonrpc, amfrpc, rss, csv\n    """\n    return service()\n\n\n@auth.requires_signature()\ndef data():\n    """\n    http://..../[app]/default/data/tables\n    http://..../[app]/default/data/create/[table]\n    http://..../[app]/default/data/read/[table]/[id]\n    http://..../[app]/default/data/update/[table]/[id]\n    http://..../[app]/default/data/delete/[table]/[id]\n    http://..../[app]/default/data/select/[table]\n    http://..../[app]/default/data/search/[table]\n    but URLs must be signed, i.e. linked with\n      A(\'table\',_href=URL(\'data/tables\',user_signature=True))\n    or with the signed load operator\n      LOAD(\'default\',\'data.load\',args=\'tables\',ajax=True,user_signature=True)\n    """\n    return dict(form=crud())\n\n  \ndef enter_info():\n    #form for entering information\n    form = SQLFORM.factory(\n       Field(\'First_Name\'),\n       Field(\'Last_Name\'),\n       Field(\'Keywords\'),\n       Field(\'Title\'),\n       Field(\'Company\'),\n       Field(\'School\'),\n       Field(\'File_Name\',requires=IS_NOT_EMPTY()),\n       Field(\'Country\',requires=IS_IN_SET(country),default=\'United States\'),\n       Field(\'Industry\',requires=IS_IN_SET(industries,multiple=\'multiple\'),default=\'All Industries\'),\n       Field(\'Seniority_Levels\',requires=IS_IN_SET(seniority,multiple=\'multiple\'),default=\'All Seniority Levels\'),\n       Field(\'Functions\',requires=IS_IN_SET(functions,multiple=\'multiple\'),default=\'All Functions\'))\n\n    #response.flash = \'Refresh Page After Each Query\'\n    #if form accepted redirect to search function\n    if form.process().accepted:\n        response.flash = \'Refresh Page After Each Query\'\n        redirect(URL(r=request,f=\'search\',vars=request.vars))\n    elif form.errors:\n        response.flash = \'form has errors\'\n    return dict(form=form)\n    \n    \n\ndef search():\n    import mechanize\n    import cookielib\n    import html2text\n    from bs4 import BeautifulSoup\n    # Browser    \n    br = mechanize.Browser()\n\n    # Cookie Jar\n    cj = cookielib.LWPCookieJar()\n    br.set_cookiejar(cj)\n\n    # Browser options\n    br.set_handle_equiv(True)\n    br.set_handle_gzip(True)\n    br.set_handle_redirect(True)\n    br.set_handle_referer(True)\n    br.set_handle_robots(False)\n\n    # Follows refresh 0 but not hangs on refresh > 0\n    br.set_handle_refresh(mechanize._http.HTTPRefreshProcessor(), max_time=1)\n\n    # User-Agent (this is cheating, ok?)\n    br.addheaders = [(\'User-agent\', \'Mozilla/5.0 (X11; U; Linux i686; en-US; rv:1.9.0.1) Gecko/2008071615 Fedora/3.0.1-1.fc9 Firefox/3.0.1\')]\n\n\n    # The site we will navigate into, handling it\'s session    \n    br.open(\'https://www.linkedin.com\')\n\n    # Select the first (index zero) form\n    br.select_form(nr=0)\n\n    # User credentials\n    #br.form[\'session_key\'] = \'mrigeshgaurav@gmail.com\'\n    #br.form[\'session_password\'] = \'modeln@1234\'\n    \n    #entering username and password user provided at login\n    br.form[\'session_key\'] = session.username\n    br.form[\'session_password\'] = session.password\n    \n    \n    # Login by submitting form br\n    br.submit()\n    \n    #opening the advanced search page straight away\n    br.open(\'http://www.linkedin.com/search?trk=advsrch\')\n    \n    #selecting the 1st form\n    br.select_form(nr=1)\n\n    #entering various fields and filters\n    if request.vars.Last_Name:\n        br["lname"]=request.vars.Last_Name\n\n    if request.vars.First_Name:\n        br["fname"]=request.vars.First_Name\n    \n    if request.vars.Keywords:\n        br["keywords"]=request.vars.Keywords\n\n    if request.vars.Company:\n        br["company"]=request.vars.Company\n\n    if request.vars.School:\n        br["school"]=request.vars.School\n\n    if request.vars.Title:\n        br["title"]=request.vars.Title\n        \n    if request.vars.Country:\n        br["countryCode"]=[countryid[country.index(request.vars.Country)]]\n    \n    if request.vars.Industry and request.vars.Industry!=\'All Industries\':\n        if isinstance(request.vars.Industry,list):\n            for i in request.vars.Industry:\n                br.find_control("facet_I").items[industries.index(i)-1].selected=True\n        else:\n            br.find_control("facet_I").items[industries.index(request.vars.Industry)-1].selected=True\n    try:        \n        if request.vars.Seniority_Levels and request.vars.Seniority_Levels!=\'All Seniority Levels\':\n            if isinstance(request.vars.Seniority_Levels,list):\n                for i in request.vars.Seniority_Levels:\n                    br.find_control("facet_SE").items[seniority.index(i)-1].selected=True\n            else:\n                br.find_control("facet_SE").items[seniority.index(request.vars.Seniority_Levels)-1].selected=True\n            \n        if request.vars.Functions and request.vars.Functions!=\'All Functions\':\n            if isinstance(request.vars.Functions,list):\n                for i in request.vars.Functions:\n                    br.find_control("facet_FA").items[functions.index(i)-1].selected=True\n            else:\n                br.find_control("facet_FA").items[functions.index(request.vars.Functions)-1].selected=True\n    except:\n        flag=1\n        \n    #submitting the form\n    br.submit()\n    \n    #lists for retreiving the required data\n    view_profile=[]\n    firstname=[]\n    titl=[]\n    location=[]\n    industry=[]\n    current=[]\n    middlename=[]\n    lastname=[]\n    company=[]\n    emailid=[]\n    \n    #flag to make sure we get entries on 1st page\n    flag=1\n    \n    #writing into file with given filename\n    global csv_response\n\n    csv_response = cStringIO.StringIO()\n    \n    spamWriter = csv.writer(csv_response, delimiter=\',\')\n    \n    #spamWriter = csv.writer(open(request.vars.File_Name+\'.csv\', \'wb\'), delimiter=\',\')\n    soup = BeautifulSoup(br.response().read())\n    spamWriter.writerow([\'FIRSTNAME\',\'MIDDLENAME\',\'LASTNAME\',\'TITLE\',\'CURRENT\',\'LOCATION\',\'INDUSTRY\',\'PROFLEURL\',\'COMPANYNAME\',\'EMAIL\'])\n    \n    #scans till there is a link to "next page"\n    while soup.find(\'a\',{"class" : "paginator-next"}) or flag==1:\n        flag=0\n        soup = BeautifulSoup(br.response().read())\n        view_profile=[]\n        firstname=[]\n        titl=[]\n        location=[]\n        industry=[]\n        current=[]\n        middlename=[]\n        lastname=[]\n        company=[]\n        emailid=[]\n        \n        #parsing for the html response to get information\n        for k in soup.find_all(\'dl\',{"class" : "vcard-basic"}):\n            if k.find(\'dd\',{"class" : "title"}):\n                    titl.append(k.find(\'dd\',{"class" : "title"}).get_text())\n            else:\n                    titl.append(\'NONE\')\n                            \n            if k.find(\'span\',{"class" : "location"}):\n                    location.append(k.find(\'span\',{"class" : "location"}).get_text())\n            else:\n                    location.append(\'NONE\')\n            if k.find(\'span\',{"class" : "industry"}):\n                    industry.append(k.find(\'span\',{"class" : "industry"}).get_text())\n            else:\n                    industry.append(\'NONE\')\n                \n        for k in soup.find_all(\'dl\',{"class" : "vcard-expanded"}):\n            temp1=[]\n            temp2=[]\n            if k.find(\'span\',{"class" : "current-details more-text"}):\n                    less=k.find(\'span\',{"class" : "current-details more-text"}).get_text()\n                    temp1=less[0:len(less)-4].encode(\'utf-8\').split(\' at \',1)\n                    if(len(temp1)>1):\n                        try:\n                            temp2=temp1[1].encode(\'utf-8\').split(\',\',1)\n                        except:\n                            temp2=[\'NONE\']\n                    else:\n                        temp2=[\'NONE\']\n                    company.append(temp2[0])\n                    current.append(less[0:len(less)-4])\n            elif k.find(\'span\',{"class" : "current-details"}):\n                    less=k.find(\'span\',{"class" : "current-details"}).get_text()\n                    current.append(less)\n                    temp1=less.encode(\'utf-8\').split(\' at \',1)\n                    if(len(temp1)>1):\n                        try:\n                            temp2=temp1[1].encode(\'utf-8\').split(\',\',1)\n                        except:\n                            temp2=[\'NONE\']\n                    else:\n                        temp2=[\'NONE\']\n                    company.append(temp2[0])\n            else:\n                    current.append(\'NONE\')\n                    company.append(\'NONE\')\n               \n        for l in soup.find_all(\'a\',{"title" : "View Profile"}):\n            temp=[]\n            view_profile.append(\'http://www.linkedin.com\'+l.get(\'href\'))\n            temp.append(l.get_text().encode(\'utf-8\').split(None,2))\n            if temp[0][0]:\n                firstname.append(temp[0][0].strip())\n            else:\n                firstname.append(\'None\')\n            if temp[0][1] and (len(temp[0])-1)==1:\n                lastname.append(temp[0][1].strip())\n                middlename.append(\'None\')\n            else:\n                lastname.append(temp[0][len(temp[0])-1].strip())\n                middlename.append(temp[0][1])\n\n        \n        for i in range(0,len(firstname)):\n            e=\'\'\n            w=\'\'\n            for row in db(db.email_info.Company_Name==company[i]).select():\n                if row.First_String==\'firstname\':\n                    e=e+firstname[i]\n                if row.First_String==\'f\':    \n                    e=e+firstname[i][0]\n                if row.First_String==\'lastname\':\n                    e=e+lastname[i]\n                if row.First_String==\'l\':\n                    e=e+lastname[i][0]\n                \n                e=e+row.Delimiter\n                 \n                if row.Second_String==\'firstname\':\n                    e=e+firstname[i]\n                if row.Second_String==\'f\':    \n                    e=e+firstname[i][0]\n                if row.Second_String==\'lastname\':\n                    e=e+lastname[i]\n                if row.Second_String==\'l\':\n                    e=e+lastname[i][0]\n                e=e+\'@\'\n                e=e+row.Domain_Name\n                w=string.lower(e)                                    \n                emailid.append(w)\n                \n            if e==\'\':\n                for r in db(db.email_info.id > 0).select():\n                    if company[i].startswith(r.Company_Name):\n                        First_String=r.First_String\n                        Delimiter=r.Delimiter\n                        Second_String=r.Second_String\n                        Domain_Name=r.Domain_Name\n                    \n                        if First_String==\'firstname\':\n                            e=e+firstname[i]\n                        if First_String==\'f\':    \n                            e=e+firstname[i][0]\n                        if First_String==\'lastname\':\n                            e=e+lastname[i]\n                        if First_String==\'l\':\n                            e=e+lastname[i][0]\n                \n                        e=e+Delimiter\n                 \n                        if Second_String==\'firstname\':\n                            e=e+firstname[i]\n                        if Second_String==\'f\':    \n                            e=e+firstname[i][0]\n                        if Second_String==\'lastname\':\n                            e=e+lastname[i]\n                        if Second_String==\'l\':\n                            e=e+lastname[i][0]\n                        e=e+\'@\'\n                        e=e+Domain_Name\n                        w=string.lower(e)                                    \n                        emailid.append(w)\n                        break\n                  \n                    if r.Company_Name.startswith(company[i]):\n                        First_String=r.First_String\n                        Delimiter=r.Delimiter\n                        Second_String=r.Second_String\n                        Domain_Name=r.Domain_Name\n                    \n                        if First_String==\'firstname\':\n                            e=e+firstname[i]\n                        if First_String==\'f\':    \n                            e=e+firstname[i][0]\n                        if First_String==\'lastname\':\n                            e=e+lastname[i]\n                        if First_String==\'l\':\n                            e=e+lastname[i][0]\n                \n                        e=e+Delimiter\n                 \n                        if Second_String==\'firstname\':\n                            e=e+firstname[i]\n                        if Second_String==\'f\':    \n                            e=e+firstname[i][0]\n                        if Second_String==\'lastname\':\n                            e=e+lastname[i]\n                        if Second_String==\'l\':\n                            e=e+lastname[i][0]\n                        e=e+\'@\'\n                        e=e+Domain_Name\n                        w=string.lower(e)                                    \n                        emailid.append(w)\n                        break    \n                        \n            if e==\'\':\n                emailid.append(\'NONE\')        \n\n        \n        for i in range(0,len(firstname)):\n            try:\n                spamWriter.writerow([firstname[i].encode(\'utf-8\').strip(),middlename[i].encode(\'utf-8\').strip(),lastname[i].encode(\'utf-8\').strip(),titl[i].encode(\'utf-8\').strip(),current[i].encode(\'utf-8\').strip(),location[i].encode(\'utf-8\').strip(),industry[i].encode(\'utf-8\').strip(),view_profile[i].encode(\'utf-8\').strip(),company[i].encode(\'utf-8\').strip(),emailid[i].encode(\'utf-8\').strip()])\n            except:\n                continue\n        if soup.find(\'a\',{"class" : "paginator-next"}):\n            br.open(\'http://www.linkedin.com\'+ soup.find(\'a\',{"class" : "paginator-next"}).get(\'href\'))\n        #soup = BeautifulSoup(br.response().read())\n        \n    response.headers[\'Content-Type\'] = \'text/csv\'\n    response.headers[\'Content-Disposition\'] = \'attachment; filename=%s.csv\' % request.vars.File_Name\n    return csv_response.getvalue()\n    \ndef email_info():\n     name=SQLFORM(db.email_info)\n     if(name.accepts(request.vars,session)):\n         #db.playlist.insert(playlist_id=request.vars.id)\n         session.flash=\'New Entry Made\'\n         redirect(URL(r=request,f=\'email_info\'))\n     return dict(name=name)\n     \ndef list_companies():\n    return dict(companies=db(db.email_info.id>0).select())\n          \ndef logout():\n    session.username=[]\n    session.password=[]\n    session.flash =T(\'Logout Successful\')\n    redirect(URL(r=request,f=\'index\'))\n    \ndef delete():\n    db(db.email_info.id==request.args(0)).delete()\n    session.flash=\'Company Info Deleted\'\n    redirect(URL(r=request,f=\'list_companies\'))\n    \ndef extract():  \n    subprocess.call("java -cp \\"C:\\\\Program Files\\\\salesforce.com\\\\Data Loader\\\\*\\" -Dsalesforce.config.dir=\\"C:\\\\Documents and Settings\\\\agrover\\\\Desktop\\\\econtacts\\\\config\\" com.salesforce.dataloader.process.ProcessRunner process.name=econtacts")\n    \n    #this script is used for adding company name to the contacts extracted from the salesforce.com\n    #1st give the name of the file which is taken as input\n    #then give name of the file where you want new data with appended field to be stored\n    #then give the name of the file where all accounts are stored i.e. where company names(account names) are hashed to accountids\n\n\n    #opening input file which needs to be edited\n    #infile=raw_input(\'Enter Input Filename for Editing (eg extracted.csv):\')\n    o=open(\'C:\\\\Documents and Settings\\\\agrover\\\\Desktop\\\\econtacts.csv\', \'rb\')\n    inp = csv.reader(o, delimiter=\',\')\n\n    #opening new file for writing data\n    #newin=raw_input(\'Enter Input Filename for Newfile (eg extracted.csv):\')\n    w=open(\'C:\\\\Documents and Settings\\\\agrover\\\\Desktop\\\\contacts.csv\',\'wb\')\n    wri=csv.writer(w,delimiter=\',\')\n\n    #opening file from where company names will be matched to the accountids\n    #in1=raw_input(\'Enter accounts filename (eg allaccounts.csv):\')\n    a = open(\'C:\\\\Documents and Settings\\\\agrover\\\\Desktop\\\\allaccount.csv\', \'rb\')\n    acc = csv.reader(a, delimiter=\',\')\n\n    #stores header line\n    headers=inp.next()\n    head1=acc.next()\n\n    keys=set()\n\n    accid=dict()\n    \n    #finding index for field ID in accounts file\n    id=head1.index(\'ID\')\n    #finding index for field NAME in accounts file\n    accountname=head1.index(\'NAME\')\n\n    #finding index of accountid in the input file\n    accountid=headers.index(\'ACCOUNTID\')\n\n    #creating a dictionary where accountids are mapped to accountnames(companynames)\n    #acc means accessing accounts file\n\n    for entry in acc:\n        #search in a set is order 1 where as search in list is order N...\n        keys.add(entry[id])\n        accid[entry[id]]=entry[accountname]\n\n    #writing new header line in the new file generated\n    headers.append(\'COMPANYNAME\')\n    wri.writerow(headers)\n\n    #inp means accessing input file\n\n    for entry in inp:\n        #for each entry in input file we check if accountid is present in the set generated from accounts file\n        #if we use accid.keys() instead of set keys it will take N^2 time hence using set\n    \n        if(entry[accountid] in keys):\n            entry.append(accid[entry[accountid]])\n            wri.writerow(entry)\n        else:\n            entry.append(\'None\')\n            wri.writerow(entry)\n\n\n    w.close()\n    o.close()\n    a.close()\n\n    cpy()\n    #redirect(URL(r=request,f=\'enter_info\'))\n    return c_response.getvalue()\n\ndef cpy():\n    global c_response\n    c_response = cStringIO.StringIO()\n    writer = csv.writer(c_response, delimiter=\',\')\n    o=open(\'C:\\\\Documents and Settings\\\\agrover\\\\Desktop\\\\contacts.csv\', \'rb\')\n    reader = csv.reader(o, delimiter=\',\')\n    for row in reader:\n        writer.writerow(row)\n        \n    response.headers[\'Content-Type\'] = \'text/csv\'\n    response.headers[\'Content-Disposition\'] = \'attachment; filename=allcontacts.csv\'\n    \n    \ndef upload():\n    global c_response\n    form = SQLFORM(db.files)\n    if form.process().accepted:\n       response.flash = form.vars.Upload_File\n       c_response = cStringIO.StringIO()\n       writer = csv.writer(c_response, delimiter=\',\')\n       o=open(\'C:\\\\Documents and Settings\\\\agrover\\\\Desktop\\\\previous crawler\\\\web2py\\\\applications\\\\mycrawler\\\\uploads\\\\\'+form.vars.Upload_File, \'rb\')\n       reader = csv.reader(o, delimiter=\',\')\n       redirect(URL(r=request,f=\'temp\'))\n       return dict(form=form)\n       for row in reader:\n           writer.writerow(row)\n        \n       response.headers[\'Content-Type\'] = \'text/csv\'\n       response.headers[\'Content-Disposition\'] = \'attachment; filename=allcontacts.csv\'\n    elif form.errors:\n       response.flash = \'form has errors\'\n       \n\n    return dict(form=form)\n    \ndef temp():\n    global c_response\n    return c_response.getvalue()\n#finish\n###########################################################################################################    \n    #redirect(URL(r=request,f=\'enter_info\'))       \n    #for link in soup.find_all(\'a\'):\n    #    if link.get(\'title\')==\'View Profile\':\n    #        #print(link.get(\'href\'))\n    #        #print link.get_text()\n    #        view_profile.append(\'http://www.linkedin.com\'+link.get(\'href\'))\n    #        name.append(link.get_text())\n#for l in soup.find_all("span", { "class" : "given-name" }):\n    #print l.get_text()\n\n        \n\n#    for l in soup.find_all(\'dd\',{"class" : "title"}):\n        #print l.get_text()\n#        titl.append(l.get_text())\n    \n#    for l in soup.find_all(\'span\',{"class" : "location"}):\n        #print l.get_text()\n#        location.append(l.get_text())\n\n#    for l in soup.find_all(\'span\',{"class" : "industry"}):\n        #print l.get_text()\n#        industry.append(l.get_text())\n        \n#    for l in soup.find_all(\'span\', {"class" : "current-details"}):\n#        k=l.get_text()\n#        if k[len(k)-4:len(k)]!=\'more\':\n#            current.append(k)\n        #elif(l.get["class"]==\'current-details more text\'):\n        #    current.append(l.get_text())\n    #for l in soup.find_all(\'span\',{"class" : "current-details"}):\n        #print l.get_text()\n        #current.append(l.get_text())\n\n    \n    #global filename,csv_response\n\n    #csv_response = cStringIO.StringIO()\n    \n    #spamWriter = csv.writer(csv_response, delimiter=\',\')\n    \n    #spamWriter.writerow([\'NAME\',\'JOB-TITLE\',\'COMPANY-NAME\',\'LOCATION\',\'INDUSTRY\',\'PROFLE-URL\'])\n   \n    #spamWriter = csv.writer(open(request.vars.File_Name+\'.csv\', \'wb\'), delimiter=\',\')\n    #spamWriter.writerow([\'NAME\',\'JOB-TITLE\',\'Current\',\'LOCATION\',\'INDUSTRY\',\'PROFLE-URL\'])\n    #for i in range(1,10):\n    #    spamWriter.writerow([name[i].encode(\'utf-8\'),titl[i],current[i],location[i],industry[i],view_profile[i]])\n        \n        \n    #,titl[i],current[i],location[i],industry[i],view_profile[i]\n    #response.headers[\'Content-Type\'] = \'text/csv\'\n    #response.headers[\'Content-Disposition\'] = \'attachment; filename=%s\' % request.vars.File_Name\n\n    \n    #return dict(view_profile=view_profile,name=name,location=location,industry=industry,titl=titl,current=current)\n\nresponse._vars=response._caller(temp)\n'
p7
sS'snapshot'
p8
(dp9
S'exception'
p10
(dp11
S'__hash__'
p12
S"<method-wrapper '__hash__' of exceptions.NameError object>"
p13
sS'__setattr__'
p14
S"<method-wrapper '__setattr__' of exceptions.NameError object>"
p15
sS'__reduce_ex__'
p16
S'<built-in method __reduce_ex__ of exceptions.NameError object>'
p17
sS'__getslice__'
p18
S"<method-wrapper '__getslice__' of exceptions.NameError object>"
p19
sS'__getitem__'
p20
S"<method-wrapper '__getitem__' of exceptions.NameError object>"
p21
sS'__setstate__'
p22
S'<built-in method __setstate__ of exceptions.NameError object>'
p23
sS'__reduce__'
p24
S'<built-in method __reduce__ of exceptions.NameError object>'
p25
sS'__str__'
p26
S"<method-wrapper '__str__' of exceptions.NameError object>"
p27
sS'__format__'
p28
S'<built-in method __format__ of exceptions.NameError object>'
p29
sS'__getattribute__'
p30
S"<method-wrapper '__getattribute__' of exceptions.NameError object>"
p31
sS'__class__'
p32
S"<type 'exceptions.NameError'>"
p33
sS'__unicode__'
p34
S'<built-in method __unicode__ of exceptions.NameError object>'
p35
sS'__delattr__'
p36
S"<method-wrapper '__delattr__' of exceptions.NameError object>"
p37
sS'__subclasshook__'
p38
S'<built-in method __subclasshook__ of type object>'
p39
sS'__repr__'
p40
S"<method-wrapper '__repr__' of exceptions.NameError object>"
p41
sS'args'
p42
S'("global name \'c_response\' is not defined",)'
p43
sS'__dict__'
p44
S'{}'
p45
sS'__sizeof__'
p46
S'<built-in method __sizeof__ of exceptions.NameError object>'
p47
sS'__doc__'
p48
S"'Name not found globally.'"
p49
sS'__init__'
p50
S"<method-wrapper '__init__' of exceptions.NameError object>"
p51
sS'__new__'
p52
S'<built-in method __new__ of type object>'
p53
ssS'evalue'
p54
S"global name 'c_response' is not defined"
p55
sS'request'
p56
ccopy_reg
_reconstructor
p57
(cgluon.html
BEAUTIFY
p58
c__builtin__
object
p59
NtRp60
(dp61
S'attributes'
p62
(dp63
sS'components'
p64
(lp65
g57
(cgluon.html
TABLE
p66
g59
NtRp67
(dp68
g62
(dp69
S'level'
p70
I5
ssS'parent'
p71
Nsg64
(lp72
g57
(cgluon.html
TR
p73
g59
NtRp74
(dp75
g62
(dp76
sg71
g67
sg64
(lp77
g57
(cgluon.html
TD
p78
g59
NtRp79
(dp80
g62
(dp81
S'_style'
p82
S'font-weight:bold;vertical-align:top'
p83
ssg71
g74
sg64
(lp84
S'ajax'
p85
asbag57
(g78
g59
NtRp86
(dp87
g62
(dp88
S'_valign'
p89
S'top'
p90
ssg71
g74
sg64
(lp91
S':'
asbag57
(g78
g59
NtRp92
(dp93
g62
(dp94
sg71
g74
sg64
(lp95
g57
(g58
g59
NtRp96
(dp97
g62
(dp98
g70
I5
ssg71
g92
sg64
(lp99
S'False'
p100
asbasbasbag57
(g73
g59
NtRp101
(dp102
g62
(dp103
sg71
g67
sg64
(lp104
g57
(g78
g59
NtRp105
(dp106
g62
(dp107
g82
g83
ssg71
g101
sg64
(lp108
S'application'
p109
asbag57
(g78
g59
NtRp110
(dp111
g62
(dp112
g89
g90
ssg71
g101
sg64
(lp113
S':'
asbag57
(g78
g59
NtRp114
(dp115
g62
(dp116
sg71
g101
sg64
(lp117
g57
(g58
g59
NtRp118
(dp119
g62
(dp120
g70
I5
ssg71
g114
sg64
(lp121
S'mycrawler'
p122
asbasbasbag57
(g73
g59
NtRp123
(dp124
g62
(dp125
sg71
g67
sg64
(lp126
g57
(g78
g59
NtRp127
(dp128
g62
(dp129
g82
g83
ssg71
g123
sg64
(lp130
g42
asbag57
(g78
g59
NtRp131
(dp132
g62
(dp133
g89
g90
ssg71
g123
sg64
(lp134
S':'
asbag57
(g78
g59
NtRp135
(dp136
g62
(dp137
sg71
g123
sg64
(lp138
g57
(g58
g59
NtRp139
(dp140
g62
(dp141
g70
I5
ssg71
g135
sg64
(lp142
g57
(g66
g59
NtRp143
(dp144
g62
(dp145
g70
I4
ssg71
Nsg64
(lp146
sbasbasbasbag57
(g73
g59
NtRp147
(dp148
g62
(dp149
sg71
g67
sg64
(lp150
g57
(g78
g59
NtRp151
(dp152
g62
(dp153
g82
g83
ssg71
g147
sg64
(lp154
S'body'
p155
asbag57
(g78
g59
NtRp156
(dp157
g62
(dp158
g89
g90
ssg71
g147
sg64
(lp159
S':'
asbag57
(g78
g59
NtRp160
(dp161
g62
(dp162
sg71
g147
sg64
(lp163
g57
(g58
g59
NtRp164
(dp165
g62
(dp166
g70
I5
ssg71
g160
sg64
(lp167
S'<cStringIO.StringO object at 0x019254E0>'
p168
asbasbasbag57
(g73
g59
NtRp169
(dp170
g62
(dp171
sg71
g67
sg64
(lp172
g57
(g78
g59
NtRp173
(dp174
g62
(dp175
g82
g83
ssg71
g169
sg64
(lp176
S'client'
p177
asbag57
(g78
g59
NtRp178
(dp179
g62
(dp180
g89
g90
ssg71
g169
sg64
(lp181
S':'
asbag57
(g78
g59
NtRp182
(dp183
g62
(dp184
sg71
g169
sg64
(lp185
g57
(g58
g59
NtRp186
(dp187
g62
(dp188
g70
I5
ssg71
g182
sg64
(lp189
S'127.0.0.1'
p190
asbasbasbag57
(g73
g59
NtRp191
(dp192
g62
(dp193
sg71
g67
sg64
(lp194
g57
(g78
g59
NtRp195
(dp196
g62
(dp197
g82
g83
ssg71
g191
sg64
(lp198
S'controller'
p199
asbag57
(g78
g59
NtRp200
(dp201
g62
(dp202
g89
g90
ssg71
g191
sg64
(lp203
S':'
asbag57
(g78
g59
NtRp204
(dp205
g62
(dp206
sg71
g191
sg64
(lp207
g57
(g58
g59
NtRp208
(dp209
g62
(dp210
g70
I5
ssg71
g204
sg64
(lp211
S'default'
p212
asbasbasbag57
(g73
g59
NtRp213
(dp214
g62
(dp215
sg71
g67
sg64
(lp216
g57
(g78
g59
NtRp217
(dp218
g62
(dp219
g82
g83
ssg71
g213
sg64
(lp220
S'cookies'
p221
asbag57
(g78
g59
NtRp222
(dp223
g62
(dp224
g89
g90
ssg71
g213
sg64
(lp225
S':'
asbag57
(g78
g59
NtRp226
(dp227
g62
(dp228
sg71
g213
sg64
(lp229
g57
(g58
g59
NtRp230
(dp231
g62
(dp232
g70
I5
ssg71
g226
sg64
(lp233
g57
(g66
g59
NtRp234
(dp235
g62
(dp236
g70
I4
ssg71
Nsg64
(lp237
g57
(g73
g59
NtRp238
(dp239
g62
(dp240
sg71
g234
sg64
(lp241
g57
(g78
g59
NtRp242
(dp243
g62
(dp244
g82
g83
ssg71
g238
sg64
(lp245
S'session_id_admin'
p246
asbag57
(g78
g59
NtRp247
(dp248
g62
(dp249
g89
g90
ssg71
g238
sg64
(lp250
S':'
asbag57
(g78
g59
NtRp251
(dp252
g62
(dp253
sg71
g238
sg64
(lp254
g57
(g58
g59
NtRp255
(dp256
g62
(dp257
g70
I4
ssg71
g251
sg64
(lp258
g57
(g66
g59
NtRp259
(dp260
g62
(dp261
g70
I3
ssg71
Nsg64
(lp262
g57
(g73
g59
NtRp263
(dp264
g62
(dp265
sg71
g259
sg64
(lp266
g57
(g78
g59
NtRp267
(dp268
g62
(dp269
g82
g83
ssg71
g263
sg64
(lp270
S'comment'
p271
asbag57
(g78
g59
NtRp272
(dp273
g62
(dp274
g89
g90
ssg71
g263
sg64
(lp275
S':'
asbag57
(g78
g59
NtRp276
(dp277
g62
(dp278
sg71
g263
sg64
(lp279
g57
(g58
g59
NtRp280
(dp281
g62
(dp282
g70
I3
ssg71
g276
sg64
(lp283
S''
asbasbasbag57
(g73
g59
NtRp284
(dp285
g62
(dp286
sg71
g259
sg64
(lp287
g57
(g78
g59
NtRp288
(dp289
g62
(dp290
g82
g83
ssg71
g284
sg64
(lp291
S'domain'
p292
asbag57
(g78
g59
NtRp293
(dp294
g62
(dp295
g89
g90
ssg71
g284
sg64
(lp296
S':'
asbag57
(g78
g59
NtRp297
(dp298
g62
(dp299
sg71
g284
sg64
(lp300
g57
(g58
g59
NtRp301
(dp302
g62
(dp303
g70
I3
ssg71
g297
sg64
(lp304
S''
asbasbasbag57
(g73
g59
NtRp305
(dp306
g62
(dp307
sg71
g259
sg64
(lp308
g57
(g78
g59
NtRp309
(dp310
g62
(dp311
g82
g83
ssg71
g305
sg64
(lp312
S'expires'
p313
asbag57
(g78
g59
NtRp314
(dp315
g62
(dp316
g89
g90
ssg71
g305
sg64
(lp317
S':'
asbag57
(g78
g59
NtRp318
(dp319
g62
(dp320
sg71
g305
sg64
(lp321
g57
(g58
g59
NtRp322
(dp323
g62
(dp324
g70
I3
ssg71
g318
sg64
(lp325
S''
asbasbasbag57
(g73
g59
NtRp326
(dp327
g62
(dp328
sg71
g259
sg64
(lp329
g57
(g78
g59
NtRp330
(dp331
g62
(dp332
g82
g83
ssg71
g326
sg64
(lp333
S'httponly'
p334
asbag57
(g78
g59
NtRp335
(dp336
g62
(dp337
g89
g90
ssg71
g326
sg64
(lp338
S':'
asbag57
(g78
g59
NtRp339
(dp340
g62
(dp341
sg71
g326
sg64
(lp342
g57
(g58
g59
NtRp343
(dp344
g62
(dp345
g70
I3
ssg71
g339
sg64
(lp346
S''
asbasbasbag57
(g73
g59
NtRp347
(dp348
g62
(dp349
sg71
g259
sg64
(lp350
g57
(g78
g59
NtRp351
(dp352
g62
(dp353
g82
g83
ssg71
g347
sg64
(lp354
S'max-age'
p355
asbag57
(g78
g59
NtRp356
(dp357
g62
(dp358
g89
g90
ssg71
g347
sg64
(lp359
S':'
asbag57
(g78
g59
NtRp360
(dp361
g62
(dp362
sg71
g347
sg64
(lp363
g57
(g58
g59
NtRp364
(dp365
g62
(dp366
g70
I3
ssg71
g360
sg64
(lp367
S''
asbasbasbag57
(g73
g59
NtRp368
(dp369
g62
(dp370
sg71
g259
sg64
(lp371
g57
(g78
g59
NtRp372
(dp373
g62
(dp374
g82
g83
ssg71
g368
sg64
(lp375
S'path'
p376
asbag57
(g78
g59
NtRp377
(dp378
g62
(dp379
g89
g90
ssg71
g368
sg64
(lp380
S':'
asbag57
(g78
g59
NtRp381
(dp382
g62
(dp383
sg71
g368
sg64
(lp384
g57
(g58
g59
NtRp385
(dp386
g62
(dp387
g70
I3
ssg71
g381
sg64
(lp388
S''
asbasbasbag57
(g73
g59
NtRp389
(dp390
g62
(dp391
sg71
g259
sg64
(lp392
g57
(g78
g59
NtRp393
(dp394
g62
(dp395
g82
g83
ssg71
g389
sg64
(lp396
S'secure'
p397
asbag57
(g78
g59
NtRp398
(dp399
g62
(dp400
g89
g90
ssg71
g389
sg64
(lp401
S':'
asbag57
(g78
g59
NtRp402
(dp403
g62
(dp404
sg71
g389
sg64
(lp405
g57
(g58
g59
NtRp406
(dp407
g62
(dp408
g70
I3
ssg71
g402
sg64
(lp409
S''
asbasbasbag57
(g73
g59
NtRp410
(dp411
g62
(dp412
sg71
g259
sg64
(lp413
g57
(g78
g59
NtRp414
(dp415
g62
(dp416
g82
g83
ssg71
g410
sg64
(lp417
S'version'
p418
asbag57
(g78
g59
NtRp419
(dp420
g62
(dp421
g89
g90
ssg71
g410
sg64
(lp422
S':'
asbag57
(g78
g59
NtRp423
(dp424
g62
(dp425
sg71
g410
sg64
(lp426
g57
(g58
g59
NtRp427
(dp428
g62
(dp429
g70
I3
ssg71
g423
sg64
(lp430
S''
asbasbasbasbasbasbasbag57
(g73
g59
NtRp431
(dp432
g62
(dp433
sg71
g234
sg64
(lp434
g57
(g78
g59
NtRp435
(dp436
g62
(dp437
g82
g83
ssg71
g431
sg64
(lp438
S'session_id_mycrawler'
p439
asbag57
(g78
g59
NtRp440
(dp441
g62
(dp442
g89
g90
ssg71
g431
sg64
(lp443
S':'
asbag57
(g78
g59
NtRp444
(dp445
g62
(dp446
sg71
g431
sg64
(lp447
g57
(g58
g59
NtRp448
(dp449
g62
(dp450
g70
I4
ssg71
g444
sg64
(lp451
g57
(g66
g59
NtRp452
(dp453
g62
(dp454
g70
I3
ssg71
Nsg64
(lp455
g57
(g73
g59
NtRp456
(dp457
g62
(dp458
sg71
g452
sg64
(lp459
g57
(g78
g59
NtRp460
(dp461
g62
(dp462
g82
g83
ssg71
g456
sg64
(lp463
g271
asbag57
(g78
g59
NtRp464
(dp465
g62
(dp466
g89
g90
ssg71
g456
sg64
(lp467
S':'
asbag57
(g78
g59
NtRp468
(dp469
g62
(dp470
sg71
g456
sg64
(lp471
g57
(g58
g59
NtRp472
(dp473
g62
(dp474
g70
I3
ssg71
g468
sg64
(lp475
S''
asbasbasbag57
(g73
g59
NtRp476
(dp477
g62
(dp478
sg71
g452
sg64
(lp479
g57
(g78
g59
NtRp480
(dp481
g62
(dp482
g82
g83
ssg71
g476
sg64
(lp483
g292
asbag57
(g78
g59
NtRp484
(dp485
g62
(dp486
g89
g90
ssg71
g476
sg64
(lp487
S':'
asbag57
(g78
g59
NtRp488
(dp489
g62
(dp490
sg71
g476
sg64
(lp491
g57
(g58
g59
NtRp492
(dp493
g62
(dp494
g70
I3
ssg71
g488
sg64
(lp495
S''
asbasbasbag57
(g73
g59
NtRp496
(dp497
g62
(dp498
sg71
g452
sg64
(lp499
g57
(g78
g59
NtRp500
(dp501
g62
(dp502
g82
g83
ssg71
g496
sg64
(lp503
g313
asbag57
(g78
g59
NtRp504
(dp505
g62
(dp506
g89
g90
ssg71
g496
sg64
(lp507
S':'
asbag57
(g78
g59
NtRp508
(dp509
g62
(dp510
sg71
g496
sg64
(lp511
g57
(g58
g59
NtRp512
(dp513
g62
(dp514
g70
I3
ssg71
g508
sg64
(lp515
S''
asbasbasbag57
(g73
g59
NtRp516
(dp517
g62
(dp518
sg71
g452
sg64
(lp519
g57
(g78
g59
NtRp520
(dp521
g62
(dp522
g82
g83
ssg71
g516
sg64
(lp523
g334
asbag57
(g78
g59
NtRp524
(dp525
g62
(dp526
g89
g90
ssg71
g516
sg64
(lp527
S':'
asbag57
(g78
g59
NtRp528
(dp529
g62
(dp530
sg71
g516
sg64
(lp531
g57
(g58
g59
NtRp532
(dp533
g62
(dp534
g70
I3
ssg71
g528
sg64
(lp535
S''
asbasbasbag57
(g73
g59
NtRp536
(dp537
g62
(dp538
sg71
g452
sg64
(lp539
g57
(g78
g59
NtRp540
(dp541
g62
(dp542
g82
g83
ssg71
g536
sg64
(lp543
g355
asbag57
(g78
g59
NtRp544
(dp545
g62
(dp546
g89
g90
ssg71
g536
sg64
(lp547
S':'
asbag57
(g78
g59
NtRp548
(dp549
g62
(dp550
sg71
g536
sg64
(lp551
g57
(g58
g59
NtRp552
(dp553
g62
(dp554
g70
I3
ssg71
g548
sg64
(lp555
S''
asbasbasbag57
(g73
g59
NtRp556
(dp557
g62
(dp558
sg71
g452
sg64
(lp559
g57
(g78
g59
NtRp560
(dp561
g62
(dp562
g82
g83
ssg71
g556
sg64
(lp563
g376
asbag57
(g78
g59
NtRp564
(dp565
g62
(dp566
g89
g90
ssg71
g556
sg64
(lp567
S':'
asbag57
(g78
g59
NtRp568
(dp569
g62
(dp570
sg71
g556
sg64
(lp571
g57
(g58
g59
NtRp572
(dp573
g62
(dp574
g70
I3
ssg71
g568
sg64
(lp575
S''
asbasbasbag57
(g73
g59
NtRp576
(dp577
g62
(dp578
sg71
g452
sg64
(lp579
g57
(g78
g59
NtRp580
(dp581
g62
(dp582
g82
g83
ssg71
g576
sg64
(lp583
g397
asbag57
(g78
g59
NtRp584
(dp585
g62
(dp586
g89
g90
ssg71
g576
sg64
(lp587
S':'
asbag57
(g78
g59
NtRp588
(dp589
g62
(dp590
sg71
g576
sg64
(lp591
g57
(g58
g59
NtRp592
(dp593
g62
(dp594
g70
I3
ssg71
g588
sg64
(lp595
S''
asbasbasbag57
(g73
g59
NtRp596
(dp597
g62
(dp598
sg71
g452
sg64
(lp599
g57
(g78
g59
NtRp600
(dp601
g62
(dp602
g82
g83
ssg71
g596
sg64
(lp603
g418
asbag57
(g78
g59
NtRp604
(dp605
g62
(dp606
g89
g90
ssg71
g596
sg64
(lp607
S':'
asbag57
(g78
g59
NtRp608
(dp609
g62
(dp610
sg71
g596
sg64
(lp611
g57
(g58
g59
NtRp612
(dp613
g62
(dp614
g70
I3
ssg71
g608
sg64
(lp615
S''
asbasbasbasbasbasbasbag57
(g73
g59
NtRp616
(dp617
g62
(dp618
sg71
g234
sg64
(lp619
g57
(g78
g59
NtRp620
(dp621
g62
(dp622
g82
g83
ssg71
g616
sg64
(lp623
S'session_id_welcome'
p624
asbag57
(g78
g59
NtRp625
(dp626
g62
(dp627
g89
g90
ssg71
g616
sg64
(lp628
S':'
asbag57
(g78
g59
NtRp629
(dp630
g62
(dp631
sg71
g616
sg64
(lp632
g57
(g58
g59
NtRp633
(dp634
g62
(dp635
g70
I4
ssg71
g629
sg64
(lp636
g57
(g66
g59
NtRp637
(dp638
g62
(dp639
g70
I3
ssg71
Nsg64
(lp640
g57
(g73
g59
NtRp641
(dp642
g62
(dp643
sg71
g637
sg64
(lp644
g57
(g78
g59
NtRp645
(dp646
g62
(dp647
g82
g83
ssg71
g641
sg64
(lp648
g271
asbag57
(g78
g59
NtRp649
(dp650
g62
(dp651
g89
g90
ssg71
g641
sg64
(lp652
S':'
asbag57
(g78
g59
NtRp653
(dp654
g62
(dp655
sg71
g641
sg64
(lp656
g57
(g58
g59
NtRp657
(dp658
g62
(dp659
g70
I3
ssg71
g653
sg64
(lp660
S''
asbasbasbag57
(g73
g59
NtRp661
(dp662
g62
(dp663
sg71
g637
sg64
(lp664
g57
(g78
g59
NtRp665
(dp666
g62
(dp667
g82
g83
ssg71
g661
sg64
(lp668
g292
asbag57
(g78
g59
NtRp669
(dp670
g62
(dp671
g89
g90
ssg71
g661
sg64
(lp672
S':'
asbag57
(g78
g59
NtRp673
(dp674
g62
(dp675
sg71
g661
sg64
(lp676
g57
(g58
g59
NtRp677
(dp678
g62
(dp679
g70
I3
ssg71
g673
sg64
(lp680
S''
asbasbasbag57
(g73
g59
NtRp681
(dp682
g62
(dp683
sg71
g637
sg64
(lp684
g57
(g78
g59
NtRp685
(dp686
g62
(dp687
g82
g83
ssg71
g681
sg64
(lp688
g313
asbag57
(g78
g59
NtRp689
(dp690
g62
(dp691
g89
g90
ssg71
g681
sg64
(lp692
S':'
asbag57
(g78
g59
NtRp693
(dp694
g62
(dp695
sg71
g681
sg64
(lp696
g57
(g58
g59
NtRp697
(dp698
g62
(dp699
g70
I3
ssg71
g693
sg64
(lp700
S''
asbasbasbag57
(g73
g59
NtRp701
(dp702
g62
(dp703
sg71
g637
sg64
(lp704
g57
(g78
g59
NtRp705
(dp706
g62
(dp707
g82
g83
ssg71
g701
sg64
(lp708
g334
asbag57
(g78
g59
NtRp709
(dp710
g62
(dp711
g89
g90
ssg71
g701
sg64
(lp712
S':'
asbag57
(g78
g59
NtRp713
(dp714
g62
(dp715
sg71
g701
sg64
(lp716
g57
(g58
g59
NtRp717
(dp718
g62
(dp719
g70
I3
ssg71
g713
sg64
(lp720
S''
asbasbasbag57
(g73
g59
NtRp721
(dp722
g62
(dp723
sg71
g637
sg64
(lp724
g57
(g78
g59
NtRp725
(dp726
g62
(dp727
g82
g83
ssg71
g721
sg64
(lp728
g355
asbag57
(g78
g59
NtRp729
(dp730
g62
(dp731
g89
g90
ssg71
g721
sg64
(lp732
S':'
asbag57
(g78
g59
NtRp733
(dp734
g62
(dp735
sg71
g721
sg64
(lp736
g57
(g58
g59
NtRp737
(dp738
g62
(dp739
g70
I3
ssg71
g733
sg64
(lp740
S''
asbasbasbag57
(g73
g59
NtRp741
(dp742
g62
(dp743
sg71
g637
sg64
(lp744
g57
(g78
g59
NtRp745
(dp746
g62
(dp747
g82
g83
ssg71
g741
sg64
(lp748
g376
asbag57
(g78
g59
NtRp749
(dp750
g62
(dp751
g89
g90
ssg71
g741
sg64
(lp752
S':'
asbag57
(g78
g59
NtRp753
(dp754
g62
(dp755
sg71
g741
sg64
(lp756
g57
(g58
g59
NtRp757
(dp758
g62
(dp759
g70
I3
ssg71
g753
sg64
(lp760
S''
asbasbasbag57
(g73
g59
NtRp761
(dp762
g62
(dp763
sg71
g637
sg64
(lp764
g57
(g78
g59
NtRp765
(dp766
g62
(dp767
g82
g83
ssg71
g761
sg64
(lp768
g397
asbag57
(g78
g59
NtRp769
(dp770
g62
(dp771
g89
g90
ssg71
g761
sg64
(lp772
S':'
asbag57
(g78
g59
NtRp773
(dp774
g62
(dp775
sg71
g761
sg64
(lp776
g57
(g58
g59
NtRp777
(dp778
g62
(dp779
g70
I3
ssg71
g773
sg64
(lp780
S''
asbasbasbag57
(g73
g59
NtRp781
(dp782
g62
(dp783
sg71
g637
sg64
(lp784
g57
(g78
g59
NtRp785
(dp786
g62
(dp787
g82
g83
ssg71
g781
sg64
(lp788
g418
asbag57
(g78
g59
NtRp789
(dp790
g62
(dp791
g89
g90
ssg71
g781
sg64
(lp792
S':'
asbag57
(g78
g59
NtRp793
(dp794
g62
(dp795
sg71
g781
sg64
(lp796
g57
(g58
g59
NtRp797
(dp798
g62
(dp799
g70
I3
ssg71
g793
sg64
(lp800
S''
asbasbasbasbasbasbasbasbasbasbasbag57
(g73
g59
NtRp801
(dp802
g62
(dp803
sg71
g67
sg64
(lp804
g57
(g78
g59
NtRp805
(dp806
g62
(dp807
g82
g83
ssg71
g801
sg64
(lp808
S'env'
p809
asbag57
(g78
g59
NtRp810
(dp811
g62
(dp812
g89
g90
ssg71
g801
sg64
(lp813
S':'
asbag57
(g78
g59
NtRp814
(dp815
g62
(dp816
sg71
g801
sg64
(lp817
g57
(g58
g59
NtRp818
(dp819
g62
(dp820
g70
I5
ssg71
g814
sg64
(lp821
g57
(g66
g59
NtRp822
(dp823
g62
(dp824
g70
I4
ssg71
Nsg64
(lp825
g57
(g73
g59
NtRp826
(dp827
g62
(dp828
sg71
g822
sg64
(lp829
g57
(g78
g59
NtRp830
(dp831
g62
(dp832
g82
g83
ssg71
g826
sg64
(lp833
S'app_folders'
p834
asbag57
(g78
g59
NtRp835
(dp836
g62
(dp837
g89
g90
ssg71
g826
sg64
(lp838
S':'
asbag57
(g78
g59
NtRp839
(dp840
g62
(dp841
sg71
g826
sg64
(lp842
g57
(g58
g59
NtRp843
(dp844
g62
(dp845
g70
I4
ssg71
g839
sg64
(lp846
S"set(['C:\\\\Documents and Settings\\\\agrover\\\\Desktop\\\\previous crawler\\\\web2py\\\\applications\\\\admin\\\\', 'C:\\\\Documents and Settings\\\\agrover\\\\Desktop\\\\previous crawler\\\\web2py\\\\applications\\\\mycrawler\\\\', 'C:\\\\Documents and Settings\\\\agrover\\\\Desktop\\\\previous crawler\\\\web2py\\\\applications\\\\welcome\\\\'])"
p847
asbasbasbag57
(g73
g59
NtRp848
(dp849
g62
(dp850
sg71
g822
sg64
(lp851
g57
(g78
g59
NtRp852
(dp853
g62
(dp854
g82
g83
ssg71
g848
sg64
(lp855
S'applications_parent'
p856
asbag57
(g78
g59
NtRp857
(dp858
g62
(dp859
g89
g90
ssg71
g848
sg64
(lp860
S':'
asbag57
(g78
g59
NtRp861
(dp862
g62
(dp863
sg71
g848
sg64
(lp864
g57
(g58
g59
NtRp865
(dp866
g62
(dp867
g70
I4
ssg71
g861
sg64
(lp868
S'C:\\Documents and Settings\\agrover\\Desktop\\previous crawler\\web2py'
p869
asbasbasbag57
(g73
g59
NtRp870
(dp871
g62
(dp872
sg71
g822
sg64
(lp873
g57
(g78
g59
NtRp874
(dp875
g62
(dp876
g82
g83
ssg71
g870
sg64
(lp877
S'cmd_args'
p878
asbag57
(g78
g59
NtRp879
(dp880
g62
(dp881
g89
g90
ssg71
g870
sg64
(lp882
S':'
asbag57
(g78
g59
NtRp883
(dp884
g62
(dp885
sg71
g870
sg64
(lp886
g57
(g58
g59
NtRp887
(dp888
g62
(dp889
g70
I4
ssg71
g883
sg64
(lp890
g57
(g66
g59
NtRp891
(dp892
g62
(dp893
g70
I3
ssg71
Nsg64
(lp894
sbasbasbasbag57
(g73
g59
NtRp895
(dp896
g62
(dp897
sg71
g822
sg64
(lp898
g57
(g78
g59
NtRp899
(dp900
g62
(dp901
g82
g83
ssg71
g895
sg64
(lp902
S'cmd_options'
p903
asbag57
(g78
g59
NtRp904
(dp905
g62
(dp906
g89
g90
ssg71
g895
sg64
(lp907
S':'
asbag57
(g78
g59
NtRp908
(dp909
g62
(dp910
sg71
g895
sg64
(lp911
g57
(g58
g59
NtRp912
(dp913
g62
(dp914
g70
I4
ssg71
g908
sg64
(lp915
S"<Values at 0x16d63f0: {'verbose': False, 'ip': '127.0.0.1', 'shutdown_timeout': 5, 'taskbar': False, 'nocron': False, 'pid_filename': 'httpserver.pid', 'maxthreads': None, 'softcron': False, 'server_name': 'mniagrover', 'bpython': False, 'nogui': False, 'port': 8000, 'extcron': False, 'debuglevel': 30, 'test': None, 'folder': 'C:\\\\Documents and Settings\\\\agrover\\\\Desktop\\\\previous crawler\\\\web2py', 'config': '', 'import_models': False, 'winservice': '', 'shell': None, 'run': '', 'log_filename': 'httpserver.log', 'args': [''], 'socket_timeout': 5, 'ssl_ca_certificate': None, 'scheduler': None, 'profiler_filename': None, 'ssl_private_key': '', 'password': '<ask>', 'request_queue_size': 5, 'ssl_certificate': '', 'cronjob': False, 'numthreads': None, 'quiet': False, 'interfaces': None, 'minthreads': None, 'timeout': 10, 'plain': False, 'nobanner': False}>"
p916
asbasbasbag57
(g73
g59
NtRp917
(dp918
g62
(dp919
sg71
g822
sg64
(lp920
g57
(g78
g59
NtRp921
(dp922
g62
(dp923
g82
g83
ssg71
g917
sg64
(lp924
S'db_sessions'
p925
asbag57
(g78
g59
NtRp926
(dp927
g62
(dp928
g89
g90
ssg71
g917
sg64
(lp929
S':'
asbag57
(g78
g59
NtRp930
(dp931
g62
(dp932
sg71
g917
sg64
(lp933
g57
(g58
g59
NtRp934
(dp935
g62
(dp936
g70
I4
ssg71
g930
sg64
(lp937
S'set([])'
p938
asbasbasbag57
(g73
g59
NtRp939
(dp940
g62
(dp941
sg71
g822
sg64
(lp942
g57
(g78
g59
NtRp943
(dp944
g62
(dp945
g82
g83
ssg71
g939
sg64
(lp946
S'debugging'
p947
asbag57
(g78
g59
NtRp948
(dp949
g62
(dp950
g89
g90
ssg71
g939
sg64
(lp951
S':'
asbag57
(g78
g59
NtRp952
(dp953
g62
(dp954
sg71
g939
sg64
(lp955
g57
(g58
g59
NtRp956
(dp957
g62
(dp958
g70
I4
ssg71
g952
sg64
(lp959
g100
asbasbasbag57
(g73
g59
NtRp960
(dp961
g62
(dp962
sg71
g822
sg64
(lp963
g57
(g78
g59
NtRp964
(dp965
g62
(dp966
g82
g83
ssg71
g960
sg64
(lp967
S'gluon_parent'
p968
asbag57
(g78
g59
NtRp969
(dp970
g62
(dp971
g89
g90
ssg71
g960
sg64
(lp972
S':'
asbag57
(g78
g59
NtRp973
(dp974
g62
(dp975
sg71
g960
sg64
(lp976
g57
(g58
g59
NtRp977
(dp978
g62
(dp979
g70
I4
ssg71
g973
sg64
(lp980
S'C:\\Documents and Settings\\agrover\\Desktop\\previous crawler\\web2py'
p981
asbasbasbag57
(g73
g59
NtRp982
(dp983
g62
(dp984
sg71
g822
sg64
(lp985
g57
(g78
g59
NtRp986
(dp987
g62
(dp988
g82
g83
ssg71
g982
sg64
(lp989
S'http_accept'
p990
asbag57
(g78
g59
NtRp991
(dp992
g62
(dp993
g89
g90
ssg71
g982
sg64
(lp994
S':'
asbag57
(g78
g59
NtRp995
(dp996
g62
(dp997
sg71
g982
sg64
(lp998
g57
(g58
g59
NtRp999
(dp1000
g62
(dp1001
g70
I4
ssg71
g995
sg64
(lp1002
S'text/html,application/xhtml+xml,application/xml;q=0.9,*/*;q=0.8'
p1003
asbasbasbag57
(g73
g59
NtRp1004
(dp1005
g62
(dp1006
sg71
g822
sg64
(lp1007
g57
(g78
g59
NtRp1008
(dp1009
g62
(dp1010
g82
g83
ssg71
g1004
sg64
(lp1011
S'http_accept_encoding'
p1012
asbag57
(g78
g59
NtRp1013
(dp1014
g62
(dp1015
g89
g90
ssg71
g1004
sg64
(lp1016
S':'
asbag57
(g78
g59
NtRp1017
(dp1018
g62
(dp1019
sg71
g1004
sg64
(lp1020
g57
(g58
g59
NtRp1021
(dp1022
g62
(dp1023
g70
I4
ssg71
g1017
sg64
(lp1024
S'gzip, deflate'
p1025
asbasbasbag57
(g73
g59
NtRp1026
(dp1027
g62
(dp1028
sg71
g822
sg64
(lp1029
g57
(g78
g59
NtRp1030
(dp1031
g62
(dp1032
g82
g83
ssg71
g1026
sg64
(lp1033
S'http_accept_language'
p1034
asbag57
(g78
g59
NtRp1035
(dp1036
g62
(dp1037
g89
g90
ssg71
g1026
sg64
(lp1038
S':'
asbag57
(g78
g59
NtRp1039
(dp1040
g62
(dp1041
sg71
g1026
sg64
(lp1042
g57
(g58
g59
NtRp1043
(dp1044
g62
(dp1045
g70
I4
ssg71
g1039
sg64
(lp1046
S'en-us,en;q=0.5'
p1047
asbasbasbag57
(g73
g59
NtRp1048
(dp1049
g62
(dp1050
sg71
g822
sg64
(lp1051
g57
(g78
g59
NtRp1052
(dp1053
g62
(dp1054
g82
g83
ssg71
g1048
sg64
(lp1055
S'http_cache_control'
p1056
asbag57
(g78
g59
NtRp1057
(dp1058
g62
(dp1059
g89
g90
ssg71
g1048
sg64
(lp1060
S':'
asbag57
(g78
g59
NtRp1061
(dp1062
g62
(dp1063
sg71
g1048
sg64
(lp1064
g57
(g58
g59
NtRp1065
(dp1066
g62
(dp1067
g70
I4
ssg71
g1061
sg64
(lp1068
S'max-age=0'
p1069
asbasbasbag57
(g73
g59
NtRp1070
(dp1071
g62
(dp1072
sg71
g822
sg64
(lp1073
g57
(g78
g59
NtRp1074
(dp1075
g62
(dp1076
g82
g83
ssg71
g1070
sg64
(lp1077
S'http_connection'
p1078
asbag57
(g78
g59
NtRp1079
(dp1080
g62
(dp1081
g89
g90
ssg71
g1070
sg64
(lp1082
S':'
asbag57
(g78
g59
NtRp1083
(dp1084
g62
(dp1085
sg71
g1070
sg64
(lp1086
g57
(g58
g59
NtRp1087
(dp1088
g62
(dp1089
g70
I4
ssg71
g1083
sg64
(lp1090
S'keep-alive'
p1091
asbasbasbag57
(g73
g59
NtRp1092
(dp1093
g62
(dp1094
sg71
g822
sg64
(lp1095
g57
(g78
g59
NtRp1096
(dp1097
g62
(dp1098
g82
g83
ssg71
g1092
sg64
(lp1099
S'http_cookie'
p1100
asbag57
(g78
g59
NtRp1101
(dp1102
g62
(dp1103
g89
g90
ssg71
g1092
sg64
(lp1104
S':'
asbag57
(g78
g59
NtRp1105
(dp1106
g62
(dp1107
sg71
g1092
sg64
(lp1108
g57
(g58
g59
NtRp1109
(dp1110
g62
(dp1111
g70
I4
ssg71
g1105
sg64
(lp1112
S'session_id_welcome=127.0.0.1-86f34efd-128f-48c3-9c2d-add41627dda0; session_id_admin=127.0.0.1-805b4340-6690-4f4c-8fd5-8d304283e7b1; session_id_mycrawler=127.0.0.1-1168ec91-5549-4bd8-a5d3-1c118d39abce'
p1113
asbasbasbag57
(g73
g59
NtRp1114
(dp1115
g62
(dp1116
sg71
g822
sg64
(lp1117
g57
(g78
g59
NtRp1118
(dp1119
g62
(dp1120
g82
g83
ssg71
g1114
sg64
(lp1121
S'http_host'
p1122
asbag57
(g78
g59
NtRp1123
(dp1124
g62
(dp1125
g89
g90
ssg71
g1114
sg64
(lp1126
S':'
asbag57
(g78
g59
NtRp1127
(dp1128
g62
(dp1129
sg71
g1114
sg64
(lp1130
g57
(g58
g59
NtRp1131
(dp1132
g62
(dp1133
g70
I4
ssg71
g1127
sg64
(lp1134
S'127.0.0.1:8000'
p1135
asbasbasbag57
(g73
g59
NtRp1136
(dp1137
g62
(dp1138
sg71
g822
sg64
(lp1139
g57
(g78
g59
NtRp1140
(dp1141
g62
(dp1142
g82
g83
ssg71
g1136
sg64
(lp1143
S'http_referer'
p1144
asbag57
(g78
g59
NtRp1145
(dp1146
g62
(dp1147
g89
g90
ssg71
g1136
sg64
(lp1148
S':'
asbag57
(g78
g59
NtRp1149
(dp1150
g62
(dp1151
sg71
g1136
sg64
(lp1152
g57
(g58
g59
NtRp1153
(dp1154
g62
(dp1155
g70
I4
ssg71
g1149
sg64
(lp1156
S'http://127.0.0.1:8000/mycrawler/default/upload'
p1157
asbasbasbag57
(g73
g59
NtRp1158
(dp1159
g62
(dp1160
sg71
g822
sg64
(lp1161
g57
(g78
g59
NtRp1162
(dp1163
g62
(dp1164
g82
g83
ssg71
g1158
sg64
(lp1165
S'http_user_agent'
p1166
asbag57
(g78
g59
NtRp1167
(dp1168
g62
(dp1169
g89
g90
ssg71
g1158
sg64
(lp1170
S':'
asbag57
(g78
g59
NtRp1171
(dp1172
g62
(dp1173
sg71
g1158
sg64
(lp1174
g57
(g58
g59
NtRp1175
(dp1176
g62
(dp1177
g70
I4
ssg71
g1171
sg64
(lp1178
S'Mozilla/5.0 (Windows NT 5.1; rv:13.0) Gecko/20100101 Firefox/13.0.1'
p1179
asbasbasbag57
(g73
g59
NtRp1180
(dp1181
g62
(dp1182
sg71
g822
sg64
(lp1183
g57
(g78
g59
NtRp1184
(dp1185
g62
(dp1186
g82
g83
ssg71
g1180
sg64
(lp1187
S'is_jython'
p1188
asbag57
(g78
g59
NtRp1189
(dp1190
g62
(dp1191
g89
g90
ssg71
g1180
sg64
(lp1192
S':'
asbag57
(g78
g59
NtRp1193
(dp1194
g62
(dp1195
sg71
g1180
sg64
(lp1196
g57
(g58
g59
NtRp1197
(dp1198
g62
(dp1199
g70
I4
ssg71
g1193
sg64
(lp1200
g100
asbasbasbag57
(g73
g59
NtRp1201
(dp1202
g62
(dp1203
sg71
g822
sg64
(lp1204
g57
(g78
g59
NtRp1205
(dp1206
g62
(dp1207
g82
g83
ssg71
g1201
sg64
(lp1208
S'is_pypy'
p1209
asbag57
(g78
g59
NtRp1210
(dp1211
g62
(dp1212
g89
g90
ssg71
g1201
sg64
(lp1213
S':'
asbag57
(g78
g59
NtRp1214
(dp1215
g62
(dp1216
sg71
g1201
sg64
(lp1217
g57
(g58
g59
NtRp1218
(dp1219
g62
(dp1220
g70
I4
ssg71
g1214
sg64
(lp1221
g100
asbasbasbag57
(g73
g59
NtRp1222
(dp1223
g62
(dp1224
sg71
g822
sg64
(lp1225
g57
(g78
g59
NtRp1226
(dp1227
g62
(dp1228
g82
g83
ssg71
g1222
sg64
(lp1229
S'path_info'
p1230
asbag57
(g78
g59
NtRp1231
(dp1232
g62
(dp1233
g89
g90
ssg71
g1222
sg64
(lp1234
S':'
asbag57
(g78
g59
NtRp1235
(dp1236
g62
(dp1237
sg71
g1222
sg64
(lp1238
g57
(g58
g59
NtRp1239
(dp1240
g62
(dp1241
g70
I4
ssg71
g1235
sg64
(lp1242
S'/mycrawler/default/temp'
p1243
asbasbasbag57
(g73
g59
NtRp1244
(dp1245
g62
(dp1246
sg71
g822
sg64
(lp1247
g57
(g78
g59
NtRp1248
(dp1249
g62
(dp1250
g82
g83
ssg71
g1244
sg64
(lp1251
S'query_string'
p1252
asbag57
(g78
g59
NtRp1253
(dp1254
g62
(dp1255
g89
g90
ssg71
g1244
sg64
(lp1256
S':'
asbag57
(g78
g59
NtRp1257
(dp1258
g62
(dp1259
sg71
g1244
sg64
(lp1260
g57
(g58
g59
NtRp1261
(dp1262
g62
(dp1263
g70
I4
ssg71
g1257
sg64
(lp1264
S''
asbasbasbag57
(g73
g59
NtRp1265
(dp1266
g62
(dp1267
sg71
g822
sg64
(lp1268
g57
(g78
g59
NtRp1269
(dp1270
g62
(dp1271
g82
g83
ssg71
g1265
sg64
(lp1272
S'remote_addr'
p1273
asbag57
(g78
g59
NtRp1274
(dp1275
g62
(dp1276
g89
g90
ssg71
g1265
sg64
(lp1277
S':'
asbag57
(g78
g59
NtRp1278
(dp1279
g62
(dp1280
sg71
g1265
sg64
(lp1281
g57
(g58
g59
NtRp1282
(dp1283
g62
(dp1284
g70
I4
ssg71
g1278
sg64
(lp1285
g190
asbasbasbag57
(g73
g59
NtRp1286
(dp1287
g62
(dp1288
sg71
g822
sg64
(lp1289
g57
(g78
g59
NtRp1290
(dp1291
g62
(dp1292
g82
g83
ssg71
g1286
sg64
(lp1293
S'remote_port'
p1294
asbag57
(g78
g59
NtRp1295
(dp1296
g62
(dp1297
g89
g90
ssg71
g1286
sg64
(lp1298
S':'
asbag57
(g78
g59
NtRp1299
(dp1300
g62
(dp1301
sg71
g1286
sg64
(lp1302
g57
(g58
g59
NtRp1303
(dp1304
g62
(dp1305
g70
I4
ssg71
g1299
sg64
(lp1306
S'3969'
p1307
asbasbasbag57
(g73
g59
NtRp1308
(dp1309
g62
(dp1310
sg71
g822
sg64
(lp1311
g57
(g78
g59
NtRp1312
(dp1313
g62
(dp1314
g82
g83
ssg71
g1308
sg64
(lp1315
S'request_method'
p1316
asbag57
(g78
g59
NtRp1317
(dp1318
g62
(dp1319
g89
g90
ssg71
g1308
sg64
(lp1320
S':'
asbag57
(g78
g59
NtRp1321
(dp1322
g62
(dp1323
sg71
g1308
sg64
(lp1324
g57
(g58
g59
NtRp1325
(dp1326
g62
(dp1327
g70
I4
ssg71
g1321
sg64
(lp1328
S'GET'
p1329
asbasbasbag57
(g73
g59
NtRp1330
(dp1331
g62
(dp1332
sg71
g822
sg64
(lp1333
g57
(g78
g59
NtRp1334
(dp1335
g62
(dp1336
g82
g83
ssg71
g1330
sg64
(lp1337
S'script_name'
p1338
asbag57
(g78
g59
NtRp1339
(dp1340
g62
(dp1341
g89
g90
ssg71
g1330
sg64
(lp1342
S':'
asbag57
(g78
g59
NtRp1343
(dp1344
g62
(dp1345
sg71
g1330
sg64
(lp1346
g57
(g58
g59
NtRp1347
(dp1348
g62
(dp1349
g70
I4
ssg71
g1343
sg64
(lp1350
S''
asbasbasbag57
(g73
g59
NtRp1351
(dp1352
g62
(dp1353
sg71
g822
sg64
(lp1354
g57
(g78
g59
NtRp1355
(dp1356
g62
(dp1357
g82
g83
ssg71
g1351
sg64
(lp1358
S'server_name'
p1359
asbag57
(g78
g59
NtRp1360
(dp1361
g62
(dp1362
g89
g90
ssg71
g1351
sg64
(lp1363
S':'
asbag57
(g78
g59
NtRp1364
(dp1365
g62
(dp1366
sg71
g1351
sg64
(lp1367
g57
(g58
g59
NtRp1368
(dp1369
g62
(dp1370
g70
I4
ssg71
g1364
sg64
(lp1371
S'mniagrover'
p1372
asbasbasbag57
(g73
g59
NtRp1373
(dp1374
g62
(dp1375
sg71
g822
sg64
(lp1376
g57
(g78
g59
NtRp1377
(dp1378
g62
(dp1379
g82
g83
ssg71
g1373
sg64
(lp1380
S'server_port'
p1381
asbag57
(g78
g59
NtRp1382
(dp1383
g62
(dp1384
g89
g90
ssg71
g1373
sg64
(lp1385
S':'
asbag57
(g78
g59
NtRp1386
(dp1387
g62
(dp1388
sg71
g1373
sg64
(lp1389
g57
(g58
g59
NtRp1390
(dp1391
g62
(dp1392
g70
I4
ssg71
g1386
sg64
(lp1393
S'8000'
p1394
asbasbasbag57
(g73
g59
NtRp1395
(dp1396
g62
(dp1397
sg71
g822
sg64
(lp1398
g57
(g78
g59
NtRp1399
(dp1400
g62
(dp1401
g82
g83
ssg71
g1395
sg64
(lp1402
S'server_protocol'
p1403
asbag57
(g78
g59
NtRp1404
(dp1405
g62
(dp1406
g89
g90
ssg71
g1395
sg64
(lp1407
S':'
asbag57
(g78
g59
NtRp1408
(dp1409
g62
(dp1410
sg71
g1395
sg64
(lp1411
g57
(g58
g59
NtRp1412
(dp1413
g62
(dp1414
g70
I4
ssg71
g1408
sg64
(lp1415
S'HTTP/1.1'
p1416
asbasbasbag57
(g73
g59
NtRp1417
(dp1418
g62
(dp1419
sg71
g822
sg64
(lp1420
g57
(g78
g59
NtRp1421
(dp1422
g62
(dp1423
g82
g83
ssg71
g1417
sg64
(lp1424
S'server_software'
p1425
asbag57
(g78
g59
NtRp1426
(dp1427
g62
(dp1428
g89
g90
ssg71
g1417
sg64
(lp1429
S':'
asbag57
(g78
g59
NtRp1430
(dp1431
g62
(dp1432
sg71
g1417
sg64
(lp1433
g57
(g58
g59
NtRp1434
(dp1435
g62
(dp1436
g70
I4
ssg71
g1430
sg64
(lp1437
S'Rocket 1.2.4'
p1438
asbasbasbag57
(g73
g59
NtRp1439
(dp1440
g62
(dp1441
sg71
g822
sg64
(lp1442
g57
(g78
g59
NtRp1443
(dp1444
g62
(dp1445
g82
g83
ssg71
g1439
sg64
(lp1446
S'web2py_crontype'
p1447
asbag57
(g78
g59
NtRp1448
(dp1449
g62
(dp1450
g89
g90
ssg71
g1439
sg64
(lp1451
S':'
asbag57
(g78
g59
NtRp1452
(dp1453
g62
(dp1454
sg71
g1439
sg64
(lp1455
g57
(g58
g59
NtRp1456
(dp1457
g62
(dp1458
g70
I4
ssg71
g1452
sg64
(lp1459
S'hard'
p1460
asbasbasbag57
(g73
g59
NtRp1461
(dp1462
g62
(dp1463
sg71
g822
sg64
(lp1464
g57
(g78
g59
NtRp1465
(dp1466
g62
(dp1467
g82
g83
ssg71
g1461
sg64
(lp1468
S'web2py_path'
p1469
asbag57
(g78
g59
NtRp1470
(dp1471
g62
(dp1472
g89
g90
ssg71
g1461
sg64
(lp1473
S':'
asbag57
(g78
g59
NtRp1474
(dp1475
g62
(dp1476
sg71
g1461
sg64
(lp1477
g57
(g58
g59
NtRp1478
(dp1479
g62
(dp1480
g70
I4
ssg71
g1474
sg64
(lp1481
g869
asbasbasbag57
(g73
g59
NtRp1482
(dp1483
g62
(dp1484
sg71
g822
sg64
(lp1485
g57
(g78
g59
NtRp1486
(dp1487
g62
(dp1488
g82
g83
ssg71
g1482
sg64
(lp1489
S'web2py_version'
p1490
asbag57
(g78
g59
NtRp1491
(dp1492
g62
(dp1493
g89
g90
ssg71
g1482
sg64
(lp1494
S':'
asbag57
(g78
g59
NtRp1495
(dp1496
g62
(dp1497
sg71
g1482
sg64
(lp1498
g57
(g58
g59
NtRp1499
(dp1500
g62
(dp1501
g70
I4
ssg71
g1495
sg64
(lp1502
g57
(g66
g59
NtRp1503
(dp1504
g62
(dp1505
g70
I3
ssg71
Nsg64
(lp1506
g57
(g73
g59
NtRp1507
(dp1508
g62
(dp1509
sg71
g1503
sg64
(lp1510
g57
(g78
g59
NtRp1511
(dp1512
g62
(dp1513
sg71
g1507
sg64
(lp1514
g57
(g58
g59
NtRp1515
(dp1516
g62
(dp1517
g70
I3
ssg71
g1511
sg64
(lp1518
S'1'
asbasbasbag57
(g73
g59
NtRp1519
(dp1520
g62
(dp1521
sg71
g1503
sg64
(lp1522
g57
(g78
g59
NtRp1523
(dp1524
g62
(dp1525
sg71
g1519
sg64
(lp1526
g57
(g58
g59
NtRp1527
(dp1528
g62
(dp1529
g70
I3
ssg71
g1523
sg64
(lp1530
S'99'
p1531
asbasbasbag57
(g73
g59
NtRp1532
(dp1533
g62
(dp1534
sg71
g1503
sg64
(lp1535
g57
(g78
g59
NtRp1536
(dp1537
g62
(dp1538
sg71
g1532
sg64
(lp1539
g57
(g58
g59
NtRp1540
(dp1541
g62
(dp1542
g70
I3
ssg71
g1536
sg64
(lp1543
S'7'
asbasbasbag57
(g73
g59
NtRp1544
(dp1545
g62
(dp1546
sg71
g1503
sg64
(lp1547
g57
(g78
g59
NtRp1548
(dp1549
g62
(dp1550
sg71
g1544
sg64
(lp1551
g57
(g58
g59
NtRp1552
(dp1553
g62
(dp1554
g70
I3
ssg71
g1548
sg64
(lp1555
S'datetime.datetime(2012, 3, 4, 22, 12, 8)'
p1556
asbasbasbag57
(g73
g59
NtRp1557
(dp1558
g62
(dp1559
sg71
g1503
sg64
(lp1560
g57
(g78
g59
NtRp1561
(dp1562
g62
(dp1563
sg71
g1557
sg64
(lp1564
g57
(g58
g59
NtRp1565
(dp1566
g62
(dp1567
g70
I3
ssg71
g1561
sg64
(lp1568
S'stable'
p1569
asbasbasbasbasbasbasbag57
(g73
g59
NtRp1570
(dp1571
g62
(dp1572
sg71
g822
sg64
(lp1573
g57
(g78
g59
NtRp1574
(dp1575
g62
(dp1576
g82
g83
ssg71
g1570
sg64
(lp1577
S'wsgi_errors'
p1578
asbag57
(g78
g59
NtRp1579
(dp1580
g62
(dp1581
g89
g90
ssg71
g1570
sg64
(lp1582
S':'
asbag57
(g78
g59
NtRp1583
(dp1584
g62
(dp1585
sg71
g1570
sg64
(lp1586
g57
(g58
g59
NtRp1587
(dp1588
g62
(dp1589
g70
I4
ssg71
g1583
sg64
(lp1590
S"<open file '<stderr>', mode 'w' at 0x00A550D0>"
p1591
asbasbasbag57
(g73
g59
NtRp1592
(dp1593
g62
(dp1594
sg71
g822
sg64
(lp1595
g57
(g78
g59
NtRp1596
(dp1597
g62
(dp1598
g82
g83
ssg71
g1592
sg64
(lp1599
S'wsgi_file_wrapper'
p1600
asbag57
(g78
g59
NtRp1601
(dp1602
g62
(dp1603
g89
g90
ssg71
g1592
sg64
(lp1604
S':'
asbag57
(g78
g59
NtRp1605
(dp1606
g62
(dp1607
sg71
g1592
sg64
(lp1608
g57
(g58
g59
NtRp1609
(dp1610
g62
(dp1611
g70
I4
ssg71
g1605
sg64
(lp1612
S'<class wsgiref.util.FileWrapper at 0x015E8AB0>'
p1613
asbasbasbag57
(g73
g59
NtRp1614
(dp1615
g62
(dp1616
sg71
g822
sg64
(lp1617
g57
(g78
g59
NtRp1618
(dp1619
g62
(dp1620
g82
g83
ssg71
g1614
sg64
(lp1621
S'wsgi_input'
p1622
asbag57
(g78
g59
NtRp1623
(dp1624
g62
(dp1625
g89
g90
ssg71
g1614
sg64
(lp1626
S':'
asbag57
(g78
g59
NtRp1627
(dp1628
g62
(dp1629
sg71
g1614
sg64
(lp1630
g57
(g58
g59
NtRp1631
(dp1632
g62
(dp1633
g70
I4
ssg71
g1627
sg64
(lp1634
S'<socket._fileobject object at 0x01B212B0>'
p1635
asbasbasbag57
(g73
g59
NtRp1636
(dp1637
g62
(dp1638
sg71
g822
sg64
(lp1639
g57
(g78
g59
NtRp1640
(dp1641
g62
(dp1642
g82
g83
ssg71
g1636
sg64
(lp1643
S'wsgi_multiprocess'
p1644
asbag57
(g78
g59
NtRp1645
(dp1646
g62
(dp1647
g89
g90
ssg71
g1636
sg64
(lp1648
S':'
asbag57
(g78
g59
NtRp1649
(dp1650
g62
(dp1651
sg71
g1636
sg64
(lp1652
g57
(g58
g59
NtRp1653
(dp1654
g62
(dp1655
g70
I4
ssg71
g1649
sg64
(lp1656
g100
asbasbasbag57
(g73
g59
NtRp1657
(dp1658
g62
(dp1659
sg71
g822
sg64
(lp1660
g57
(g78
g59
NtRp1661
(dp1662
g62
(dp1663
g82
g83
ssg71
g1657
sg64
(lp1664
S'wsgi_multithread'
p1665
asbag57
(g78
g59
NtRp1666
(dp1667
g62
(dp1668
g89
g90
ssg71
g1657
sg64
(lp1669
S':'
asbag57
(g78
g59
NtRp1670
(dp1671
g62
(dp1672
sg71
g1657
sg64
(lp1673
g57
(g58
g59
NtRp1674
(dp1675
g62
(dp1676
g70
I4
ssg71
g1670
sg64
(lp1677
S'True'
p1678
asbasbasbag57
(g73
g59
NtRp1679
(dp1680
g62
(dp1681
sg71
g822
sg64
(lp1682
g57
(g78
g59
NtRp1683
(dp1684
g62
(dp1685
g82
g83
ssg71
g1679
sg64
(lp1686
S'wsgi_run_once'
p1687
asbag57
(g78
g59
NtRp1688
(dp1689
g62
(dp1690
g89
g90
ssg71
g1679
sg64
(lp1691
S':'
asbag57
(g78
g59
NtRp1692
(dp1693
g62
(dp1694
sg71
g1679
sg64
(lp1695
g57
(g58
g59
NtRp1696
(dp1697
g62
(dp1698
g70
I4
ssg71
g1692
sg64
(lp1699
g100
asbasbasbag57
(g73
g59
NtRp1700
(dp1701
g62
(dp1702
sg71
g822
sg64
(lp1703
g57
(g78
g59
NtRp1704
(dp1705
g62
(dp1706
g82
g83
ssg71
g1700
sg64
(lp1707
S'wsgi_url_scheme'
p1708
asbag57
(g78
g59
NtRp1709
(dp1710
g62
(dp1711
g89
g90
ssg71
g1700
sg64
(lp1712
S':'
asbag57
(g78
g59
NtRp1713
(dp1714
g62
(dp1715
sg71
g1700
sg64
(lp1716
g57
(g58
g59
NtRp1717
(dp1718
g62
(dp1719
g70
I4
ssg71
g1713
sg64
(lp1720
S'http'
p1721
asbasbasbag57
(g73
g59
NtRp1722
(dp1723
g62
(dp1724
sg71
g822
sg64
(lp1725
g57
(g78
g59
NtRp1726
(dp1727
g62
(dp1728
g82
g83
ssg71
g1722
sg64
(lp1729
S'wsgi_version'
p1730
asbag57
(g78
g59
NtRp1731
(dp1732
g62
(dp1733
g89
g90
ssg71
g1722
sg64
(lp1734
S':'
asbag57
(g78
g59
NtRp1735
(dp1736
g62
(dp1737
sg71
g1722
sg64
(lp1738
g57
(g58
g59
NtRp1739
(dp1740
g62
(dp1741
g70
I4
ssg71
g1735
sg64
(lp1742
g57
(g66
g59
NtRp1743
(dp1744
g62
(dp1745
g70
I3
ssg71
Nsg64
(lp1746
g57
(g73
g59
NtRp1747
(dp1748
g62
(dp1749
sg71
g1743
sg64
(lp1750
g57
(g78
g59
NtRp1751
(dp1752
g62
(dp1753
sg71
g1747
sg64
(lp1754
g57
(g58
g59
NtRp1755
(dp1756
g62
(dp1757
g70
I3
ssg71
g1751
sg64
(lp1758
S'1'
asbasbasbag57
(g73
g59
NtRp1759
(dp1760
g62
(dp1761
sg71
g1743
sg64
(lp1762
g57
(g78
g59
NtRp1763
(dp1764
g62
(dp1765
sg71
g1759
sg64
(lp1766
g57
(g58
g59
NtRp1767
(dp1768
g62
(dp1769
g70
I3
ssg71
g1763
sg64
(lp1770
S'0'
asbasbasbasbasbasbasbasbasbasbasbag57
(g73
g59
NtRp1771
(dp1772
g62
(dp1773
sg71
g67
sg64
(lp1774
g57
(g78
g59
NtRp1775
(dp1776
g62
(dp1777
g82
g83
ssg71
g1771
sg64
(lp1778
S'extension'
p1779
asbag57
(g78
g59
NtRp1780
(dp1781
g62
(dp1782
g89
g90
ssg71
g1771
sg64
(lp1783
S':'
asbag57
(g78
g59
NtRp1784
(dp1785
g62
(dp1786
sg71
g1771
sg64
(lp1787
g57
(g58
g59
NtRp1788
(dp1789
g62
(dp1790
g70
I5
ssg71
g1784
sg64
(lp1791
S'html'
p1792
asbasbasbag57
(g73
g59
NtRp1793
(dp1794
g62
(dp1795
sg71
g67
sg64
(lp1796
g57
(g78
g59
NtRp1797
(dp1798
g62
(dp1799
g82
g83
ssg71
g1793
sg64
(lp1800
S'folder'
p1801
asbag57
(g78
g59
NtRp1802
(dp1803
g62
(dp1804
g89
g90
ssg71
g1793
sg64
(lp1805
S':'
asbag57
(g78
g59
NtRp1806
(dp1807
g62
(dp1808
sg71
g1793
sg64
(lp1809
g57
(g58
g59
NtRp1810
(dp1811
g62
(dp1812
g70
I5
ssg71
g1806
sg64
(lp1813
S'C:\\Documents and Settings\\agrover\\Desktop\\previous crawler\\web2py\\applications\\mycrawler\\'
p1814
asbasbasbag57
(g73
g59
NtRp1815
(dp1816
g62
(dp1817
sg71
g67
sg64
(lp1818
g57
(g78
g59
NtRp1819
(dp1820
g62
(dp1821
g82
g83
ssg71
g1815
sg64
(lp1822
S'function'
p1823
asbag57
(g78
g59
NtRp1824
(dp1825
g62
(dp1826
g89
g90
ssg71
g1815
sg64
(lp1827
S':'
asbag57
(g78
g59
NtRp1828
(dp1829
g62
(dp1830
sg71
g1815
sg64
(lp1831
g57
(g58
g59
NtRp1832
(dp1833
g62
(dp1834
g70
I5
ssg71
g1828
sg64
(lp1835
S'temp'
p1836
asbasbasbag57
(g73
g59
NtRp1837
(dp1838
g62
(dp1839
sg71
g67
sg64
(lp1840
g57
(g78
g59
NtRp1841
(dp1842
g62
(dp1843
g82
g83
ssg71
g1837
sg64
(lp1844
S'get_vars'
p1845
asbag57
(g78
g59
NtRp1846
(dp1847
g62
(dp1848
g89
g90
ssg71
g1837
sg64
(lp1849
S':'
asbag57
(g78
g59
NtRp1850
(dp1851
g62
(dp1852
sg71
g1837
sg64
(lp1853
g57
(g58
g59
NtRp1854
(dp1855
g62
(dp1856
g70
I5
ssg71
g1850
sg64
(lp1857
g57
(g66
g59
NtRp1858
(dp1859
g62
(dp1860
g70
I4
ssg71
Nsg64
(lp1861
sbasbasbasbag57
(g73
g59
NtRp1862
(dp1863
g62
(dp1864
sg71
g67
sg64
(lp1865
g57
(g78
g59
NtRp1866
(dp1867
g62
(dp1868
g82
g83
ssg71
g1862
sg64
(lp1869
S'global_settings'
p1870
asbag57
(g78
g59
NtRp1871
(dp1872
g62
(dp1873
g89
g90
ssg71
g1862
sg64
(lp1874
S':'
asbag57
(g78
g59
NtRp1875
(dp1876
g62
(dp1877
sg71
g1862
sg64
(lp1878
g57
(g58
g59
NtRp1879
(dp1880
g62
(dp1881
g70
I5
ssg71
g1875
sg64
(lp1882
g57
(g66
g59
NtRp1883
(dp1884
g62
(dp1885
g70
I4
ssg71
Nsg64
(lp1886
g57
(g73
g59
NtRp1887
(dp1888
g62
(dp1889
sg71
g1883
sg64
(lp1890
g57
(g78
g59
NtRp1891
(dp1892
g62
(dp1893
g82
g83
ssg71
g1887
sg64
(lp1894
g834
asbag57
(g78
g59
NtRp1895
(dp1896
g62
(dp1897
g89
g90
ssg71
g1887
sg64
(lp1898
S':'
asbag57
(g78
g59
NtRp1899
(dp1900
g62
(dp1901
sg71
g1887
sg64
(lp1902
g57
(g58
g59
NtRp1903
(dp1904
g62
(dp1905
g70
I4
ssg71
g1899
sg64
(lp1906
S"set(['C:\\\\Documents and Settings\\\\agrover\\\\Desktop\\\\previous crawler\\\\web2py\\\\applications\\\\admin\\\\', 'C:\\\\Documents and Settings\\\\agrover\\\\Desktop\\\\previous crawler\\\\web2py\\\\applications\\\\mycrawler\\\\', 'C:\\\\Documents and Settings\\\\agrover\\\\Desktop\\\\previous crawler\\\\web2py\\\\applications\\\\welcome\\\\'])"
p1907
asbasbasbag57
(g73
g59
NtRp1908
(dp1909
g62
(dp1910
sg71
g1883
sg64
(lp1911
g57
(g78
g59
NtRp1912
(dp1913
g62
(dp1914
g82
g83
ssg71
g1908
sg64
(lp1915
g856
asbag57
(g78
g59
NtRp1916
(dp1917
g62
(dp1918
g89
g90
ssg71
g1908
sg64
(lp1919
S':'
asbag57
(g78
g59
NtRp1920
(dp1921
g62
(dp1922
sg71
g1908
sg64
(lp1923
g57
(g58
g59
NtRp1924
(dp1925
g62
(dp1926
g70
I4
ssg71
g1920
sg64
(lp1927
g869
asbasbasbag57
(g73
g59
NtRp1928
(dp1929
g62
(dp1930
sg71
g1883
sg64
(lp1931
g57
(g78
g59
NtRp1932
(dp1933
g62
(dp1934
g82
g83
ssg71
g1928
sg64
(lp1935
g878
asbag57
(g78
g59
NtRp1936
(dp1937
g62
(dp1938
g89
g90
ssg71
g1928
sg64
(lp1939
S':'
asbag57
(g78
g59
NtRp1940
(dp1941
g62
(dp1942
sg71
g1928
sg64
(lp1943
g57
(g58
g59
NtRp1944
(dp1945
g62
(dp1946
g70
I4
ssg71
g1940
sg64
(lp1947
g57
(g66
g59
NtRp1948
(dp1949
g62
(dp1950
g70
I3
ssg71
Nsg64
(lp1951
sbasbasbasbag57
(g73
g59
NtRp1952
(dp1953
g62
(dp1954
sg71
g1883
sg64
(lp1955
g57
(g78
g59
NtRp1956
(dp1957
g62
(dp1958
g82
g83
ssg71
g1952
sg64
(lp1959
g903
asbag57
(g78
g59
NtRp1960
(dp1961
g62
(dp1962
g89
g90
ssg71
g1952
sg64
(lp1963
S':'
asbag57
(g78
g59
NtRp1964
(dp1965
g62
(dp1966
sg71
g1952
sg64
(lp1967
g57
(g58
g59
NtRp1968
(dp1969
g62
(dp1970
g70
I4
ssg71
g1964
sg64
(lp1971
S"<Values at 0x16d63f0: {'verbose': False, 'ip': '127.0.0.1', 'shutdown_timeout': 5, 'taskbar': False, 'nocron': False, 'pid_filename': 'httpserver.pid', 'maxthreads': None, 'softcron': False, 'server_name': 'mniagrover', 'bpython': False, 'nogui': False, 'port': 8000, 'extcron': False, 'debuglevel': 30, 'test': None, 'folder': 'C:\\\\Documents and Settings\\\\agrover\\\\Desktop\\\\previous crawler\\\\web2py', 'config': '', 'import_models': False, 'winservice': '', 'shell': None, 'run': '', 'log_filename': 'httpserver.log', 'args': [''], 'socket_timeout': 5, 'ssl_ca_certificate': None, 'scheduler': None, 'profiler_filename': None, 'ssl_private_key': '', 'password': '<ask>', 'request_queue_size': 5, 'ssl_certificate': '', 'cronjob': False, 'numthreads': None, 'quiet': False, 'interfaces': None, 'minthreads': None, 'timeout': 10, 'plain': False, 'nobanner': False}>"
p1972
asbasbasbag57
(g73
g59
NtRp1973
(dp1974
g62
(dp1975
sg71
g1883
sg64
(lp1976
g57
(g78
g59
NtRp1977
(dp1978
g62
(dp1979
g82
g83
ssg71
g1973
sg64
(lp1980
g925
asbag57
(g78
g59
NtRp1981
(dp1982
g62
(dp1983
g89
g90
ssg71
g1973
sg64
(lp1984
S':'
asbag57
(g78
g59
NtRp1985
(dp1986
g62
(dp1987
sg71
g1973
sg64
(lp1988
g57
(g58
g59
NtRp1989
(dp1990
g62
(dp1991
g70
I4
ssg71
g1985
sg64
(lp1992
S'set([])'
p1993
asbasbasbag57
(g73
g59
NtRp1994
(dp1995
g62
(dp1996
sg71
g1883
sg64
(lp1997
g57
(g78
g59
NtRp1998
(dp1999
g62
(dp2000
g82
g83
ssg71
g1994
sg64
(lp2001
g947
asbag57
(g78
g59
NtRp2002
(dp2003
g62
(dp2004
g89
g90
ssg71
g1994
sg64
(lp2005
S':'
asbag57
(g78
g59
NtRp2006
(dp2007
g62
(dp2008
sg71
g1994
sg64
(lp2009
g57
(g58
g59
NtRp2010
(dp2011
g62
(dp2012
g70
I4
ssg71
g2006
sg64
(lp2013
g100
asbasbasbag57
(g73
g59
NtRp2014
(dp2015
g62
(dp2016
sg71
g1883
sg64
(lp2017
g57
(g78
g59
NtRp2018
(dp2019
g62
(dp2020
g82
g83
ssg71
g2014
sg64
(lp2021
g968
asbag57
(g78
g59
NtRp2022
(dp2023
g62
(dp2024
g89
g90
ssg71
g2014
sg64
(lp2025
S':'
asbag57
(g78
g59
NtRp2026
(dp2027
g62
(dp2028
sg71
g2014
sg64
(lp2029
g57
(g58
g59
NtRp2030
(dp2031
g62
(dp2032
g70
I4
ssg71
g2026
sg64
(lp2033
g981
asbasbasbag57
(g73
g59
NtRp2034
(dp2035
g62
(dp2036
sg71
g1883
sg64
(lp2037
g57
(g78
g59
NtRp2038
(dp2039
g62
(dp2040
g82
g83
ssg71
g2034
sg64
(lp2041
g1188
asbag57
(g78
g59
NtRp2042
(dp2043
g62
(dp2044
g89
g90
ssg71
g2034
sg64
(lp2045
S':'
asbag57
(g78
g59
NtRp2046
(dp2047
g62
(dp2048
sg71
g2034
sg64
(lp2049
g57
(g58
g59
NtRp2050
(dp2051
g62
(dp2052
g70
I4
ssg71
g2046
sg64
(lp2053
g100
asbasbasbag57
(g73
g59
NtRp2054
(dp2055
g62
(dp2056
sg71
g1883
sg64
(lp2057
g57
(g78
g59
NtRp2058
(dp2059
g62
(dp2060
g82
g83
ssg71
g2054
sg64
(lp2061
g1209
asbag57
(g78
g59
NtRp2062
(dp2063
g62
(dp2064
g89
g90
ssg71
g2054
sg64
(lp2065
S':'
asbag57
(g78
g59
NtRp2066
(dp2067
g62
(dp2068
sg71
g2054
sg64
(lp2069
g57
(g58
g59
NtRp2070
(dp2071
g62
(dp2072
g70
I4
ssg71
g2066
sg64
(lp2073
g100
asbasbasbag57
(g73
g59
NtRp2074
(dp2075
g62
(dp2076
sg71
g1883
sg64
(lp2077
g57
(g78
g59
NtRp2078
(dp2079
g62
(dp2080
g82
g83
ssg71
g2074
sg64
(lp2081
g1447
asbag57
(g78
g59
NtRp2082
(dp2083
g62
(dp2084
g89
g90
ssg71
g2074
sg64
(lp2085
S':'
asbag57
(g78
g59
NtRp2086
(dp2087
g62
(dp2088
sg71
g2074
sg64
(lp2089
g57
(g58
g59
NtRp2090
(dp2091
g62
(dp2092
g70
I4
ssg71
g2086
sg64
(lp2093
g1460
asbasbasbag57
(g73
g59
NtRp2094
(dp2095
g62
(dp2096
sg71
g1883
sg64
(lp2097
g57
(g78
g59
NtRp2098
(dp2099
g62
(dp2100
g82
g83
ssg71
g2094
sg64
(lp2101
g1490
asbag57
(g78
g59
NtRp2102
(dp2103
g62
(dp2104
g89
g90
ssg71
g2094
sg64
(lp2105
S':'
asbag57
(g78
g59
NtRp2106
(dp2107
g62
(dp2108
sg71
g2094
sg64
(lp2109
g57
(g58
g59
NtRp2110
(dp2111
g62
(dp2112
g70
I4
ssg71
g2106
sg64
(lp2113
g57
(g66
g59
NtRp2114
(dp2115
g62
(dp2116
g70
I3
ssg71
Nsg64
(lp2117
g57
(g73
g59
NtRp2118
(dp2119
g62
(dp2120
sg71
g2114
sg64
(lp2121
g57
(g78
g59
NtRp2122
(dp2123
g62
(dp2124
sg71
g2118
sg64
(lp2125
g57
(g58
g59
NtRp2126
(dp2127
g62
(dp2128
g70
I3
ssg71
g2122
sg64
(lp2129
S'1'
asbasbasbag57
(g73
g59
NtRp2130
(dp2131
g62
(dp2132
sg71
g2114
sg64
(lp2133
g57
(g78
g59
NtRp2134
(dp2135
g62
(dp2136
sg71
g2130
sg64
(lp2137
g57
(g58
g59
NtRp2138
(dp2139
g62
(dp2140
g70
I3
ssg71
g2134
sg64
(lp2141
S'99'
p2142
asbasbasbag57
(g73
g59
NtRp2143
(dp2144
g62
(dp2145
sg71
g2114
sg64
(lp2146
g57
(g78
g59
NtRp2147
(dp2148
g62
(dp2149
sg71
g2143
sg64
(lp2150
g57
(g58
g59
NtRp2151
(dp2152
g62
(dp2153
g70
I3
ssg71
g2147
sg64
(lp2154
S'7'
asbasbasbag57
(g73
g59
NtRp2155
(dp2156
g62
(dp2157
sg71
g2114
sg64
(lp2158
g57
(g78
g59
NtRp2159
(dp2160
g62
(dp2161
sg71
g2155
sg64
(lp2162
g57
(g58
g59
NtRp2163
(dp2164
g62
(dp2165
g70
I3
ssg71
g2159
sg64
(lp2166
S'datetime.datetime(2012, 3, 4, 22, 12, 8)'
p2167
asbasbasbag57
(g73
g59
NtRp2168
(dp2169
g62
(dp2170
sg71
g2114
sg64
(lp2171
g57
(g78
g59
NtRp2172
(dp2173
g62
(dp2174
sg71
g2168
sg64
(lp2175
g57
(g58
g59
NtRp2176
(dp2177
g62
(dp2178
g70
I3
ssg71
g2172
sg64
(lp2179
g1569
asbasbasbasbasbasbasbasbasbasbasbag57
(g73
g59
NtRp2180
(dp2181
g62
(dp2182
sg71
g67
sg64
(lp2183
g57
(g78
g59
NtRp2184
(dp2185
g62
(dp2186
g82
g83
ssg71
g2180
sg64
(lp2187
S'is_https'
p2188
asbag57
(g78
g59
NtRp2189
(dp2190
g62
(dp2191
g89
g90
ssg71
g2180
sg64
(lp2192
S':'
asbag57
(g78
g59
NtRp2193
(dp2194
g62
(dp2195
sg71
g2180
sg64
(lp2196
g57
(g58
g59
NtRp2197
(dp2198
g62
(dp2199
g70
I5
ssg71
g2193
sg64
(lp2200
g100
asbasbasbag57
(g73
g59
NtRp2201
(dp2202
g62
(dp2203
sg71
g67
sg64
(lp2204
g57
(g78
g59
NtRp2205
(dp2206
g62
(dp2207
g82
g83
ssg71
g2201
sg64
(lp2208
S'is_local'
p2209
asbag57
(g78
g59
NtRp2210
(dp2211
g62
(dp2212
g89
g90
ssg71
g2201
sg64
(lp2213
S':'
asbag57
(g78
g59
NtRp2214
(dp2215
g62
(dp2216
sg71
g2201
sg64
(lp2217
g57
(g58
g59
NtRp2218
(dp2219
g62
(dp2220
g70
I5
ssg71
g2214
sg64
(lp2221
g1678
asbasbasbag57
(g73
g59
NtRp2222
(dp2223
g62
(dp2224
sg71
g67
sg64
(lp2225
g57
(g78
g59
NtRp2226
(dp2227
g62
(dp2228
g82
g83
ssg71
g2222
sg64
(lp2229
S'is_restful'
p2230
asbag57
(g78
g59
NtRp2231
(dp2232
g62
(dp2233
g89
g90
ssg71
g2222
sg64
(lp2234
S':'
asbag57
(g78
g59
NtRp2235
(dp2236
g62
(dp2237
sg71
g2222
sg64
(lp2238
g57
(g58
g59
NtRp2239
(dp2240
g62
(dp2241
g70
I5
ssg71
g2235
sg64
(lp2242
g100
asbasbasbag57
(g73
g59
NtRp2243
(dp2244
g62
(dp2245
sg71
g67
sg64
(lp2246
g57
(g78
g59
NtRp2247
(dp2248
g62
(dp2249
g82
g83
ssg71
g2243
sg64
(lp2250
S'now'
p2251
asbag57
(g78
g59
NtRp2252
(dp2253
g62
(dp2254
g89
g90
ssg71
g2243
sg64
(lp2255
S':'
asbag57
(g78
g59
NtRp2256
(dp2257
g62
(dp2258
sg71
g2243
sg64
(lp2259
g57
(g58
g59
NtRp2260
(dp2261
g62
(dp2262
g70
I5
ssg71
g2256
sg64
(lp2263
S'datetime.datetime(2012, 7, 5, 15, 17, 56, 359000)'
p2264
asbasbasbag57
(g73
g59
NtRp2265
(dp2266
g62
(dp2267
sg71
g67
sg64
(lp2268
g57
(g78
g59
NtRp2269
(dp2270
g62
(dp2271
g82
g83
ssg71
g2265
sg64
(lp2272
S'post_vars'
p2273
asbag57
(g78
g59
NtRp2274
(dp2275
g62
(dp2276
g89
g90
ssg71
g2265
sg64
(lp2277
S':'
asbag57
(g78
g59
NtRp2278
(dp2279
g62
(dp2280
sg71
g2265
sg64
(lp2281
g57
(g58
g59
NtRp2282
(dp2283
g62
(dp2284
g70
I5
ssg71
g2278
sg64
(lp2285
g57
(g66
g59
NtRp2286
(dp2287
g62
(dp2288
g70
I4
ssg71
Nsg64
(lp2289
sbasbasbasbag57
(g73
g59
NtRp2290
(dp2291
g62
(dp2292
sg71
g67
sg64
(lp2293
g57
(g78
g59
NtRp2294
(dp2295
g62
(dp2296
g82
g83
ssg71
g2290
sg64
(lp2297
S'url'
p2298
asbag57
(g78
g59
NtRp2299
(dp2300
g62
(dp2301
g89
g90
ssg71
g2290
sg64
(lp2302
S':'
asbag57
(g78
g59
NtRp2303
(dp2304
g62
(dp2305
sg71
g2290
sg64
(lp2306
g57
(g58
g59
NtRp2307
(dp2308
g62
(dp2309
g70
I5
ssg71
g2303
sg64
(lp2310
S'/mycrawler/default/temp'
p2311
asbasbasbag57
(g73
g59
NtRp2312
(dp2313
g62
(dp2314
sg71
g67
sg64
(lp2315
g57
(g78
g59
NtRp2316
(dp2317
g62
(dp2318
g82
g83
ssg71
g2312
sg64
(lp2319
S'utcnow'
p2320
asbag57
(g78
g59
NtRp2321
(dp2322
g62
(dp2323
g89
g90
ssg71
g2312
sg64
(lp2324
S':'
asbag57
(g78
g59
NtRp2325
(dp2326
g62
(dp2327
sg71
g2312
sg64
(lp2328
g57
(g58
g59
NtRp2329
(dp2330
g62
(dp2331
g70
I5
ssg71
g2325
sg64
(lp2332
S'datetime.datetime(2012, 7, 5, 22, 17, 56, 359000)'
p2333
asbasbasbag57
(g73
g59
NtRp2334
(dp2335
g62
(dp2336
sg71
g67
sg64
(lp2337
g57
(g78
g59
NtRp2338
(dp2339
g62
(dp2340
g82
g83
ssg71
g2334
sg64
(lp2341
S'uuid'
p2342
asbag57
(g78
g59
NtRp2343
(dp2344
g62
(dp2345
g89
g90
ssg71
g2334
sg64
(lp2346
S':'
asbag57
(g78
g59
NtRp2347
(dp2348
g62
(dp2349
sg71
g2334
sg64
(lp2350
g57
(g58
g59
NtRp2351
(dp2352
g62
(dp2353
g70
I5
ssg71
g2347
sg64
(lp2354
S'mycrawler/127.0.0.1.2012-07-05.15-17-56.8bb21f7a-3451-4d9b-908e-5d20f82d8152'
p2355
asbasbasbag57
(g73
g59
NtRp2356
(dp2357
g62
(dp2358
sg71
g67
sg64
(lp2359
g57
(g78
g59
NtRp2360
(dp2361
g62
(dp2362
g82
g83
ssg71
g2356
sg64
(lp2363
S'vars'
p2364
asbag57
(g78
g59
NtRp2365
(dp2366
g62
(dp2367
g89
g90
ssg71
g2356
sg64
(lp2368
S':'
asbag57
(g78
g59
NtRp2369
(dp2370
g62
(dp2371
sg71
g2356
sg64
(lp2372
g57
(g58
g59
NtRp2373
(dp2374
g62
(dp2375
g70
I5
ssg71
g2369
sg64
(lp2376
g57
(g66
g59
NtRp2377
(dp2378
g62
(dp2379
g70
I4
ssg71
Nsg64
(lp2380
sbasbasbasbag57
(g73
g59
NtRp2381
(dp2382
g62
(dp2383
sg71
g67
sg64
(lp2384
g57
(g78
g59
NtRp2385
(dp2386
g62
(dp2387
g82
g83
ssg71
g2381
sg64
(lp2388
S'wsgi'
p2389
asbag57
(g78
g59
NtRp2390
(dp2391
g62
(dp2392
g89
g90
ssg71
g2381
sg64
(lp2393
S':'
asbag57
(g78
g59
NtRp2394
(dp2395
g62
(dp2396
sg71
g2381
sg64
(lp2397
g57
(g58
g59
NtRp2398
(dp2399
g62
(dp2400
g70
I5
ssg71
g2394
sg64
(lp2401
g57
(g66
g59
NtRp2402
(dp2403
g62
(dp2404
g70
I4
ssg71
Nsg64
(lp2405
g57
(g73
g59
NtRp2406
(dp2407
g62
(dp2408
sg71
g2402
sg64
(lp2409
g57
(g78
g59
NtRp2410
(dp2411
g62
(dp2412
g82
g83
ssg71
g2406
sg64
(lp2413
S'environ'
p2414
asbag57
(g78
g59
NtRp2415
(dp2416
g62
(dp2417
g89
g90
ssg71
g2406
sg64
(lp2418
S':'
asbag57
(g78
g59
NtRp2419
(dp2420
g62
(dp2421
sg71
g2406
sg64
(lp2422
g57
(g58
g59
NtRp2423
(dp2424
g62
(dp2425
g70
I4
ssg71
g2419
sg64
(lp2426
g57
(g66
g59
NtRp2427
(dp2428
g62
(dp2429
g70
I3
ssg71
Nsg64
(lp2430
g57
(g73
g59
NtRp2431
(dp2432
g62
(dp2433
sg71
g2427
sg64
(lp2434
g57
(g78
g59
NtRp2435
(dp2436
g62
(dp2437
g82
g83
ssg71
g2431
sg64
(lp2438
S'HTTP_ACCEPT'
p2439
asbag57
(g78
g59
NtRp2440
(dp2441
g62
(dp2442
g89
g90
ssg71
g2431
sg64
(lp2443
S':'
asbag57
(g78
g59
NtRp2444
(dp2445
g62
(dp2446
sg71
g2431
sg64
(lp2447
g57
(g58
g59
NtRp2448
(dp2449
g62
(dp2450
g70
I3
ssg71
g2444
sg64
(lp2451
g1003
asbasbasbag57
(g73
g59
NtRp2452
(dp2453
g62
(dp2454
sg71
g2427
sg64
(lp2455
g57
(g78
g59
NtRp2456
(dp2457
g62
(dp2458
g82
g83
ssg71
g2452
sg64
(lp2459
S'HTTP_ACCEPT_ENCODING'
p2460
asbag57
(g78
g59
NtRp2461
(dp2462
g62
(dp2463
g89
g90
ssg71
g2452
sg64
(lp2464
S':'
asbag57
(g78
g59
NtRp2465
(dp2466
g62
(dp2467
sg71
g2452
sg64
(lp2468
g57
(g58
g59
NtRp2469
(dp2470
g62
(dp2471
g70
I3
ssg71
g2465
sg64
(lp2472
g1025
asbasbasbag57
(g73
g59
NtRp2473
(dp2474
g62
(dp2475
sg71
g2427
sg64
(lp2476
g57
(g78
g59
NtRp2477
(dp2478
g62
(dp2479
g82
g83
ssg71
g2473
sg64
(lp2480
S'HTTP_ACCEPT_LANGUAGE'
p2481
asbag57
(g78
g59
NtRp2482
(dp2483
g62
(dp2484
g89
g90
ssg71
g2473
sg64
(lp2485
S':'
asbag57
(g78
g59
NtRp2486
(dp2487
g62
(dp2488
sg71
g2473
sg64
(lp2489
g57
(g58
g59
NtRp2490
(dp2491
g62
(dp2492
g70
I3
ssg71
g2486
sg64
(lp2493
g1047
asbasbasbag57
(g73
g59
NtRp2494
(dp2495
g62
(dp2496
sg71
g2427
sg64
(lp2497
g57
(g78
g59
NtRp2498
(dp2499
g62
(dp2500
g82
g83
ssg71
g2494
sg64
(lp2501
S'HTTP_CACHE_CONTROL'
p2502
asbag57
(g78
g59
NtRp2503
(dp2504
g62
(dp2505
g89
g90
ssg71
g2494
sg64
(lp2506
S':'
asbag57
(g78
g59
NtRp2507
(dp2508
g62
(dp2509
sg71
g2494
sg64
(lp2510
g57
(g58
g59
NtRp2511
(dp2512
g62
(dp2513
g70
I3
ssg71
g2507
sg64
(lp2514
g1069
asbasbasbag57
(g73
g59
NtRp2515
(dp2516
g62
(dp2517
sg71
g2427
sg64
(lp2518
g57
(g78
g59
NtRp2519
(dp2520
g62
(dp2521
g82
g83
ssg71
g2515
sg64
(lp2522
S'HTTP_CONNECTION'
p2523
asbag57
(g78
g59
NtRp2524
(dp2525
g62
(dp2526
g89
g90
ssg71
g2515
sg64
(lp2527
S':'
asbag57
(g78
g59
NtRp2528
(dp2529
g62
(dp2530
sg71
g2515
sg64
(lp2531
g57
(g58
g59
NtRp2532
(dp2533
g62
(dp2534
g70
I3
ssg71
g2528
sg64
(lp2535
g1091
asbasbasbag57
(g73
g59
NtRp2536
(dp2537
g62
(dp2538
sg71
g2427
sg64
(lp2539
g57
(g78
g59
NtRp2540
(dp2541
g62
(dp2542
g82
g83
ssg71
g2536
sg64
(lp2543
S'HTTP_COOKIE'
p2544
asbag57
(g78
g59
NtRp2545
(dp2546
g62
(dp2547
g89
g90
ssg71
g2536
sg64
(lp2548
S':'
asbag57
(g78
g59
NtRp2549
(dp2550
g62
(dp2551
sg71
g2536
sg64
(lp2552
g57
(g58
g59
NtRp2553
(dp2554
g62
(dp2555
g70
I3
ssg71
g2549
sg64
(lp2556
g1113
asbasbasbag57
(g73
g59
NtRp2557
(dp2558
g62
(dp2559
sg71
g2427
sg64
(lp2560
g57
(g78
g59
NtRp2561
(dp2562
g62
(dp2563
g82
g83
ssg71
g2557
sg64
(lp2564
S'HTTP_HOST'
p2565
asbag57
(g78
g59
NtRp2566
(dp2567
g62
(dp2568
g89
g90
ssg71
g2557
sg64
(lp2569
S':'
asbag57
(g78
g59
NtRp2570
(dp2571
g62
(dp2572
sg71
g2557
sg64
(lp2573
g57
(g58
g59
NtRp2574
(dp2575
g62
(dp2576
g70
I3
ssg71
g2570
sg64
(lp2577
g1135
asbasbasbag57
(g73
g59
NtRp2578
(dp2579
g62
(dp2580
sg71
g2427
sg64
(lp2581
g57
(g78
g59
NtRp2582
(dp2583
g62
(dp2584
g82
g83
ssg71
g2578
sg64
(lp2585
S'HTTP_REFERER'
p2586
asbag57
(g78
g59
NtRp2587
(dp2588
g62
(dp2589
g89
g90
ssg71
g2578
sg64
(lp2590
S':'
asbag57
(g78
g59
NtRp2591
(dp2592
g62
(dp2593
sg71
g2578
sg64
(lp2594
g57
(g58
g59
NtRp2595
(dp2596
g62
(dp2597
g70
I3
ssg71
g2591
sg64
(lp2598
g1157
asbasbasbag57
(g73
g59
NtRp2599
(dp2600
g62
(dp2601
sg71
g2427
sg64
(lp2602
g57
(g78
g59
NtRp2603
(dp2604
g62
(dp2605
g82
g83
ssg71
g2599
sg64
(lp2606
S'HTTP_USER_AGENT'
p2607
asbag57
(g78
g59
NtRp2608
(dp2609
g62
(dp2610
g89
g90
ssg71
g2599
sg64
(lp2611
S':'
asbag57
(g78
g59
NtRp2612
(dp2613
g62
(dp2614
sg71
g2599
sg64
(lp2615
g57
(g58
g59
NtRp2616
(dp2617
g62
(dp2618
g70
I3
ssg71
g2612
sg64
(lp2619
g1179
asbasbasbag57
(g73
g59
NtRp2620
(dp2621
g62
(dp2622
sg71
g2427
sg64
(lp2623
g57
(g78
g59
NtRp2624
(dp2625
g62
(dp2626
g82
g83
ssg71
g2620
sg64
(lp2627
S'PATH_INFO'
p2628
asbag57
(g78
g59
NtRp2629
(dp2630
g62
(dp2631
g89
g90
ssg71
g2620
sg64
(lp2632
S':'
asbag57
(g78
g59
NtRp2633
(dp2634
g62
(dp2635
sg71
g2620
sg64
(lp2636
g57
(g58
g59
NtRp2637
(dp2638
g62
(dp2639
g70
I3
ssg71
g2633
sg64
(lp2640
g1243
asbasbasbag57
(g73
g59
NtRp2641
(dp2642
g62
(dp2643
sg71
g2427
sg64
(lp2644
g57
(g78
g59
NtRp2645
(dp2646
g62
(dp2647
g82
g83
ssg71
g2641
sg64
(lp2648
S'QUERY_STRING'
p2649
asbag57
(g78
g59
NtRp2650
(dp2651
g62
(dp2652
g89
g90
ssg71
g2641
sg64
(lp2653
S':'
asbag57
(g78
g59
NtRp2654
(dp2655
g62
(dp2656
sg71
g2641
sg64
(lp2657
g57
(g58
g59
NtRp2658
(dp2659
g62
(dp2660
g70
I3
ssg71
g2654
sg64
(lp2661
S''
asbasbasbag57
(g73
g59
NtRp2662
(dp2663
g62
(dp2664
sg71
g2427
sg64
(lp2665
g57
(g78
g59
NtRp2666
(dp2667
g62
(dp2668
g82
g83
ssg71
g2662
sg64
(lp2669
S'REMOTE_ADDR'
p2670
asbag57
(g78
g59
NtRp2671
(dp2672
g62
(dp2673
g89
g90
ssg71
g2662
sg64
(lp2674
S':'
asbag57
(g78
g59
NtRp2675
(dp2676
g62
(dp2677
sg71
g2662
sg64
(lp2678
g57
(g58
g59
NtRp2679
(dp2680
g62
(dp2681
g70
I3
ssg71
g2675
sg64
(lp2682
g190
asbasbasbag57
(g73
g59
NtRp2683
(dp2684
g62
(dp2685
sg71
g2427
sg64
(lp2686
g57
(g78
g59
NtRp2687
(dp2688
g62
(dp2689
g82
g83
ssg71
g2683
sg64
(lp2690
S'REMOTE_PORT'
p2691
asbag57
(g78
g59
NtRp2692
(dp2693
g62
(dp2694
g89
g90
ssg71
g2683
sg64
(lp2695
S':'
asbag57
(g78
g59
NtRp2696
(dp2697
g62
(dp2698
sg71
g2683
sg64
(lp2699
g57
(g58
g59
NtRp2700
(dp2701
g62
(dp2702
g70
I3
ssg71
g2696
sg64
(lp2703
g1307
asbasbasbag57
(g73
g59
NtRp2704
(dp2705
g62
(dp2706
sg71
g2427
sg64
(lp2707
g57
(g78
g59
NtRp2708
(dp2709
g62
(dp2710
g82
g83
ssg71
g2704
sg64
(lp2711
S'REQUEST_METHOD'
p2712
asbag57
(g78
g59
NtRp2713
(dp2714
g62
(dp2715
g89
g90
ssg71
g2704
sg64
(lp2716
S':'
asbag57
(g78
g59
NtRp2717
(dp2718
g62
(dp2719
sg71
g2704
sg64
(lp2720
g57
(g58
g59
NtRp2721
(dp2722
g62
(dp2723
g70
I3
ssg71
g2717
sg64
(lp2724
g1329
asbasbasbag57
(g73
g59
NtRp2725
(dp2726
g62
(dp2727
sg71
g2427
sg64
(lp2728
g57
(g78
g59
NtRp2729
(dp2730
g62
(dp2731
g82
g83
ssg71
g2725
sg64
(lp2732
S'SCRIPT_NAME'
p2733
asbag57
(g78
g59
NtRp2734
(dp2735
g62
(dp2736
g89
g90
ssg71
g2725
sg64
(lp2737
S':'
asbag57
(g78
g59
NtRp2738
(dp2739
g62
(dp2740
sg71
g2725
sg64
(lp2741
g57
(g58
g59
NtRp2742
(dp2743
g62
(dp2744
g70
I3
ssg71
g2738
sg64
(lp2745
S''
asbasbasbag57
(g73
g59
NtRp2746
(dp2747
g62
(dp2748
sg71
g2427
sg64
(lp2749
g57
(g78
g59
NtRp2750
(dp2751
g62
(dp2752
g82
g83
ssg71
g2746
sg64
(lp2753
S'SERVER_NAME'
p2754
asbag57
(g78
g59
NtRp2755
(dp2756
g62
(dp2757
g89
g90
ssg71
g2746
sg64
(lp2758
S':'
asbag57
(g78
g59
NtRp2759
(dp2760
g62
(dp2761
sg71
g2746
sg64
(lp2762
g57
(g58
g59
NtRp2763
(dp2764
g62
(dp2765
g70
I3
ssg71
g2759
sg64
(lp2766
g1372
asbasbasbag57
(g73
g59
NtRp2767
(dp2768
g62
(dp2769
sg71
g2427
sg64
(lp2770
g57
(g78
g59
NtRp2771
(dp2772
g62
(dp2773
g82
g83
ssg71
g2767
sg64
(lp2774
S'SERVER_PORT'
p2775
asbag57
(g78
g59
NtRp2776
(dp2777
g62
(dp2778
g89
g90
ssg71
g2767
sg64
(lp2779
S':'
asbag57
(g78
g59
NtRp2780
(dp2781
g62
(dp2782
sg71
g2767
sg64
(lp2783
g57
(g58
g59
NtRp2784
(dp2785
g62
(dp2786
g70
I3
ssg71
g2780
sg64
(lp2787
g1394
asbasbasbag57
(g73
g59
NtRp2788
(dp2789
g62
(dp2790
sg71
g2427
sg64
(lp2791
g57
(g78
g59
NtRp2792
(dp2793
g62
(dp2794
g82
g83
ssg71
g2788
sg64
(lp2795
S'SERVER_PROTOCOL'
p2796
asbag57
(g78
g59
NtRp2797
(dp2798
g62
(dp2799
g89
g90
ssg71
g2788
sg64
(lp2800
S':'
asbag57
(g78
g59
NtRp2801
(dp2802
g62
(dp2803
sg71
g2788
sg64
(lp2804
g57
(g58
g59
NtRp2805
(dp2806
g62
(dp2807
g70
I3
ssg71
g2801
sg64
(lp2808
g1416
asbasbasbag57
(g73
g59
NtRp2809
(dp2810
g62
(dp2811
sg71
g2427
sg64
(lp2812
g57
(g78
g59
NtRp2813
(dp2814
g62
(dp2815
g82
g83
ssg71
g2809
sg64
(lp2816
S'SERVER_SOFTWARE'
p2817
asbag57
(g78
g59
NtRp2818
(dp2819
g62
(dp2820
g89
g90
ssg71
g2809
sg64
(lp2821
S':'
asbag57
(g78
g59
NtRp2822
(dp2823
g62
(dp2824
sg71
g2809
sg64
(lp2825
g57
(g58
g59
NtRp2826
(dp2827
g62
(dp2828
g70
I3
ssg71
g2822
sg64
(lp2829
g1438
asbasbasbag57
(g73
g59
NtRp2830
(dp2831
g62
(dp2832
sg71
g2427
sg64
(lp2833
g57
(g78
g59
NtRp2834
(dp2835
g62
(dp2836
g82
g83
ssg71
g2830
sg64
(lp2837
S'wsgi.errors'
p2838
asbag57
(g78
g59
NtRp2839
(dp2840
g62
(dp2841
g89
g90
ssg71
g2830
sg64
(lp2842
S':'
asbag57
(g78
g59
NtRp2843
(dp2844
g62
(dp2845
sg71
g2830
sg64
(lp2846
g57
(g58
g59
NtRp2847
(dp2848
g62
(dp2849
g70
I3
ssg71
g2843
sg64
(lp2850
S"<open file '<stderr>', mode 'w' at 0x00A550D0>"
p2851
asbasbasbag57
(g73
g59
NtRp2852
(dp2853
g62
(dp2854
sg71
g2427
sg64
(lp2855
g57
(g78
g59
NtRp2856
(dp2857
g62
(dp2858
g82
g83
ssg71
g2852
sg64
(lp2859
S'wsgi.file_wrapper'
p2860
asbag57
(g78
g59
NtRp2861
(dp2862
g62
(dp2863
g89
g90
ssg71
g2852
sg64
(lp2864
S':'
asbag57
(g78
g59
NtRp2865
(dp2866
g62
(dp2867
sg71
g2852
sg64
(lp2868
g57
(g58
g59
NtRp2869
(dp2870
g62
(dp2871
g70
I3
ssg71
g2865
sg64
(lp2872
S'<class wsgiref.util.FileWrapper at 0x015E8AB0>'
p2873
asbasbasbag57
(g73
g59
NtRp2874
(dp2875
g62
(dp2876
sg71
g2427
sg64
(lp2877
g57
(g78
g59
NtRp2878
(dp2879
g62
(dp2880
g82
g83
ssg71
g2874
sg64
(lp2881
S'wsgi.input'
p2882
asbag57
(g78
g59
NtRp2883
(dp2884
g62
(dp2885
g89
g90
ssg71
g2874
sg64
(lp2886
S':'
asbag57
(g78
g59
NtRp2887
(dp2888
g62
(dp2889
sg71
g2874
sg64
(lp2890
g57
(g58
g59
NtRp2891
(dp2892
g62
(dp2893
g70
I3
ssg71
g2887
sg64
(lp2894
S'<cStringIO.StringO object at 0x019254E0>'
p2895
asbasbasbag57
(g73
g59
NtRp2896
(dp2897
g62
(dp2898
sg71
g2427
sg64
(lp2899
g57
(g78
g59
NtRp2900
(dp2901
g62
(dp2902
g82
g83
ssg71
g2896
sg64
(lp2903
S'wsgi.multiprocess'
p2904
asbag57
(g78
g59
NtRp2905
(dp2906
g62
(dp2907
g89
g90
ssg71
g2896
sg64
(lp2908
S':'
asbag57
(g78
g59
NtRp2909
(dp2910
g62
(dp2911
sg71
g2896
sg64
(lp2912
g57
(g58
g59
NtRp2913
(dp2914
g62
(dp2915
g70
I3
ssg71
g2909
sg64
(lp2916
g100
asbasbasbag57
(g73
g59
NtRp2917
(dp2918
g62
(dp2919
sg71
g2427
sg64
(lp2920
g57
(g78
g59
NtRp2921
(dp2922
g62
(dp2923
g82
g83
ssg71
g2917
sg64
(lp2924
S'wsgi.multithread'
p2925
asbag57
(g78
g59
NtRp2926
(dp2927
g62
(dp2928
g89
g90
ssg71
g2917
sg64
(lp2929
S':'
asbag57
(g78
g59
NtRp2930
(dp2931
g62
(dp2932
sg71
g2917
sg64
(lp2933
g57
(g58
g59
NtRp2934
(dp2935
g62
(dp2936
g70
I3
ssg71
g2930
sg64
(lp2937
g1678
asbasbasbag57
(g73
g59
NtRp2938
(dp2939
g62
(dp2940
sg71
g2427
sg64
(lp2941
g57
(g78
g59
NtRp2942
(dp2943
g62
(dp2944
g82
g83
ssg71
g2938
sg64
(lp2945
S'wsgi.run_once'
p2946
asbag57
(g78
g59
NtRp2947
(dp2948
g62
(dp2949
g89
g90
ssg71
g2938
sg64
(lp2950
S':'
asbag57
(g78
g59
NtRp2951
(dp2952
g62
(dp2953
sg71
g2938
sg64
(lp2954
g57
(g58
g59
NtRp2955
(dp2956
g62
(dp2957
g70
I3
ssg71
g2951
sg64
(lp2958
g100
asbasbasbag57
(g73
g59
NtRp2959
(dp2960
g62
(dp2961
sg71
g2427
sg64
(lp2962
g57
(g78
g59
NtRp2963
(dp2964
g62
(dp2965
g82
g83
ssg71
g2959
sg64
(lp2966
S'wsgi.url_scheme'
p2967
asbag57
(g78
g59
NtRp2968
(dp2969
g62
(dp2970
g89
g90
ssg71
g2959
sg64
(lp2971
S':'
asbag57
(g78
g59
NtRp2972
(dp2973
g62
(dp2974
sg71
g2959
sg64
(lp2975
g57
(g58
g59
NtRp2976
(dp2977
g62
(dp2978
g70
I3
ssg71
g2972
sg64
(lp2979
g1721
asbasbasbag57
(g73
g59
NtRp2980
(dp2981
g62
(dp2982
sg71
g2427
sg64
(lp2983
g57
(g78
g59
NtRp2984
(dp2985
g62
(dp2986
g82
g83
ssg71
g2980
sg64
(lp2987
S'wsgi.version'
p2988
asbag57
(g78
g59
NtRp2989
(dp2990
g62
(dp2991
g89
g90
ssg71
g2980
sg64
(lp2992
S':'
asbag57
(g78
g59
NtRp2993
(dp2994
g62
(dp2995
sg71
g2980
sg64
(lp2996
g57
(g58
g59
NtRp2997
(dp2998
g62
(dp2999
g70
I3
ssg71
g2993
sg64
(lp3000
S'1'
asbasbasbasbasbasbasbasbasbasbasbasbasbsS'frames'
p3001
(lp3002
(dp3003
S'file'
p3004
S'C:\\Documents and Settings\\agrover\\Desktop\\previous crawler\\web2py\\gluon\\restricted.py'
p3005
sS'dump'
p3006
(dp3007
S'environment'
p3008
S"{'A': <class 'gluon.html.A'>, 'Auth': <class 'gluon.tools.Auth'>, 'B': <class 'gluon.html.B'>, 'BEAUTIFY': <class 'gluon.html.BEAUTIFY'>, 'BODY': <class 'gluon.html.BODY'>, 'BR': <class 'gluon.html.BR'>, 'BUTTON': <class 'gluon.html.BUTTON'>, 'CAT': <class 'gluon.html.CAT'>, 'CENTER': <class 'gluon.html.CENTER'>, 'CLEANUP': <class 'gluon.validators.CLEANUP'>, ...}"
p3009
sS'ccode'
p3010
S'<code object <module> at 01AA34A0, file "C:\\Docu...tions\\mycrawler\\controllers/default.py", line 11>'
p3011
ssS'lnum'
p3012
I205
sS'lines'
p3013
(dp3014
I200
S'    try:'
p3015
sI201
S'        if type(code) == types.CodeType:'
p3016
sI202
S'            ccode = code'
p3017
sI203
S'        else:'
p3018
sI204
S'            ccode = compile2(code,layer)'
p3019
sI205
S'        exec ccode in environment'
p3020
sI206
S'    except HTTP:'
p3021
sI207
S'        raise'
p3022
sI208
S'    except RestrictedError:'
p3023
sI209
S'        # do not encapsulate (obfuscate) the original RestrictedError'
p3024
ssS'call'
p3025
S"(code='# -*- coding: utf-8 -*-\\n# this file is released ...=current)\\n\\nresponse._vars=response._caller(temp)\\n', environment={'A': <class 'gluon.html.A'>, 'Auth': <class 'gluon.tools.Auth'>, 'B': <class 'gluon.html.B'>, 'BEAUTIFY': <class 'gluon.html.BEAUTIFY'>, 'BODY': <class 'gluon.html.BODY'>, 'BR': <class 'gluon.html.BR'>, 'BUTTON': <class 'gluon.html.BUTTON'>, 'CAT': <class 'gluon.html.CAT'>, 'CENTER': <class 'gluon.html.CENTER'>, 'CLEANUP': <class 'gluon.validators.CLEANUP'>, ...}, layer=r'C:\\Documents and Settings\\agrover\\Desktop\\previo...2py\\applications\\mycrawler\\controllers/default.py')"
p3026
sS'func'
p3027
S'restricted'
p3028
sa(dp3029
g3004
S'C:\\Documents and Settings\\agrover\\Desktop\\previous crawler\\web2py\\applications\\mycrawler\\controllers\\default.py'
p3030
sg3006
(dp3031
sg3012
I634
sg3013
(dp3032
I623
S'    #for i in range(1,10):'
p3033
sI624
S"    #    spamWriter.writerow([name[i].encode('utf-8'),titl[i],current[i],location[i],industry[i],view_profile[i]])"
p3034
sI625
S''
sI626
S''
sI627
S'    #,titl[i],current[i],location[i],industry[i],view_profile[i]'
p3035
sI628
S"    #response.headers['Content-Type'] = 'text/csv'"
p3036
sI629
S"    #response.headers['Content-Disposition'] = 'attachment; filename=%s' % request.vars.File_Name"
p3037
sI630
S''
sI631
S''
sI632
S'    #return dict(view_profile=view_profile,name=name,location=location,industry=industry,titl=titl,current=current)'
p3038
ssg3025
S'()'
p3039
sg3027
S'<module>'
p3040
sa(dp3041
g3004
S'C:\\Documents and Settings\\agrover\\Desktop\\previous crawler\\web2py\\gluon\\globals.py'
p3042
sg3006
(dp3043
S'self'
p3044
S'undefined'
p3045
sS'f'
S'<function temp>'
p3046
ssg3012
I173
sg3013
(dp3047
I168
S'        self.menu = []             # used by the default view layout'
p3048
sI169
S'        self.files = []            # used by web2py_ajax.html'
p3049
sI170
S'        self.generic_patterns = [] # patterns to allow generic views'
p3050
sI171
S"        self.delimiters = ('{{','}}')"
p3051
sI172
S'        self._vars = None'
p3052
sI173
S'        self._caller = lambda f: f()'
p3053
sI174
S'        self._view_environment = None'
p3054
sI175
S'        self._custom_commit = None'
p3055
sI176
S'        self._custom_rollback = None'
p3056
sI177
S''
ssg3025
S'(f=<function temp>)'
p3057
sg3027
S'<lambda>'
p3058
sa(dp3059
g3004
S'C:\\Documents and Settings\\agrover\\Desktop\\previous crawler\\web2py\\applications\\mycrawler\\controllers\\default.py'
p3060
sg3006
(dp3061
sg3012
I575
sg3013
(dp3062
I576
S'#finish'
p3063
sI577
S'###########################################################################################################'
p3064
sI578
S"    #redirect(URL(r=request,f='enter_info'))"
p3065
sI579
S"    #for link in soup.find_all('a'):"
p3066
sI570
S''
sI571
S'    return dict(form=form)'
p3067
sI572
S''
sI573
S'def temp():'
p3068
sI574
S'    global c_response'
p3069
sI575
S'    return c_response.getvalue()'
p3070
ssg3025
S'()'
p3071
sg3027
S'temp'
p3072
sasS'pyver'
p3073
S'Python 2.7.3: C:\\Python27\\python.exe'
p3074
sS'session'
p3075
g57
(g58
g59
NtRp3076
(dp3077
g62
(dp3078
sg64
(lp3079
g57
(g66
g59
NtRp3080
(dp3081
g62
(dp3082
g70
I5
ssg71
Nsg64
(lp3083
g57
(g73
g59
NtRp3084
(dp3085
g62
(dp3086
sg71
g3080
sg64
(lp3087
g57
(g78
g59
NtRp3088
(dp3089
g62
(dp3090
g82
g83
ssg71
g3084
sg64
(lp3091
S'password'
p3092
asbag57
(g78
g59
NtRp3093
(dp3094
g62
(dp3095
g89
g90
ssg71
g3084
sg64
(lp3096
S':'
asbag57
(g78
g59
NtRp3097
(dp3098
g62
(dp3099
sg71
g3084
sg64
(lp3100
g57
(g58
g59
NtRp3101
(dp3102
g62
(dp3103
g70
I5
ssg71
g3097
sg64
(lp3104
S'modeln@1234'
p3105
asbasbasbag57
(g73
g59
NtRp3106
(dp3107
g62
(dp3108
sg71
g3080
sg64
(lp3109
g57
(g78
g59
NtRp3110
(dp3111
g62
(dp3112
g82
g83
ssg71
g3106
sg64
(lp3113
S'username'
p3114
asbag57
(g78
g59
NtRp3115
(dp3116
g62
(dp3117
g89
g90
ssg71
g3106
sg64
(lp3118
S':'
asbag57
(g78
g59
NtRp3119
(dp3120
g62
(dp3121
sg71
g3106
sg64
(lp3122
g57
(g58
g59
NtRp3123
(dp3124
g62
(dp3125
g70
I5
ssg71
g3119
sg64
(lp3126
S'mrigeshgaurav@gmail.com'
p3127
asbasbasbasbasbsS'etype'
p3128
S"<type 'exceptions.NameError'>"
p3129
sS'date'
p3130
S'Thu Jul 05 15:17:56 2012'
p3131
sS'response'
p3132
g57
(g58
g59
NtRp3133
(dp3134
g62
(dp3135
sg64
(lp3136
g57
(g66
g59
NtRp3137
(dp3138
g62
(dp3139
g70
I5
ssg71
Nsg64
(lp3140
g57
(g73
g59
NtRp3141
(dp3142
g62
(dp3143
sg71
g3137
sg64
(lp3144
g57
(g78
g59
NtRp3145
(dp3146
g62
(dp3147
g82
g83
ssg71
g3141
sg64
(lp3148
g155
asbag57
(g78
g59
NtRp3149
(dp3150
g62
(dp3151
g89
g90
ssg71
g3141
sg64
(lp3152
S':'
asbag57
(g78
g59
NtRp3153
(dp3154
g62
(dp3155
sg71
g3141
sg64
(lp3156
g57
(g58
g59
NtRp3157
(dp3158
g62
(dp3159
g70
I5
ssg71
g3153
sg64
(lp3160
S'<cStringIO.StringO object at 0x019257E0>'
p3161
asbasbasbag57
(g73
g59
NtRp3162
(dp3163
g62
(dp3164
sg71
g3137
sg64
(lp3165
g57
(g78
g59
NtRp3166
(dp3167
g62
(dp3168
g82
g83
ssg71
g3162
sg64
(lp3169
g221
asbag57
(g78
g59
NtRp3170
(dp3171
g62
(dp3172
g89
g90
ssg71
g3162
sg64
(lp3173
S':'
asbag57
(g78
g59
NtRp3174
(dp3175
g62
(dp3176
sg71
g3162
sg64
(lp3177
g57
(g58
g59
NtRp3178
(dp3179
g62
(dp3180
g70
I5
ssg71
g3174
sg64
(lp3181
g57
(g66
g59
NtRp3182
(dp3183
g62
(dp3184
g70
I4
ssg71
Nsg64
(lp3185
g57
(g73
g59
NtRp3186
(dp3187
g62
(dp3188
sg71
g3182
sg64
(lp3189
g57
(g78
g59
NtRp3190
(dp3191
g62
(dp3192
g82
g83
ssg71
g3186
sg64
(lp3193
S'session_id_mycrawler'
p3194
asbag57
(g78
g59
NtRp3195
(dp3196
g62
(dp3197
g89
g90
ssg71
g3186
sg64
(lp3198
S':'
asbag57
(g78
g59
NtRp3199
(dp3200
g62
(dp3201
sg71
g3186
sg64
(lp3202
g57
(g58
g59
NtRp3203
(dp3204
g62
(dp3205
g70
I4
ssg71
g3199
sg64
(lp3206
g57
(g66
g59
NtRp3207
(dp3208
g62
(dp3209
g70
I3
ssg71
Nsg64
(lp3210
g57
(g73
g59
NtRp3211
(dp3212
g62
(dp3213
sg71
g3207
sg64
(lp3214
g57
(g78
g59
NtRp3215
(dp3216
g62
(dp3217
g82
g83
ssg71
g3211
sg64
(lp3218
g271
asbag57
(g78
g59
NtRp3219
(dp3220
g62
(dp3221
g89
g90
ssg71
g3211
sg64
(lp3222
S':'
asbag57
(g78
g59
NtRp3223
(dp3224
g62
(dp3225
sg71
g3211
sg64
(lp3226
g57
(g58
g59
NtRp3227
(dp3228
g62
(dp3229
g70
I3
ssg71
g3223
sg64
(lp3230
S''
asbasbasbag57
(g73
g59
NtRp3231
(dp3232
g62
(dp3233
sg71
g3207
sg64
(lp3234
g57
(g78
g59
NtRp3235
(dp3236
g62
(dp3237
g82
g83
ssg71
g3231
sg64
(lp3238
g292
asbag57
(g78
g59
NtRp3239
(dp3240
g62
(dp3241
g89
g90
ssg71
g3231
sg64
(lp3242
S':'
asbag57
(g78
g59
NtRp3243
(dp3244
g62
(dp3245
sg71
g3231
sg64
(lp3246
g57
(g58
g59
NtRp3247
(dp3248
g62
(dp3249
g70
I3
ssg71
g3243
sg64
(lp3250
S''
asbasbasbag57
(g73
g59
NtRp3251
(dp3252
g62
(dp3253
sg71
g3207
sg64
(lp3254
g57
(g78
g59
NtRp3255
(dp3256
g62
(dp3257
g82
g83
ssg71
g3251
sg64
(lp3258
g313
asbag57
(g78
g59
NtRp3259
(dp3260
g62
(dp3261
g89
g90
ssg71
g3251
sg64
(lp3262
S':'
asbag57
(g78
g59
NtRp3263
(dp3264
g62
(dp3265
sg71
g3251
sg64
(lp3266
g57
(g58
g59
NtRp3267
(dp3268
g62
(dp3269
g70
I3
ssg71
g3263
sg64
(lp3270
S''
asbasbasbag57
(g73
g59
NtRp3271
(dp3272
g62
(dp3273
sg71
g3207
sg64
(lp3274
g57
(g78
g59
NtRp3275
(dp3276
g62
(dp3277
g82
g83
ssg71
g3271
sg64
(lp3278
g334
asbag57
(g78
g59
NtRp3279
(dp3280
g62
(dp3281
g89
g90
ssg71
g3271
sg64
(lp3282
S':'
asbag57
(g78
g59
NtRp3283
(dp3284
g62
(dp3285
sg71
g3271
sg64
(lp3286
g57
(g58
g59
NtRp3287
(dp3288
g62
(dp3289
g70
I3
ssg71
g3283
sg64
(lp3290
S''
asbasbasbag57
(g73
g59
NtRp3291
(dp3292
g62
(dp3293
sg71
g3207
sg64
(lp3294
g57
(g78
g59
NtRp3295
(dp3296
g62
(dp3297
g82
g83
ssg71
g3291
sg64
(lp3298
g355
asbag57
(g78
g59
NtRp3299
(dp3300
g62
(dp3301
g89
g90
ssg71
g3291
sg64
(lp3302
S':'
asbag57
(g78
g59
NtRp3303
(dp3304
g62
(dp3305
sg71
g3291
sg64
(lp3306
g57
(g58
g59
NtRp3307
(dp3308
g62
(dp3309
g70
I3
ssg71
g3303
sg64
(lp3310
S''
asbasbasbag57
(g73
g59
NtRp3311
(dp3312
g62
(dp3313
sg71
g3207
sg64
(lp3314
g57
(g78
g59
NtRp3315
(dp3316
g62
(dp3317
g82
g83
ssg71
g3311
sg64
(lp3318
g376
asbag57
(g78
g59
NtRp3319
(dp3320
g62
(dp3321
g89
g90
ssg71
g3311
sg64
(lp3322
S':'
asbag57
(g78
g59
NtRp3323
(dp3324
g62
(dp3325
sg71
g3311
sg64
(lp3326
g57
(g58
g59
NtRp3327
(dp3328
g62
(dp3329
g70
I3
ssg71
g3323
sg64
(lp3330
S'/'
asbasbasbag57
(g73
g59
NtRp3331
(dp3332
g62
(dp3333
sg71
g3207
sg64
(lp3334
g57
(g78
g59
NtRp3335
(dp3336
g62
(dp3337
g82
g83
ssg71
g3331
sg64
(lp3338
g397
asbag57
(g78
g59
NtRp3339
(dp3340
g62
(dp3341
g89
g90
ssg71
g3331
sg64
(lp3342
S':'
asbag57
(g78
g59
NtRp3343
(dp3344
g62
(dp3345
sg71
g3331
sg64
(lp3346
g57
(g58
g59
NtRp3347
(dp3348
g62
(dp3349
g70
I3
ssg71
g3343
sg64
(lp3350
S''
asbasbasbag57
(g73
g59
NtRp3351
(dp3352
g62
(dp3353
sg71
g3207
sg64
(lp3354
g57
(g78
g59
NtRp3355
(dp3356
g62
(dp3357
g82
g83
ssg71
g3351
sg64
(lp3358
g418
asbag57
(g78
g59
NtRp3359
(dp3360
g62
(dp3361
g89
g90
ssg71
g3351
sg64
(lp3362
S':'
asbag57
(g78
g59
NtRp3363
(dp3364
g62
(dp3365
sg71
g3351
sg64
(lp3366
g57
(g58
g59
NtRp3367
(dp3368
g62
(dp3369
g70
I3
ssg71
g3363
sg64
(lp3370
S''
asbasbasbasbasbasbasbasbasbasbasbag57
(g73
g59
NtRp3371
(dp3372
g62
(dp3373
sg71
g3137
sg64
(lp3374
g57
(g78
g59
NtRp3375
(dp3376
g62
(dp3377
g82
g83
ssg71
g3371
sg64
(lp3378
S'delimiters'
p3379
asbag57
(g78
g59
NtRp3380
(dp3381
g62
(dp3382
g89
g90
ssg71
g3371
sg64
(lp3383
S':'
asbag57
(g78
g59
NtRp3384
(dp3385
g62
(dp3386
sg71
g3371
sg64
(lp3387
g57
(g58
g59
NtRp3388
(dp3389
g62
(dp3390
g70
I5
ssg71
g3384
sg64
(lp3391
g57
(g66
g59
NtRp3392
(dp3393
g62
(dp3394
g70
I4
ssg71
Nsg64
(lp3395
g57
(g73
g59
NtRp3396
(dp3397
g62
(dp3398
sg71
g3392
sg64
(lp3399
g57
(g78
g59
NtRp3400
(dp3401
g62
(dp3402
sg71
g3396
sg64
(lp3403
g57
(g58
g59
NtRp3404
(dp3405
g62
(dp3406
g70
I4
ssg71
g3400
sg64
(lp3407
S'{{'
p3408
asbasbasbag57
(g73
g59
NtRp3409
(dp3410
g62
(dp3411
sg71
g3392
sg64
(lp3412
g57
(g78
g59
NtRp3413
(dp3414
g62
(dp3415
sg71
g3409
sg64
(lp3416
g57
(g58
g59
NtRp3417
(dp3418
g62
(dp3419
g70
I4
ssg71
g3413
sg64
(lp3420
S'}}'
p3421
asbasbasbasbasbasbasbag57
(g73
g59
NtRp3422
(dp3423
g62
(dp3424
sg71
g3137
sg64
(lp3425
g57
(g78
g59
NtRp3426
(dp3427
g62
(dp3428
g82
g83
ssg71
g3422
sg64
(lp3429
S'files'
p3430
asbag57
(g78
g59
NtRp3431
(dp3432
g62
(dp3433
g89
g90
ssg71
g3422
sg64
(lp3434
S':'
asbag57
(g78
g59
NtRp3435
(dp3436
g62
(dp3437
sg71
g3422
sg64
(lp3438
g57
(g58
g59
NtRp3439
(dp3440
g62
(dp3441
g70
I5
ssg71
g3435
sg64
(lp3442
g57
(g66
g59
NtRp3443
(dp3444
g62
(dp3445
g70
I4
ssg71
Nsg64
(lp3446
sbasbasbasbag57
(g73
g59
NtRp3447
(dp3448
g62
(dp3449
sg71
g3137
sg64
(lp3450
g57
(g78
g59
NtRp3451
(dp3452
g62
(dp3453
g82
g83
ssg71
g3447
sg64
(lp3454
S'flash'
p3455
asbag57
(g78
g59
NtRp3456
(dp3457
g62
(dp3458
g89
g90
ssg71
g3447
sg64
(lp3459
S':'
asbag57
(g78
g59
NtRp3460
(dp3461
g62
(dp3462
sg71
g3447
sg64
(lp3463
g57
(g58
g59
NtRp3464
(dp3465
g62
(dp3466
g70
I5
ssg71
g3460
sg64
(lp3467
S''
asbasbasbag57
(g73
g59
NtRp3468
(dp3469
g62
(dp3470
sg71
g3137
sg64
(lp3471
g57
(g78
g59
NtRp3472
(dp3473
g62
(dp3474
g82
g83
ssg71
g3468
sg64
(lp3475
S'generic_patterns'
p3476
asbag57
(g78
g59
NtRp3477
(dp3478
g62
(dp3479
g89
g90
ssg71
g3468
sg64
(lp3480
S':'
asbag57
(g78
g59
NtRp3481
(dp3482
g62
(dp3483
sg71
g3468
sg64
(lp3484
g57
(g58
g59
NtRp3485
(dp3486
g62
(dp3487
g70
I5
ssg71
g3481
sg64
(lp3488
g57
(g66
g59
NtRp3489
(dp3490
g62
(dp3491
g70
I4
ssg71
Nsg64
(lp3492
g57
(g73
g59
NtRp3493
(dp3494
g62
(dp3495
sg71
g3489
sg64
(lp3496
g57
(g78
g59
NtRp3497
(dp3498
g62
(dp3499
sg71
g3493
sg64
(lp3500
g57
(g58
g59
NtRp3501
(dp3502
g62
(dp3503
g70
I4
ssg71
g3497
sg64
(lp3504
S'*'
asbasbasbasbasbasbasbag57
(g73
g59
NtRp3505
(dp3506
g62
(dp3507
sg71
g3137
sg64
(lp3508
g57
(g78
g59
NtRp3509
(dp3510
g62
(dp3511
g82
g83
ssg71
g3505
sg64
(lp3512
S'headers'
p3513
asbag57
(g78
g59
NtRp3514
(dp3515
g62
(dp3516
g89
g90
ssg71
g3505
sg64
(lp3517
S':'
asbag57
(g78
g59
NtRp3518
(dp3519
g62
(dp3520
sg71
g3505
sg64
(lp3521
g57
(g58
g59
NtRp3522
(dp3523
g62
(dp3524
g70
I5
ssg71
g3518
sg64
(lp3525
g57
(g66
g59
NtRp3526
(dp3527
g62
(dp3528
g70
I4
ssg71
Nsg64
(lp3529
g57
(g73
g59
NtRp3530
(dp3531
g62
(dp3532
sg71
g3526
sg64
(lp3533
g57
(g78
g59
NtRp3534
(dp3535
g62
(dp3536
g82
g83
ssg71
g3530
sg64
(lp3537
S'Cache-Control'
p3538
asbag57
(g78
g59
NtRp3539
(dp3540
g62
(dp3541
g89
g90
ssg71
g3530
sg64
(lp3542
S':'
asbag57
(g78
g59
NtRp3543
(dp3544
g62
(dp3545
sg71
g3530
sg64
(lp3546
g57
(g58
g59
NtRp3547
(dp3548
g62
(dp3549
g70
I4
ssg71
g3543
sg64
(lp3550
S'no-store, no-cache, must-revalidate, post-check=0, pre-check=0'
p3551
asbasbasbag57
(g73
g59
NtRp3552
(dp3553
g62
(dp3554
sg71
g3526
sg64
(lp3555
g57
(g78
g59
NtRp3556
(dp3557
g62
(dp3558
g82
g83
ssg71
g3552
sg64
(lp3559
S'Content-Type'
p3560
asbag57
(g78
g59
NtRp3561
(dp3562
g62
(dp3563
g89
g90
ssg71
g3552
sg64
(lp3564
S':'
asbag57
(g78
g59
NtRp3565
(dp3566
g62
(dp3567
sg71
g3552
sg64
(lp3568
g57
(g58
g59
NtRp3569
(dp3570
g62
(dp3571
g70
I4
ssg71
g3565
sg64
(lp3572
S'text/html; charset=utf-8'
p3573
asbasbasbag57
(g73
g59
NtRp3574
(dp3575
g62
(dp3576
sg71
g3526
sg64
(lp3577
g57
(g78
g59
NtRp3578
(dp3579
g62
(dp3580
g82
g83
ssg71
g3574
sg64
(lp3581
S'Expires'
p3582
asbag57
(g78
g59
NtRp3583
(dp3584
g62
(dp3585
g89
g90
ssg71
g3574
sg64
(lp3586
S':'
asbag57
(g78
g59
NtRp3587
(dp3588
g62
(dp3589
sg71
g3574
sg64
(lp3590
g57
(g58
g59
NtRp3591
(dp3592
g62
(dp3593
g70
I4
ssg71
g3587
sg64
(lp3594
S'Thu, 05 Jul 2012 22:17:56 GMT'
p3595
asbasbasbag57
(g73
g59
NtRp3596
(dp3597
g62
(dp3598
sg71
g3526
sg64
(lp3599
g57
(g78
g59
NtRp3600
(dp3601
g62
(dp3602
g82
g83
ssg71
g3596
sg64
(lp3603
S'Pragma'
p3604
asbag57
(g78
g59
NtRp3605
(dp3606
g62
(dp3607
g89
g90
ssg71
g3596
sg64
(lp3608
S':'
asbag57
(g78
g59
NtRp3609
(dp3610
g62
(dp3611
sg71
g3596
sg64
(lp3612
g57
(g58
g59
NtRp3613
(dp3614
g62
(dp3615
g70
I4
ssg71
g3609
sg64
(lp3616
S'no-cache'
p3617
asbasbasbag57
(g73
g59
NtRp3618
(dp3619
g62
(dp3620
sg71
g3526
sg64
(lp3621
g57
(g78
g59
NtRp3622
(dp3623
g62
(dp3624
g82
g83
ssg71
g3618
sg64
(lp3625
S'X-Powered-By'
p3626
asbag57
(g78
g59
NtRp3627
(dp3628
g62
(dp3629
g89
g90
ssg71
g3618
sg64
(lp3630
S':'
asbag57
(g78
g59
NtRp3631
(dp3632
g62
(dp3633
sg71
g3618
sg64
(lp3634
g57
(g58
g59
NtRp3635
(dp3636
g62
(dp3637
g70
I4
ssg71
g3631
sg64
(lp3638
S'web2py'
p3639
asbasbasbasbasbasbasbag57
(g73
g59
NtRp3640
(dp3641
g62
(dp3642
sg71
g3137
sg64
(lp3643
g57
(g78
g59
NtRp3644
(dp3645
g62
(dp3646
g82
g83
ssg71
g3640
sg64
(lp3647
S'menu'
p3648
asbag57
(g78
g59
NtRp3649
(dp3650
g62
(dp3651
g89
g90
ssg71
g3640
sg64
(lp3652
S':'
asbag57
(g78
g59
NtRp3653
(dp3654
g62
(dp3655
sg71
g3640
sg64
(lp3656
g57
(g58
g59
NtRp3657
(dp3658
g62
(dp3659
g70
I5
ssg71
g3653
sg64
(lp3660
g57
(g66
g59
NtRp3661
(dp3662
g62
(dp3663
g70
I4
ssg71
Nsg64
(lp3664
g57
(g73
g59
NtRp3665
(dp3666
g62
(dp3667
sg71
g3661
sg64
(lp3668
g57
(g78
g59
NtRp3669
(dp3670
g62
(dp3671
sg71
g3665
sg64
(lp3672
g57
(g58
g59
NtRp3673
(dp3674
g62
(dp3675
g70
I4
ssg71
g3669
sg64
(lp3676
g57
(g66
g59
NtRp3677
(dp3678
g62
(dp3679
g70
I3
ssg71
Nsg64
(lp3680
g57
(g73
g59
NtRp3681
(dp3682
g62
(dp3683
sg71
g3677
sg64
(lp3684
g57
(g78
g59
NtRp3685
(dp3686
g62
(dp3687
sg71
g3681
sg64
(lp3688
g57
(g58
g59
NtRp3689
(dp3690
g62
(dp3691
g70
I3
ssg71
g3685
sg64
(lp3692
cgluon.languages
lazyT_unpickle
p3693
(S't\x04\x00\x00\x00Home'
tRp3694
asbasbasbag57
(g73
g59
NtRp3695
(dp3696
g62
(dp3697
sg71
g3677
sg64
(lp3698
g57
(g78
g59
NtRp3699
(dp3700
g62
(dp3701
sg71
g3695
sg64
(lp3702
g57
(g58
g59
NtRp3703
(dp3704
g62
(dp3705
g70
I3
ssg71
g3699
sg64
(lp3706
g100
asbasbasbag57
(g73
g59
NtRp3707
(dp3708
g62
(dp3709
sg71
g3677
sg64
(lp3710
g57
(g78
g59
NtRp3711
(dp3712
g62
(dp3713
sg71
g3707
sg64
(lp3714
g57
(g58
g59
NtRp3715
(dp3716
g62
(dp3717
g70
I3
ssg71
g3711
sg64
(lp3718
S'/mycrawler/default/index'
p3719
asbasbasbag57
(g73
g59
NtRp3720
(dp3721
g62
(dp3722
sg71
g3677
sg64
(lp3723
g57
(g78
g59
NtRp3724
(dp3725
g62
(dp3726
sg71
g3720
sg64
(lp3727
g57
(g58
g59
NtRp3728
(dp3729
g62
(dp3730
g70
I3
ssg71
g3724
sg64
(lp3731
g57
(g66
g59
NtRp3732
(dp3733
g62
(dp3734
g70
I2
ssg71
Nsg64
(lp3735
sbasbasbasbasbasbasbasbag57
(g73
g59
NtRp3736
(dp3737
g62
(dp3738
sg71
g3661
sg64
(lp3739
g57
(g78
g59
NtRp3740
(dp3741
g62
(dp3742
sg71
g3736
sg64
(lp3743
g57
(g58
g59
NtRp3744
(dp3745
g62
(dp3746
g70
I4
ssg71
g3740
sg64
(lp3747
g57
(g66
g59
NtRp3748
(dp3749
g62
(dp3750
g70
I3
ssg71
Nsg64
(lp3751
g57
(g73
g59
NtRp3752
(dp3753
g62
(dp3754
sg71
g3748
sg64
(lp3755
g57
(g78
g59
NtRp3756
(dp3757
g62
(dp3758
sg71
g3752
sg64
(lp3759
g57
(g58
g59
NtRp3760
(dp3761
g62
(dp3762
g70
I3
ssg71
g3756
sg64
(lp3763
g57
(cgluon.html
SPAN
p3764
g59
NtRp3765
(dp3766
g62
(dp3767
g82
S'color:yellow'
p3768
ssg71
Nsg64
(lp3769
g3639
asbasbasbasbag57
(g73
g59
NtRp3770
(dp3771
g62
(dp3772
sg71
g3748
sg64
(lp3773
g57
(g78
g59
NtRp3774
(dp3775
g62
(dp3776
sg71
g3770
sg64
(lp3777
g57
(g58
g59
NtRp3778
(dp3779
g62
(dp3780
g70
I3
ssg71
g3774
sg64
(lp3781
g100
asbasbasbag57
(g73
g59
NtRp3782
(dp3783
g62
(dp3784
sg71
g3748
sg64
(lp3785
g57
(g78
g59
NtRp3786
(dp3787
g62
(dp3788
sg71
g3782
sg64
(lp3789
g57
(g58
g59
NtRp3790
(dp3791
g62
(dp3792
g70
I3
ssg71
g3786
sg64
(lp3793
S'None'
p3794
asbasbasbag57
(g73
g59
NtRp3795
(dp3796
g62
(dp3797
sg71
g3748
sg64
(lp3798
g57
(g78
g59
NtRp3799
(dp3800
g62
(dp3801
sg71
g3795
sg64
(lp3802
g57
(g58
g59
NtRp3803
(dp3804
g62
(dp3805
g70
I3
ssg71
g3799
sg64
(lp3806
g57
(g66
g59
NtRp3807
(dp3808
g62
(dp3809
g70
I2
ssg71
Nsg64
(lp3810
g57
(g73
g59
NtRp3811
(dp3812
g62
(dp3813
sg71
g3807
sg64
(lp3814
g57
(g78
g59
NtRp3815
(dp3816
g62
(dp3817
sg71
g3811
sg64
(lp3818
g57
(g58
g59
NtRp3819
(dp3820
g62
(dp3821
g70
I2
ssg71
g3815
sg64
(lp3822
g57
(g66
g59
NtRp3823
(dp3824
g62
(dp3825
g70
I1
ssg71
Nsg64
(lp3826
g57
(g73
g59
NtRp3827
(dp3828
g62
(dp3829
sg71
g3823
sg64
(lp3830
g57
(g78
g59
NtRp3831
(dp3832
g62
(dp3833
sg71
g3827
sg64
(lp3834
g57
(g58
g59
NtRp3835
(dp3836
g62
(dp3837
g70
I1
ssg71
g3831
sg64
(lp3838
g3693
(S's\x08\x00\x00\x00My Sites'
tRp3839
asbasbasbag57
(g73
g59
NtRp3840
(dp3841
g62
(dp3842
sg71
g3823
sg64
(lp3843
g57
(g78
g59
NtRp3844
(dp3845
g62
(dp3846
sg71
g3840
sg64
(lp3847
g57
(g58
g59
NtRp3848
(dp3849
g62
(dp3850
g70
I1
ssg71
g3844
sg64
(lp3851
I00
asbasbasbag57
(g73
g59
NtRp3852
(dp3853
g62
(dp3854
sg71
g3823
sg64
(lp3855
g57
(g78
g59
NtRp3856
(dp3857
g62
(dp3858
sg71
g3852
sg64
(lp3859
g57
(g58
g59
NtRp3860
(dp3861
g62
(dp3862
g70
I1
ssg71
g3856
sg64
(lp3863
S'/admin/default/site'
p3864
asbasbasbasbasbasbasbag57
(g73
g59
NtRp3865
(dp3866
g62
(dp3867
sg71
g3807
sg64
(lp3868
g57
(g78
g59
NtRp3869
(dp3870
g62
(dp3871
sg71
g3865
sg64
(lp3872
g57
(g58
g59
NtRp3873
(dp3874
g62
(dp3875
g70
I2
ssg71
g3869
sg64
(lp3876
g57
(g66
g59
NtRp3877
(dp3878
g62
(dp3879
g70
I1
ssg71
Nsg64
(lp3880
g57
(g73
g59
NtRp3881
(dp3882
g62
(dp3883
sg71
g3877
sg64
(lp3884
g57
(g78
g59
NtRp3885
(dp3886
g62
(dp3887
sg71
g3881
sg64
(lp3888
g57
(g58
g59
NtRp3889
(dp3890
g62
(dp3891
g70
I1
ssg71
g3885
sg64
(lp3892
g3693
(S's\x08\x00\x00\x00This App'
tRp3893
asbasbasbag57
(g73
g59
NtRp3894
(dp3895
g62
(dp3896
sg71
g3877
sg64
(lp3897
g57
(g78
g59
NtRp3898
(dp3899
g62
(dp3900
sg71
g3894
sg64
(lp3901
g57
(g58
g59
NtRp3902
(dp3903
g62
(dp3904
g70
I1
ssg71
g3898
sg64
(lp3905
I00
asbasbasbag57
(g73
g59
NtRp3906
(dp3907
g62
(dp3908
sg71
g3877
sg64
(lp3909
g57
(g78
g59
NtRp3910
(dp3911
g62
(dp3912
sg71
g3906
sg64
(lp3913
g57
(g58
g59
NtRp3914
(dp3915
g62
(dp3916
g70
I1
ssg71
g3910
sg64
(lp3917
S'/admin/default/design/mycrawler'
p3918
asbasbasbag57
(g73
g59
NtRp3919
(dp3920
g62
(dp3921
sg71
g3877
sg64
(lp3922
g57
(g78
g59
NtRp3923
(dp3924
g62
(dp3925
sg71
g3919
sg64
(lp3926
g57
(g58
g59
NtRp3927
(dp3928
g62
(dp3929
g70
I1
ssg71
g3923
sg64
(lp3930
(lp3931
(g3693
(S't\n\x00\x00\x00Controller'
tRp3932
I00
S'/admin/default/edit/mycrawler/controllers/default.py'
tp3933
a(g3693
(S't\x04\x00\x00\x00View'
tRp3934
I00
S'/admin/default/edit/mycrawler/views/default/temp.html'
tp3935
a(g3693
(S't\x06\x00\x00\x00Layout'
tRp3936
I00
S'/admin/default/edit/mycrawler/views/layout.html'
tp3937
a(g3693
(S't\n\x00\x00\x00Stylesheet'
tRp3938
I00
S'/admin/default/edit/mycrawler/static/css/web2py.css'
tp3939
a(g3693
(S's\x08\x00\x00\x00DB Model'
tRp3940
I00
S'/admin/default/edit/mycrawler/models/db.py'
tp3941
a(g3693
(S's\n\x00\x00\x00Menu Model'
tRp3942
I00
S'/admin/default/edit/mycrawler/models/menu.py'
tp3943
a(g3693
(S't\x08\x00\x00\x00Database'
tRp3944
I00
S'/mycrawler/appadmin/index'
tp3945
a(g3693
(S't\x06\x00\x00\x00Errors'
tRp3946
I00
S'/admin/default/errors/mycrawler'
tp3947
a(g3693
(S't\x05\x00\x00\x00About'
tRp3948
I00
S'/admin/default/about/mycrawler'
tp3949
aasbasbasbasbasbasbasbag57
(g73
g59
NtRp3950
(dp3951
g62
(dp3952
sg71
g3807
sg64
(lp3953
g57
(g78
g59
NtRp3954
(dp3955
g62
(dp3956
sg71
g3950
sg64
(lp3957
g57
(g58
g59
NtRp3958
(dp3959
g62
(dp3960
g70
I2
ssg71
g3954
sg64
(lp3961
g57
(g66
g59
NtRp3962
(dp3963
g62
(dp3964
g70
I1
ssg71
Nsg64
(lp3965
g57
(g73
g59
NtRp3966
(dp3967
g62
(dp3968
sg71
g3962
sg64
(lp3969
g57
(g78
g59
NtRp3970
(dp3971
g62
(dp3972
sg71
g3966
sg64
(lp3973
g57
(g58
g59
NtRp3974
(dp3975
g62
(dp3976
g70
I1
ssg71
g3970
sg64
(lp3977
S'web2py.com'
p3978
asbasbasbag57
(g73
g59
NtRp3979
(dp3980
g62
(dp3981
sg71
g3962
sg64
(lp3982
g57
(g78
g59
NtRp3983
(dp3984
g62
(dp3985
sg71
g3979
sg64
(lp3986
g57
(g58
g59
NtRp3987
(dp3988
g62
(dp3989
g70
I1
ssg71
g3983
sg64
(lp3990
I00
asbasbasbag57
(g73
g59
NtRp3991
(dp3992
g62
(dp3993
sg71
g3962
sg64
(lp3994
g57
(g78
g59
NtRp3995
(dp3996
g62
(dp3997
sg71
g3991
sg64
(lp3998
g57
(g58
g59
NtRp3999
(dp4000
g62
(dp4001
g70
I1
ssg71
g3995
sg64
(lp4002
S'http://www.web2py.com'
p4003
asbasbasbag57
(g73
g59
NtRp4004
(dp4005
g62
(dp4006
sg71
g3962
sg64
(lp4007
g57
(g78
g59
NtRp4008
(dp4009
g62
(dp4010
sg71
g4004
sg64
(lp4011
g57
(g58
g59
NtRp4012
(dp4013
g62
(dp4014
g70
I1
ssg71
g4008
sg64
(lp4015
(lp4016
(g3693
(S't\x08\x00\x00\x00Download'
tRp4017
I00
S'http://www.web2py.com/examples/default/download'
p4018
tp4019
a(g3693
(S't\x07\x00\x00\x00Support'
tRp4020
I00
S'http://www.web2py.com/examples/default/support'
p4021
tp4022
a(g3693
(S't\x04\x00\x00\x00Demo'
tRp4023
I00
S'http://web2py.com/demo_admin'
p4024
tp4025
a(g3693
(S's\x0e\x00\x00\x00Quick Examples'
tRp4026
I00
S'http://web2py.com/examples/default/examples'
p4027
tp4028
a(g3693
(S't\x03\x00\x00\x00FAQ'
tRp4029
I00
S'http://web2py.com/AlterEgo'
p4030
tp4031
a(g3693
(S't\x06\x00\x00\x00Videos'
tRp4032
I00
S'http://www.web2py.com/examples/default/videos/'
p4033
tp4034
a(g3693
(S's\x11\x00\x00\x00Free Applications'
tRp4035
I00
S'http://web2py.com/appliances'
p4036
tp4037
a(g3693
(S't\x07\x00\x00\x00Plugins'
tRp4038
I00
S'http://web2py.com/plugins'
p4039
tp4040
a(g3693
(S't\x07\x00\x00\x00Layouts'
tRp4041
I00
S'http://web2py.com/layouts'
p4042
tp4043
a(g3693
(S't\x07\x00\x00\x00Recipes'
tRp4044
I00
S'http://web2pyslices.com/'
p4045
tp4046
a(g3693
(S't\x08\x00\x00\x00Semantic'
tRp4047
I00
S'http://web2py.com/semantic'
p4048
tp4049
aasbasbasbasbasbasbasbag57
(g73
g59
NtRp4050
(dp4051
g62
(dp4052
sg71
g3807
sg64
(lp4053
g57
(g78
g59
NtRp4054
(dp4055
g62
(dp4056
sg71
g4050
sg64
(lp4057
g57
(g58
g59
NtRp4058
(dp4059
g62
(dp4060
g70
I2
ssg71
g4054
sg64
(lp4061
g57
(g66
g59
NtRp4062
(dp4063
g62
(dp4064
g70
I1
ssg71
Nsg64
(lp4065
g57
(g73
g59
NtRp4066
(dp4067
g62
(dp4068
sg71
g4062
sg64
(lp4069
g57
(g78
g59
NtRp4070
(dp4071
g62
(dp4072
sg71
g4066
sg64
(lp4073
g57
(g58
g59
NtRp4074
(dp4075
g62
(dp4076
g70
I1
ssg71
g4070
sg64
(lp4077
g3693
(S't\r\x00\x00\x00Documentation'
tRp4078
asbasbasbag57
(g73
g59
NtRp4079
(dp4080
g62
(dp4081
sg71
g4062
sg64
(lp4082
g57
(g78
g59
NtRp4083
(dp4084
g62
(dp4085
sg71
g4079
sg64
(lp4086
g57
(g58
g59
NtRp4087
(dp4088
g62
(dp4089
g70
I1
ssg71
g4083
sg64
(lp4090
I00
asbasbasbag57
(g73
g59
NtRp4091
(dp4092
g62
(dp4093
sg71
g4062
sg64
(lp4094
g57
(g78
g59
NtRp4095
(dp4096
g62
(dp4097
sg71
g4091
sg64
(lp4098
g57
(g58
g59
NtRp4099
(dp4100
g62
(dp4101
g70
I1
ssg71
g4095
sg64
(lp4102
S'http://www.web2py.com/book'
p4103
asbasbasbag57
(g73
g59
NtRp4104
(dp4105
g62
(dp4106
sg71
g4062
sg64
(lp4107
g57
(g78
g59
NtRp4108
(dp4109
g62
(dp4110
sg71
g4104
sg64
(lp4111
g57
(g58
g59
NtRp4112
(dp4113
g62
(dp4114
g70
I1
ssg71
g4108
sg64
(lp4115
(lp4116
(g3693
(S't\x07\x00\x00\x00Preface'
tRp4117
I00
S'http://www.web2py.com/book/default/chapter/00'
p4118
tp4119
a(g3693
(S't\x0c\x00\x00\x00Introduction'
tRp4120
I00
S'http://www.web2py.com/book/default/chapter/01'
p4121
tp4122
a(g3693
(S't\x06\x00\x00\x00Python'
tRp4123
I00
S'http://www.web2py.com/book/default/chapter/02'
p4124
tp4125
a(g3693
(S't\x08\x00\x00\x00Overview'
tRp4126
I00
S'http://www.web2py.com/book/default/chapter/03'
p4127
tp4128
a(g3693
(S's\x08\x00\x00\x00The Core'
tRp4129
I00
S'http://www.web2py.com/book/default/chapter/04'
p4130
tp4131
a(g3693
(S's\t\x00\x00\x00The Views'
tRp4132
I00
S'http://www.web2py.com/book/default/chapter/05'
p4133
tp4134
a(g3693
(S't\x08\x00\x00\x00Database'
tRp4135
I00
S'http://www.web2py.com/book/default/chapter/06'
p4136
tp4137
a(g3693
(S's\x14\x00\x00\x00Forms and Validators'
tRp4138
I00
S'http://www.web2py.com/book/default/chapter/07'
p4139
tp4140
a(g3693
(S's\r\x00\x00\x00Email and SMS'
tRp4141
I00
S'http://www.web2py.com/book/default/chapter/08'
p4142
tp4143
a(g3693
(S's\x0e\x00\x00\x00Access Control'
tRp4144
I00
S'http://www.web2py.com/book/default/chapter/09'
p4145
tp4146
a(g3693
(S't\x08\x00\x00\x00Services'
tRp4147
I00
S'http://www.web2py.com/book/default/chapter/10'
p4148
tp4149
a(g3693
(S's\x0c\x00\x00\x00Ajax Recipes'
tRp4150
I00
S'http://www.web2py.com/book/default/chapter/11'
p4151
tp4152
a(g3693
(S's\x16\x00\x00\x00Components and Plugins'
tRp4153
I00
S'http://www.web2py.com/book/default/chapter/12'
p4154
tp4155
a(g3693
(S's\x12\x00\x00\x00Deployment Recipes'
tRp4156
I00
S'http://www.web2py.com/book/default/chapter/13'
p4157
tp4158
a(g3693
(S's\r\x00\x00\x00Other Recipes'
tRp4159
I00
S'http://www.web2py.com/book/default/chapter/14'
p4160
tp4161
a(g3693
(S's\r\x00\x00\x00Buy this book'
tRp4162
I00
S'http://stores.lulu.com/web2py'
p4163
tp4164
aasbasbasbasbasbasbasbag57
(g73
g59
NtRp4165
(dp4166
g62
(dp4167
sg71
g3807
sg64
(lp4168
g57
(g78
g59
NtRp4169
(dp4170
g62
(dp4171
sg71
g4165
sg64
(lp4172
g57
(g58
g59
NtRp4173
(dp4174
g62
(dp4175
g70
I2
ssg71
g4169
sg64
(lp4176
g57
(g66
g59
NtRp4177
(dp4178
g62
(dp4179
g70
I1
ssg71
Nsg64
(lp4180
g57
(g73
g59
NtRp4181
(dp4182
g62
(dp4183
sg71
g4177
sg64
(lp4184
g57
(g78
g59
NtRp4185
(dp4186
g62
(dp4187
sg71
g4181
sg64
(lp4188
g57
(g58
g59
NtRp4189
(dp4190
g62
(dp4191
g70
I1
ssg71
g4185
sg64
(lp4192
g3693
(S't\t\x00\x00\x00Community'
tRp4193
asbasbasbag57
(g73
g59
NtRp4194
(dp4195
g62
(dp4196
sg71
g4177
sg64
(lp4197
g57
(g78
g59
NtRp4198
(dp4199
g62
(dp4200
sg71
g4194
sg64
(lp4201
g57
(g58
g59
NtRp4202
(dp4203
g62
(dp4204
g70
I1
ssg71
g4198
sg64
(lp4205
I00
asbasbasbag57
(g73
g59
NtRp4206
(dp4207
g62
(dp4208
sg71
g4177
sg64
(lp4209
g57
(g78
g59
NtRp4210
(dp4211
g62
(dp4212
sg71
g4206
sg64
(lp4213
g57
(g58
g59
NtRp4214
(dp4215
g62
(dp4216
g70
I1
ssg71
g4210
sg64
(lp4217
Nasbasbasbag57
(g73
g59
NtRp4218
(dp4219
g62
(dp4220
sg71
g4177
sg64
(lp4221
g57
(g78
g59
NtRp4222
(dp4223
g62
(dp4224
sg71
g4218
sg64
(lp4225
g57
(g58
g59
NtRp4226
(dp4227
g62
(dp4228
g70
I1
ssg71
g4222
sg64
(lp4229
(lp4230
(g3693
(S't\x06\x00\x00\x00Groups'
tRp4231
I00
S'http://www.web2py.com/examples/default/usergroups'
p4232
tp4233
a(g3693
(S't\x07\x00\x00\x00Twitter'
tRp4234
I00
S'http://twitter.com/web2py'
p4235
tp4236
a(g3693
(S's\t\x00\x00\x00Live Chat'
tRp4237
I00
S'http://webchat.freenode.net/?channels=web2py'
p4238
tp4239
aasbasbasbasbasbasbasbag57
(g73
g59
NtRp4240
(dp4241
g62
(dp4242
sg71
g3807
sg64
(lp4243
g57
(g78
g59
NtRp4244
(dp4245
g62
(dp4246
sg71
g4240
sg64
(lp4247
g57
(g58
g59
NtRp4248
(dp4249
g62
(dp4250
g70
I2
ssg71
g4244
sg64
(lp4251
g57
(g66
g59
NtRp4252
(dp4253
g62
(dp4254
g70
I1
ssg71
Nsg64
(lp4255
g57
(g73
g59
NtRp4256
(dp4257
g62
(dp4258
sg71
g4252
sg64
(lp4259
g57
(g78
g59
NtRp4260
(dp4261
g62
(dp4262
sg71
g4256
sg64
(lp4263
g57
(g58
g59
NtRp4264
(dp4265
g62
(dp4266
g70
I1
ssg71
g4260
sg64
(lp4267
g3693
(S't\x07\x00\x00\x00Plugins'
tRp4268
asbasbasbag57
(g73
g59
NtRp4269
(dp4270
g62
(dp4271
sg71
g4252
sg64
(lp4272
g57
(g78
g59
NtRp4273
(dp4274
g62
(dp4275
sg71
g4269
sg64
(lp4276
g57
(g58
g59
NtRp4277
(dp4278
g62
(dp4279
g70
I1
ssg71
g4273
sg64
(lp4280
I00
asbasbasbag57
(g73
g59
NtRp4281
(dp4282
g62
(dp4283
sg71
g4252
sg64
(lp4284
g57
(g78
g59
NtRp4285
(dp4286
g62
(dp4287
sg71
g4281
sg64
(lp4288
g57
(g58
g59
NtRp4289
(dp4290
g62
(dp4291
g70
I1
ssg71
g4285
sg64
(lp4292
Nasbasbasbag57
(g73
g59
NtRp4293
(dp4294
g62
(dp4295
sg71
g4252
sg64
(lp4296
g57
(g78
g59
NtRp4297
(dp4298
g62
(dp4299
sg71
g4293
sg64
(lp4300
g57
(g58
g59
NtRp4301
(dp4302
g62
(dp4303
g70
I1
ssg71
g4297
sg64
(lp4304
(lp4305
(S'plugin_wiki'
p4306
I00
S'http://web2py.com/examples/default/download'
p4307
tp4308
a(g3693
(S's\r\x00\x00\x00Other Plugins'
tRp4309
I00
g4039
tp4310
a(g3693
(S's\x0e\x00\x00\x00Layout Plugins'
tRp4311
I00
g4042
tp4312
aasbasbasbasbasbasbasbasbasbasbasbasbasbasbasbasbasbasbasbag57
(g73
g59
NtRp4313
(dp4314
g62
(dp4315
sg71
g3137
sg64
(lp4316
g57
(g78
g59
NtRp4317
(dp4318
g62
(dp4319
g82
g83
ssg71
g4313
sg64
(lp4320
S'meta'
p4321
asbag57
(g78
g59
NtRp4322
(dp4323
g62
(dp4324
g89
g90
ssg71
g4313
sg64
(lp4325
S':'
asbag57
(g78
g59
NtRp4326
(dp4327
g62
(dp4328
sg71
g4313
sg64
(lp4329
g57
(g58
g59
NtRp4330
(dp4331
g62
(dp4332
g70
I5
ssg71
g4326
sg64
(lp4333
g57
(g66
g59
NtRp4334
(dp4335
g62
(dp4336
g70
I4
ssg71
Nsg64
(lp4337
g57
(g73
g59
NtRp4338
(dp4339
g62
(dp4340
sg71
g4334
sg64
(lp4341
g57
(g78
g59
NtRp4342
(dp4343
g62
(dp4344
g82
g83
ssg71
g4338
sg64
(lp4345
S'author'
p4346
asbag57
(g78
g59
NtRp4347
(dp4348
g62
(dp4349
g89
g90
ssg71
g4338
sg64
(lp4350
S':'
asbag57
(g78
g59
NtRp4351
(dp4352
g62
(dp4353
sg71
g4338
sg64
(lp4354
g57
(g58
g59
NtRp4355
(dp4356
g62
(dp4357
g70
I4
ssg71
g4351
sg64
(lp4358
S'Your Name <you@example.com>'
p4359
asbasbasbag57
(g73
g59
NtRp4360
(dp4361
g62
(dp4362
sg71
g4334
sg64
(lp4363
g57
(g78
g59
NtRp4364
(dp4365
g62
(dp4366
g82
g83
ssg71
g4360
sg64
(lp4367
S'copyright'
p4368
asbag57
(g78
g59
NtRp4369
(dp4370
g62
(dp4371
g89
g90
ssg71
g4360
sg64
(lp4372
S':'
asbag57
(g78
g59
NtRp4373
(dp4374
g62
(dp4375
sg71
g4360
sg64
(lp4376
g57
(g58
g59
NtRp4377
(dp4378
g62
(dp4379
g70
I4
ssg71
g4373
sg64
(lp4380
S'Copyright 2011'
p4381
asbasbasbag57
(g73
g59
NtRp4382
(dp4383
g62
(dp4384
sg71
g4334
sg64
(lp4385
g57
(g78
g59
NtRp4386
(dp4387
g62
(dp4388
g82
g83
ssg71
g4382
sg64
(lp4389
S'description'
p4390
asbag57
(g78
g59
NtRp4391
(dp4392
g62
(dp4393
g89
g90
ssg71
g4382
sg64
(lp4394
S':'
asbag57
(g78
g59
NtRp4395
(dp4396
g62
(dp4397
sg71
g4382
sg64
(lp4398
g57
(g58
g59
NtRp4399
(dp4400
g62
(dp4401
g70
I4
ssg71
g4395
sg64
(lp4402
S'a cool new app'
p4403
asbasbasbag57
(g73
g59
NtRp4404
(dp4405
g62
(dp4406
sg71
g4334
sg64
(lp4407
g57
(g78
g59
NtRp4408
(dp4409
g62
(dp4410
g82
g83
ssg71
g4404
sg64
(lp4411
S'generator'
p4412
asbag57
(g78
g59
NtRp4413
(dp4414
g62
(dp4415
g89
g90
ssg71
g4404
sg64
(lp4416
S':'
asbag57
(g78
g59
NtRp4417
(dp4418
g62
(dp4419
sg71
g4404
sg64
(lp4420
g57
(g58
g59
NtRp4421
(dp4422
g62
(dp4423
g70
I4
ssg71
g4417
sg64
(lp4424
S'Web2py Web Framework'
p4425
asbasbasbag57
(g73
g59
NtRp4426
(dp4427
g62
(dp4428
sg71
g4334
sg64
(lp4429
g57
(g78
g59
NtRp4430
(dp4431
g62
(dp4432
g82
g83
ssg71
g4426
sg64
(lp4433
S'keywords'
p4434
asbag57
(g78
g59
NtRp4435
(dp4436
g62
(dp4437
g89
g90
ssg71
g4426
sg64
(lp4438
S':'
asbag57
(g78
g59
NtRp4439
(dp4440
g62
(dp4441
sg71
g4426
sg64
(lp4442
g57
(g58
g59
NtRp4443
(dp4444
g62
(dp4445
g70
I4
ssg71
g4439
sg64
(lp4446
S'web2py, python, framework'
p4447
asbasbasbasbasbasbasbag57
(g73
g59
NtRp4448
(dp4449
g62
(dp4450
sg71
g3137
sg64
(lp4451
g57
(g78
g59
NtRp4452
(dp4453
g62
(dp4454
g82
g83
ssg71
g4448
sg64
(lp4455
S'postprocessing'
p4456
asbag57
(g78
g59
NtRp4457
(dp4458
g62
(dp4459
g89
g90
ssg71
g4448
sg64
(lp4460
S':'
asbag57
(g78
g59
NtRp4461
(dp4462
g62
(dp4463
sg71
g4448
sg64
(lp4464
g57
(g58
g59
NtRp4465
(dp4466
g62
(dp4467
g70
I5
ssg71
g4461
sg64
(lp4468
g57
(g66
g59
NtRp4469
(dp4470
g62
(dp4471
g70
I4
ssg71
Nsg64
(lp4472
sbasbasbasbag57
(g73
g59
NtRp4473
(dp4474
g62
(dp4475
sg71
g3137
sg64
(lp4476
g57
(g78
g59
NtRp4477
(dp4478
g62
(dp4479
g82
g83
ssg71
g4473
sg64
(lp4480
S'session_file'
p4481
asbag57
(g78
g59
NtRp4482
(dp4483
g62
(dp4484
g89
g90
ssg71
g4473
sg64
(lp4485
S':'
asbag57
(g78
g59
NtRp4486
(dp4487
g62
(dp4488
sg71
g4473
sg64
(lp4489
g57
(g58
g59
NtRp4490
(dp4491
g62
(dp4492
g70
I5
ssg71
g4486
sg64
(lp4493
S"<open file 'C:\\Documents and Settings\\agrover\\Desktop\\previous crawler\\web2py\\applications\\mycrawler\\sessions\\127.0.0.1-1168ec91-5549-4bd8-a5d3-1c118d39abce', mode 'rb+' at 0x0564E1D8>"
p4494
asbasbasbag57
(g73
g59
NtRp4495
(dp4496
g62
(dp4497
sg71
g3137
sg64
(lp4498
g57
(g78
g59
NtRp4499
(dp4500
g62
(dp4501
g82
g83
ssg71
g4495
sg64
(lp4502
S'session_filename'
p4503
asbag57
(g78
g59
NtRp4504
(dp4505
g62
(dp4506
g89
g90
ssg71
g4495
sg64
(lp4507
S':'
asbag57
(g78
g59
NtRp4508
(dp4509
g62
(dp4510
sg71
g4495
sg64
(lp4511
g57
(g58
g59
NtRp4512
(dp4513
g62
(dp4514
g70
I5
ssg71
g4508
sg64
(lp4515
S'C:\\Documents and Settings\\agrover\\Desktop\\previous crawler\\web2py\\applications\\mycrawler\\sessions\\127.0.0.1-1168ec91-5549-4bd8-a5d3-1c118d39abce'
p4516
asbasbasbag57
(g73
g59
NtRp4517
(dp4518
g62
(dp4519
sg71
g3137
sg64
(lp4520
g57
(g78
g59
NtRp4521
(dp4522
g62
(dp4523
g82
g83
ssg71
g4517
sg64
(lp4524
S'session_id'
p4525
asbag57
(g78
g59
NtRp4526
(dp4527
g62
(dp4528
g89
g90
ssg71
g4517
sg64
(lp4529
S':'
asbag57
(g78
g59
NtRp4530
(dp4531
g62
(dp4532
sg71
g4517
sg64
(lp4533
g57
(g58
g59
NtRp4534
(dp4535
g62
(dp4536
g70
I5
ssg71
g4530
sg64
(lp4537
S'127.0.0.1-1168ec91-5549-4bd8-a5d3-1c118d39abce'
p4538
asbasbasbag57
(g73
g59
NtRp4539
(dp4540
g62
(dp4541
sg71
g3137
sg64
(lp4542
g57
(g78
g59
NtRp4543
(dp4544
g62
(dp4545
g82
g83
ssg71
g4539
sg64
(lp4546
S'session_id_name'
p4547
asbag57
(g78
g59
NtRp4548
(dp4549
g62
(dp4550
g89
g90
ssg71
g4539
sg64
(lp4551
S':'
asbag57
(g78
g59
NtRp4552
(dp4553
g62
(dp4554
sg71
g4539
sg64
(lp4555
g57
(g58
g59
NtRp4556
(dp4557
g62
(dp4558
g70
I5
ssg71
g4552
sg64
(lp4559
g3194
asbasbasbag57
(g73
g59
NtRp4560
(dp4561
g62
(dp4562
sg71
g3137
sg64
(lp4563
g57
(g78
g59
NtRp4564
(dp4565
g62
(dp4566
g82
g83
ssg71
g4560
sg64
(lp4567
S'session_locked'
p4568
asbag57
(g78
g59
NtRp4569
(dp4570
g62
(dp4571
g89
g90
ssg71
g4560
sg64
(lp4572
S':'
asbag57
(g78
g59
NtRp4573
(dp4574
g62
(dp4575
sg71
g4560
sg64
(lp4576
g57
(g58
g59
NtRp4577
(dp4578
g62
(dp4579
g70
I5
ssg71
g4573
sg64
(lp4580
g1678
asbasbasbag57
(g73
g59
NtRp4581
(dp4582
g62
(dp4583
sg71
g3137
sg64
(lp4584
g57
(g78
g59
NtRp4585
(dp4586
g62
(dp4587
g82
g83
ssg71
g4581
sg64
(lp4588
S'session_new'
p4589
asbag57
(g78
g59
NtRp4590
(dp4591
g62
(dp4592
g89
g90
ssg71
g4581
sg64
(lp4593
S':'
asbag57
(g78
g59
NtRp4594
(dp4595
g62
(dp4596
sg71
g4581
sg64
(lp4597
g57
(g58
g59
NtRp4598
(dp4599
g62
(dp4600
g70
I5
ssg71
g4594
sg64
(lp4601
g100
asbasbasbag57
(g73
g59
NtRp4602
(dp4603
g62
(dp4604
sg71
g3137
sg64
(lp4605
g57
(g78
g59
NtRp4606
(dp4607
g62
(dp4608
g82
g83
ssg71
g4602
sg64
(lp4609
S'status'
p4610
asbag57
(g78
g59
NtRp4611
(dp4612
g62
(dp4613
g89
g90
ssg71
g4602
sg64
(lp4614
S':'
asbag57
(g78
g59
NtRp4615
(dp4616
g62
(dp4617
sg71
g4602
sg64
(lp4618
g57
(g58
g59
NtRp4619
(dp4620
g62
(dp4621
g70
I5
ssg71
g4615
sg64
(lp4622
S'200'
p4623
asbasbasbag57
(g73
g59
NtRp4624
(dp4625
g62
(dp4626
sg71
g3137
sg64
(lp4627
g57
(g78
g59
NtRp4628
(dp4629
g62
(dp4630
g82
g83
ssg71
g4624
sg64
(lp4631
S'subtitle'
p4632
asbag57
(g78
g59
NtRp4633
(dp4634
g62
(dp4635
g89
g90
ssg71
g4624
sg64
(lp4636
S':'
asbag57
(g78
g59
NtRp4637
(dp4638
g62
(dp4639
sg71
g4624
sg64
(lp4640
g57
(g58
g59
NtRp4641
(dp4642
g62
(dp4643
g70
I5
ssg71
g4637
sg64
(lp4644
g3693
(S's\r\x00\x00\x00customize me!'
tRp4645
asbasbasbag57
(g73
g59
NtRp4646
(dp4647
g62
(dp4648
sg71
g3137
sg64
(lp4649
g57
(g78
g59
NtRp4650
(dp4651
g62
(dp4652
g82
g83
ssg71
g4646
sg64
(lp4653
S'title'
p4654
asbag57
(g78
g59
NtRp4655
(dp4656
g62
(dp4657
g89
g90
ssg71
g4646
sg64
(lp4658
S':'
asbag57
(g78
g59
NtRp4659
(dp4660
g62
(dp4661
sg71
g4646
sg64
(lp4662
g57
(g58
g59
NtRp4663
(dp4664
g62
(dp4665
g70
I5
ssg71
g4659
sg64
(lp4666
S'Mycrawler'
p4667
asbasbasbag57
(g73
g59
NtRp4668
(dp4669
g62
(dp4670
sg71
g3137
sg64
(lp4671
g57
(g78
g59
NtRp4672
(dp4673
g62
(dp4674
g82
g83
ssg71
g4668
sg64
(lp4675
g2342
asbag57
(g78
g59
NtRp4676
(dp4677
g62
(dp4678
g89
g90
ssg71
g4668
sg64
(lp4679
S':'
asbag57
(g78
g59
NtRp4680
(dp4681
g62
(dp4682
sg71
g4668
sg64
(lp4683
g57
(g58
g59
NtRp4684
(dp4685
g62
(dp4686
g70
I5
ssg71
g4680
sg64
(lp4687
g2355
asbasbasbag57
(g73
g59
NtRp4688
(dp4689
g62
(dp4690
sg71
g3137
sg64
(lp4691
g57
(g78
g59
NtRp4692
(dp4693
g62
(dp4694
g82
g83
ssg71
g4688
sg64
(lp4695
S'view'
p4696
asbag57
(g78
g59
NtRp4697
(dp4698
g62
(dp4699
g89
g90
ssg71
g4688
sg64
(lp4700
S':'
asbag57
(g78
g59
NtRp4701
(dp4702
g62
(dp4703
sg71
g4688
sg64
(lp4704
g57
(g58
g59
NtRp4705
(dp4706
g62
(dp4707
g70
I5
ssg71
g4701
sg64
(lp4708
S'default/temp.html'
p4709
asbasbasbasbasbsS'locals'
p4710
(dp4711
ssS'traceback'
p4712
S'Traceback (most recent call last):\n  File "C:\\Documents and Settings\\agrover\\Desktop\\previous crawler\\web2py\\gluon\\restricted.py", line 205, in restricted\n    exec ccode in environment\n  File "C:\\Documents and Settings\\agrover\\Desktop\\previous crawler\\web2py\\applications\\mycrawler\\controllers/default.py", line 634, in <module>\n  File "C:\\Documents and Settings\\agrover\\Desktop\\previous crawler\\web2py\\gluon\\globals.py", line 173, in <lambda>\n    self._caller = lambda f: f()\n  File "C:\\Documents and Settings\\agrover\\Desktop\\previous crawler\\web2py\\applications\\mycrawler\\controllers/default.py", line 575, in temp\n    return c_response.getvalue()\nNameError: global name \'c_response\' is not defined\n'
p4713
s.