(dp1
S'output'
p2
S"<type 'exceptions.UnicodeDecodeError'> 'ascii' codec can't decode byte 0xc3 in position 1: ordinal not in range(128)"
p3
sS'layer'
p4
S'C:\\Documents and Settings\\agrover\\Desktop\\previous crawler\\web2py\\applications\\mycrawler\\controllers/default.py'
p5
sS'code'
p6
S'# -*- coding: utf-8 -*-\n# this file is released under public domain and you can use without limitations\n\n#########################################################################\n## This is a samples controller\n## - index is the default action of any application\n## - user is required for authentication and authorization\n## - download is for downloading files uploaded in the db (does streaming)\n## - call exposes all registered services (none by default)\n#########################################################################\nimport cStringIO\nimport csv\nimport re\ncountry=[\'United States\', \'Afghanistan\', \'Aland Islands\', \'Albania\', \'Algeria\', \'American Samoa\', \'Andorra\', \'Angola\', \'Anguilla\', \'Antarctica\', \'Antigua and Barbuda\', \'Argentina\', \'Armenia\', \'Aruba\', \'Australia\', \'Austria\', \'Azerbaijan\', \'Bahamas\', \'Bahrain\', \'Bangladesh\', \'Barbados\', \'Belarus\', \'Belgium\', \'Belize\', \'Benin\', \'Bermuda\', \'Bhutan\', \'Bolivia\', \'Bosnia and Herzegovina\', \'Botswana\', \'Brazil\', \'British Indian Ocean Territory\', \'Brunei Darussalam\', \'Bulgaria\', \'Burkina Faso\', \'Burundi\', \'Cambodia\', \'Cameroon\', \'Canada\', \'Cape Verde\', \'Caribbean Nations\', \'Cayman Islands\', \'Central African Republic\', \'Chad\', \'Chile\', \'China\', \'Christmas Island\', \'Cocos (Keeling) Islands\', \'Colombia\', \'Comoros\', \'Congo\', \'Cook Islands\', \'Costa Rica\', "Cote D\'Ivoire (Ivory Coast)", \'Croatia\', \'Cuba\', \'Cyprus\', \'Czech Republic\', \'Democratic Republic of the Congo\', \'Denmark\', \'Djibouti\', \'Dominica\', \'Dominican Republic\', \'East Timor\', \'Ecuador\', \'Egypt\', \'El Salvador\', \'Equatorial Guinea\', \'Eritrea\', \'Estonia\', \'Ethiopia\', \'Falkland Islands (Malvinas)\', \'Faroe Islands\', \'Federated States of Micronesia\', \'Fiji\', \'Finland\', \'France\', \'French Guiana\', \'French Polynesia\', \'French Southern Territories\', \'Gabon\', \'Gambia\', \'Georgia\', \'Germany\', \'Ghana\', \'Gibraltar\', \'Greece\', \'Greenland\', \'Grenada\', \'Guadeloupe\', \'Guam\', \'Guatemala\', \'Guernsey\', \'Guinea\', \'Guinea-Bissau\', \'Guyana\', \'Haiti\', \'Honduras\', \'Hong Kong\', \'Hungary\', \'Iceland\', \'India\', \'Indonesia\', \'Iran\', \'Iraq\', \'Ireland\', \'Isle of Man\', \'Israel\', \'Italy\', \'Jamaica\', \'Japan\', \'Jersey\', \'Jordan\', \'Kazakhstan\', \'Kenya\', \'Kiribati\', \'Korea\', \'Korea (North)\', \'Kuwait\', \'Kyrgyzstan\', \'Laos\', \'Latvia\', \'Lebanon\', \'Lesotho\', \'Liberia\', \'Libya\', \'Liechtenstein\', \'Lithuania\', \'Luxembourg\', \'Macao\', \'Macedonia\', \'Madagascar\', \'Malawi\', \'Malaysia\', \'Maldives\', \'Mali\', \'Malta\', \'Marshall Islands\', \'Martinique\', \'Mauritania\', \'Mauritius\', \'Mayotte\', \'Mexico\', \'Moldova\', \'Monaco\', \'Mongolia\', \'Montenegro\', \'Montserrat\', \'Morocco\', \'Mozambique\', \'Myanmar\', \'Namibia\', \'Nauru\', \'Nepal\', \'Netherlands\', \'Netherlands Antilles\', \'New Caledonia\', \'New Zealand\', \'Nicaragua\', \'Niger\', \'Nigeria\', \'Niue\', \'Norfolk Island\', \'Northern Mariana Islands\', \'Norway\', \'Oman\', \'Pakistan\', \'Palau\', \'Palestinian Territory\', \'Panama\', \'Papua New Guinea\', \'Paraguay\', \'Peru\', \'Philippines\', \'Pitcairn\', \'Poland\', \'Portugal\', \'Puerto Rico\', \'Qatar\', \'Reunion\', \'Romania\', \'Russian Federation\', \'Rwanda\', \'Saint Helena\', \'Saint Kitts and Nevis\', \'Saint Lucia\', \'Saint Pierre and Miquelon\', \'Saint Vincent and the Grenadines\', \'Samoa\', \'San Marino\', \'Sao Tome and Principe\', \'Saudi Arabia\', \'Senegal\', \'Serbia\', \'Seychelles\', \'Sierra Leone\', \'Singapore\', \'Slovak Republic\', \'Slovenia\', \'Solomon Islands\', \'Somalia\', \'South Africa\', \'Spain\', \'Sri Lanka\', \'Sudan\', \'Suriname\', \'Svalbard and Jan Mayen\', \'Swaziland\', \'Sweden\', \'Switzerland\', \'Syria\', \'Taiwan\', \'Tajikistan\', \'Tanzania\', \'Thailand\', \'Timor-Leste\', \'Togo\', \'Tokelau\', \'Tonga\', \'Trinidad and Tobago\', \'Tunisia\', \'Turkey\', \'Turkmenistan\', \'Turks and Caicos Islands\', \'Tuvalu\', \'Uganda\', \'Ukraine\', \'United Arab Emirates\', \'United Kingdom\', \'Uruguay\', \'Uzbekistan\', \'Vanuatu\', \'Vatican City State (Holy See)\', \'Venezuela\', \'Vietnam\', \'Virgin Islands (British)\', \'Virgin Islands (U.S.)\', \'Wallis and Futuna\', \'Western Sahara\', \'Yemen\', \'Zambia\', \'Zimbabwe\', \'Other\']\n    \ncountryid=[\'us\', \'af\', \'ax\', \'al\', \'dz\', \'as\', \'ad\', \'ao\', \'ai\', \'aq\', \'ag\', \'ar\', \'am\', \'aw\', \'au\', \'at\', \'az\', \'bs\', \'bh\', \'bd\', \'bb\', \'by\', \'be\', \'bz\', \'bj\', \'bm\', \'bt\', \'bo\', \'ba\', \'bw\', \'br\', \'io\', \'bn\', \'bg\', \'bf\', \'bi\', \'kh\', \'cm\', \'ca\', \'cv\', \'cb\', \'ky\', \'cf\', \'td\', \'cl\', \'cn\', \'cx\', \'cc\', \'co\', \'km\', \'cg\', \'ck\', \'cr\', \'ci\', \'hr\', \'cu\', \'cy\', \'cz\', \'cd\', \'dk\', \'dj\', \'dm\', \'do\', \'tp\', \'ec\', \'eg\', \'sv\', \'gq\', \'er\', \'ee\', \'et\', \'fk\', \'fo\', \'fm\', \'fj\', \'fi\', \'fr\', \'gf\', \'pf\', \'tf\', \'ga\', \'gm\', \'ge\', \'de\', \'gh\', \'gi\', \'gr\', \'gl\', \'gd\', \'gp\', \'gu\', \'gt\', \'gg\', \'gn\', \'gw\', \'gy\', \'ht\', \'hn\', \'hk\', \'hu\', \'is\', \'in\', \'id\', \'ir\', \'iq\', \'ie\', \'im\', \'il\', \'it\', \'jm\', \'jp\', \'je\', \'jo\', \'kz\', \'ke\', \'ki\', \'kr\', \'kp\', \'kw\', \'kg\', \'la\', \'lv\', \'lb\', \'ls\', \'lr\', \'ly\', \'li\', \'lt\', \'lu\', \'mo\', \'mk\', \'mg\', \'mw\', \'my\', \'mv\', \'ml\', \'mt\', \'mh\', \'mq\', \'mr\', \'mu\', \'yt\', \'mx\', \'md\', \'mc\', \'mn\', \'me\', \'ms\', \'ma\', \'mz\', \'mm\', \'na\', \'nr\', \'np\', \'nl\', \'an\', \'nc\', \'nz\', \'ni\', \'ne\', \'ng\', \'nu\', \'nf\', \'mp\', \'no\', \'om\', \'pk\', \'pw\', \'ps\', \'pa\', \'pg\', \'py\', \'pe\', \'ph\', \'pn\', \'pl\', \'pt\', \'pr\', \'qa\', \'re\', \'ro\', \'ru\', \'rw\', \'sh\', \'kn\', \'lc\', \'pm\', \'vc\', \'ws\', \'sm\', \'st\', \'sa\', \'sn\', \'rs\', \'sc\', \'sl\', \'sg\', \'sk\', \'si\', \'sb\', \'so\', \'za\', \'es\', \'lk\', \'sd\', \'sr\', \'sj\', \'sz\', \'se\', \'ch\', \'sy\', \'tw\', \'tj\', \'tz\', \'th\', \'tl\', \'tg\', \'tk\', \'to\', \'tt\', \'tn\', \'tr\', \'tm\', \'tc\', \'tv\', \'ug\', \'ua\', \'ae\', \'gb\', \'uy\', \'uz\', \'vu\', \'va\', \'ve\', \'vn\', \'vg\', \'vi\', \'wf\', \'eh\', \'ye\', \'zm\', \'zw\', \'oo\']\n\nindustries=[\'All Industries\',\'Accounting\', \'Airlines/Aviation\', \'Alternative Dispute Resolution\', \'Alternative Medicine\', \'Animation\', \'Apparel & Fashion\', \'Architecture & Planning\', \'Arts and Crafts\', \'Automotive\', \'Aviation & Aerospace\', \'Banking\', \'Biotechnology\', \'Broadcast Media\', \'Building Materials\', \'Business Supplies and Equipment\', \'Capital Markets\', \'Chemicals\', \'Civic & Social Organization\', \'Civil Engineering\', \'Commercial Real Estate\', \'Computer & Network Security\', \'Computer Games\', \'Computer Hardware\', \'Computer Networking\', \'Computer Software\', \'Construction\', \'Consumer Electronics\', \'Consumer Goods\', \'Consumer Services\', \'Cosmetics\', \'Dairy\', \'Defense & Space\', \'Design\', \'Education Management\', \'E-Learning\', \'Electrical/Electronic Manufacturing\', \'Entertainment\', \'Environmental Services\', \'Events Services\', \'Executive Office\', \'Facilities Services\', \'Farming\', \'Financial Services\', \'Fine Art\', \'Fishery\', \'Food & Beverages\', \'Food Production\', \'Fund-Raising\', \'Furniture\', \'Gambling & Casinos\', \'Glass, Ceramics & Concrete\', \'Government Administration\', \'Government Relations\', \'Graphic Design\', \'Health, Wellness and Fitness\', \'Higher Education\', \'Hospital & Health Care\', \'Hospitality\', \'Human Resources\', \'Import and Export\', \'Individual & Family Services\', \'Industrial Automation\', \'Information Services\', \'Information Technology and Services\', \'Insurance\', \'International Affairs\', \'International Trade and Development\', \'Internet\', \'Investment Banking\', \'Investment Management\', \'Judiciary\', \'Law Enforcement\', \'Law Practice\', \'Legal Services\', \'Legislative Office\', \'Leisure, Travel & Tourism\', \'Libraries\', \'Logistics and Supply Chain\', \'Luxury Goods & Jewelry\', \'Machinery\', \'Management Consulting\', \'Maritime\', \'Marketing and Advertising\', \'Market Research\', \'Mechanical or Industrial Engineering\', \'Media Production\', \'Medical Devices\', \'Medical Practice\', \'Mental Health Care\', \'Military\', \'Mining & Metals\', \'Motion Pictures and Film\', \'Museums and Institutions\', \'Music\', \'Nanotechnology\', \'Newspapers\', \'Nonprofit Organization Management\', \'Oil & Energy\', \'Online Media\', \'Outsourcing/Offshoring\', \'Package/Freight Delivery\', \'Packaging and Containers\', \'Paper & Forest Products\', \'Performing Arts\', \'Pharmaceuticals\', \'Philanthropy\', \'Photography\', \'Plastics\', \'Political Organization\', \'Primary/Secondary Education\', \'Printing\', \'Professional Training & Coaching\', \'Program Development\', \'Public Policy\', \'Public Relations and Communications\', \'Public Safety\', \'Publishing\', \'Railroad Manufacture\', \'Ranching\', \'Real Estate\', \'Recreational Facilities and Services\', \'Religious Institutions\', \'Renewables & Environment\', \'Research\', \'Restaurants\', \'Retail\', \'Security and Investigations\', \'Semiconductors\', \'Shipbuilding\', \'Sporting Goods\', \'Sports\', \'Staffing and Recruiting\', \'Supermarkets\', \'Telecommunications\', \'Textiles\', \'Think Tanks\', \'Tobacco\', \'Translation and Localization\', \'Transportation/Trucking/Railroad\', \'Utilities\', \'Venture Capital & Private Equity\', \'Veterinary\', \'Warehousing\', \'Wholesale\', \'Wine and Spirits\', \'Wireless\', \'Writing and Editing\']\n\nseniority=[\'All Seniority Levels\', \'Manager\', \'Owner\', \'Partner\', \'CXO\', \'VP\', \'Director\', \'Senior\', \'Entry\', \'Students & Interns\', \'Volunteer\']\n\nfunctions=[\'All Functions\', \'Academics\', \'Accounting\', \'Administrative\', \'Business development\', \'Buyer\', \'Consultant\', \'Creative\', \'Engineering\', \'Entrepreneur\', \'Finance\', \'Human resources\', \'Information technology\', \'Legal\', \'Marketing\', \'Medical\', \'Operations\', \'Product\', \'Public relations\', \'Real estate\', \'Sales\', \'Support\']\n\n\n\n#THIS IS THE LOGIN PAGE\ndef index():\n    """\n    example action using the internationalization operator T and flash\n    rendered by views/default/index.html or views/generic.html\n    """\n    #login form\n    form = SQLFORM.factory(\n       Field(\'LinkedIn_User_Id\'),\n       Field(\'Password\',type=\'password\'))\n       \n    #checking if there is already a user logged in,i.e. creating a session\n    if session.username:\n        response.flash =\'form accepted\'\n        redirect(URL(r=request,f=\'enter_info\')) \n       \n\n    session.username=request.vars.LinkedIn_User_Id\n    session.password=request.vars.Password\n    #if form is accepted call enterinfo function\n    if form.process().accepted:\n        response.flash =\'form accepted\'\n        redirect(URL(r=request,f=\'enter_info\')) \n    return dict(form=form)   \n\ndef user():\n    """\n    exposes:\n    http://..../[app]/default/user/login\n    http://..../[app]/default/user/logout\n    http://..../[app]/default/user/register\n    http://..../[app]/default/user/profile\n    http://..../[app]/default/user/retrieve_password\n    http://..../[app]/default/user/change_password\n    use @auth.requires_login()\n        @auth.requires_membership(\'group name\')\n        @auth.requires_permission(\'read\',\'table name\',record_id)\n    to decorate functions that need access control\n    """\n    return dict(form=auth())\n\n\ndef download():\n    """\n    allows downloading of uploaded files\n    http://..../[app]/default/download/[filename]\n    """\n    return response.download(request,db)\n\n\ndef call():\n    """\n    exposes services. for example:\n    http://..../[app]/default/call/jsonrpc\n    decorate with @services.jsonrpc the functions to expose\n    supports xml, json, xmlrpc, jsonrpc, amfrpc, rss, csv\n    """\n    return service()\n\n\n@auth.requires_signature()\ndef data():\n    """\n    http://..../[app]/default/data/tables\n    http://..../[app]/default/data/create/[table]\n    http://..../[app]/default/data/read/[table]/[id]\n    http://..../[app]/default/data/update/[table]/[id]\n    http://..../[app]/default/data/delete/[table]/[id]\n    http://..../[app]/default/data/select/[table]\n    http://..../[app]/default/data/search/[table]\n    but URLs must be signed, i.e. linked with\n      A(\'table\',_href=URL(\'data/tables\',user_signature=True))\n    or with the signed load operator\n      LOAD(\'default\',\'data.load\',args=\'tables\',ajax=True,user_signature=True)\n    """\n    return dict(form=crud())\n\n    \ndef enter_info():\n    #form for entering information\n    form = SQLFORM.factory(\n       Field(\'First_Name\'),\n       Field(\'Last_Name\'),\n       Field(\'Keywords\'),\n       Field(\'Title\'),\n       Field(\'Company\'),\n       Field(\'School\'),\n       Field(\'File_Name\',requires=IS_NOT_EMPTY()),\n       Field(\'Country\',requires=IS_IN_SET(country),default=\'India\'),\n       Field(\'Industry\',requires=IS_IN_SET(industries,multiple=\'multiple\'),default=\'All Industries\'),\n       Field(\'Seniority_Levels\',requires=IS_IN_SET(seniority,multiple=\'multiple\'),default=\'All Seniority Levels\'),\n       Field(\'Functions\',requires=IS_IN_SET(functions,multiple=\'multiple\'),default=\'All Functions\'))\n       \n    #if form accepted redirect to search function\n    if form.process().accepted:\n        response.flash = \'form accepted\'\n        redirect(URL(r=request,f=\'search\',vars=request.vars))\n    elif form.errors:\n        response.flash = \'form has errors\'\n    return dict(form=form)\n    \n\ndef search():\n    import mechanize\n    import cookielib\n    import html2text\n    from bs4 import BeautifulSoup\n    \n    # Browser    \n    br = mechanize.Browser()\n\n    # Cookie Jar\n    cj = cookielib.LWPCookieJar()\n    br.set_cookiejar(cj)\n\n    # Browser options\n    br.set_handle_equiv(True)\n    br.set_handle_gzip(True)\n    br.set_handle_redirect(True)\n    br.set_handle_referer(True)\n    br.set_handle_robots(False)\n\n    # Follows refresh 0 but not hangs on refresh > 0\n    br.set_handle_refresh(mechanize._http.HTTPRefreshProcessor(), max_time=1)\n\n    # User-Agent (this is cheating, ok?)\n    br.addheaders = [(\'User-agent\', \'Mozilla/5.0 (X11; U; Linux i686; en-US; rv:1.9.0.1) Gecko/2008071615 Fedora/3.0.1-1.fc9 Firefox/3.0.1\')]\n\n\n    # The site we will navigate into, handling it\'s session    \n    br.open(\'https://www.linkedin.com\')\n\n    # Select the first (index zero) form\n    br.select_form(nr=0)\n\n    # User credentials\n    #br.form[\'session_key\'] = \'mrigeshgaurav@gmail.com\'\n    #br.form[\'session_password\'] = \'modeln@1234\'\n    \n    #entering username and password user provided at login\n    br.form[\'session_key\'] = session.username\n    br.form[\'session_password\'] = session.password\n    \n    \n    # Login by submitting form br\n    br.submit()\n    \n    #opening the advanced search page straight away\n    br.open(\'http://www.linkedin.com/search?trk=advsrch\')\n    \n    #selecting the 1st form\n    br.select_form(nr=1)\n\n    #entering various fields and filters\n    if request.vars.Last_Name:\n        br["lname"]=request.vars.Last_Name\n\n    if request.vars.First_Name:\n        br["fname"]=request.vars.First_Name\n    \n    if request.vars.Keywords:\n        br["keywords"]=request.vars.Keywords\n\n    if request.vars.Company:\n        br["company"]=request.vars.Company\n\n    if request.vars.School:\n        br["school"]=request.vars.School\n\n    if request.vars.Title:\n        br["title"]=request.vars.Title\n        \n    if request.vars.Country:\n        br["countryCode"]=[countryid[country.index(request.vars.Country)]]\n    \n    if request.vars.Industry and request.vars.Industry!=\'All Industries\':\n        if isinstance(request.vars.Industry,list):\n            for i in request.vars.Industry:\n                br.find_control("facet_I").items[industries.index(i)-1].selected=True\n        else:\n            br.find_control("facet_I").items[industries.index(request.vars.Industry)-1].selected=True\n    try:        \n        if request.vars.Seniority_Levels and request.vars.Seniority_Levels!=\'All Seniority Levels\':\n            if isinstance(request.vars.Seniority_Levels,list):\n                for i in request.vars.Seniority_Levels:\n                    br.find_control("facet_SE").items[seniority.index(i)-1].selected=True\n            else:\n                br.find_control("facet_SE").items[seniority.index(request.vars.Seniority_Levels)-1].selected=True\n            \n        if request.vars.Functions and request.vars.Functions!=\'All Functions\':\n            if isinstance(request.vars.Functions,list):\n                for i in request.vars.Functions:\n                    br.find_control("facet_FA").items[functions.index(i)-1].selected=True\n            else:\n                br.find_control("facet_FA").items[functions.index(request.vars.Functions)-1].selected=True\n    except:\n        flag=1\n        \n    #submitting the form\n    br.submit()\n    \n    #lists for retreiving the required data\n    view_profile=[]\n    firstname=[]\n    titl=[]\n    location=[]\n    industry=[]\n    current=[]\n    middlename=[]\n    lastname=[]\n    company=[]\n    \n    #flag to make sure we get entries on 1st page\n    flag=1\n    \n    #writing into file with given filename\n    global csv_response\n\n    csv_response = cStringIO.StringIO()\n    \n    spamWriter = csv.writer(csv_response, delimiter=\',\')\n    \n    #spamWriter = csv.writer(open(request.vars.File_Name+\'.csv\', \'wb\'), delimiter=\',\')\n    soup = BeautifulSoup(br.response().read())\n    spamWriter.writerow([\'FIRST NAME\',\'MIDDLE NAME\',\'LAST-NAME\',\'JOB-TITLE\',\'CURRENT\',\'LOCATION\',\'INDUSTRY\',\'PROFLE-URL\',\'COMPANY NAME\'])\n    \n    #scans till there is a link to "next page"\n    while soup.find(\'a\',{"class" : "paginator-next"}) or flag==1:\n        flag=0\n        soup = BeautifulSoup(br.response().read())\n        view_profile=[]\n        firstname=[]\n        titl=[]\n        location=[]\n        industry=[]\n        current=[]\n        middlename=[]\n        lastname=[]\n        company=[]\n        \n        #parsing for the html response to get information\n        for k in soup.find_all(\'dl\',{"class" : "vcard-basic"}):\n            if k.find(\'dd\',{"class" : "title"}):\n                    titl.append(k.find(\'dd\',{"class" : "title"}).get_text())\n            else:\n                    titl.append(\'NONE\')\n                            \n            if k.find(\'span\',{"class" : "location"}):\n                    location.append(k.find(\'span\',{"class" : "location"}).get_text())\n            else:\n                    location.append(\'NONE\')\n            if k.find(\'span\',{"class" : "industry"}):\n                    industry.append(k.find(\'span\',{"class" : "industry"}).get_text())\n            else:\n                    industry.append(\'NONE\')\n                \n        for k in soup.find_all(\'dl\',{"class" : "vcard-expanded"}):\n            temp1=[]\n            temp2=[]\n            if k.find(\'span\',{"class" : "current-details more-text"}):\n                    less=k.find(\'span\',{"class" : "current-details more-text"}).get_text()\n                    temp1=less[0:len(less)-4].encode(\'utf-8\').split(\' at \',1)\n                    if(len(temp1)>1):\n                        temp2=temp1[1].encode(\'utf-8\').split(\',\',1)\n                    else:\n                        temp2=[\'None\']\n                    company.append(temp2[0])\n                    current.append(less[0:len(less)-4])\n            elif k.find(\'span\',{"class" : "current-details"}):\n                    current.append(k.find(\'span\',{"class" : "current-details"}).get_text())\n            else:\n                    current.append(\'NONE\')\n                \n        for l in soup.find_all(\'a\',{"title" : "View Profile"}):\n            temp=[]\n            view_profile.append(\'http://www.linkedin.com\'+l.get(\'href\'))\n            temp.append(l.get_text().encode(\'utf-8\').split(None,2))\n            if temp[0][0]:\n                firstname.append(temp[0][0])\n            else:\n                firstname.append(\'None\')\n            if temp[0][1] and (len(temp[0])-1)==1:\n                lastname.append(temp[0][1])\n                middlename.append(\'None\')\n            else:\n                lastname.append(temp[0][len(temp[0])-1])\n                middlename.append(temp[0][1])\n                \n        for i in range(0,len(firstname)):\n            try:\n                spamWriter.writerow([firstname[i].encode(\'utf-8\').strip(),middlename[i].encode(\'utf-8\').strip(),lastname[i].encode(\'utf-8\').strip(),titl[i].encode(\'utf-8\').strip(),current[i].encode(\'utf-8\').strip(),location[i].encode(\'utf-8\').strip(),industry[i].encode(\'utf-8\').strip(),view_profile[i].encode(\'utf-8\').strip(),company[i].encode(\'utf-8\').strip()])\n            except:\n                continue\n        if soup.find(\'a\',{"class" : "paginator-next"}):\n            br.open(\'http://www.linkedin.com\'+ soup.find(\'a\',{"class" : "paginator-next"}).get(\'href\'))\n        #soup = BeautifulSoup(br.response().read())\n        \n    response.headers[\'Content-Type\'] = \'text/csv\'\n    response.headers[\'Content-Disposition\'] = \'attachment; filename=%s.csv\' % request.vars.File_Name\n    \n    return csv_response.getvalue()\n    \n    \ndef logout():\n    session.username=[]\n    session.password=[]\n    redirect(URL(r=request,f=\'index\'))\n\n#finish\n###########################################################################################################    \n    #redirect(URL(r=request,f=\'enter_info\'))       \n    #for link in soup.find_all(\'a\'):\n    #    if link.get(\'title\')==\'View Profile\':\n    #        #print(link.get(\'href\'))\n    #        #print link.get_text()\n    #        view_profile.append(\'http://www.linkedin.com\'+link.get(\'href\'))\n    #        name.append(link.get_text())\n#for l in soup.find_all("span", { "class" : "given-name" }):\n    #print l.get_text()\n\n        \n\n#    for l in soup.find_all(\'dd\',{"class" : "title"}):\n        #print l.get_text()\n#        titl.append(l.get_text())\n    \n#    for l in soup.find_all(\'span\',{"class" : "location"}):\n        #print l.get_text()\n#        location.append(l.get_text())\n\n#    for l in soup.find_all(\'span\',{"class" : "industry"}):\n        #print l.get_text()\n#        industry.append(l.get_text())\n        \n#    for l in soup.find_all(\'span\', {"class" : "current-details"}):\n#        k=l.get_text()\n#        if k[len(k)-4:len(k)]!=\'more\':\n#            current.append(k)\n        #elif(l.get["class"]==\'current-details more text\'):\n        #    current.append(l.get_text())\n    #for l in soup.find_all(\'span\',{"class" : "current-details"}):\n        #print l.get_text()\n        #current.append(l.get_text())\n\n    \n    #global filename,csv_response\n\n    #csv_response = cStringIO.StringIO()\n    \n    #spamWriter = csv.writer(csv_response, delimiter=\',\')\n    \n    #spamWriter.writerow([\'NAME\',\'JOB-TITLE\',\'COMPANY-NAME\',\'LOCATION\',\'INDUSTRY\',\'PROFLE-URL\'])\n   \n    #spamWriter = csv.writer(open(request.vars.File_Name+\'.csv\', \'wb\'), delimiter=\',\')\n    #spamWriter.writerow([\'NAME\',\'JOB-TITLE\',\'Current\',\'LOCATION\',\'INDUSTRY\',\'PROFLE-URL\'])\n    #for i in range(1,10):\n    #    spamWriter.writerow([name[i].encode(\'utf-8\'),titl[i],current[i],location[i],industry[i],view_profile[i]])\n        \n        \n    #,titl[i],current[i],location[i],industry[i],view_profile[i]\n    #response.headers[\'Content-Type\'] = \'text/csv\'\n    #response.headers[\'Content-Disposition\'] = \'attachment; filename=%s\' % request.vars.File_Name\n\n    #print view_profile\n    #print name\n    #print location\n    #print industry\n    #print titl\n    \n    #return dict(view_profile=view_profile,name=name,location=location,industry=industry,titl=titl,current=current)\n\nresponse._vars=response._caller(search)\n'
p7
sS'snapshot'
p8
(dp9
S'exception'
p10
(dp11
S'__getslice__'
p12
S"<method-wrapper '__getslice__' of exceptions.UnicodeDecodeError object>"
p13
sS'encoding'
p14
S"'ascii'"
p15
sS'__str__'
p16
S"<method-wrapper '__str__' of exceptions.UnicodeDecodeError object>"
p17
sS'__reduce__'
p18
S'<built-in method __reduce__ of exceptions.UnicodeDecodeError object>'
p19
sS'__dict__'
p20
S'{}'
p21
sS'__sizeof__'
p22
S'<built-in method __sizeof__ of exceptions.UnicodeDecodeError object>'
p23
sS'__init__'
p24
S"<method-wrapper '__init__' of exceptions.UnicodeDecodeError object>"
p25
sS'__setattr__'
p26
S"<method-wrapper '__setattr__' of exceptions.UnicodeDecodeError object>"
p27
sS'__reduce_ex__'
p28
S'<built-in method __reduce_ex__ of exceptions.UnicodeDecodeError object>'
p29
sS'end'
p30
S'2'
sS'__new__'
p31
S'<built-in method __new__ of type object>'
p32
sS'__format__'
p33
S'<built-in method __format__ of exceptions.UnicodeDecodeError object>'
p34
sS'__class__'
p35
S"<type 'exceptions.UnicodeDecodeError'>"
p36
sS'start'
p37
S'1'
sS'__doc__'
p38
S"'Unicode decoding error.'"
p39
sS'object'
p40
S"'V\\xc3\\xa4rde Partners '"
p41
sS'__getitem__'
p42
S"<method-wrapper '__getitem__' of exceptions.UnicodeDecodeError object>"
p43
sS'__setstate__'
p44
S'<built-in method __setstate__ of exceptions.UnicodeDecodeError object>'
p45
sS'__getattribute__'
p46
S"<method-wrapper '__getattribute__' of exceptions.UnicodeDecodeError object>"
p47
sS'args'
p48
S"('ascii', 'V\\xc3\\xa4rde Partners ', 1, 2, 'ordinal not in range(128)')"
p49
sS'reason'
p50
S"'ordinal not in range(128)'"
p51
sS'__subclasshook__'
p52
S'<built-in method __subclasshook__ of type object>'
p53
sS'__unicode__'
p54
S'<built-in method __unicode__ of exceptions.UnicodeDecodeError object>'
p55
sS'__delattr__'
p56
S"<method-wrapper '__delattr__' of exceptions.UnicodeDecodeError object>"
p57
sS'__repr__'
p58
S"<method-wrapper '__repr__' of exceptions.UnicodeDecodeError object>"
p59
sS'__hash__'
p60
S"<method-wrapper '__hash__' of exceptions.UnicodeDecodeError object>"
p61
ssS'evalue'
p62
S"'ascii' codec can't decode byte 0xc3 in position 1: ordinal not in range(128)"
p63
sS'request'
p64
ccopy_reg
_reconstructor
p65
(cgluon.html
BEAUTIFY
p66
c__builtin__
object
p67
NtRp68
(dp69
S'attributes'
p70
(dp71
sS'components'
p72
(lp73
g65
(cgluon.html
TABLE
p74
g67
NtRp75
(dp76
g70
(dp77
S'level'
p78
I5
ssS'parent'
p79
Nsg72
(lp80
g65
(cgluon.html
TR
p81
g67
NtRp82
(dp83
g70
(dp84
sg79
g75
sg72
(lp85
g65
(cgluon.html
TD
p86
g67
NtRp87
(dp88
g70
(dp89
S'_style'
p90
S'font-weight:bold;vertical-align:top'
p91
ssg79
g82
sg72
(lp92
S'ajax'
p93
asbag65
(g86
g67
NtRp94
(dp95
g70
(dp96
S'_valign'
p97
S'top'
p98
ssg79
g82
sg72
(lp99
S':'
asbag65
(g86
g67
NtRp100
(dp101
g70
(dp102
sg79
g82
sg72
(lp103
g65
(g66
g67
NtRp104
(dp105
g70
(dp106
g78
I5
ssg79
g100
sg72
(lp107
S'False'
p108
asbasbasbag65
(g81
g67
NtRp109
(dp110
g70
(dp111
sg79
g75
sg72
(lp112
g65
(g86
g67
NtRp113
(dp114
g70
(dp115
g90
g91
ssg79
g109
sg72
(lp116
S'application'
p117
asbag65
(g86
g67
NtRp118
(dp119
g70
(dp120
g97
g98
ssg79
g109
sg72
(lp121
S':'
asbag65
(g86
g67
NtRp122
(dp123
g70
(dp124
sg79
g109
sg72
(lp125
g65
(g66
g67
NtRp126
(dp127
g70
(dp128
g78
I5
ssg79
g122
sg72
(lp129
S'mycrawler'
p130
asbasbasbag65
(g81
g67
NtRp131
(dp132
g70
(dp133
sg79
g75
sg72
(lp134
g65
(g86
g67
NtRp135
(dp136
g70
(dp137
g90
g91
ssg79
g131
sg72
(lp138
g48
asbag65
(g86
g67
NtRp139
(dp140
g70
(dp141
g97
g98
ssg79
g131
sg72
(lp142
S':'
asbag65
(g86
g67
NtRp143
(dp144
g70
(dp145
sg79
g131
sg72
(lp146
g65
(g66
g67
NtRp147
(dp148
g70
(dp149
g78
I5
ssg79
g143
sg72
(lp150
g65
(g74
g67
NtRp151
(dp152
g70
(dp153
g78
I4
ssg79
Nsg72
(lp154
sbasbasbasbag65
(g81
g67
NtRp155
(dp156
g70
(dp157
sg79
g75
sg72
(lp158
g65
(g86
g67
NtRp159
(dp160
g70
(dp161
g90
g91
ssg79
g155
sg72
(lp162
S'body'
p163
asbag65
(g86
g67
NtRp164
(dp165
g70
(dp166
g97
g98
ssg79
g155
sg72
(lp167
S':'
asbag65
(g86
g67
NtRp168
(dp169
g70
(dp170
sg79
g155
sg72
(lp171
g65
(g66
g67
NtRp172
(dp173
g70
(dp174
g78
I5
ssg79
g168
sg72
(lp175
S'<cStringIO.StringO object at 0x05359520>'
p176
asbasbasbag65
(g81
g67
NtRp177
(dp178
g70
(dp179
sg79
g75
sg72
(lp180
g65
(g86
g67
NtRp181
(dp182
g70
(dp183
g90
g91
ssg79
g177
sg72
(lp184
S'client'
p185
asbag65
(g86
g67
NtRp186
(dp187
g70
(dp188
g97
g98
ssg79
g177
sg72
(lp189
S':'
asbag65
(g86
g67
NtRp190
(dp191
g70
(dp192
sg79
g177
sg72
(lp193
g65
(g66
g67
NtRp194
(dp195
g70
(dp196
g78
I5
ssg79
g190
sg72
(lp197
S'127.0.0.1'
p198
asbasbasbag65
(g81
g67
NtRp199
(dp200
g70
(dp201
sg79
g75
sg72
(lp202
g65
(g86
g67
NtRp203
(dp204
g70
(dp205
g90
g91
ssg79
g199
sg72
(lp206
S'controller'
p207
asbag65
(g86
g67
NtRp208
(dp209
g70
(dp210
g97
g98
ssg79
g199
sg72
(lp211
S':'
asbag65
(g86
g67
NtRp212
(dp213
g70
(dp214
sg79
g199
sg72
(lp215
g65
(g66
g67
NtRp216
(dp217
g70
(dp218
g78
I5
ssg79
g212
sg72
(lp219
S'default'
p220
asbasbasbag65
(g81
g67
NtRp221
(dp222
g70
(dp223
sg79
g75
sg72
(lp224
g65
(g86
g67
NtRp225
(dp226
g70
(dp227
g90
g91
ssg79
g221
sg72
(lp228
S'cookies'
p229
asbag65
(g86
g67
NtRp230
(dp231
g70
(dp232
g97
g98
ssg79
g221
sg72
(lp233
S':'
asbag65
(g86
g67
NtRp234
(dp235
g70
(dp236
sg79
g221
sg72
(lp237
g65
(g66
g67
NtRp238
(dp239
g70
(dp240
g78
I5
ssg79
g234
sg72
(lp241
g65
(g74
g67
NtRp242
(dp243
g70
(dp244
g78
I4
ssg79
Nsg72
(lp245
g65
(g81
g67
NtRp246
(dp247
g70
(dp248
sg79
g242
sg72
(lp249
g65
(g86
g67
NtRp250
(dp251
g70
(dp252
g90
g91
ssg79
g246
sg72
(lp253
S'session_id_admin'
p254
asbag65
(g86
g67
NtRp255
(dp256
g70
(dp257
g97
g98
ssg79
g246
sg72
(lp258
S':'
asbag65
(g86
g67
NtRp259
(dp260
g70
(dp261
sg79
g246
sg72
(lp262
g65
(g66
g67
NtRp263
(dp264
g70
(dp265
g78
I4
ssg79
g259
sg72
(lp266
g65
(g74
g67
NtRp267
(dp268
g70
(dp269
g78
I3
ssg79
Nsg72
(lp270
g65
(g81
g67
NtRp271
(dp272
g70
(dp273
sg79
g267
sg72
(lp274
g65
(g86
g67
NtRp275
(dp276
g70
(dp277
g90
g91
ssg79
g271
sg72
(lp278
S'comment'
p279
asbag65
(g86
g67
NtRp280
(dp281
g70
(dp282
g97
g98
ssg79
g271
sg72
(lp283
S':'
asbag65
(g86
g67
NtRp284
(dp285
g70
(dp286
sg79
g271
sg72
(lp287
g65
(g66
g67
NtRp288
(dp289
g70
(dp290
g78
I3
ssg79
g284
sg72
(lp291
S''
asbasbasbag65
(g81
g67
NtRp292
(dp293
g70
(dp294
sg79
g267
sg72
(lp295
g65
(g86
g67
NtRp296
(dp297
g70
(dp298
g90
g91
ssg79
g292
sg72
(lp299
S'domain'
p300
asbag65
(g86
g67
NtRp301
(dp302
g70
(dp303
g97
g98
ssg79
g292
sg72
(lp304
S':'
asbag65
(g86
g67
NtRp305
(dp306
g70
(dp307
sg79
g292
sg72
(lp308
g65
(g66
g67
NtRp309
(dp310
g70
(dp311
g78
I3
ssg79
g305
sg72
(lp312
S''
asbasbasbag65
(g81
g67
NtRp313
(dp314
g70
(dp315
sg79
g267
sg72
(lp316
g65
(g86
g67
NtRp317
(dp318
g70
(dp319
g90
g91
ssg79
g313
sg72
(lp320
S'expires'
p321
asbag65
(g86
g67
NtRp322
(dp323
g70
(dp324
g97
g98
ssg79
g313
sg72
(lp325
S':'
asbag65
(g86
g67
NtRp326
(dp327
g70
(dp328
sg79
g313
sg72
(lp329
g65
(g66
g67
NtRp330
(dp331
g70
(dp332
g78
I3
ssg79
g326
sg72
(lp333
S''
asbasbasbag65
(g81
g67
NtRp334
(dp335
g70
(dp336
sg79
g267
sg72
(lp337
g65
(g86
g67
NtRp338
(dp339
g70
(dp340
g90
g91
ssg79
g334
sg72
(lp341
S'httponly'
p342
asbag65
(g86
g67
NtRp343
(dp344
g70
(dp345
g97
g98
ssg79
g334
sg72
(lp346
S':'
asbag65
(g86
g67
NtRp347
(dp348
g70
(dp349
sg79
g334
sg72
(lp350
g65
(g66
g67
NtRp351
(dp352
g70
(dp353
g78
I3
ssg79
g347
sg72
(lp354
S''
asbasbasbag65
(g81
g67
NtRp355
(dp356
g70
(dp357
sg79
g267
sg72
(lp358
g65
(g86
g67
NtRp359
(dp360
g70
(dp361
g90
g91
ssg79
g355
sg72
(lp362
S'max-age'
p363
asbag65
(g86
g67
NtRp364
(dp365
g70
(dp366
g97
g98
ssg79
g355
sg72
(lp367
S':'
asbag65
(g86
g67
NtRp368
(dp369
g70
(dp370
sg79
g355
sg72
(lp371
g65
(g66
g67
NtRp372
(dp373
g70
(dp374
g78
I3
ssg79
g368
sg72
(lp375
S''
asbasbasbag65
(g81
g67
NtRp376
(dp377
g70
(dp378
sg79
g267
sg72
(lp379
g65
(g86
g67
NtRp380
(dp381
g70
(dp382
g90
g91
ssg79
g376
sg72
(lp383
S'path'
p384
asbag65
(g86
g67
NtRp385
(dp386
g70
(dp387
g97
g98
ssg79
g376
sg72
(lp388
S':'
asbag65
(g86
g67
NtRp389
(dp390
g70
(dp391
sg79
g376
sg72
(lp392
g65
(g66
g67
NtRp393
(dp394
g70
(dp395
g78
I3
ssg79
g389
sg72
(lp396
S''
asbasbasbag65
(g81
g67
NtRp397
(dp398
g70
(dp399
sg79
g267
sg72
(lp400
g65
(g86
g67
NtRp401
(dp402
g70
(dp403
g90
g91
ssg79
g397
sg72
(lp404
S'secure'
p405
asbag65
(g86
g67
NtRp406
(dp407
g70
(dp408
g97
g98
ssg79
g397
sg72
(lp409
S':'
asbag65
(g86
g67
NtRp410
(dp411
g70
(dp412
sg79
g397
sg72
(lp413
g65
(g66
g67
NtRp414
(dp415
g70
(dp416
g78
I3
ssg79
g410
sg72
(lp417
S''
asbasbasbag65
(g81
g67
NtRp418
(dp419
g70
(dp420
sg79
g267
sg72
(lp421
g65
(g86
g67
NtRp422
(dp423
g70
(dp424
g90
g91
ssg79
g418
sg72
(lp425
S'version'
p426
asbag65
(g86
g67
NtRp427
(dp428
g70
(dp429
g97
g98
ssg79
g418
sg72
(lp430
S':'
asbag65
(g86
g67
NtRp431
(dp432
g70
(dp433
sg79
g418
sg72
(lp434
g65
(g66
g67
NtRp435
(dp436
g70
(dp437
g78
I3
ssg79
g431
sg72
(lp438
S''
asbasbasbasbasbasbasbag65
(g81
g67
NtRp439
(dp440
g70
(dp441
sg79
g242
sg72
(lp442
g65
(g86
g67
NtRp443
(dp444
g70
(dp445
g90
g91
ssg79
g439
sg72
(lp446
S'session_id_mycrawler'
p447
asbag65
(g86
g67
NtRp448
(dp449
g70
(dp450
g97
g98
ssg79
g439
sg72
(lp451
S':'
asbag65
(g86
g67
NtRp452
(dp453
g70
(dp454
sg79
g439
sg72
(lp455
g65
(g66
g67
NtRp456
(dp457
g70
(dp458
g78
I4
ssg79
g452
sg72
(lp459
g65
(g74
g67
NtRp460
(dp461
g70
(dp462
g78
I3
ssg79
Nsg72
(lp463
g65
(g81
g67
NtRp464
(dp465
g70
(dp466
sg79
g460
sg72
(lp467
g65
(g86
g67
NtRp468
(dp469
g70
(dp470
g90
g91
ssg79
g464
sg72
(lp471
g279
asbag65
(g86
g67
NtRp472
(dp473
g70
(dp474
g97
g98
ssg79
g464
sg72
(lp475
S':'
asbag65
(g86
g67
NtRp476
(dp477
g70
(dp478
sg79
g464
sg72
(lp479
g65
(g66
g67
NtRp480
(dp481
g70
(dp482
g78
I3
ssg79
g476
sg72
(lp483
S''
asbasbasbag65
(g81
g67
NtRp484
(dp485
g70
(dp486
sg79
g460
sg72
(lp487
g65
(g86
g67
NtRp488
(dp489
g70
(dp490
g90
g91
ssg79
g484
sg72
(lp491
g300
asbag65
(g86
g67
NtRp492
(dp493
g70
(dp494
g97
g98
ssg79
g484
sg72
(lp495
S':'
asbag65
(g86
g67
NtRp496
(dp497
g70
(dp498
sg79
g484
sg72
(lp499
g65
(g66
g67
NtRp500
(dp501
g70
(dp502
g78
I3
ssg79
g496
sg72
(lp503
S''
asbasbasbag65
(g81
g67
NtRp504
(dp505
g70
(dp506
sg79
g460
sg72
(lp507
g65
(g86
g67
NtRp508
(dp509
g70
(dp510
g90
g91
ssg79
g504
sg72
(lp511
g321
asbag65
(g86
g67
NtRp512
(dp513
g70
(dp514
g97
g98
ssg79
g504
sg72
(lp515
S':'
asbag65
(g86
g67
NtRp516
(dp517
g70
(dp518
sg79
g504
sg72
(lp519
g65
(g66
g67
NtRp520
(dp521
g70
(dp522
g78
I3
ssg79
g516
sg72
(lp523
S''
asbasbasbag65
(g81
g67
NtRp524
(dp525
g70
(dp526
sg79
g460
sg72
(lp527
g65
(g86
g67
NtRp528
(dp529
g70
(dp530
g90
g91
ssg79
g524
sg72
(lp531
g342
asbag65
(g86
g67
NtRp532
(dp533
g70
(dp534
g97
g98
ssg79
g524
sg72
(lp535
S':'
asbag65
(g86
g67
NtRp536
(dp537
g70
(dp538
sg79
g524
sg72
(lp539
g65
(g66
g67
NtRp540
(dp541
g70
(dp542
g78
I3
ssg79
g536
sg72
(lp543
S''
asbasbasbag65
(g81
g67
NtRp544
(dp545
g70
(dp546
sg79
g460
sg72
(lp547
g65
(g86
g67
NtRp548
(dp549
g70
(dp550
g90
g91
ssg79
g544
sg72
(lp551
g363
asbag65
(g86
g67
NtRp552
(dp553
g70
(dp554
g97
g98
ssg79
g544
sg72
(lp555
S':'
asbag65
(g86
g67
NtRp556
(dp557
g70
(dp558
sg79
g544
sg72
(lp559
g65
(g66
g67
NtRp560
(dp561
g70
(dp562
g78
I3
ssg79
g556
sg72
(lp563
S''
asbasbasbag65
(g81
g67
NtRp564
(dp565
g70
(dp566
sg79
g460
sg72
(lp567
g65
(g86
g67
NtRp568
(dp569
g70
(dp570
g90
g91
ssg79
g564
sg72
(lp571
g384
asbag65
(g86
g67
NtRp572
(dp573
g70
(dp574
g97
g98
ssg79
g564
sg72
(lp575
S':'
asbag65
(g86
g67
NtRp576
(dp577
g70
(dp578
sg79
g564
sg72
(lp579
g65
(g66
g67
NtRp580
(dp581
g70
(dp582
g78
I3
ssg79
g576
sg72
(lp583
S''
asbasbasbag65
(g81
g67
NtRp584
(dp585
g70
(dp586
sg79
g460
sg72
(lp587
g65
(g86
g67
NtRp588
(dp589
g70
(dp590
g90
g91
ssg79
g584
sg72
(lp591
g405
asbag65
(g86
g67
NtRp592
(dp593
g70
(dp594
g97
g98
ssg79
g584
sg72
(lp595
S':'
asbag65
(g86
g67
NtRp596
(dp597
g70
(dp598
sg79
g584
sg72
(lp599
g65
(g66
g67
NtRp600
(dp601
g70
(dp602
g78
I3
ssg79
g596
sg72
(lp603
S''
asbasbasbag65
(g81
g67
NtRp604
(dp605
g70
(dp606
sg79
g460
sg72
(lp607
g65
(g86
g67
NtRp608
(dp609
g70
(dp610
g90
g91
ssg79
g604
sg72
(lp611
g426
asbag65
(g86
g67
NtRp612
(dp613
g70
(dp614
g97
g98
ssg79
g604
sg72
(lp615
S':'
asbag65
(g86
g67
NtRp616
(dp617
g70
(dp618
sg79
g604
sg72
(lp619
g65
(g66
g67
NtRp620
(dp621
g70
(dp622
g78
I3
ssg79
g616
sg72
(lp623
S''
asbasbasbasbasbasbasbag65
(g81
g67
NtRp624
(dp625
g70
(dp626
sg79
g242
sg72
(lp627
g65
(g86
g67
NtRp628
(dp629
g70
(dp630
g90
g91
ssg79
g624
sg72
(lp631
S'session_id_welcome'
p632
asbag65
(g86
g67
NtRp633
(dp634
g70
(dp635
g97
g98
ssg79
g624
sg72
(lp636
S':'
asbag65
(g86
g67
NtRp637
(dp638
g70
(dp639
sg79
g624
sg72
(lp640
g65
(g66
g67
NtRp641
(dp642
g70
(dp643
g78
I4
ssg79
g637
sg72
(lp644
g65
(g74
g67
NtRp645
(dp646
g70
(dp647
g78
I3
ssg79
Nsg72
(lp648
g65
(g81
g67
NtRp649
(dp650
g70
(dp651
sg79
g645
sg72
(lp652
g65
(g86
g67
NtRp653
(dp654
g70
(dp655
g90
g91
ssg79
g649
sg72
(lp656
g279
asbag65
(g86
g67
NtRp657
(dp658
g70
(dp659
g97
g98
ssg79
g649
sg72
(lp660
S':'
asbag65
(g86
g67
NtRp661
(dp662
g70
(dp663
sg79
g649
sg72
(lp664
g65
(g66
g67
NtRp665
(dp666
g70
(dp667
g78
I3
ssg79
g661
sg72
(lp668
S''
asbasbasbag65
(g81
g67
NtRp669
(dp670
g70
(dp671
sg79
g645
sg72
(lp672
g65
(g86
g67
NtRp673
(dp674
g70
(dp675
g90
g91
ssg79
g669
sg72
(lp676
g300
asbag65
(g86
g67
NtRp677
(dp678
g70
(dp679
g97
g98
ssg79
g669
sg72
(lp680
S':'
asbag65
(g86
g67
NtRp681
(dp682
g70
(dp683
sg79
g669
sg72
(lp684
g65
(g66
g67
NtRp685
(dp686
g70
(dp687
g78
I3
ssg79
g681
sg72
(lp688
S''
asbasbasbag65
(g81
g67
NtRp689
(dp690
g70
(dp691
sg79
g645
sg72
(lp692
g65
(g86
g67
NtRp693
(dp694
g70
(dp695
g90
g91
ssg79
g689
sg72
(lp696
g321
asbag65
(g86
g67
NtRp697
(dp698
g70
(dp699
g97
g98
ssg79
g689
sg72
(lp700
S':'
asbag65
(g86
g67
NtRp701
(dp702
g70
(dp703
sg79
g689
sg72
(lp704
g65
(g66
g67
NtRp705
(dp706
g70
(dp707
g78
I3
ssg79
g701
sg72
(lp708
S''
asbasbasbag65
(g81
g67
NtRp709
(dp710
g70
(dp711
sg79
g645
sg72
(lp712
g65
(g86
g67
NtRp713
(dp714
g70
(dp715
g90
g91
ssg79
g709
sg72
(lp716
g342
asbag65
(g86
g67
NtRp717
(dp718
g70
(dp719
g97
g98
ssg79
g709
sg72
(lp720
S':'
asbag65
(g86
g67
NtRp721
(dp722
g70
(dp723
sg79
g709
sg72
(lp724
g65
(g66
g67
NtRp725
(dp726
g70
(dp727
g78
I3
ssg79
g721
sg72
(lp728
S''
asbasbasbag65
(g81
g67
NtRp729
(dp730
g70
(dp731
sg79
g645
sg72
(lp732
g65
(g86
g67
NtRp733
(dp734
g70
(dp735
g90
g91
ssg79
g729
sg72
(lp736
g363
asbag65
(g86
g67
NtRp737
(dp738
g70
(dp739
g97
g98
ssg79
g729
sg72
(lp740
S':'
asbag65
(g86
g67
NtRp741
(dp742
g70
(dp743
sg79
g729
sg72
(lp744
g65
(g66
g67
NtRp745
(dp746
g70
(dp747
g78
I3
ssg79
g741
sg72
(lp748
S''
asbasbasbag65
(g81
g67
NtRp749
(dp750
g70
(dp751
sg79
g645
sg72
(lp752
g65
(g86
g67
NtRp753
(dp754
g70
(dp755
g90
g91
ssg79
g749
sg72
(lp756
g384
asbag65
(g86
g67
NtRp757
(dp758
g70
(dp759
g97
g98
ssg79
g749
sg72
(lp760
S':'
asbag65
(g86
g67
NtRp761
(dp762
g70
(dp763
sg79
g749
sg72
(lp764
g65
(g66
g67
NtRp765
(dp766
g70
(dp767
g78
I3
ssg79
g761
sg72
(lp768
S''
asbasbasbag65
(g81
g67
NtRp769
(dp770
g70
(dp771
sg79
g645
sg72
(lp772
g65
(g86
g67
NtRp773
(dp774
g70
(dp775
g90
g91
ssg79
g769
sg72
(lp776
g405
asbag65
(g86
g67
NtRp777
(dp778
g70
(dp779
g97
g98
ssg79
g769
sg72
(lp780
S':'
asbag65
(g86
g67
NtRp781
(dp782
g70
(dp783
sg79
g769
sg72
(lp784
g65
(g66
g67
NtRp785
(dp786
g70
(dp787
g78
I3
ssg79
g781
sg72
(lp788
S''
asbasbasbag65
(g81
g67
NtRp789
(dp790
g70
(dp791
sg79
g645
sg72
(lp792
g65
(g86
g67
NtRp793
(dp794
g70
(dp795
g90
g91
ssg79
g789
sg72
(lp796
g426
asbag65
(g86
g67
NtRp797
(dp798
g70
(dp799
g97
g98
ssg79
g789
sg72
(lp800
S':'
asbag65
(g86
g67
NtRp801
(dp802
g70
(dp803
sg79
g789
sg72
(lp804
g65
(g66
g67
NtRp805
(dp806
g70
(dp807
g78
I3
ssg79
g801
sg72
(lp808
S''
asbasbasbasbasbasbasbasbasbasbasbag65
(g81
g67
NtRp809
(dp810
g70
(dp811
sg79
g75
sg72
(lp812
g65
(g86
g67
NtRp813
(dp814
g70
(dp815
g90
g91
ssg79
g809
sg72
(lp816
S'env'
p817
asbag65
(g86
g67
NtRp818
(dp819
g70
(dp820
g97
g98
ssg79
g809
sg72
(lp821
S':'
asbag65
(g86
g67
NtRp822
(dp823
g70
(dp824
sg79
g809
sg72
(lp825
g65
(g66
g67
NtRp826
(dp827
g70
(dp828
g78
I5
ssg79
g822
sg72
(lp829
g65
(g74
g67
NtRp830
(dp831
g70
(dp832
g78
I4
ssg79
Nsg72
(lp833
g65
(g81
g67
NtRp834
(dp835
g70
(dp836
sg79
g830
sg72
(lp837
g65
(g86
g67
NtRp838
(dp839
g70
(dp840
g90
g91
ssg79
g834
sg72
(lp841
S'app_folders'
p842
asbag65
(g86
g67
NtRp843
(dp844
g70
(dp845
g97
g98
ssg79
g834
sg72
(lp846
S':'
asbag65
(g86
g67
NtRp847
(dp848
g70
(dp849
sg79
g834
sg72
(lp850
g65
(g66
g67
NtRp851
(dp852
g70
(dp853
g78
I4
ssg79
g847
sg72
(lp854
S"set(['C:\\\\Documents and Settings\\\\agrover\\\\Desktop\\\\previous crawler\\\\web2py\\\\applications\\\\admin\\\\', 'C:\\\\Documents and Settings\\\\agrover\\\\Desktop\\\\previous crawler\\\\web2py\\\\applications\\\\mycrawler\\\\', 'C:\\\\Documents and Settings\\\\agrover\\\\Desktop\\\\previous crawler\\\\web2py\\\\applications\\\\welcome\\\\'])"
p855
asbasbasbag65
(g81
g67
NtRp856
(dp857
g70
(dp858
sg79
g830
sg72
(lp859
g65
(g86
g67
NtRp860
(dp861
g70
(dp862
g90
g91
ssg79
g856
sg72
(lp863
S'applications_parent'
p864
asbag65
(g86
g67
NtRp865
(dp866
g70
(dp867
g97
g98
ssg79
g856
sg72
(lp868
S':'
asbag65
(g86
g67
NtRp869
(dp870
g70
(dp871
sg79
g856
sg72
(lp872
g65
(g66
g67
NtRp873
(dp874
g70
(dp875
g78
I4
ssg79
g869
sg72
(lp876
S'C:\\Documents and Settings\\agrover\\Desktop\\previous crawler\\web2py'
p877
asbasbasbag65
(g81
g67
NtRp878
(dp879
g70
(dp880
sg79
g830
sg72
(lp881
g65
(g86
g67
NtRp882
(dp883
g70
(dp884
g90
g91
ssg79
g878
sg72
(lp885
S'cmd_args'
p886
asbag65
(g86
g67
NtRp887
(dp888
g70
(dp889
g97
g98
ssg79
g878
sg72
(lp890
S':'
asbag65
(g86
g67
NtRp891
(dp892
g70
(dp893
sg79
g878
sg72
(lp894
g65
(g66
g67
NtRp895
(dp896
g70
(dp897
g78
I4
ssg79
g891
sg72
(lp898
g65
(g74
g67
NtRp899
(dp900
g70
(dp901
g78
I3
ssg79
Nsg72
(lp902
sbasbasbasbag65
(g81
g67
NtRp903
(dp904
g70
(dp905
sg79
g830
sg72
(lp906
g65
(g86
g67
NtRp907
(dp908
g70
(dp909
g90
g91
ssg79
g903
sg72
(lp910
S'cmd_options'
p911
asbag65
(g86
g67
NtRp912
(dp913
g70
(dp914
g97
g98
ssg79
g903
sg72
(lp915
S':'
asbag65
(g86
g67
NtRp916
(dp917
g70
(dp918
sg79
g903
sg72
(lp919
g65
(g66
g67
NtRp920
(dp921
g70
(dp922
g78
I4
ssg79
g916
sg72
(lp923
S"<Values at 0x16d63f0: {'verbose': False, 'ip': '127.0.0.1', 'shutdown_timeout': 5, 'taskbar': False, 'nocron': False, 'pid_filename': 'httpserver.pid', 'maxthreads': None, 'softcron': False, 'server_name': 'mniagrover', 'bpython': False, 'nogui': False, 'port': 8000, 'extcron': False, 'debuglevel': 30, 'test': None, 'folder': 'C:\\\\Documents and Settings\\\\agrover\\\\Desktop\\\\previous crawler\\\\web2py', 'config': '', 'import_models': False, 'winservice': '', 'shell': None, 'run': '', 'log_filename': 'httpserver.log', 'args': [''], 'socket_timeout': 5, 'ssl_ca_certificate': None, 'scheduler': None, 'profiler_filename': None, 'ssl_private_key': '', 'password': '<ask>', 'request_queue_size': 5, 'ssl_certificate': '', 'cronjob': False, 'numthreads': None, 'quiet': False, 'interfaces': None, 'minthreads': None, 'timeout': 10, 'plain': False, 'nobanner': False}>"
p924
asbasbasbag65
(g81
g67
NtRp925
(dp926
g70
(dp927
sg79
g830
sg72
(lp928
g65
(g86
g67
NtRp929
(dp930
g70
(dp931
g90
g91
ssg79
g925
sg72
(lp932
S'db_sessions'
p933
asbag65
(g86
g67
NtRp934
(dp935
g70
(dp936
g97
g98
ssg79
g925
sg72
(lp937
S':'
asbag65
(g86
g67
NtRp938
(dp939
g70
(dp940
sg79
g925
sg72
(lp941
g65
(g66
g67
NtRp942
(dp943
g70
(dp944
g78
I4
ssg79
g938
sg72
(lp945
S'set([])'
p946
asbasbasbag65
(g81
g67
NtRp947
(dp948
g70
(dp949
sg79
g830
sg72
(lp950
g65
(g86
g67
NtRp951
(dp952
g70
(dp953
g90
g91
ssg79
g947
sg72
(lp954
S'debugging'
p955
asbag65
(g86
g67
NtRp956
(dp957
g70
(dp958
g97
g98
ssg79
g947
sg72
(lp959
S':'
asbag65
(g86
g67
NtRp960
(dp961
g70
(dp962
sg79
g947
sg72
(lp963
g65
(g66
g67
NtRp964
(dp965
g70
(dp966
g78
I4
ssg79
g960
sg72
(lp967
g108
asbasbasbag65
(g81
g67
NtRp968
(dp969
g70
(dp970
sg79
g830
sg72
(lp971
g65
(g86
g67
NtRp972
(dp973
g70
(dp974
g90
g91
ssg79
g968
sg72
(lp975
S'gluon_parent'
p976
asbag65
(g86
g67
NtRp977
(dp978
g70
(dp979
g97
g98
ssg79
g968
sg72
(lp980
S':'
asbag65
(g86
g67
NtRp981
(dp982
g70
(dp983
sg79
g968
sg72
(lp984
g65
(g66
g67
NtRp985
(dp986
g70
(dp987
g78
I4
ssg79
g981
sg72
(lp988
S'C:\\Documents and Settings\\agrover\\Desktop\\previous crawler\\web2py'
p989
asbasbasbag65
(g81
g67
NtRp990
(dp991
g70
(dp992
sg79
g830
sg72
(lp993
g65
(g86
g67
NtRp994
(dp995
g70
(dp996
g90
g91
ssg79
g990
sg72
(lp997
S'http_accept'
p998
asbag65
(g86
g67
NtRp999
(dp1000
g70
(dp1001
g97
g98
ssg79
g990
sg72
(lp1002
S':'
asbag65
(g86
g67
NtRp1003
(dp1004
g70
(dp1005
sg79
g990
sg72
(lp1006
g65
(g66
g67
NtRp1007
(dp1008
g70
(dp1009
g78
I4
ssg79
g1003
sg72
(lp1010
S'text/html,application/xhtml+xml,application/xml;q=0.9,*/*;q=0.8'
p1011
asbasbasbag65
(g81
g67
NtRp1012
(dp1013
g70
(dp1014
sg79
g830
sg72
(lp1015
g65
(g86
g67
NtRp1016
(dp1017
g70
(dp1018
g90
g91
ssg79
g1012
sg72
(lp1019
S'http_accept_encoding'
p1020
asbag65
(g86
g67
NtRp1021
(dp1022
g70
(dp1023
g97
g98
ssg79
g1012
sg72
(lp1024
S':'
asbag65
(g86
g67
NtRp1025
(dp1026
g70
(dp1027
sg79
g1012
sg72
(lp1028
g65
(g66
g67
NtRp1029
(dp1030
g70
(dp1031
g78
I4
ssg79
g1025
sg72
(lp1032
S'gzip, deflate'
p1033
asbasbasbag65
(g81
g67
NtRp1034
(dp1035
g70
(dp1036
sg79
g830
sg72
(lp1037
g65
(g86
g67
NtRp1038
(dp1039
g70
(dp1040
g90
g91
ssg79
g1034
sg72
(lp1041
S'http_accept_language'
p1042
asbag65
(g86
g67
NtRp1043
(dp1044
g70
(dp1045
g97
g98
ssg79
g1034
sg72
(lp1046
S':'
asbag65
(g86
g67
NtRp1047
(dp1048
g70
(dp1049
sg79
g1034
sg72
(lp1050
g65
(g66
g67
NtRp1051
(dp1052
g70
(dp1053
g78
I4
ssg79
g1047
sg72
(lp1054
S'en-us,en;q=0.5'
p1055
asbasbasbag65
(g81
g67
NtRp1056
(dp1057
g70
(dp1058
sg79
g830
sg72
(lp1059
g65
(g86
g67
NtRp1060
(dp1061
g70
(dp1062
g90
g91
ssg79
g1056
sg72
(lp1063
S'http_connection'
p1064
asbag65
(g86
g67
NtRp1065
(dp1066
g70
(dp1067
g97
g98
ssg79
g1056
sg72
(lp1068
S':'
asbag65
(g86
g67
NtRp1069
(dp1070
g70
(dp1071
sg79
g1056
sg72
(lp1072
g65
(g66
g67
NtRp1073
(dp1074
g70
(dp1075
g78
I4
ssg79
g1069
sg72
(lp1076
S'keep-alive'
p1077
asbasbasbag65
(g81
g67
NtRp1078
(dp1079
g70
(dp1080
sg79
g830
sg72
(lp1081
g65
(g86
g67
NtRp1082
(dp1083
g70
(dp1084
g90
g91
ssg79
g1078
sg72
(lp1085
S'http_cookie'
p1086
asbag65
(g86
g67
NtRp1087
(dp1088
g70
(dp1089
g97
g98
ssg79
g1078
sg72
(lp1090
S':'
asbag65
(g86
g67
NtRp1091
(dp1092
g70
(dp1093
sg79
g1078
sg72
(lp1094
g65
(g66
g67
NtRp1095
(dp1096
g70
(dp1097
g78
I4
ssg79
g1091
sg72
(lp1098
S'session_id_welcome=127.0.0.1-45d7a5cf-b9f9-4413-8f39-705386d53da8; session_id_admin=127.0.0.1-8c7c80bb-28b6-4f44-9352-067eebea12a7; session_id_mycrawler=127.0.0.1-2770ef8a-3056-4fd8-9016-5cf5e194a093'
p1099
asbasbasbag65
(g81
g67
NtRp1100
(dp1101
g70
(dp1102
sg79
g830
sg72
(lp1103
g65
(g86
g67
NtRp1104
(dp1105
g70
(dp1106
g90
g91
ssg79
g1100
sg72
(lp1107
S'http_host'
p1108
asbag65
(g86
g67
NtRp1109
(dp1110
g70
(dp1111
g97
g98
ssg79
g1100
sg72
(lp1112
S':'
asbag65
(g86
g67
NtRp1113
(dp1114
g70
(dp1115
sg79
g1100
sg72
(lp1116
g65
(g66
g67
NtRp1117
(dp1118
g70
(dp1119
g78
I4
ssg79
g1113
sg72
(lp1120
S'127.0.0.1:8000'
p1121
asbasbasbag65
(g81
g67
NtRp1122
(dp1123
g70
(dp1124
sg79
g830
sg72
(lp1125
g65
(g86
g67
NtRp1126
(dp1127
g70
(dp1128
g90
g91
ssg79
g1122
sg72
(lp1129
S'http_referer'
p1130
asbag65
(g86
g67
NtRp1131
(dp1132
g70
(dp1133
g97
g98
ssg79
g1122
sg72
(lp1134
S':'
asbag65
(g86
g67
NtRp1135
(dp1136
g70
(dp1137
sg79
g1122
sg72
(lp1138
g65
(g66
g67
NtRp1139
(dp1140
g70
(dp1141
g78
I4
ssg79
g1135
sg72
(lp1142
S'http://127.0.0.1:8000/mycrawler/default/enter_info'
p1143
asbasbasbag65
(g81
g67
NtRp1144
(dp1145
g70
(dp1146
sg79
g830
sg72
(lp1147
g65
(g86
g67
NtRp1148
(dp1149
g70
(dp1150
g90
g91
ssg79
g1144
sg72
(lp1151
S'http_user_agent'
p1152
asbag65
(g86
g67
NtRp1153
(dp1154
g70
(dp1155
g97
g98
ssg79
g1144
sg72
(lp1156
S':'
asbag65
(g86
g67
NtRp1157
(dp1158
g70
(dp1159
sg79
g1144
sg72
(lp1160
g65
(g66
g67
NtRp1161
(dp1162
g70
(dp1163
g78
I4
ssg79
g1157
sg72
(lp1164
S'Mozilla/5.0 (Windows NT 5.1; rv:12.0) Gecko/20100101 Firefox/12.0'
p1165
asbasbasbag65
(g81
g67
NtRp1166
(dp1167
g70
(dp1168
sg79
g830
sg72
(lp1169
g65
(g86
g67
NtRp1170
(dp1171
g70
(dp1172
g90
g91
ssg79
g1166
sg72
(lp1173
S'is_jython'
p1174
asbag65
(g86
g67
NtRp1175
(dp1176
g70
(dp1177
g97
g98
ssg79
g1166
sg72
(lp1178
S':'
asbag65
(g86
g67
NtRp1179
(dp1180
g70
(dp1181
sg79
g1166
sg72
(lp1182
g65
(g66
g67
NtRp1183
(dp1184
g70
(dp1185
g78
I4
ssg79
g1179
sg72
(lp1186
g108
asbasbasbag65
(g81
g67
NtRp1187
(dp1188
g70
(dp1189
sg79
g830
sg72
(lp1190
g65
(g86
g67
NtRp1191
(dp1192
g70
(dp1193
g90
g91
ssg79
g1187
sg72
(lp1194
S'is_pypy'
p1195
asbag65
(g86
g67
NtRp1196
(dp1197
g70
(dp1198
g97
g98
ssg79
g1187
sg72
(lp1199
S':'
asbag65
(g86
g67
NtRp1200
(dp1201
g70
(dp1202
sg79
g1187
sg72
(lp1203
g65
(g66
g67
NtRp1204
(dp1205
g70
(dp1206
g78
I4
ssg79
g1200
sg72
(lp1207
g108
asbasbasbag65
(g81
g67
NtRp1208
(dp1209
g70
(dp1210
sg79
g830
sg72
(lp1211
g65
(g86
g67
NtRp1212
(dp1213
g70
(dp1214
g90
g91
ssg79
g1208
sg72
(lp1215
S'path_info'
p1216
asbag65
(g86
g67
NtRp1217
(dp1218
g70
(dp1219
g97
g98
ssg79
g1208
sg72
(lp1220
S':'
asbag65
(g86
g67
NtRp1221
(dp1222
g70
(dp1223
sg79
g1208
sg72
(lp1224
g65
(g66
g67
NtRp1225
(dp1226
g70
(dp1227
g78
I4
ssg79
g1221
sg72
(lp1228
S'/mycrawler/default/search'
p1229
asbasbasbag65
(g81
g67
NtRp1230
(dp1231
g70
(dp1232
sg79
g830
sg72
(lp1233
g65
(g86
g67
NtRp1234
(dp1235
g70
(dp1236
g90
g91
ssg79
g1230
sg72
(lp1237
S'query_string'
p1238
asbag65
(g86
g67
NtRp1239
(dp1240
g70
(dp1241
g97
g98
ssg79
g1230
sg72
(lp1242
S':'
asbag65
(g86
g67
NtRp1243
(dp1244
g70
(dp1245
sg79
g1230
sg72
(lp1246
g65
(g66
g67
NtRp1247
(dp1248
g70
(dp1249
g78
I4
ssg79
g1243
sg72
(lp1250
S'Company=&Country=United+States&File_Name=ccc&First_Name=tera&Functions=All+Functions&Industry=All+Industries&Keywords=&Last_Name=&School=&Seniority_Levels=All+Seniority+Levels&Title=&_formkey=a59bdc88-4f7d-4e73-88dc-ab1ade50e7ba&_formname=no_table%2Fcreate'
p1251
asbasbasbag65
(g81
g67
NtRp1252
(dp1253
g70
(dp1254
sg79
g830
sg72
(lp1255
g65
(g86
g67
NtRp1256
(dp1257
g70
(dp1258
g90
g91
ssg79
g1252
sg72
(lp1259
S'remote_addr'
p1260
asbag65
(g86
g67
NtRp1261
(dp1262
g70
(dp1263
g97
g98
ssg79
g1252
sg72
(lp1264
S':'
asbag65
(g86
g67
NtRp1265
(dp1266
g70
(dp1267
sg79
g1252
sg72
(lp1268
g65
(g66
g67
NtRp1269
(dp1270
g70
(dp1271
g78
I4
ssg79
g1265
sg72
(lp1272
g198
asbasbasbag65
(g81
g67
NtRp1273
(dp1274
g70
(dp1275
sg79
g830
sg72
(lp1276
g65
(g86
g67
NtRp1277
(dp1278
g70
(dp1279
g90
g91
ssg79
g1273
sg72
(lp1280
S'remote_port'
p1281
asbag65
(g86
g67
NtRp1282
(dp1283
g70
(dp1284
g97
g98
ssg79
g1273
sg72
(lp1285
S':'
asbag65
(g86
g67
NtRp1286
(dp1287
g70
(dp1288
sg79
g1273
sg72
(lp1289
g65
(g66
g67
NtRp1290
(dp1291
g70
(dp1292
g78
I4
ssg79
g1286
sg72
(lp1293
S'4241'
p1294
asbasbasbag65
(g81
g67
NtRp1295
(dp1296
g70
(dp1297
sg79
g830
sg72
(lp1298
g65
(g86
g67
NtRp1299
(dp1300
g70
(dp1301
g90
g91
ssg79
g1295
sg72
(lp1302
S'request_method'
p1303
asbag65
(g86
g67
NtRp1304
(dp1305
g70
(dp1306
g97
g98
ssg79
g1295
sg72
(lp1307
S':'
asbag65
(g86
g67
NtRp1308
(dp1309
g70
(dp1310
sg79
g1295
sg72
(lp1311
g65
(g66
g67
NtRp1312
(dp1313
g70
(dp1314
g78
I4
ssg79
g1308
sg72
(lp1315
S'GET'
p1316
asbasbasbag65
(g81
g67
NtRp1317
(dp1318
g70
(dp1319
sg79
g830
sg72
(lp1320
g65
(g86
g67
NtRp1321
(dp1322
g70
(dp1323
g90
g91
ssg79
g1317
sg72
(lp1324
S'script_name'
p1325
asbag65
(g86
g67
NtRp1326
(dp1327
g70
(dp1328
g97
g98
ssg79
g1317
sg72
(lp1329
S':'
asbag65
(g86
g67
NtRp1330
(dp1331
g70
(dp1332
sg79
g1317
sg72
(lp1333
g65
(g66
g67
NtRp1334
(dp1335
g70
(dp1336
g78
I4
ssg79
g1330
sg72
(lp1337
S''
asbasbasbag65
(g81
g67
NtRp1338
(dp1339
g70
(dp1340
sg79
g830
sg72
(lp1341
g65
(g86
g67
NtRp1342
(dp1343
g70
(dp1344
g90
g91
ssg79
g1338
sg72
(lp1345
S'server_name'
p1346
asbag65
(g86
g67
NtRp1347
(dp1348
g70
(dp1349
g97
g98
ssg79
g1338
sg72
(lp1350
S':'
asbag65
(g86
g67
NtRp1351
(dp1352
g70
(dp1353
sg79
g1338
sg72
(lp1354
g65
(g66
g67
NtRp1355
(dp1356
g70
(dp1357
g78
I4
ssg79
g1351
sg72
(lp1358
S'mniagrover'
p1359
asbasbasbag65
(g81
g67
NtRp1360
(dp1361
g70
(dp1362
sg79
g830
sg72
(lp1363
g65
(g86
g67
NtRp1364
(dp1365
g70
(dp1366
g90
g91
ssg79
g1360
sg72
(lp1367
S'server_port'
p1368
asbag65
(g86
g67
NtRp1369
(dp1370
g70
(dp1371
g97
g98
ssg79
g1360
sg72
(lp1372
S':'
asbag65
(g86
g67
NtRp1373
(dp1374
g70
(dp1375
sg79
g1360
sg72
(lp1376
g65
(g66
g67
NtRp1377
(dp1378
g70
(dp1379
g78
I4
ssg79
g1373
sg72
(lp1380
S'8000'
p1381
asbasbasbag65
(g81
g67
NtRp1382
(dp1383
g70
(dp1384
sg79
g830
sg72
(lp1385
g65
(g86
g67
NtRp1386
(dp1387
g70
(dp1388
g90
g91
ssg79
g1382
sg72
(lp1389
S'server_protocol'
p1390
asbag65
(g86
g67
NtRp1391
(dp1392
g70
(dp1393
g97
g98
ssg79
g1382
sg72
(lp1394
S':'
asbag65
(g86
g67
NtRp1395
(dp1396
g70
(dp1397
sg79
g1382
sg72
(lp1398
g65
(g66
g67
NtRp1399
(dp1400
g70
(dp1401
g78
I4
ssg79
g1395
sg72
(lp1402
S'HTTP/1.1'
p1403
asbasbasbag65
(g81
g67
NtRp1404
(dp1405
g70
(dp1406
sg79
g830
sg72
(lp1407
g65
(g86
g67
NtRp1408
(dp1409
g70
(dp1410
g90
g91
ssg79
g1404
sg72
(lp1411
S'server_software'
p1412
asbag65
(g86
g67
NtRp1413
(dp1414
g70
(dp1415
g97
g98
ssg79
g1404
sg72
(lp1416
S':'
asbag65
(g86
g67
NtRp1417
(dp1418
g70
(dp1419
sg79
g1404
sg72
(lp1420
g65
(g66
g67
NtRp1421
(dp1422
g70
(dp1423
g78
I4
ssg79
g1417
sg72
(lp1424
S'Rocket 1.2.4'
p1425
asbasbasbag65
(g81
g67
NtRp1426
(dp1427
g70
(dp1428
sg79
g830
sg72
(lp1429
g65
(g86
g67
NtRp1430
(dp1431
g70
(dp1432
g90
g91
ssg79
g1426
sg72
(lp1433
S'web2py_crontype'
p1434
asbag65
(g86
g67
NtRp1435
(dp1436
g70
(dp1437
g97
g98
ssg79
g1426
sg72
(lp1438
S':'
asbag65
(g86
g67
NtRp1439
(dp1440
g70
(dp1441
sg79
g1426
sg72
(lp1442
g65
(g66
g67
NtRp1443
(dp1444
g70
(dp1445
g78
I4
ssg79
g1439
sg72
(lp1446
S'hard'
p1447
asbasbasbag65
(g81
g67
NtRp1448
(dp1449
g70
(dp1450
sg79
g830
sg72
(lp1451
g65
(g86
g67
NtRp1452
(dp1453
g70
(dp1454
g90
g91
ssg79
g1448
sg72
(lp1455
S'web2py_path'
p1456
asbag65
(g86
g67
NtRp1457
(dp1458
g70
(dp1459
g97
g98
ssg79
g1448
sg72
(lp1460
S':'
asbag65
(g86
g67
NtRp1461
(dp1462
g70
(dp1463
sg79
g1448
sg72
(lp1464
g65
(g66
g67
NtRp1465
(dp1466
g70
(dp1467
g78
I4
ssg79
g1461
sg72
(lp1468
g877
asbasbasbag65
(g81
g67
NtRp1469
(dp1470
g70
(dp1471
sg79
g830
sg72
(lp1472
g65
(g86
g67
NtRp1473
(dp1474
g70
(dp1475
g90
g91
ssg79
g1469
sg72
(lp1476
S'web2py_version'
p1477
asbag65
(g86
g67
NtRp1478
(dp1479
g70
(dp1480
g97
g98
ssg79
g1469
sg72
(lp1481
S':'
asbag65
(g86
g67
NtRp1482
(dp1483
g70
(dp1484
sg79
g1469
sg72
(lp1485
g65
(g66
g67
NtRp1486
(dp1487
g70
(dp1488
g78
I4
ssg79
g1482
sg72
(lp1489
g65
(g74
g67
NtRp1490
(dp1491
g70
(dp1492
g78
I3
ssg79
Nsg72
(lp1493
g65
(g81
g67
NtRp1494
(dp1495
g70
(dp1496
sg79
g1490
sg72
(lp1497
g65
(g86
g67
NtRp1498
(dp1499
g70
(dp1500
sg79
g1494
sg72
(lp1501
g65
(g66
g67
NtRp1502
(dp1503
g70
(dp1504
g78
I3
ssg79
g1498
sg72
(lp1505
S'1'
asbasbasbag65
(g81
g67
NtRp1506
(dp1507
g70
(dp1508
sg79
g1490
sg72
(lp1509
g65
(g86
g67
NtRp1510
(dp1511
g70
(dp1512
sg79
g1506
sg72
(lp1513
g65
(g66
g67
NtRp1514
(dp1515
g70
(dp1516
g78
I3
ssg79
g1510
sg72
(lp1517
S'99'
p1518
asbasbasbag65
(g81
g67
NtRp1519
(dp1520
g70
(dp1521
sg79
g1490
sg72
(lp1522
g65
(g86
g67
NtRp1523
(dp1524
g70
(dp1525
sg79
g1519
sg72
(lp1526
g65
(g66
g67
NtRp1527
(dp1528
g70
(dp1529
g78
I3
ssg79
g1523
sg72
(lp1530
S'7'
asbasbasbag65
(g81
g67
NtRp1531
(dp1532
g70
(dp1533
sg79
g1490
sg72
(lp1534
g65
(g86
g67
NtRp1535
(dp1536
g70
(dp1537
sg79
g1531
sg72
(lp1538
g65
(g66
g67
NtRp1539
(dp1540
g70
(dp1541
g78
I3
ssg79
g1535
sg72
(lp1542
S'datetime.datetime(2012, 3, 4, 22, 12, 8)'
p1543
asbasbasbag65
(g81
g67
NtRp1544
(dp1545
g70
(dp1546
sg79
g1490
sg72
(lp1547
g65
(g86
g67
NtRp1548
(dp1549
g70
(dp1550
sg79
g1544
sg72
(lp1551
g65
(g66
g67
NtRp1552
(dp1553
g70
(dp1554
g78
I3
ssg79
g1548
sg72
(lp1555
S'stable'
p1556
asbasbasbasbasbasbasbag65
(g81
g67
NtRp1557
(dp1558
g70
(dp1559
sg79
g830
sg72
(lp1560
g65
(g86
g67
NtRp1561
(dp1562
g70
(dp1563
g90
g91
ssg79
g1557
sg72
(lp1564
S'wsgi_errors'
p1565
asbag65
(g86
g67
NtRp1566
(dp1567
g70
(dp1568
g97
g98
ssg79
g1557
sg72
(lp1569
S':'
asbag65
(g86
g67
NtRp1570
(dp1571
g70
(dp1572
sg79
g1557
sg72
(lp1573
g65
(g66
g67
NtRp1574
(dp1575
g70
(dp1576
g78
I4
ssg79
g1570
sg72
(lp1577
S"<open file '<stderr>', mode 'w' at 0x00A550D0>"
p1578
asbasbasbag65
(g81
g67
NtRp1579
(dp1580
g70
(dp1581
sg79
g830
sg72
(lp1582
g65
(g86
g67
NtRp1583
(dp1584
g70
(dp1585
g90
g91
ssg79
g1579
sg72
(lp1586
S'wsgi_file_wrapper'
p1587
asbag65
(g86
g67
NtRp1588
(dp1589
g70
(dp1590
g97
g98
ssg79
g1579
sg72
(lp1591
S':'
asbag65
(g86
g67
NtRp1592
(dp1593
g70
(dp1594
sg79
g1579
sg72
(lp1595
g65
(g66
g67
NtRp1596
(dp1597
g70
(dp1598
g78
I4
ssg79
g1592
sg72
(lp1599
S'<class wsgiref.util.FileWrapper at 0x015E8AB0>'
p1600
asbasbasbag65
(g81
g67
NtRp1601
(dp1602
g70
(dp1603
sg79
g830
sg72
(lp1604
g65
(g86
g67
NtRp1605
(dp1606
g70
(dp1607
g90
g91
ssg79
g1601
sg72
(lp1608
S'wsgi_input'
p1609
asbag65
(g86
g67
NtRp1610
(dp1611
g70
(dp1612
g97
g98
ssg79
g1601
sg72
(lp1613
S':'
asbag65
(g86
g67
NtRp1614
(dp1615
g70
(dp1616
sg79
g1601
sg72
(lp1617
g65
(g66
g67
NtRp1618
(dp1619
g70
(dp1620
g78
I4
ssg79
g1614
sg72
(lp1621
S'<socket._fileobject object at 0x04F84D70>'
p1622
asbasbasbag65
(g81
g67
NtRp1623
(dp1624
g70
(dp1625
sg79
g830
sg72
(lp1626
g65
(g86
g67
NtRp1627
(dp1628
g70
(dp1629
g90
g91
ssg79
g1623
sg72
(lp1630
S'wsgi_multiprocess'
p1631
asbag65
(g86
g67
NtRp1632
(dp1633
g70
(dp1634
g97
g98
ssg79
g1623
sg72
(lp1635
S':'
asbag65
(g86
g67
NtRp1636
(dp1637
g70
(dp1638
sg79
g1623
sg72
(lp1639
g65
(g66
g67
NtRp1640
(dp1641
g70
(dp1642
g78
I4
ssg79
g1636
sg72
(lp1643
g108
asbasbasbag65
(g81
g67
NtRp1644
(dp1645
g70
(dp1646
sg79
g830
sg72
(lp1647
g65
(g86
g67
NtRp1648
(dp1649
g70
(dp1650
g90
g91
ssg79
g1644
sg72
(lp1651
S'wsgi_multithread'
p1652
asbag65
(g86
g67
NtRp1653
(dp1654
g70
(dp1655
g97
g98
ssg79
g1644
sg72
(lp1656
S':'
asbag65
(g86
g67
NtRp1657
(dp1658
g70
(dp1659
sg79
g1644
sg72
(lp1660
g65
(g66
g67
NtRp1661
(dp1662
g70
(dp1663
g78
I4
ssg79
g1657
sg72
(lp1664
S'True'
p1665
asbasbasbag65
(g81
g67
NtRp1666
(dp1667
g70
(dp1668
sg79
g830
sg72
(lp1669
g65
(g86
g67
NtRp1670
(dp1671
g70
(dp1672
g90
g91
ssg79
g1666
sg72
(lp1673
S'wsgi_run_once'
p1674
asbag65
(g86
g67
NtRp1675
(dp1676
g70
(dp1677
g97
g98
ssg79
g1666
sg72
(lp1678
S':'
asbag65
(g86
g67
NtRp1679
(dp1680
g70
(dp1681
sg79
g1666
sg72
(lp1682
g65
(g66
g67
NtRp1683
(dp1684
g70
(dp1685
g78
I4
ssg79
g1679
sg72
(lp1686
g108
asbasbasbag65
(g81
g67
NtRp1687
(dp1688
g70
(dp1689
sg79
g830
sg72
(lp1690
g65
(g86
g67
NtRp1691
(dp1692
g70
(dp1693
g90
g91
ssg79
g1687
sg72
(lp1694
S'wsgi_url_scheme'
p1695
asbag65
(g86
g67
NtRp1696
(dp1697
g70
(dp1698
g97
g98
ssg79
g1687
sg72
(lp1699
S':'
asbag65
(g86
g67
NtRp1700
(dp1701
g70
(dp1702
sg79
g1687
sg72
(lp1703
g65
(g66
g67
NtRp1704
(dp1705
g70
(dp1706
g78
I4
ssg79
g1700
sg72
(lp1707
S'http'
p1708
asbasbasbag65
(g81
g67
NtRp1709
(dp1710
g70
(dp1711
sg79
g830
sg72
(lp1712
g65
(g86
g67
NtRp1713
(dp1714
g70
(dp1715
g90
g91
ssg79
g1709
sg72
(lp1716
S'wsgi_version'
p1717
asbag65
(g86
g67
NtRp1718
(dp1719
g70
(dp1720
g97
g98
ssg79
g1709
sg72
(lp1721
S':'
asbag65
(g86
g67
NtRp1722
(dp1723
g70
(dp1724
sg79
g1709
sg72
(lp1725
g65
(g66
g67
NtRp1726
(dp1727
g70
(dp1728
g78
I4
ssg79
g1722
sg72
(lp1729
g65
(g74
g67
NtRp1730
(dp1731
g70
(dp1732
g78
I3
ssg79
Nsg72
(lp1733
g65
(g81
g67
NtRp1734
(dp1735
g70
(dp1736
sg79
g1730
sg72
(lp1737
g65
(g86
g67
NtRp1738
(dp1739
g70
(dp1740
sg79
g1734
sg72
(lp1741
g65
(g66
g67
NtRp1742
(dp1743
g70
(dp1744
g78
I3
ssg79
g1738
sg72
(lp1745
S'1'
asbasbasbag65
(g81
g67
NtRp1746
(dp1747
g70
(dp1748
sg79
g1730
sg72
(lp1749
g65
(g86
g67
NtRp1750
(dp1751
g70
(dp1752
sg79
g1746
sg72
(lp1753
g65
(g66
g67
NtRp1754
(dp1755
g70
(dp1756
g78
I3
ssg79
g1750
sg72
(lp1757
S'0'
asbasbasbasbasbasbasbasbasbasbasbag65
(g81
g67
NtRp1758
(dp1759
g70
(dp1760
sg79
g75
sg72
(lp1761
g65
(g86
g67
NtRp1762
(dp1763
g70
(dp1764
g90
g91
ssg79
g1758
sg72
(lp1765
S'extension'
p1766
asbag65
(g86
g67
NtRp1767
(dp1768
g70
(dp1769
g97
g98
ssg79
g1758
sg72
(lp1770
S':'
asbag65
(g86
g67
NtRp1771
(dp1772
g70
(dp1773
sg79
g1758
sg72
(lp1774
g65
(g66
g67
NtRp1775
(dp1776
g70
(dp1777
g78
I5
ssg79
g1771
sg72
(lp1778
S'html'
p1779
asbasbasbag65
(g81
g67
NtRp1780
(dp1781
g70
(dp1782
sg79
g75
sg72
(lp1783
g65
(g86
g67
NtRp1784
(dp1785
g70
(dp1786
g90
g91
ssg79
g1780
sg72
(lp1787
S'folder'
p1788
asbag65
(g86
g67
NtRp1789
(dp1790
g70
(dp1791
g97
g98
ssg79
g1780
sg72
(lp1792
S':'
asbag65
(g86
g67
NtRp1793
(dp1794
g70
(dp1795
sg79
g1780
sg72
(lp1796
g65
(g66
g67
NtRp1797
(dp1798
g70
(dp1799
g78
I5
ssg79
g1793
sg72
(lp1800
S'C:\\Documents and Settings\\agrover\\Desktop\\previous crawler\\web2py\\applications\\mycrawler\\'
p1801
asbasbasbag65
(g81
g67
NtRp1802
(dp1803
g70
(dp1804
sg79
g75
sg72
(lp1805
g65
(g86
g67
NtRp1806
(dp1807
g70
(dp1808
g90
g91
ssg79
g1802
sg72
(lp1809
S'function'
p1810
asbag65
(g86
g67
NtRp1811
(dp1812
g70
(dp1813
g97
g98
ssg79
g1802
sg72
(lp1814
S':'
asbag65
(g86
g67
NtRp1815
(dp1816
g70
(dp1817
sg79
g1802
sg72
(lp1818
g65
(g66
g67
NtRp1819
(dp1820
g70
(dp1821
g78
I5
ssg79
g1815
sg72
(lp1822
S'search'
p1823
asbasbasbag65
(g81
g67
NtRp1824
(dp1825
g70
(dp1826
sg79
g75
sg72
(lp1827
g65
(g86
g67
NtRp1828
(dp1829
g70
(dp1830
g90
g91
ssg79
g1824
sg72
(lp1831
S'get_vars'
p1832
asbag65
(g86
g67
NtRp1833
(dp1834
g70
(dp1835
g97
g98
ssg79
g1824
sg72
(lp1836
S':'
asbag65
(g86
g67
NtRp1837
(dp1838
g70
(dp1839
sg79
g1824
sg72
(lp1840
g65
(g66
g67
NtRp1841
(dp1842
g70
(dp1843
g78
I5
ssg79
g1837
sg72
(lp1844
g65
(g74
g67
NtRp1845
(dp1846
g70
(dp1847
g78
I4
ssg79
Nsg72
(lp1848
g65
(g81
g67
NtRp1849
(dp1850
g70
(dp1851
sg79
g1845
sg72
(lp1852
g65
(g86
g67
NtRp1853
(dp1854
g70
(dp1855
g90
g91
ssg79
g1849
sg72
(lp1856
S'Company'
p1857
asbag65
(g86
g67
NtRp1858
(dp1859
g70
(dp1860
g97
g98
ssg79
g1849
sg72
(lp1861
S':'
asbag65
(g86
g67
NtRp1862
(dp1863
g70
(dp1864
sg79
g1849
sg72
(lp1865
g65
(g66
g67
NtRp1866
(dp1867
g70
(dp1868
g78
I4
ssg79
g1862
sg72
(lp1869
S''
asbasbasbag65
(g81
g67
NtRp1870
(dp1871
g70
(dp1872
sg79
g1845
sg72
(lp1873
g65
(g86
g67
NtRp1874
(dp1875
g70
(dp1876
g90
g91
ssg79
g1870
sg72
(lp1877
S'Country'
p1878
asbag65
(g86
g67
NtRp1879
(dp1880
g70
(dp1881
g97
g98
ssg79
g1870
sg72
(lp1882
S':'
asbag65
(g86
g67
NtRp1883
(dp1884
g70
(dp1885
sg79
g1870
sg72
(lp1886
g65
(g66
g67
NtRp1887
(dp1888
g70
(dp1889
g78
I4
ssg79
g1883
sg72
(lp1890
S'United States'
p1891
asbasbasbag65
(g81
g67
NtRp1892
(dp1893
g70
(dp1894
sg79
g1845
sg72
(lp1895
g65
(g86
g67
NtRp1896
(dp1897
g70
(dp1898
g90
g91
ssg79
g1892
sg72
(lp1899
S'File_Name'
p1900
asbag65
(g86
g67
NtRp1901
(dp1902
g70
(dp1903
g97
g98
ssg79
g1892
sg72
(lp1904
S':'
asbag65
(g86
g67
NtRp1905
(dp1906
g70
(dp1907
sg79
g1892
sg72
(lp1908
g65
(g66
g67
NtRp1909
(dp1910
g70
(dp1911
g78
I4
ssg79
g1905
sg72
(lp1912
S'ccc'
p1913
asbasbasbag65
(g81
g67
NtRp1914
(dp1915
g70
(dp1916
sg79
g1845
sg72
(lp1917
g65
(g86
g67
NtRp1918
(dp1919
g70
(dp1920
g90
g91
ssg79
g1914
sg72
(lp1921
S'First_Name'
p1922
asbag65
(g86
g67
NtRp1923
(dp1924
g70
(dp1925
g97
g98
ssg79
g1914
sg72
(lp1926
S':'
asbag65
(g86
g67
NtRp1927
(dp1928
g70
(dp1929
sg79
g1914
sg72
(lp1930
g65
(g66
g67
NtRp1931
(dp1932
g70
(dp1933
g78
I4
ssg79
g1927
sg72
(lp1934
S'tera'
p1935
asbasbasbag65
(g81
g67
NtRp1936
(dp1937
g70
(dp1938
sg79
g1845
sg72
(lp1939
g65
(g86
g67
NtRp1940
(dp1941
g70
(dp1942
g90
g91
ssg79
g1936
sg72
(lp1943
S'Functions'
p1944
asbag65
(g86
g67
NtRp1945
(dp1946
g70
(dp1947
g97
g98
ssg79
g1936
sg72
(lp1948
S':'
asbag65
(g86
g67
NtRp1949
(dp1950
g70
(dp1951
sg79
g1936
sg72
(lp1952
g65
(g66
g67
NtRp1953
(dp1954
g70
(dp1955
g78
I4
ssg79
g1949
sg72
(lp1956
S'All Functions'
p1957
asbasbasbag65
(g81
g67
NtRp1958
(dp1959
g70
(dp1960
sg79
g1845
sg72
(lp1961
g65
(g86
g67
NtRp1962
(dp1963
g70
(dp1964
g90
g91
ssg79
g1958
sg72
(lp1965
S'Industry'
p1966
asbag65
(g86
g67
NtRp1967
(dp1968
g70
(dp1969
g97
g98
ssg79
g1958
sg72
(lp1970
S':'
asbag65
(g86
g67
NtRp1971
(dp1972
g70
(dp1973
sg79
g1958
sg72
(lp1974
g65
(g66
g67
NtRp1975
(dp1976
g70
(dp1977
g78
I4
ssg79
g1971
sg72
(lp1978
S'All Industries'
p1979
asbasbasbag65
(g81
g67
NtRp1980
(dp1981
g70
(dp1982
sg79
g1845
sg72
(lp1983
g65
(g86
g67
NtRp1984
(dp1985
g70
(dp1986
g90
g91
ssg79
g1980
sg72
(lp1987
S'Keywords'
p1988
asbag65
(g86
g67
NtRp1989
(dp1990
g70
(dp1991
g97
g98
ssg79
g1980
sg72
(lp1992
S':'
asbag65
(g86
g67
NtRp1993
(dp1994
g70
(dp1995
sg79
g1980
sg72
(lp1996
g65
(g66
g67
NtRp1997
(dp1998
g70
(dp1999
g78
I4
ssg79
g1993
sg72
(lp2000
S''
asbasbasbag65
(g81
g67
NtRp2001
(dp2002
g70
(dp2003
sg79
g1845
sg72
(lp2004
g65
(g86
g67
NtRp2005
(dp2006
g70
(dp2007
g90
g91
ssg79
g2001
sg72
(lp2008
S'Last_Name'
p2009
asbag65
(g86
g67
NtRp2010
(dp2011
g70
(dp2012
g97
g98
ssg79
g2001
sg72
(lp2013
S':'
asbag65
(g86
g67
NtRp2014
(dp2015
g70
(dp2016
sg79
g2001
sg72
(lp2017
g65
(g66
g67
NtRp2018
(dp2019
g70
(dp2020
g78
I4
ssg79
g2014
sg72
(lp2021
S''
asbasbasbag65
(g81
g67
NtRp2022
(dp2023
g70
(dp2024
sg79
g1845
sg72
(lp2025
g65
(g86
g67
NtRp2026
(dp2027
g70
(dp2028
g90
g91
ssg79
g2022
sg72
(lp2029
S'School'
p2030
asbag65
(g86
g67
NtRp2031
(dp2032
g70
(dp2033
g97
g98
ssg79
g2022
sg72
(lp2034
S':'
asbag65
(g86
g67
NtRp2035
(dp2036
g70
(dp2037
sg79
g2022
sg72
(lp2038
g65
(g66
g67
NtRp2039
(dp2040
g70
(dp2041
g78
I4
ssg79
g2035
sg72
(lp2042
S''
asbasbasbag65
(g81
g67
NtRp2043
(dp2044
g70
(dp2045
sg79
g1845
sg72
(lp2046
g65
(g86
g67
NtRp2047
(dp2048
g70
(dp2049
g90
g91
ssg79
g2043
sg72
(lp2050
S'Seniority_Levels'
p2051
asbag65
(g86
g67
NtRp2052
(dp2053
g70
(dp2054
g97
g98
ssg79
g2043
sg72
(lp2055
S':'
asbag65
(g86
g67
NtRp2056
(dp2057
g70
(dp2058
sg79
g2043
sg72
(lp2059
g65
(g66
g67
NtRp2060
(dp2061
g70
(dp2062
g78
I4
ssg79
g2056
sg72
(lp2063
S'All Seniority Levels'
p2064
asbasbasbag65
(g81
g67
NtRp2065
(dp2066
g70
(dp2067
sg79
g1845
sg72
(lp2068
g65
(g86
g67
NtRp2069
(dp2070
g70
(dp2071
g90
g91
ssg79
g2065
sg72
(lp2072
S'Title'
p2073
asbag65
(g86
g67
NtRp2074
(dp2075
g70
(dp2076
g97
g98
ssg79
g2065
sg72
(lp2077
S':'
asbag65
(g86
g67
NtRp2078
(dp2079
g70
(dp2080
sg79
g2065
sg72
(lp2081
g65
(g66
g67
NtRp2082
(dp2083
g70
(dp2084
g78
I4
ssg79
g2078
sg72
(lp2085
S''
asbasbasbasbasbasbasbag65
(g81
g67
NtRp2086
(dp2087
g70
(dp2088
sg79
g75
sg72
(lp2089
g65
(g86
g67
NtRp2090
(dp2091
g70
(dp2092
g90
g91
ssg79
g2086
sg72
(lp2093
S'global_settings'
p2094
asbag65
(g86
g67
NtRp2095
(dp2096
g70
(dp2097
g97
g98
ssg79
g2086
sg72
(lp2098
S':'
asbag65
(g86
g67
NtRp2099
(dp2100
g70
(dp2101
sg79
g2086
sg72
(lp2102
g65
(g66
g67
NtRp2103
(dp2104
g70
(dp2105
g78
I5
ssg79
g2099
sg72
(lp2106
g65
(g74
g67
NtRp2107
(dp2108
g70
(dp2109
g78
I4
ssg79
Nsg72
(lp2110
g65
(g81
g67
NtRp2111
(dp2112
g70
(dp2113
sg79
g2107
sg72
(lp2114
g65
(g86
g67
NtRp2115
(dp2116
g70
(dp2117
g90
g91
ssg79
g2111
sg72
(lp2118
g842
asbag65
(g86
g67
NtRp2119
(dp2120
g70
(dp2121
g97
g98
ssg79
g2111
sg72
(lp2122
S':'
asbag65
(g86
g67
NtRp2123
(dp2124
g70
(dp2125
sg79
g2111
sg72
(lp2126
g65
(g66
g67
NtRp2127
(dp2128
g70
(dp2129
g78
I4
ssg79
g2123
sg72
(lp2130
S"set(['C:\\\\Documents and Settings\\\\agrover\\\\Desktop\\\\previous crawler\\\\web2py\\\\applications\\\\admin\\\\', 'C:\\\\Documents and Settings\\\\agrover\\\\Desktop\\\\previous crawler\\\\web2py\\\\applications\\\\mycrawler\\\\', 'C:\\\\Documents and Settings\\\\agrover\\\\Desktop\\\\previous crawler\\\\web2py\\\\applications\\\\welcome\\\\'])"
p2131
asbasbasbag65
(g81
g67
NtRp2132
(dp2133
g70
(dp2134
sg79
g2107
sg72
(lp2135
g65
(g86
g67
NtRp2136
(dp2137
g70
(dp2138
g90
g91
ssg79
g2132
sg72
(lp2139
g864
asbag65
(g86
g67
NtRp2140
(dp2141
g70
(dp2142
g97
g98
ssg79
g2132
sg72
(lp2143
S':'
asbag65
(g86
g67
NtRp2144
(dp2145
g70
(dp2146
sg79
g2132
sg72
(lp2147
g65
(g66
g67
NtRp2148
(dp2149
g70
(dp2150
g78
I4
ssg79
g2144
sg72
(lp2151
g877
asbasbasbag65
(g81
g67
NtRp2152
(dp2153
g70
(dp2154
sg79
g2107
sg72
(lp2155
g65
(g86
g67
NtRp2156
(dp2157
g70
(dp2158
g90
g91
ssg79
g2152
sg72
(lp2159
g886
asbag65
(g86
g67
NtRp2160
(dp2161
g70
(dp2162
g97
g98
ssg79
g2152
sg72
(lp2163
S':'
asbag65
(g86
g67
NtRp2164
(dp2165
g70
(dp2166
sg79
g2152
sg72
(lp2167
g65
(g66
g67
NtRp2168
(dp2169
g70
(dp2170
g78
I4
ssg79
g2164
sg72
(lp2171
g65
(g74
g67
NtRp2172
(dp2173
g70
(dp2174
g78
I3
ssg79
Nsg72
(lp2175
sbasbasbasbag65
(g81
g67
NtRp2176
(dp2177
g70
(dp2178
sg79
g2107
sg72
(lp2179
g65
(g86
g67
NtRp2180
(dp2181
g70
(dp2182
g90
g91
ssg79
g2176
sg72
(lp2183
g911
asbag65
(g86
g67
NtRp2184
(dp2185
g70
(dp2186
g97
g98
ssg79
g2176
sg72
(lp2187
S':'
asbag65
(g86
g67
NtRp2188
(dp2189
g70
(dp2190
sg79
g2176
sg72
(lp2191
g65
(g66
g67
NtRp2192
(dp2193
g70
(dp2194
g78
I4
ssg79
g2188
sg72
(lp2195
S"<Values at 0x16d63f0: {'verbose': False, 'ip': '127.0.0.1', 'shutdown_timeout': 5, 'taskbar': False, 'nocron': False, 'pid_filename': 'httpserver.pid', 'maxthreads': None, 'softcron': False, 'server_name': 'mniagrover', 'bpython': False, 'nogui': False, 'port': 8000, 'extcron': False, 'debuglevel': 30, 'test': None, 'folder': 'C:\\\\Documents and Settings\\\\agrover\\\\Desktop\\\\previous crawler\\\\web2py', 'config': '', 'import_models': False, 'winservice': '', 'shell': None, 'run': '', 'log_filename': 'httpserver.log', 'args': [''], 'socket_timeout': 5, 'ssl_ca_certificate': None, 'scheduler': None, 'profiler_filename': None, 'ssl_private_key': '', 'password': '<ask>', 'request_queue_size': 5, 'ssl_certificate': '', 'cronjob': False, 'numthreads': None, 'quiet': False, 'interfaces': None, 'minthreads': None, 'timeout': 10, 'plain': False, 'nobanner': False}>"
p2196
asbasbasbag65
(g81
g67
NtRp2197
(dp2198
g70
(dp2199
sg79
g2107
sg72
(lp2200
g65
(g86
g67
NtRp2201
(dp2202
g70
(dp2203
g90
g91
ssg79
g2197
sg72
(lp2204
g933
asbag65
(g86
g67
NtRp2205
(dp2206
g70
(dp2207
g97
g98
ssg79
g2197
sg72
(lp2208
S':'
asbag65
(g86
g67
NtRp2209
(dp2210
g70
(dp2211
sg79
g2197
sg72
(lp2212
g65
(g66
g67
NtRp2213
(dp2214
g70
(dp2215
g78
I4
ssg79
g2209
sg72
(lp2216
S'set([])'
p2217
asbasbasbag65
(g81
g67
NtRp2218
(dp2219
g70
(dp2220
sg79
g2107
sg72
(lp2221
g65
(g86
g67
NtRp2222
(dp2223
g70
(dp2224
g90
g91
ssg79
g2218
sg72
(lp2225
g955
asbag65
(g86
g67
NtRp2226
(dp2227
g70
(dp2228
g97
g98
ssg79
g2218
sg72
(lp2229
S':'
asbag65
(g86
g67
NtRp2230
(dp2231
g70
(dp2232
sg79
g2218
sg72
(lp2233
g65
(g66
g67
NtRp2234
(dp2235
g70
(dp2236
g78
I4
ssg79
g2230
sg72
(lp2237
g108
asbasbasbag65
(g81
g67
NtRp2238
(dp2239
g70
(dp2240
sg79
g2107
sg72
(lp2241
g65
(g86
g67
NtRp2242
(dp2243
g70
(dp2244
g90
g91
ssg79
g2238
sg72
(lp2245
g976
asbag65
(g86
g67
NtRp2246
(dp2247
g70
(dp2248
g97
g98
ssg79
g2238
sg72
(lp2249
S':'
asbag65
(g86
g67
NtRp2250
(dp2251
g70
(dp2252
sg79
g2238
sg72
(lp2253
g65
(g66
g67
NtRp2254
(dp2255
g70
(dp2256
g78
I4
ssg79
g2250
sg72
(lp2257
g989
asbasbasbag65
(g81
g67
NtRp2258
(dp2259
g70
(dp2260
sg79
g2107
sg72
(lp2261
g65
(g86
g67
NtRp2262
(dp2263
g70
(dp2264
g90
g91
ssg79
g2258
sg72
(lp2265
g1174
asbag65
(g86
g67
NtRp2266
(dp2267
g70
(dp2268
g97
g98
ssg79
g2258
sg72
(lp2269
S':'
asbag65
(g86
g67
NtRp2270
(dp2271
g70
(dp2272
sg79
g2258
sg72
(lp2273
g65
(g66
g67
NtRp2274
(dp2275
g70
(dp2276
g78
I4
ssg79
g2270
sg72
(lp2277
g108
asbasbasbag65
(g81
g67
NtRp2278
(dp2279
g70
(dp2280
sg79
g2107
sg72
(lp2281
g65
(g86
g67
NtRp2282
(dp2283
g70
(dp2284
g90
g91
ssg79
g2278
sg72
(lp2285
g1195
asbag65
(g86
g67
NtRp2286
(dp2287
g70
(dp2288
g97
g98
ssg79
g2278
sg72
(lp2289
S':'
asbag65
(g86
g67
NtRp2290
(dp2291
g70
(dp2292
sg79
g2278
sg72
(lp2293
g65
(g66
g67
NtRp2294
(dp2295
g70
(dp2296
g78
I4
ssg79
g2290
sg72
(lp2297
g108
asbasbasbag65
(g81
g67
NtRp2298
(dp2299
g70
(dp2300
sg79
g2107
sg72
(lp2301
g65
(g86
g67
NtRp2302
(dp2303
g70
(dp2304
g90
g91
ssg79
g2298
sg72
(lp2305
g1434
asbag65
(g86
g67
NtRp2306
(dp2307
g70
(dp2308
g97
g98
ssg79
g2298
sg72
(lp2309
S':'
asbag65
(g86
g67
NtRp2310
(dp2311
g70
(dp2312
sg79
g2298
sg72
(lp2313
g65
(g66
g67
NtRp2314
(dp2315
g70
(dp2316
g78
I4
ssg79
g2310
sg72
(lp2317
g1447
asbasbasbag65
(g81
g67
NtRp2318
(dp2319
g70
(dp2320
sg79
g2107
sg72
(lp2321
g65
(g86
g67
NtRp2322
(dp2323
g70
(dp2324
g90
g91
ssg79
g2318
sg72
(lp2325
g1477
asbag65
(g86
g67
NtRp2326
(dp2327
g70
(dp2328
g97
g98
ssg79
g2318
sg72
(lp2329
S':'
asbag65
(g86
g67
NtRp2330
(dp2331
g70
(dp2332
sg79
g2318
sg72
(lp2333
g65
(g66
g67
NtRp2334
(dp2335
g70
(dp2336
g78
I4
ssg79
g2330
sg72
(lp2337
g65
(g74
g67
NtRp2338
(dp2339
g70
(dp2340
g78
I3
ssg79
Nsg72
(lp2341
g65
(g81
g67
NtRp2342
(dp2343
g70
(dp2344
sg79
g2338
sg72
(lp2345
g65
(g86
g67
NtRp2346
(dp2347
g70
(dp2348
sg79
g2342
sg72
(lp2349
g65
(g66
g67
NtRp2350
(dp2351
g70
(dp2352
g78
I3
ssg79
g2346
sg72
(lp2353
S'1'
asbasbasbag65
(g81
g67
NtRp2354
(dp2355
g70
(dp2356
sg79
g2338
sg72
(lp2357
g65
(g86
g67
NtRp2358
(dp2359
g70
(dp2360
sg79
g2354
sg72
(lp2361
g65
(g66
g67
NtRp2362
(dp2363
g70
(dp2364
g78
I3
ssg79
g2358
sg72
(lp2365
S'99'
p2366
asbasbasbag65
(g81
g67
NtRp2367
(dp2368
g70
(dp2369
sg79
g2338
sg72
(lp2370
g65
(g86
g67
NtRp2371
(dp2372
g70
(dp2373
sg79
g2367
sg72
(lp2374
g65
(g66
g67
NtRp2375
(dp2376
g70
(dp2377
g78
I3
ssg79
g2371
sg72
(lp2378
S'7'
asbasbasbag65
(g81
g67
NtRp2379
(dp2380
g70
(dp2381
sg79
g2338
sg72
(lp2382
g65
(g86
g67
NtRp2383
(dp2384
g70
(dp2385
sg79
g2379
sg72
(lp2386
g65
(g66
g67
NtRp2387
(dp2388
g70
(dp2389
g78
I3
ssg79
g2383
sg72
(lp2390
S'datetime.datetime(2012, 3, 4, 22, 12, 8)'
p2391
asbasbasbag65
(g81
g67
NtRp2392
(dp2393
g70
(dp2394
sg79
g2338
sg72
(lp2395
g65
(g86
g67
NtRp2396
(dp2397
g70
(dp2398
sg79
g2392
sg72
(lp2399
g65
(g66
g67
NtRp2400
(dp2401
g70
(dp2402
g78
I3
ssg79
g2396
sg72
(lp2403
g1556
asbasbasbasbasbasbasbasbasbasbasbag65
(g81
g67
NtRp2404
(dp2405
g70
(dp2406
sg79
g75
sg72
(lp2407
g65
(g86
g67
NtRp2408
(dp2409
g70
(dp2410
g90
g91
ssg79
g2404
sg72
(lp2411
S'is_https'
p2412
asbag65
(g86
g67
NtRp2413
(dp2414
g70
(dp2415
g97
g98
ssg79
g2404
sg72
(lp2416
S':'
asbag65
(g86
g67
NtRp2417
(dp2418
g70
(dp2419
sg79
g2404
sg72
(lp2420
g65
(g66
g67
NtRp2421
(dp2422
g70
(dp2423
g78
I5
ssg79
g2417
sg72
(lp2424
g108
asbasbasbag65
(g81
g67
NtRp2425
(dp2426
g70
(dp2427
sg79
g75
sg72
(lp2428
g65
(g86
g67
NtRp2429
(dp2430
g70
(dp2431
g90
g91
ssg79
g2425
sg72
(lp2432
S'is_local'
p2433
asbag65
(g86
g67
NtRp2434
(dp2435
g70
(dp2436
g97
g98
ssg79
g2425
sg72
(lp2437
S':'
asbag65
(g86
g67
NtRp2438
(dp2439
g70
(dp2440
sg79
g2425
sg72
(lp2441
g65
(g66
g67
NtRp2442
(dp2443
g70
(dp2444
g78
I5
ssg79
g2438
sg72
(lp2445
g1665
asbasbasbag65
(g81
g67
NtRp2446
(dp2447
g70
(dp2448
sg79
g75
sg72
(lp2449
g65
(g86
g67
NtRp2450
(dp2451
g70
(dp2452
g90
g91
ssg79
g2446
sg72
(lp2453
S'is_restful'
p2454
asbag65
(g86
g67
NtRp2455
(dp2456
g70
(dp2457
g97
g98
ssg79
g2446
sg72
(lp2458
S':'
asbag65
(g86
g67
NtRp2459
(dp2460
g70
(dp2461
sg79
g2446
sg72
(lp2462
g65
(g66
g67
NtRp2463
(dp2464
g70
(dp2465
g78
I5
ssg79
g2459
sg72
(lp2466
g108
asbasbasbag65
(g81
g67
NtRp2467
(dp2468
g70
(dp2469
sg79
g75
sg72
(lp2470
g65
(g86
g67
NtRp2471
(dp2472
g70
(dp2473
g90
g91
ssg79
g2467
sg72
(lp2474
S'now'
p2475
asbag65
(g86
g67
NtRp2476
(dp2477
g70
(dp2478
g97
g98
ssg79
g2467
sg72
(lp2479
S':'
asbag65
(g86
g67
NtRp2480
(dp2481
g70
(dp2482
sg79
g2467
sg72
(lp2483
g65
(g66
g67
NtRp2484
(dp2485
g70
(dp2486
g78
I5
ssg79
g2480
sg72
(lp2487
S'datetime.datetime(2012, 6, 21, 14, 18, 31, 296000)'
p2488
asbasbasbag65
(g81
g67
NtRp2489
(dp2490
g70
(dp2491
sg79
g75
sg72
(lp2492
g65
(g86
g67
NtRp2493
(dp2494
g70
(dp2495
g90
g91
ssg79
g2489
sg72
(lp2496
S'post_vars'
p2497
asbag65
(g86
g67
NtRp2498
(dp2499
g70
(dp2500
g97
g98
ssg79
g2489
sg72
(lp2501
S':'
asbag65
(g86
g67
NtRp2502
(dp2503
g70
(dp2504
sg79
g2489
sg72
(lp2505
g65
(g66
g67
NtRp2506
(dp2507
g70
(dp2508
g78
I5
ssg79
g2502
sg72
(lp2509
g65
(g74
g67
NtRp2510
(dp2511
g70
(dp2512
g78
I4
ssg79
Nsg72
(lp2513
sbasbasbasbag65
(g81
g67
NtRp2514
(dp2515
g70
(dp2516
sg79
g75
sg72
(lp2517
g65
(g86
g67
NtRp2518
(dp2519
g70
(dp2520
g90
g91
ssg79
g2514
sg72
(lp2521
S'url'
p2522
asbag65
(g86
g67
NtRp2523
(dp2524
g70
(dp2525
g97
g98
ssg79
g2514
sg72
(lp2526
S':'
asbag65
(g86
g67
NtRp2527
(dp2528
g70
(dp2529
sg79
g2514
sg72
(lp2530
g65
(g66
g67
NtRp2531
(dp2532
g70
(dp2533
g78
I5
ssg79
g2527
sg72
(lp2534
S'/mycrawler/default/search'
p2535
asbasbasbag65
(g81
g67
NtRp2536
(dp2537
g70
(dp2538
sg79
g75
sg72
(lp2539
g65
(g86
g67
NtRp2540
(dp2541
g70
(dp2542
g90
g91
ssg79
g2536
sg72
(lp2543
S'utcnow'
p2544
asbag65
(g86
g67
NtRp2545
(dp2546
g70
(dp2547
g97
g98
ssg79
g2536
sg72
(lp2548
S':'
asbag65
(g86
g67
NtRp2549
(dp2550
g70
(dp2551
sg79
g2536
sg72
(lp2552
g65
(g66
g67
NtRp2553
(dp2554
g70
(dp2555
g78
I5
ssg79
g2549
sg72
(lp2556
S'datetime.datetime(2012, 6, 21, 21, 18, 31, 296000)'
p2557
asbasbasbag65
(g81
g67
NtRp2558
(dp2559
g70
(dp2560
sg79
g75
sg72
(lp2561
g65
(g86
g67
NtRp2562
(dp2563
g70
(dp2564
g90
g91
ssg79
g2558
sg72
(lp2565
S'uuid'
p2566
asbag65
(g86
g67
NtRp2567
(dp2568
g70
(dp2569
g97
g98
ssg79
g2558
sg72
(lp2570
S':'
asbag65
(g86
g67
NtRp2571
(dp2572
g70
(dp2573
sg79
g2558
sg72
(lp2574
g65
(g66
g67
NtRp2575
(dp2576
g70
(dp2577
g78
I5
ssg79
g2571
sg72
(lp2578
S'mycrawler/127.0.0.1.2012-06-21.14-18-31.0da51269-550c-457d-8469-ff78fa86de68'
p2579
asbasbasbag65
(g81
g67
NtRp2580
(dp2581
g70
(dp2582
sg79
g75
sg72
(lp2583
g65
(g86
g67
NtRp2584
(dp2585
g70
(dp2586
g90
g91
ssg79
g2580
sg72
(lp2587
S'vars'
p2588
asbag65
(g86
g67
NtRp2589
(dp2590
g70
(dp2591
g97
g98
ssg79
g2580
sg72
(lp2592
S':'
asbag65
(g86
g67
NtRp2593
(dp2594
g70
(dp2595
sg79
g2580
sg72
(lp2596
g65
(g66
g67
NtRp2597
(dp2598
g70
(dp2599
g78
I5
ssg79
g2593
sg72
(lp2600
g65
(g74
g67
NtRp2601
(dp2602
g70
(dp2603
g78
I4
ssg79
Nsg72
(lp2604
g65
(g81
g67
NtRp2605
(dp2606
g70
(dp2607
sg79
g2601
sg72
(lp2608
g65
(g86
g67
NtRp2609
(dp2610
g70
(dp2611
g90
g91
ssg79
g2605
sg72
(lp2612
g1857
asbag65
(g86
g67
NtRp2613
(dp2614
g70
(dp2615
g97
g98
ssg79
g2605
sg72
(lp2616
S':'
asbag65
(g86
g67
NtRp2617
(dp2618
g70
(dp2619
sg79
g2605
sg72
(lp2620
g65
(g66
g67
NtRp2621
(dp2622
g70
(dp2623
g78
I4
ssg79
g2617
sg72
(lp2624
S''
asbasbasbag65
(g81
g67
NtRp2625
(dp2626
g70
(dp2627
sg79
g2601
sg72
(lp2628
g65
(g86
g67
NtRp2629
(dp2630
g70
(dp2631
g90
g91
ssg79
g2625
sg72
(lp2632
g1878
asbag65
(g86
g67
NtRp2633
(dp2634
g70
(dp2635
g97
g98
ssg79
g2625
sg72
(lp2636
S':'
asbag65
(g86
g67
NtRp2637
(dp2638
g70
(dp2639
sg79
g2625
sg72
(lp2640
g65
(g66
g67
NtRp2641
(dp2642
g70
(dp2643
g78
I4
ssg79
g2637
sg72
(lp2644
g1891
asbasbasbag65
(g81
g67
NtRp2645
(dp2646
g70
(dp2647
sg79
g2601
sg72
(lp2648
g65
(g86
g67
NtRp2649
(dp2650
g70
(dp2651
g90
g91
ssg79
g2645
sg72
(lp2652
g1900
asbag65
(g86
g67
NtRp2653
(dp2654
g70
(dp2655
g97
g98
ssg79
g2645
sg72
(lp2656
S':'
asbag65
(g86
g67
NtRp2657
(dp2658
g70
(dp2659
sg79
g2645
sg72
(lp2660
g65
(g66
g67
NtRp2661
(dp2662
g70
(dp2663
g78
I4
ssg79
g2657
sg72
(lp2664
g1913
asbasbasbag65
(g81
g67
NtRp2665
(dp2666
g70
(dp2667
sg79
g2601
sg72
(lp2668
g65
(g86
g67
NtRp2669
(dp2670
g70
(dp2671
g90
g91
ssg79
g2665
sg72
(lp2672
g1922
asbag65
(g86
g67
NtRp2673
(dp2674
g70
(dp2675
g97
g98
ssg79
g2665
sg72
(lp2676
S':'
asbag65
(g86
g67
NtRp2677
(dp2678
g70
(dp2679
sg79
g2665
sg72
(lp2680
g65
(g66
g67
NtRp2681
(dp2682
g70
(dp2683
g78
I4
ssg79
g2677
sg72
(lp2684
g1935
asbasbasbag65
(g81
g67
NtRp2685
(dp2686
g70
(dp2687
sg79
g2601
sg72
(lp2688
g65
(g86
g67
NtRp2689
(dp2690
g70
(dp2691
g90
g91
ssg79
g2685
sg72
(lp2692
g1944
asbag65
(g86
g67
NtRp2693
(dp2694
g70
(dp2695
g97
g98
ssg79
g2685
sg72
(lp2696
S':'
asbag65
(g86
g67
NtRp2697
(dp2698
g70
(dp2699
sg79
g2685
sg72
(lp2700
g65
(g66
g67
NtRp2701
(dp2702
g70
(dp2703
g78
I4
ssg79
g2697
sg72
(lp2704
g1957
asbasbasbag65
(g81
g67
NtRp2705
(dp2706
g70
(dp2707
sg79
g2601
sg72
(lp2708
g65
(g86
g67
NtRp2709
(dp2710
g70
(dp2711
g90
g91
ssg79
g2705
sg72
(lp2712
g1966
asbag65
(g86
g67
NtRp2713
(dp2714
g70
(dp2715
g97
g98
ssg79
g2705
sg72
(lp2716
S':'
asbag65
(g86
g67
NtRp2717
(dp2718
g70
(dp2719
sg79
g2705
sg72
(lp2720
g65
(g66
g67
NtRp2721
(dp2722
g70
(dp2723
g78
I4
ssg79
g2717
sg72
(lp2724
g1979
asbasbasbag65
(g81
g67
NtRp2725
(dp2726
g70
(dp2727
sg79
g2601
sg72
(lp2728
g65
(g86
g67
NtRp2729
(dp2730
g70
(dp2731
g90
g91
ssg79
g2725
sg72
(lp2732
g1988
asbag65
(g86
g67
NtRp2733
(dp2734
g70
(dp2735
g97
g98
ssg79
g2725
sg72
(lp2736
S':'
asbag65
(g86
g67
NtRp2737
(dp2738
g70
(dp2739
sg79
g2725
sg72
(lp2740
g65
(g66
g67
NtRp2741
(dp2742
g70
(dp2743
g78
I4
ssg79
g2737
sg72
(lp2744
S''
asbasbasbag65
(g81
g67
NtRp2745
(dp2746
g70
(dp2747
sg79
g2601
sg72
(lp2748
g65
(g86
g67
NtRp2749
(dp2750
g70
(dp2751
g90
g91
ssg79
g2745
sg72
(lp2752
g2009
asbag65
(g86
g67
NtRp2753
(dp2754
g70
(dp2755
g97
g98
ssg79
g2745
sg72
(lp2756
S':'
asbag65
(g86
g67
NtRp2757
(dp2758
g70
(dp2759
sg79
g2745
sg72
(lp2760
g65
(g66
g67
NtRp2761
(dp2762
g70
(dp2763
g78
I4
ssg79
g2757
sg72
(lp2764
S''
asbasbasbag65
(g81
g67
NtRp2765
(dp2766
g70
(dp2767
sg79
g2601
sg72
(lp2768
g65
(g86
g67
NtRp2769
(dp2770
g70
(dp2771
g90
g91
ssg79
g2765
sg72
(lp2772
g2030
asbag65
(g86
g67
NtRp2773
(dp2774
g70
(dp2775
g97
g98
ssg79
g2765
sg72
(lp2776
S':'
asbag65
(g86
g67
NtRp2777
(dp2778
g70
(dp2779
sg79
g2765
sg72
(lp2780
g65
(g66
g67
NtRp2781
(dp2782
g70
(dp2783
g78
I4
ssg79
g2777
sg72
(lp2784
S''
asbasbasbag65
(g81
g67
NtRp2785
(dp2786
g70
(dp2787
sg79
g2601
sg72
(lp2788
g65
(g86
g67
NtRp2789
(dp2790
g70
(dp2791
g90
g91
ssg79
g2785
sg72
(lp2792
g2051
asbag65
(g86
g67
NtRp2793
(dp2794
g70
(dp2795
g97
g98
ssg79
g2785
sg72
(lp2796
S':'
asbag65
(g86
g67
NtRp2797
(dp2798
g70
(dp2799
sg79
g2785
sg72
(lp2800
g65
(g66
g67
NtRp2801
(dp2802
g70
(dp2803
g78
I4
ssg79
g2797
sg72
(lp2804
g2064
asbasbasbag65
(g81
g67
NtRp2805
(dp2806
g70
(dp2807
sg79
g2601
sg72
(lp2808
g65
(g86
g67
NtRp2809
(dp2810
g70
(dp2811
g90
g91
ssg79
g2805
sg72
(lp2812
g2073
asbag65
(g86
g67
NtRp2813
(dp2814
g70
(dp2815
g97
g98
ssg79
g2805
sg72
(lp2816
S':'
asbag65
(g86
g67
NtRp2817
(dp2818
g70
(dp2819
sg79
g2805
sg72
(lp2820
g65
(g66
g67
NtRp2821
(dp2822
g70
(dp2823
g78
I4
ssg79
g2817
sg72
(lp2824
S''
asbasbasbasbasbasbasbag65
(g81
g67
NtRp2825
(dp2826
g70
(dp2827
sg79
g75
sg72
(lp2828
g65
(g86
g67
NtRp2829
(dp2830
g70
(dp2831
g90
g91
ssg79
g2825
sg72
(lp2832
S'wsgi'
p2833
asbag65
(g86
g67
NtRp2834
(dp2835
g70
(dp2836
g97
g98
ssg79
g2825
sg72
(lp2837
S':'
asbag65
(g86
g67
NtRp2838
(dp2839
g70
(dp2840
sg79
g2825
sg72
(lp2841
g65
(g66
g67
NtRp2842
(dp2843
g70
(dp2844
g78
I5
ssg79
g2838
sg72
(lp2845
g65
(g74
g67
NtRp2846
(dp2847
g70
(dp2848
g78
I4
ssg79
Nsg72
(lp2849
g65
(g81
g67
NtRp2850
(dp2851
g70
(dp2852
sg79
g2846
sg72
(lp2853
g65
(g86
g67
NtRp2854
(dp2855
g70
(dp2856
g90
g91
ssg79
g2850
sg72
(lp2857
S'environ'
p2858
asbag65
(g86
g67
NtRp2859
(dp2860
g70
(dp2861
g97
g98
ssg79
g2850
sg72
(lp2862
S':'
asbag65
(g86
g67
NtRp2863
(dp2864
g70
(dp2865
sg79
g2850
sg72
(lp2866
g65
(g66
g67
NtRp2867
(dp2868
g70
(dp2869
g78
I4
ssg79
g2863
sg72
(lp2870
g65
(g74
g67
NtRp2871
(dp2872
g70
(dp2873
g78
I3
ssg79
Nsg72
(lp2874
g65
(g81
g67
NtRp2875
(dp2876
g70
(dp2877
sg79
g2871
sg72
(lp2878
g65
(g86
g67
NtRp2879
(dp2880
g70
(dp2881
g90
g91
ssg79
g2875
sg72
(lp2882
S'HTTP_ACCEPT'
p2883
asbag65
(g86
g67
NtRp2884
(dp2885
g70
(dp2886
g97
g98
ssg79
g2875
sg72
(lp2887
S':'
asbag65
(g86
g67
NtRp2888
(dp2889
g70
(dp2890
sg79
g2875
sg72
(lp2891
g65
(g66
g67
NtRp2892
(dp2893
g70
(dp2894
g78
I3
ssg79
g2888
sg72
(lp2895
g1011
asbasbasbag65
(g81
g67
NtRp2896
(dp2897
g70
(dp2898
sg79
g2871
sg72
(lp2899
g65
(g86
g67
NtRp2900
(dp2901
g70
(dp2902
g90
g91
ssg79
g2896
sg72
(lp2903
S'HTTP_ACCEPT_ENCODING'
p2904
asbag65
(g86
g67
NtRp2905
(dp2906
g70
(dp2907
g97
g98
ssg79
g2896
sg72
(lp2908
S':'
asbag65
(g86
g67
NtRp2909
(dp2910
g70
(dp2911
sg79
g2896
sg72
(lp2912
g65
(g66
g67
NtRp2913
(dp2914
g70
(dp2915
g78
I3
ssg79
g2909
sg72
(lp2916
g1033
asbasbasbag65
(g81
g67
NtRp2917
(dp2918
g70
(dp2919
sg79
g2871
sg72
(lp2920
g65
(g86
g67
NtRp2921
(dp2922
g70
(dp2923
g90
g91
ssg79
g2917
sg72
(lp2924
S'HTTP_ACCEPT_LANGUAGE'
p2925
asbag65
(g86
g67
NtRp2926
(dp2927
g70
(dp2928
g97
g98
ssg79
g2917
sg72
(lp2929
S':'
asbag65
(g86
g67
NtRp2930
(dp2931
g70
(dp2932
sg79
g2917
sg72
(lp2933
g65
(g66
g67
NtRp2934
(dp2935
g70
(dp2936
g78
I3
ssg79
g2930
sg72
(lp2937
g1055
asbasbasbag65
(g81
g67
NtRp2938
(dp2939
g70
(dp2940
sg79
g2871
sg72
(lp2941
g65
(g86
g67
NtRp2942
(dp2943
g70
(dp2944
g90
g91
ssg79
g2938
sg72
(lp2945
S'HTTP_CONNECTION'
p2946
asbag65
(g86
g67
NtRp2947
(dp2948
g70
(dp2949
g97
g98
ssg79
g2938
sg72
(lp2950
S':'
asbag65
(g86
g67
NtRp2951
(dp2952
g70
(dp2953
sg79
g2938
sg72
(lp2954
g65
(g66
g67
NtRp2955
(dp2956
g70
(dp2957
g78
I3
ssg79
g2951
sg72
(lp2958
g1077
asbasbasbag65
(g81
g67
NtRp2959
(dp2960
g70
(dp2961
sg79
g2871
sg72
(lp2962
g65
(g86
g67
NtRp2963
(dp2964
g70
(dp2965
g90
g91
ssg79
g2959
sg72
(lp2966
S'HTTP_COOKIE'
p2967
asbag65
(g86
g67
NtRp2968
(dp2969
g70
(dp2970
g97
g98
ssg79
g2959
sg72
(lp2971
S':'
asbag65
(g86
g67
NtRp2972
(dp2973
g70
(dp2974
sg79
g2959
sg72
(lp2975
g65
(g66
g67
NtRp2976
(dp2977
g70
(dp2978
g78
I3
ssg79
g2972
sg72
(lp2979
g1099
asbasbasbag65
(g81
g67
NtRp2980
(dp2981
g70
(dp2982
sg79
g2871
sg72
(lp2983
g65
(g86
g67
NtRp2984
(dp2985
g70
(dp2986
g90
g91
ssg79
g2980
sg72
(lp2987
S'HTTP_HOST'
p2988
asbag65
(g86
g67
NtRp2989
(dp2990
g70
(dp2991
g97
g98
ssg79
g2980
sg72
(lp2992
S':'
asbag65
(g86
g67
NtRp2993
(dp2994
g70
(dp2995
sg79
g2980
sg72
(lp2996
g65
(g66
g67
NtRp2997
(dp2998
g70
(dp2999
g78
I3
ssg79
g2993
sg72
(lp3000
g1121
asbasbasbag65
(g81
g67
NtRp3001
(dp3002
g70
(dp3003
sg79
g2871
sg72
(lp3004
g65
(g86
g67
NtRp3005
(dp3006
g70
(dp3007
g90
g91
ssg79
g3001
sg72
(lp3008
S'HTTP_REFERER'
p3009
asbag65
(g86
g67
NtRp3010
(dp3011
g70
(dp3012
g97
g98
ssg79
g3001
sg72
(lp3013
S':'
asbag65
(g86
g67
NtRp3014
(dp3015
g70
(dp3016
sg79
g3001
sg72
(lp3017
g65
(g66
g67
NtRp3018
(dp3019
g70
(dp3020
g78
I3
ssg79
g3014
sg72
(lp3021
g1143
asbasbasbag65
(g81
g67
NtRp3022
(dp3023
g70
(dp3024
sg79
g2871
sg72
(lp3025
g65
(g86
g67
NtRp3026
(dp3027
g70
(dp3028
g90
g91
ssg79
g3022
sg72
(lp3029
S'HTTP_USER_AGENT'
p3030
asbag65
(g86
g67
NtRp3031
(dp3032
g70
(dp3033
g97
g98
ssg79
g3022
sg72
(lp3034
S':'
asbag65
(g86
g67
NtRp3035
(dp3036
g70
(dp3037
sg79
g3022
sg72
(lp3038
g65
(g66
g67
NtRp3039
(dp3040
g70
(dp3041
g78
I3
ssg79
g3035
sg72
(lp3042
g1165
asbasbasbag65
(g81
g67
NtRp3043
(dp3044
g70
(dp3045
sg79
g2871
sg72
(lp3046
g65
(g86
g67
NtRp3047
(dp3048
g70
(dp3049
g90
g91
ssg79
g3043
sg72
(lp3050
S'PATH_INFO'
p3051
asbag65
(g86
g67
NtRp3052
(dp3053
g70
(dp3054
g97
g98
ssg79
g3043
sg72
(lp3055
S':'
asbag65
(g86
g67
NtRp3056
(dp3057
g70
(dp3058
sg79
g3043
sg72
(lp3059
g65
(g66
g67
NtRp3060
(dp3061
g70
(dp3062
g78
I3
ssg79
g3056
sg72
(lp3063
g1229
asbasbasbag65
(g81
g67
NtRp3064
(dp3065
g70
(dp3066
sg79
g2871
sg72
(lp3067
g65
(g86
g67
NtRp3068
(dp3069
g70
(dp3070
g90
g91
ssg79
g3064
sg72
(lp3071
S'QUERY_STRING'
p3072
asbag65
(g86
g67
NtRp3073
(dp3074
g70
(dp3075
g97
g98
ssg79
g3064
sg72
(lp3076
S':'
asbag65
(g86
g67
NtRp3077
(dp3078
g70
(dp3079
sg79
g3064
sg72
(lp3080
g65
(g66
g67
NtRp3081
(dp3082
g70
(dp3083
g78
I3
ssg79
g3077
sg72
(lp3084
g1251
asbasbasbag65
(g81
g67
NtRp3085
(dp3086
g70
(dp3087
sg79
g2871
sg72
(lp3088
g65
(g86
g67
NtRp3089
(dp3090
g70
(dp3091
g90
g91
ssg79
g3085
sg72
(lp3092
S'REMOTE_ADDR'
p3093
asbag65
(g86
g67
NtRp3094
(dp3095
g70
(dp3096
g97
g98
ssg79
g3085
sg72
(lp3097
S':'
asbag65
(g86
g67
NtRp3098
(dp3099
g70
(dp3100
sg79
g3085
sg72
(lp3101
g65
(g66
g67
NtRp3102
(dp3103
g70
(dp3104
g78
I3
ssg79
g3098
sg72
(lp3105
g198
asbasbasbag65
(g81
g67
NtRp3106
(dp3107
g70
(dp3108
sg79
g2871
sg72
(lp3109
g65
(g86
g67
NtRp3110
(dp3111
g70
(dp3112
g90
g91
ssg79
g3106
sg72
(lp3113
S'REMOTE_PORT'
p3114
asbag65
(g86
g67
NtRp3115
(dp3116
g70
(dp3117
g97
g98
ssg79
g3106
sg72
(lp3118
S':'
asbag65
(g86
g67
NtRp3119
(dp3120
g70
(dp3121
sg79
g3106
sg72
(lp3122
g65
(g66
g67
NtRp3123
(dp3124
g70
(dp3125
g78
I3
ssg79
g3119
sg72
(lp3126
g1294
asbasbasbag65
(g81
g67
NtRp3127
(dp3128
g70
(dp3129
sg79
g2871
sg72
(lp3130
g65
(g86
g67
NtRp3131
(dp3132
g70
(dp3133
g90
g91
ssg79
g3127
sg72
(lp3134
S'REQUEST_METHOD'
p3135
asbag65
(g86
g67
NtRp3136
(dp3137
g70
(dp3138
g97
g98
ssg79
g3127
sg72
(lp3139
S':'
asbag65
(g86
g67
NtRp3140
(dp3141
g70
(dp3142
sg79
g3127
sg72
(lp3143
g65
(g66
g67
NtRp3144
(dp3145
g70
(dp3146
g78
I3
ssg79
g3140
sg72
(lp3147
g1316
asbasbasbag65
(g81
g67
NtRp3148
(dp3149
g70
(dp3150
sg79
g2871
sg72
(lp3151
g65
(g86
g67
NtRp3152
(dp3153
g70
(dp3154
g90
g91
ssg79
g3148
sg72
(lp3155
S'SCRIPT_NAME'
p3156
asbag65
(g86
g67
NtRp3157
(dp3158
g70
(dp3159
g97
g98
ssg79
g3148
sg72
(lp3160
S':'
asbag65
(g86
g67
NtRp3161
(dp3162
g70
(dp3163
sg79
g3148
sg72
(lp3164
g65
(g66
g67
NtRp3165
(dp3166
g70
(dp3167
g78
I3
ssg79
g3161
sg72
(lp3168
S''
asbasbasbag65
(g81
g67
NtRp3169
(dp3170
g70
(dp3171
sg79
g2871
sg72
(lp3172
g65
(g86
g67
NtRp3173
(dp3174
g70
(dp3175
g90
g91
ssg79
g3169
sg72
(lp3176
S'SERVER_NAME'
p3177
asbag65
(g86
g67
NtRp3178
(dp3179
g70
(dp3180
g97
g98
ssg79
g3169
sg72
(lp3181
S':'
asbag65
(g86
g67
NtRp3182
(dp3183
g70
(dp3184
sg79
g3169
sg72
(lp3185
g65
(g66
g67
NtRp3186
(dp3187
g70
(dp3188
g78
I3
ssg79
g3182
sg72
(lp3189
g1359
asbasbasbag65
(g81
g67
NtRp3190
(dp3191
g70
(dp3192
sg79
g2871
sg72
(lp3193
g65
(g86
g67
NtRp3194
(dp3195
g70
(dp3196
g90
g91
ssg79
g3190
sg72
(lp3197
S'SERVER_PORT'
p3198
asbag65
(g86
g67
NtRp3199
(dp3200
g70
(dp3201
g97
g98
ssg79
g3190
sg72
(lp3202
S':'
asbag65
(g86
g67
NtRp3203
(dp3204
g70
(dp3205
sg79
g3190
sg72
(lp3206
g65
(g66
g67
NtRp3207
(dp3208
g70
(dp3209
g78
I3
ssg79
g3203
sg72
(lp3210
g1381
asbasbasbag65
(g81
g67
NtRp3211
(dp3212
g70
(dp3213
sg79
g2871
sg72
(lp3214
g65
(g86
g67
NtRp3215
(dp3216
g70
(dp3217
g90
g91
ssg79
g3211
sg72
(lp3218
S'SERVER_PROTOCOL'
p3219
asbag65
(g86
g67
NtRp3220
(dp3221
g70
(dp3222
g97
g98
ssg79
g3211
sg72
(lp3223
S':'
asbag65
(g86
g67
NtRp3224
(dp3225
g70
(dp3226
sg79
g3211
sg72
(lp3227
g65
(g66
g67
NtRp3228
(dp3229
g70
(dp3230
g78
I3
ssg79
g3224
sg72
(lp3231
g1403
asbasbasbag65
(g81
g67
NtRp3232
(dp3233
g70
(dp3234
sg79
g2871
sg72
(lp3235
g65
(g86
g67
NtRp3236
(dp3237
g70
(dp3238
g90
g91
ssg79
g3232
sg72
(lp3239
S'SERVER_SOFTWARE'
p3240
asbag65
(g86
g67
NtRp3241
(dp3242
g70
(dp3243
g97
g98
ssg79
g3232
sg72
(lp3244
S':'
asbag65
(g86
g67
NtRp3245
(dp3246
g70
(dp3247
sg79
g3232
sg72
(lp3248
g65
(g66
g67
NtRp3249
(dp3250
g70
(dp3251
g78
I3
ssg79
g3245
sg72
(lp3252
g1425
asbasbasbag65
(g81
g67
NtRp3253
(dp3254
g70
(dp3255
sg79
g2871
sg72
(lp3256
g65
(g86
g67
NtRp3257
(dp3258
g70
(dp3259
g90
g91
ssg79
g3253
sg72
(lp3260
S'wsgi.errors'
p3261
asbag65
(g86
g67
NtRp3262
(dp3263
g70
(dp3264
g97
g98
ssg79
g3253
sg72
(lp3265
S':'
asbag65
(g86
g67
NtRp3266
(dp3267
g70
(dp3268
sg79
g3253
sg72
(lp3269
g65
(g66
g67
NtRp3270
(dp3271
g70
(dp3272
g78
I3
ssg79
g3266
sg72
(lp3273
S"<open file '<stderr>', mode 'w' at 0x00A550D0>"
p3274
asbasbasbag65
(g81
g67
NtRp3275
(dp3276
g70
(dp3277
sg79
g2871
sg72
(lp3278
g65
(g86
g67
NtRp3279
(dp3280
g70
(dp3281
g90
g91
ssg79
g3275
sg72
(lp3282
S'wsgi.file_wrapper'
p3283
asbag65
(g86
g67
NtRp3284
(dp3285
g70
(dp3286
g97
g98
ssg79
g3275
sg72
(lp3287
S':'
asbag65
(g86
g67
NtRp3288
(dp3289
g70
(dp3290
sg79
g3275
sg72
(lp3291
g65
(g66
g67
NtRp3292
(dp3293
g70
(dp3294
g78
I3
ssg79
g3288
sg72
(lp3295
S'<class wsgiref.util.FileWrapper at 0x015E8AB0>'
p3296
asbasbasbag65
(g81
g67
NtRp3297
(dp3298
g70
(dp3299
sg79
g2871
sg72
(lp3300
g65
(g86
g67
NtRp3301
(dp3302
g70
(dp3303
g90
g91
ssg79
g3297
sg72
(lp3304
S'wsgi.input'
p3305
asbag65
(g86
g67
NtRp3306
(dp3307
g70
(dp3308
g97
g98
ssg79
g3297
sg72
(lp3309
S':'
asbag65
(g86
g67
NtRp3310
(dp3311
g70
(dp3312
sg79
g3297
sg72
(lp3313
g65
(g66
g67
NtRp3314
(dp3315
g70
(dp3316
g78
I3
ssg79
g3310
sg72
(lp3317
S'<cStringIO.StringO object at 0x05359520>'
p3318
asbasbasbag65
(g81
g67
NtRp3319
(dp3320
g70
(dp3321
sg79
g2871
sg72
(lp3322
g65
(g86
g67
NtRp3323
(dp3324
g70
(dp3325
g90
g91
ssg79
g3319
sg72
(lp3326
S'wsgi.multiprocess'
p3327
asbag65
(g86
g67
NtRp3328
(dp3329
g70
(dp3330
g97
g98
ssg79
g3319
sg72
(lp3331
S':'
asbag65
(g86
g67
NtRp3332
(dp3333
g70
(dp3334
sg79
g3319
sg72
(lp3335
g65
(g66
g67
NtRp3336
(dp3337
g70
(dp3338
g78
I3
ssg79
g3332
sg72
(lp3339
g108
asbasbasbag65
(g81
g67
NtRp3340
(dp3341
g70
(dp3342
sg79
g2871
sg72
(lp3343
g65
(g86
g67
NtRp3344
(dp3345
g70
(dp3346
g90
g91
ssg79
g3340
sg72
(lp3347
S'wsgi.multithread'
p3348
asbag65
(g86
g67
NtRp3349
(dp3350
g70
(dp3351
g97
g98
ssg79
g3340
sg72
(lp3352
S':'
asbag65
(g86
g67
NtRp3353
(dp3354
g70
(dp3355
sg79
g3340
sg72
(lp3356
g65
(g66
g67
NtRp3357
(dp3358
g70
(dp3359
g78
I3
ssg79
g3353
sg72
(lp3360
g1665
asbasbasbag65
(g81
g67
NtRp3361
(dp3362
g70
(dp3363
sg79
g2871
sg72
(lp3364
g65
(g86
g67
NtRp3365
(dp3366
g70
(dp3367
g90
g91
ssg79
g3361
sg72
(lp3368
S'wsgi.run_once'
p3369
asbag65
(g86
g67
NtRp3370
(dp3371
g70
(dp3372
g97
g98
ssg79
g3361
sg72
(lp3373
S':'
asbag65
(g86
g67
NtRp3374
(dp3375
g70
(dp3376
sg79
g3361
sg72
(lp3377
g65
(g66
g67
NtRp3378
(dp3379
g70
(dp3380
g78
I3
ssg79
g3374
sg72
(lp3381
g108
asbasbasbag65
(g81
g67
NtRp3382
(dp3383
g70
(dp3384
sg79
g2871
sg72
(lp3385
g65
(g86
g67
NtRp3386
(dp3387
g70
(dp3388
g90
g91
ssg79
g3382
sg72
(lp3389
S'wsgi.url_scheme'
p3390
asbag65
(g86
g67
NtRp3391
(dp3392
g70
(dp3393
g97
g98
ssg79
g3382
sg72
(lp3394
S':'
asbag65
(g86
g67
NtRp3395
(dp3396
g70
(dp3397
sg79
g3382
sg72
(lp3398
g65
(g66
g67
NtRp3399
(dp3400
g70
(dp3401
g78
I3
ssg79
g3395
sg72
(lp3402
g1708
asbasbasbag65
(g81
g67
NtRp3403
(dp3404
g70
(dp3405
sg79
g2871
sg72
(lp3406
g65
(g86
g67
NtRp3407
(dp3408
g70
(dp3409
g90
g91
ssg79
g3403
sg72
(lp3410
S'wsgi.version'
p3411
asbag65
(g86
g67
NtRp3412
(dp3413
g70
(dp3414
g97
g98
ssg79
g3403
sg72
(lp3415
S':'
asbag65
(g86
g67
NtRp3416
(dp3417
g70
(dp3418
sg79
g3403
sg72
(lp3419
g65
(g66
g67
NtRp3420
(dp3421
g70
(dp3422
g78
I3
ssg79
g3416
sg72
(lp3423
S'1'
asbasbasbasbasbasbasbasbasbasbasbasbasbsS'frames'
p3424
(lp3425
(dp3426
S'file'
p3427
S'C:\\Documents and Settings\\agrover\\Desktop\\previous crawler\\web2py\\gluon\\restricted.py'
p3428
sS'dump'
p3429
(dp3430
S'environment'
p3431
S"{'A': <class 'gluon.html.A'>, 'Auth': <class 'gluon.tools.Auth'>, 'B': <class 'gluon.html.B'>, 'BEAUTIFY': <class 'gluon.html.BEAUTIFY'>, 'BODY': <class 'gluon.html.BODY'>, 'BR': <class 'gluon.html.BR'>, 'BUTTON': <class 'gluon.html.BUTTON'>, 'CAT': <class 'gluon.html.CAT'>, 'CENTER': <class 'gluon.html.CENTER'>, 'CLEANUP': <class 'gluon.validators.CLEANUP'>, ...}"
p3432
sS'ccode'
p3433
S'<code object <module> at 05817B60, file "C:\\Docu...tions\\mycrawler\\controllers/default.py", line 11>'
p3434
ssS'lnum'
p3435
I205
sS'lines'
p3436
(dp3437
I200
S'    try:'
p3438
sI201
S'        if type(code) == types.CodeType:'
p3439
sI202
S'            ccode = code'
p3440
sI203
S'        else:'
p3441
sI204
S'            ccode = compile2(code,layer)'
p3442
sI205
S'        exec ccode in environment'
p3443
sI206
S'    except HTTP:'
p3444
sI207
S'        raise'
p3445
sI208
S'    except RestrictedError:'
p3446
sI209
S'        # do not encapsulate (obfuscate) the original RestrictedError'
p3447
ssS'call'
p3448
S"(code='# -*- coding: utf-8 -*-\\n# this file is released ...urrent)\\n\\nresponse._vars=response._caller(search)\\n', environment={'A': <class 'gluon.html.A'>, 'Auth': <class 'gluon.tools.Auth'>, 'B': <class 'gluon.html.B'>, 'BEAUTIFY': <class 'gluon.html.BEAUTIFY'>, 'BODY': <class 'gluon.html.BODY'>, 'BR': <class 'gluon.html.BR'>, 'BUTTON': <class 'gluon.html.BUTTON'>, 'CAT': <class 'gluon.html.CAT'>, 'CENTER': <class 'gluon.html.CENTER'>, 'CLEANUP': <class 'gluon.validators.CLEANUP'>, ...}, layer=r'C:\\Documents and Settings\\agrover\\Desktop\\previo...2py\\applications\\mycrawler\\controllers/default.py')"
p3449
sS'func'
p3450
S'restricted'
p3451
sa(dp3452
g3427
S'C:\\Documents and Settings\\agrover\\Desktop\\previous crawler\\web2py\\applications\\mycrawler\\controllers\\default.py'
p3453
sg3429
(dp3454
sg3435
I397
sg3436
(dp3455
I386
S"    #response.headers['Content-Type'] = 'text/csv'"
p3456
sI387
S"    #response.headers['Content-Disposition'] = 'attachment; filename=%s' % request.vars.File_Name"
p3457
sI388
S''
sI389
S'    #print view_profile'
p3458
sI390
S'    #print name'
p3459
sI391
S'    #print location'
p3460
sI392
S'    #print industry'
p3461
sI393
S'    #print titl'
p3462
sI394
S''
sI395
S'    #return dict(view_profile=view_profile,name=name,location=location,industry=industry,titl=titl,current=current)'
p3463
ssg3448
S'()'
p3464
sg3450
S'<module>'
p3465
sa(dp3466
g3427
S'C:\\Documents and Settings\\agrover\\Desktop\\previous crawler\\web2py\\gluon\\globals.py'
p3467
sg3429
(dp3468
S'self'
p3469
S'undefined'
p3470
sS'f'
S'<function search>'
p3471
ssg3435
I173
sg3436
(dp3472
I168
S'        self.menu = []             # used by the default view layout'
p3473
sI169
S'        self.files = []            # used by web2py_ajax.html'
p3474
sI170
S'        self.generic_patterns = [] # patterns to allow generic views'
p3475
sI171
S"        self.delimiters = ('{{','}}')"
p3476
sI172
S'        self._vars = None'
p3477
sI173
S'        self._caller = lambda f: f()'
p3478
sI174
S'        self._view_environment = None'
p3479
sI175
S'        self._custom_commit = None'
p3480
sI176
S'        self._custom_rollback = None'
p3481
sI177
S''
ssg3448
S'(f=<function search>)'
p3482
sg3450
S'<lambda>'
p3483
sa(dp3484
g3427
S'C:\\Documents and Settings\\agrover\\Desktop\\previous crawler\\web2py\\applications\\mycrawler\\controllers\\default.py'
p3485
sg3429
(dp3486
S'temp2'
p3487
S'[]'
p3488
sS'].encode'
p3489
g3470
sS'temp'
p3490
S"[['LinkedIn', 'Member']]"
p3491
ssg3435
I289
sg3436
(dp3492
I288
S'                    if(len(temp1)>1):'
p3493
sI289
S"                        temp2=temp1[1].encode('utf-8').split(',',1)"
p3494
sI290
S'                    else:'
p3495
sI291
S"                        temp2=['None']"
p3496
sI292
S'                    company.append(temp2[0])'
p3497
sI293
S'                    current.append(less[0:len(less)-4])'
p3498
sI284
S'            temp2=[]'
p3499
sI285
S'            if k.find(\'span\',{"class" : "current-details more-text"}):'
p3500
sI286
S'                    less=k.find(\'span\',{"class" : "current-details more-text"}).get_text()'
p3501
sI287
S"                    temp1=less[0:len(less)-4].encode('utf-8').split(' at ',1)"
p3502
ssg3448
S'()'
p3503
sg3450
S'search'
p3504
sasS'pyver'
p3505
S'Python 2.7.3: C:\\Python27\\python.exe'
p3506
sS'session'
p3507
g65
(g66
g67
NtRp3508
(dp3509
g70
(dp3510
sg72
(lp3511
g65
(g74
g67
NtRp3512
(dp3513
g70
(dp3514
g78
I5
ssg79
Nsg72
(lp3515
g65
(g81
g67
NtRp3516
(dp3517
g70
(dp3518
sg79
g3512
sg72
(lp3519
g65
(g86
g67
NtRp3520
(dp3521
g70
(dp3522
g90
g91
ssg79
g3516
sg72
(lp3523
S'password'
p3524
asbag65
(g86
g67
NtRp3525
(dp3526
g70
(dp3527
g97
g98
ssg79
g3516
sg72
(lp3528
S':'
asbag65
(g86
g67
NtRp3529
(dp3530
g70
(dp3531
sg79
g3516
sg72
(lp3532
g65
(g66
g67
NtRp3533
(dp3534
g70
(dp3535
g78
I5
ssg79
g3529
sg72
(lp3536
S'modeln@1234'
p3537
asbasbasbag65
(g81
g67
NtRp3538
(dp3539
g70
(dp3540
sg79
g3512
sg72
(lp3541
g65
(g86
g67
NtRp3542
(dp3543
g70
(dp3544
g90
g91
ssg79
g3538
sg72
(lp3545
S'username'
p3546
asbag65
(g86
g67
NtRp3547
(dp3548
g70
(dp3549
g97
g98
ssg79
g3538
sg72
(lp3550
S':'
asbag65
(g86
g67
NtRp3551
(dp3552
g70
(dp3553
sg79
g3538
sg72
(lp3554
g65
(g66
g67
NtRp3555
(dp3556
g70
(dp3557
g78
I5
ssg79
g3551
sg72
(lp3558
S'mrigeshgaurav@gmail.com'
p3559
asbasbasbasbasbsS'etype'
p3560
S"<type 'exceptions.UnicodeDecodeError'>"
p3561
sS'date'
p3562
S'Thu Jun 21 14:21:07 2012'
p3563
sS'response'
p3564
g65
(g66
g67
NtRp3565
(dp3566
g70
(dp3567
sg72
(lp3568
g65
(g74
g67
NtRp3569
(dp3570
g70
(dp3571
g78
I5
ssg79
Nsg72
(lp3572
g65
(g81
g67
NtRp3573
(dp3574
g70
(dp3575
sg79
g3569
sg72
(lp3576
g65
(g86
g67
NtRp3577
(dp3578
g70
(dp3579
g90
g91
ssg79
g3573
sg72
(lp3580
g163
asbag65
(g86
g67
NtRp3581
(dp3582
g70
(dp3583
g97
g98
ssg79
g3573
sg72
(lp3584
S':'
asbag65
(g86
g67
NtRp3585
(dp3586
g70
(dp3587
sg79
g3573
sg72
(lp3588
g65
(g66
g67
NtRp3589
(dp3590
g70
(dp3591
g78
I5
ssg79
g3585
sg72
(lp3592
S'<cStringIO.StringO object at 0x05B44780>'
p3593
asbasbasbag65
(g81
g67
NtRp3594
(dp3595
g70
(dp3596
sg79
g3569
sg72
(lp3597
g65
(g86
g67
NtRp3598
(dp3599
g70
(dp3600
g90
g91
ssg79
g3594
sg72
(lp3601
g229
asbag65
(g86
g67
NtRp3602
(dp3603
g70
(dp3604
g97
g98
ssg79
g3594
sg72
(lp3605
S':'
asbag65
(g86
g67
NtRp3606
(dp3607
g70
(dp3608
sg79
g3594
sg72
(lp3609
g65
(g66
g67
NtRp3610
(dp3611
g70
(dp3612
g78
I5
ssg79
g3606
sg72
(lp3613
g65
(g74
g67
NtRp3614
(dp3615
g70
(dp3616
g78
I4
ssg79
Nsg72
(lp3617
g65
(g81
g67
NtRp3618
(dp3619
g70
(dp3620
sg79
g3614
sg72
(lp3621
g65
(g86
g67
NtRp3622
(dp3623
g70
(dp3624
g90
g91
ssg79
g3618
sg72
(lp3625
S'session_id_mycrawler'
p3626
asbag65
(g86
g67
NtRp3627
(dp3628
g70
(dp3629
g97
g98
ssg79
g3618
sg72
(lp3630
S':'
asbag65
(g86
g67
NtRp3631
(dp3632
g70
(dp3633
sg79
g3618
sg72
(lp3634
g65
(g66
g67
NtRp3635
(dp3636
g70
(dp3637
g78
I4
ssg79
g3631
sg72
(lp3638
g65
(g74
g67
NtRp3639
(dp3640
g70
(dp3641
g78
I3
ssg79
Nsg72
(lp3642
g65
(g81
g67
NtRp3643
(dp3644
g70
(dp3645
sg79
g3639
sg72
(lp3646
g65
(g86
g67
NtRp3647
(dp3648
g70
(dp3649
g90
g91
ssg79
g3643
sg72
(lp3650
g279
asbag65
(g86
g67
NtRp3651
(dp3652
g70
(dp3653
g97
g98
ssg79
g3643
sg72
(lp3654
S':'
asbag65
(g86
g67
NtRp3655
(dp3656
g70
(dp3657
sg79
g3643
sg72
(lp3658
g65
(g66
g67
NtRp3659
(dp3660
g70
(dp3661
g78
I3
ssg79
g3655
sg72
(lp3662
S''
asbasbasbag65
(g81
g67
NtRp3663
(dp3664
g70
(dp3665
sg79
g3639
sg72
(lp3666
g65
(g86
g67
NtRp3667
(dp3668
g70
(dp3669
g90
g91
ssg79
g3663
sg72
(lp3670
g300
asbag65
(g86
g67
NtRp3671
(dp3672
g70
(dp3673
g97
g98
ssg79
g3663
sg72
(lp3674
S':'
asbag65
(g86
g67
NtRp3675
(dp3676
g70
(dp3677
sg79
g3663
sg72
(lp3678
g65
(g66
g67
NtRp3679
(dp3680
g70
(dp3681
g78
I3
ssg79
g3675
sg72
(lp3682
S''
asbasbasbag65
(g81
g67
NtRp3683
(dp3684
g70
(dp3685
sg79
g3639
sg72
(lp3686
g65
(g86
g67
NtRp3687
(dp3688
g70
(dp3689
g90
g91
ssg79
g3683
sg72
(lp3690
g321
asbag65
(g86
g67
NtRp3691
(dp3692
g70
(dp3693
g97
g98
ssg79
g3683
sg72
(lp3694
S':'
asbag65
(g86
g67
NtRp3695
(dp3696
g70
(dp3697
sg79
g3683
sg72
(lp3698
g65
(g66
g67
NtRp3699
(dp3700
g70
(dp3701
g78
I3
ssg79
g3695
sg72
(lp3702
S''
asbasbasbag65
(g81
g67
NtRp3703
(dp3704
g70
(dp3705
sg79
g3639
sg72
(lp3706
g65
(g86
g67
NtRp3707
(dp3708
g70
(dp3709
g90
g91
ssg79
g3703
sg72
(lp3710
g342
asbag65
(g86
g67
NtRp3711
(dp3712
g70
(dp3713
g97
g98
ssg79
g3703
sg72
(lp3714
S':'
asbag65
(g86
g67
NtRp3715
(dp3716
g70
(dp3717
sg79
g3703
sg72
(lp3718
g65
(g66
g67
NtRp3719
(dp3720
g70
(dp3721
g78
I3
ssg79
g3715
sg72
(lp3722
S''
asbasbasbag65
(g81
g67
NtRp3723
(dp3724
g70
(dp3725
sg79
g3639
sg72
(lp3726
g65
(g86
g67
NtRp3727
(dp3728
g70
(dp3729
g90
g91
ssg79
g3723
sg72
(lp3730
g363
asbag65
(g86
g67
NtRp3731
(dp3732
g70
(dp3733
g97
g98
ssg79
g3723
sg72
(lp3734
S':'
asbag65
(g86
g67
NtRp3735
(dp3736
g70
(dp3737
sg79
g3723
sg72
(lp3738
g65
(g66
g67
NtRp3739
(dp3740
g70
(dp3741
g78
I3
ssg79
g3735
sg72
(lp3742
S''
asbasbasbag65
(g81
g67
NtRp3743
(dp3744
g70
(dp3745
sg79
g3639
sg72
(lp3746
g65
(g86
g67
NtRp3747
(dp3748
g70
(dp3749
g90
g91
ssg79
g3743
sg72
(lp3750
g384
asbag65
(g86
g67
NtRp3751
(dp3752
g70
(dp3753
g97
g98
ssg79
g3743
sg72
(lp3754
S':'
asbag65
(g86
g67
NtRp3755
(dp3756
g70
(dp3757
sg79
g3743
sg72
(lp3758
g65
(g66
g67
NtRp3759
(dp3760
g70
(dp3761
g78
I3
ssg79
g3755
sg72
(lp3762
S'/'
asbasbasbag65
(g81
g67
NtRp3763
(dp3764
g70
(dp3765
sg79
g3639
sg72
(lp3766
g65
(g86
g67
NtRp3767
(dp3768
g70
(dp3769
g90
g91
ssg79
g3763
sg72
(lp3770
g405
asbag65
(g86
g67
NtRp3771
(dp3772
g70
(dp3773
g97
g98
ssg79
g3763
sg72
(lp3774
S':'
asbag65
(g86
g67
NtRp3775
(dp3776
g70
(dp3777
sg79
g3763
sg72
(lp3778
g65
(g66
g67
NtRp3779
(dp3780
g70
(dp3781
g78
I3
ssg79
g3775
sg72
(lp3782
S''
asbasbasbag65
(g81
g67
NtRp3783
(dp3784
g70
(dp3785
sg79
g3639
sg72
(lp3786
g65
(g86
g67
NtRp3787
(dp3788
g70
(dp3789
g90
g91
ssg79
g3783
sg72
(lp3790
g426
asbag65
(g86
g67
NtRp3791
(dp3792
g70
(dp3793
g97
g98
ssg79
g3783
sg72
(lp3794
S':'
asbag65
(g86
g67
NtRp3795
(dp3796
g70
(dp3797
sg79
g3783
sg72
(lp3798
g65
(g66
g67
NtRp3799
(dp3800
g70
(dp3801
g78
I3
ssg79
g3795
sg72
(lp3802
S''
asbasbasbasbasbasbasbasbasbasbasbag65
(g81
g67
NtRp3803
(dp3804
g70
(dp3805
sg79
g3569
sg72
(lp3806
g65
(g86
g67
NtRp3807
(dp3808
g70
(dp3809
g90
g91
ssg79
g3803
sg72
(lp3810
S'delimiters'
p3811
asbag65
(g86
g67
NtRp3812
(dp3813
g70
(dp3814
g97
g98
ssg79
g3803
sg72
(lp3815
S':'
asbag65
(g86
g67
NtRp3816
(dp3817
g70
(dp3818
sg79
g3803
sg72
(lp3819
g65
(g66
g67
NtRp3820
(dp3821
g70
(dp3822
g78
I5
ssg79
g3816
sg72
(lp3823
g65
(g74
g67
NtRp3824
(dp3825
g70
(dp3826
g78
I4
ssg79
Nsg72
(lp3827
g65
(g81
g67
NtRp3828
(dp3829
g70
(dp3830
sg79
g3824
sg72
(lp3831
g65
(g86
g67
NtRp3832
(dp3833
g70
(dp3834
sg79
g3828
sg72
(lp3835
g65
(g66
g67
NtRp3836
(dp3837
g70
(dp3838
g78
I4
ssg79
g3832
sg72
(lp3839
S'{{'
p3840
asbasbasbag65
(g81
g67
NtRp3841
(dp3842
g70
(dp3843
sg79
g3824
sg72
(lp3844
g65
(g86
g67
NtRp3845
(dp3846
g70
(dp3847
sg79
g3841
sg72
(lp3848
g65
(g66
g67
NtRp3849
(dp3850
g70
(dp3851
g78
I4
ssg79
g3845
sg72
(lp3852
S'}}'
p3853
asbasbasbasbasbasbasbag65
(g81
g67
NtRp3854
(dp3855
g70
(dp3856
sg79
g3569
sg72
(lp3857
g65
(g86
g67
NtRp3858
(dp3859
g70
(dp3860
g90
g91
ssg79
g3854
sg72
(lp3861
S'files'
p3862
asbag65
(g86
g67
NtRp3863
(dp3864
g70
(dp3865
g97
g98
ssg79
g3854
sg72
(lp3866
S':'
asbag65
(g86
g67
NtRp3867
(dp3868
g70
(dp3869
sg79
g3854
sg72
(lp3870
g65
(g66
g67
NtRp3871
(dp3872
g70
(dp3873
g78
I5
ssg79
g3867
sg72
(lp3874
g65
(g74
g67
NtRp3875
(dp3876
g70
(dp3877
g78
I4
ssg79
Nsg72
(lp3878
sbasbasbasbag65
(g81
g67
NtRp3879
(dp3880
g70
(dp3881
sg79
g3569
sg72
(lp3882
g65
(g86
g67
NtRp3883
(dp3884
g70
(dp3885
g90
g91
ssg79
g3879
sg72
(lp3886
S'flash'
p3887
asbag65
(g86
g67
NtRp3888
(dp3889
g70
(dp3890
g97
g98
ssg79
g3879
sg72
(lp3891
S':'
asbag65
(g86
g67
NtRp3892
(dp3893
g70
(dp3894
sg79
g3879
sg72
(lp3895
g65
(g66
g67
NtRp3896
(dp3897
g70
(dp3898
g78
I5
ssg79
g3892
sg72
(lp3899
S''
asbasbasbag65
(g81
g67
NtRp3900
(dp3901
g70
(dp3902
sg79
g3569
sg72
(lp3903
g65
(g86
g67
NtRp3904
(dp3905
g70
(dp3906
g90
g91
ssg79
g3900
sg72
(lp3907
S'generic_patterns'
p3908
asbag65
(g86
g67
NtRp3909
(dp3910
g70
(dp3911
g97
g98
ssg79
g3900
sg72
(lp3912
S':'
asbag65
(g86
g67
NtRp3913
(dp3914
g70
(dp3915
sg79
g3900
sg72
(lp3916
g65
(g66
g67
NtRp3917
(dp3918
g70
(dp3919
g78
I5
ssg79
g3913
sg72
(lp3920
g65
(g74
g67
NtRp3921
(dp3922
g70
(dp3923
g78
I4
ssg79
Nsg72
(lp3924
g65
(g81
g67
NtRp3925
(dp3926
g70
(dp3927
sg79
g3921
sg72
(lp3928
g65
(g86
g67
NtRp3929
(dp3930
g70
(dp3931
sg79
g3925
sg72
(lp3932
g65
(g66
g67
NtRp3933
(dp3934
g70
(dp3935
g78
I4
ssg79
g3929
sg72
(lp3936
S'*'
asbasbasbasbasbasbasbag65
(g81
g67
NtRp3937
(dp3938
g70
(dp3939
sg79
g3569
sg72
(lp3940
g65
(g86
g67
NtRp3941
(dp3942
g70
(dp3943
g90
g91
ssg79
g3937
sg72
(lp3944
S'headers'
p3945
asbag65
(g86
g67
NtRp3946
(dp3947
g70
(dp3948
g97
g98
ssg79
g3937
sg72
(lp3949
S':'
asbag65
(g86
g67
NtRp3950
(dp3951
g70
(dp3952
sg79
g3937
sg72
(lp3953
g65
(g66
g67
NtRp3954
(dp3955
g70
(dp3956
g78
I5
ssg79
g3950
sg72
(lp3957
g65
(g74
g67
NtRp3958
(dp3959
g70
(dp3960
g78
I4
ssg79
Nsg72
(lp3961
g65
(g81
g67
NtRp3962
(dp3963
g70
(dp3964
sg79
g3958
sg72
(lp3965
g65
(g86
g67
NtRp3966
(dp3967
g70
(dp3968
g90
g91
ssg79
g3962
sg72
(lp3969
S'Cache-Control'
p3970
asbag65
(g86
g67
NtRp3971
(dp3972
g70
(dp3973
g97
g98
ssg79
g3962
sg72
(lp3974
S':'
asbag65
(g86
g67
NtRp3975
(dp3976
g70
(dp3977
sg79
g3962
sg72
(lp3978
g65
(g66
g67
NtRp3979
(dp3980
g70
(dp3981
g78
I4
ssg79
g3975
sg72
(lp3982
S'no-store, no-cache, must-revalidate, post-check=0, pre-check=0'
p3983
asbasbasbag65
(g81
g67
NtRp3984
(dp3985
g70
(dp3986
sg79
g3958
sg72
(lp3987
g65
(g86
g67
NtRp3988
(dp3989
g70
(dp3990
g90
g91
ssg79
g3984
sg72
(lp3991
S'Content-Type'
p3992
asbag65
(g86
g67
NtRp3993
(dp3994
g70
(dp3995
g97
g98
ssg79
g3984
sg72
(lp3996
S':'
asbag65
(g86
g67
NtRp3997
(dp3998
g70
(dp3999
sg79
g3984
sg72
(lp4000
g65
(g66
g67
NtRp4001
(dp4002
g70
(dp4003
g78
I4
ssg79
g3997
sg72
(lp4004
S'text/html; charset=utf-8'
p4005
asbasbasbag65
(g81
g67
NtRp4006
(dp4007
g70
(dp4008
sg79
g3958
sg72
(lp4009
g65
(g86
g67
NtRp4010
(dp4011
g70
(dp4012
g90
g91
ssg79
g4006
sg72
(lp4013
S'Expires'
p4014
asbag65
(g86
g67
NtRp4015
(dp4016
g70
(dp4017
g97
g98
ssg79
g4006
sg72
(lp4018
S':'
asbag65
(g86
g67
NtRp4019
(dp4020
g70
(dp4021
sg79
g4006
sg72
(lp4022
g65
(g66
g67
NtRp4023
(dp4024
g70
(dp4025
g78
I4
ssg79
g4019
sg72
(lp4026
S'Thu, 21 Jun 2012 21:18:31 GMT'
p4027
asbasbasbag65
(g81
g67
NtRp4028
(dp4029
g70
(dp4030
sg79
g3958
sg72
(lp4031
g65
(g86
g67
NtRp4032
(dp4033
g70
(dp4034
g90
g91
ssg79
g4028
sg72
(lp4035
S'Pragma'
p4036
asbag65
(g86
g67
NtRp4037
(dp4038
g70
(dp4039
g97
g98
ssg79
g4028
sg72
(lp4040
S':'
asbag65
(g86
g67
NtRp4041
(dp4042
g70
(dp4043
sg79
g4028
sg72
(lp4044
g65
(g66
g67
NtRp4045
(dp4046
g70
(dp4047
g78
I4
ssg79
g4041
sg72
(lp4048
S'no-cache'
p4049
asbasbasbag65
(g81
g67
NtRp4050
(dp4051
g70
(dp4052
sg79
g3958
sg72
(lp4053
g65
(g86
g67
NtRp4054
(dp4055
g70
(dp4056
g90
g91
ssg79
g4050
sg72
(lp4057
S'X-Powered-By'
p4058
asbag65
(g86
g67
NtRp4059
(dp4060
g70
(dp4061
g97
g98
ssg79
g4050
sg72
(lp4062
S':'
asbag65
(g86
g67
NtRp4063
(dp4064
g70
(dp4065
sg79
g4050
sg72
(lp4066
g65
(g66
g67
NtRp4067
(dp4068
g70
(dp4069
g78
I4
ssg79
g4063
sg72
(lp4070
S'web2py'
p4071
asbasbasbasbasbasbasbag65
(g81
g67
NtRp4072
(dp4073
g70
(dp4074
sg79
g3569
sg72
(lp4075
g65
(g86
g67
NtRp4076
(dp4077
g70
(dp4078
g90
g91
ssg79
g4072
sg72
(lp4079
S'menu'
p4080
asbag65
(g86
g67
NtRp4081
(dp4082
g70
(dp4083
g97
g98
ssg79
g4072
sg72
(lp4084
S':'
asbag65
(g86
g67
NtRp4085
(dp4086
g70
(dp4087
sg79
g4072
sg72
(lp4088
g65
(g66
g67
NtRp4089
(dp4090
g70
(dp4091
g78
I5
ssg79
g4085
sg72
(lp4092
g65
(g74
g67
NtRp4093
(dp4094
g70
(dp4095
g78
I4
ssg79
Nsg72
(lp4096
g65
(g81
g67
NtRp4097
(dp4098
g70
(dp4099
sg79
g4093
sg72
(lp4100
g65
(g86
g67
NtRp4101
(dp4102
g70
(dp4103
sg79
g4097
sg72
(lp4104
g65
(g66
g67
NtRp4105
(dp4106
g70
(dp4107
g78
I4
ssg79
g4101
sg72
(lp4108
g65
(g74
g67
NtRp4109
(dp4110
g70
(dp4111
g78
I3
ssg79
Nsg72
(lp4112
g65
(g81
g67
NtRp4113
(dp4114
g70
(dp4115
sg79
g4109
sg72
(lp4116
g65
(g86
g67
NtRp4117
(dp4118
g70
(dp4119
sg79
g4113
sg72
(lp4120
g65
(g66
g67
NtRp4121
(dp4122
g70
(dp4123
g78
I3
ssg79
g4117
sg72
(lp4124
cgluon.languages
lazyT_unpickle
p4125
(S't\x04\x00\x00\x00Home'
tRp4126
asbasbasbag65
(g81
g67
NtRp4127
(dp4128
g70
(dp4129
sg79
g4109
sg72
(lp4130
g65
(g86
g67
NtRp4131
(dp4132
g70
(dp4133
sg79
g4127
sg72
(lp4134
g65
(g66
g67
NtRp4135
(dp4136
g70
(dp4137
g78
I3
ssg79
g4131
sg72
(lp4138
g108
asbasbasbag65
(g81
g67
NtRp4139
(dp4140
g70
(dp4141
sg79
g4109
sg72
(lp4142
g65
(g86
g67
NtRp4143
(dp4144
g70
(dp4145
sg79
g4139
sg72
(lp4146
g65
(g66
g67
NtRp4147
(dp4148
g70
(dp4149
g78
I3
ssg79
g4143
sg72
(lp4150
S'/mycrawler/default/index'
p4151
asbasbasbag65
(g81
g67
NtRp4152
(dp4153
g70
(dp4154
sg79
g4109
sg72
(lp4155
g65
(g86
g67
NtRp4156
(dp4157
g70
(dp4158
sg79
g4152
sg72
(lp4159
g65
(g66
g67
NtRp4160
(dp4161
g70
(dp4162
g78
I3
ssg79
g4156
sg72
(lp4163
g65
(g74
g67
NtRp4164
(dp4165
g70
(dp4166
g78
I2
ssg79
Nsg72
(lp4167
sbasbasbasbasbasbasbasbag65
(g81
g67
NtRp4168
(dp4169
g70
(dp4170
sg79
g4093
sg72
(lp4171
g65
(g86
g67
NtRp4172
(dp4173
g70
(dp4174
sg79
g4168
sg72
(lp4175
g65
(g66
g67
NtRp4176
(dp4177
g70
(dp4178
g78
I4
ssg79
g4172
sg72
(lp4179
g65
(g74
g67
NtRp4180
(dp4181
g70
(dp4182
g78
I3
ssg79
Nsg72
(lp4183
g65
(g81
g67
NtRp4184
(dp4185
g70
(dp4186
sg79
g4180
sg72
(lp4187
g65
(g86
g67
NtRp4188
(dp4189
g70
(dp4190
sg79
g4184
sg72
(lp4191
g65
(g66
g67
NtRp4192
(dp4193
g70
(dp4194
g78
I3
ssg79
g4188
sg72
(lp4195
g65
(cgluon.html
SPAN
p4196
g67
NtRp4197
(dp4198
g70
(dp4199
g90
S'color:yellow'
p4200
ssg79
Nsg72
(lp4201
g4071
asbasbasbasbag65
(g81
g67
NtRp4202
(dp4203
g70
(dp4204
sg79
g4180
sg72
(lp4205
g65
(g86
g67
NtRp4206
(dp4207
g70
(dp4208
sg79
g4202
sg72
(lp4209
g65
(g66
g67
NtRp4210
(dp4211
g70
(dp4212
g78
I3
ssg79
g4206
sg72
(lp4213
g108
asbasbasbag65
(g81
g67
NtRp4214
(dp4215
g70
(dp4216
sg79
g4180
sg72
(lp4217
g65
(g86
g67
NtRp4218
(dp4219
g70
(dp4220
sg79
g4214
sg72
(lp4221
g65
(g66
g67
NtRp4222
(dp4223
g70
(dp4224
g78
I3
ssg79
g4218
sg72
(lp4225
S'None'
p4226
asbasbasbag65
(g81
g67
NtRp4227
(dp4228
g70
(dp4229
sg79
g4180
sg72
(lp4230
g65
(g86
g67
NtRp4231
(dp4232
g70
(dp4233
sg79
g4227
sg72
(lp4234
g65
(g66
g67
NtRp4235
(dp4236
g70
(dp4237
g78
I3
ssg79
g4231
sg72
(lp4238
g65
(g74
g67
NtRp4239
(dp4240
g70
(dp4241
g78
I2
ssg79
Nsg72
(lp4242
g65
(g81
g67
NtRp4243
(dp4244
g70
(dp4245
sg79
g4239
sg72
(lp4246
g65
(g86
g67
NtRp4247
(dp4248
g70
(dp4249
sg79
g4243
sg72
(lp4250
g65
(g66
g67
NtRp4251
(dp4252
g70
(dp4253
g78
I2
ssg79
g4247
sg72
(lp4254
g65
(g74
g67
NtRp4255
(dp4256
g70
(dp4257
g78
I1
ssg79
Nsg72
(lp4258
g65
(g81
g67
NtRp4259
(dp4260
g70
(dp4261
sg79
g4255
sg72
(lp4262
g65
(g86
g67
NtRp4263
(dp4264
g70
(dp4265
sg79
g4259
sg72
(lp4266
g65
(g66
g67
NtRp4267
(dp4268
g70
(dp4269
g78
I1
ssg79
g4263
sg72
(lp4270
g4125
(S's\x08\x00\x00\x00My Sites'
tRp4271
asbasbasbag65
(g81
g67
NtRp4272
(dp4273
g70
(dp4274
sg79
g4255
sg72
(lp4275
g65
(g86
g67
NtRp4276
(dp4277
g70
(dp4278
sg79
g4272
sg72
(lp4279
g65
(g66
g67
NtRp4280
(dp4281
g70
(dp4282
g78
I1
ssg79
g4276
sg72
(lp4283
I00
asbasbasbag65
(g81
g67
NtRp4284
(dp4285
g70
(dp4286
sg79
g4255
sg72
(lp4287
g65
(g86
g67
NtRp4288
(dp4289
g70
(dp4290
sg79
g4284
sg72
(lp4291
g65
(g66
g67
NtRp4292
(dp4293
g70
(dp4294
g78
I1
ssg79
g4288
sg72
(lp4295
S'/admin/default/site'
p4296
asbasbasbasbasbasbasbag65
(g81
g67
NtRp4297
(dp4298
g70
(dp4299
sg79
g4239
sg72
(lp4300
g65
(g86
g67
NtRp4301
(dp4302
g70
(dp4303
sg79
g4297
sg72
(lp4304
g65
(g66
g67
NtRp4305
(dp4306
g70
(dp4307
g78
I2
ssg79
g4301
sg72
(lp4308
g65
(g74
g67
NtRp4309
(dp4310
g70
(dp4311
g78
I1
ssg79
Nsg72
(lp4312
g65
(g81
g67
NtRp4313
(dp4314
g70
(dp4315
sg79
g4309
sg72
(lp4316
g65
(g86
g67
NtRp4317
(dp4318
g70
(dp4319
sg79
g4313
sg72
(lp4320
g65
(g66
g67
NtRp4321
(dp4322
g70
(dp4323
g78
I1
ssg79
g4317
sg72
(lp4324
g4125
(S's\x08\x00\x00\x00This App'
tRp4325
asbasbasbag65
(g81
g67
NtRp4326
(dp4327
g70
(dp4328
sg79
g4309
sg72
(lp4329
g65
(g86
g67
NtRp4330
(dp4331
g70
(dp4332
sg79
g4326
sg72
(lp4333
g65
(g66
g67
NtRp4334
(dp4335
g70
(dp4336
g78
I1
ssg79
g4330
sg72
(lp4337
I00
asbasbasbag65
(g81
g67
NtRp4338
(dp4339
g70
(dp4340
sg79
g4309
sg72
(lp4341
g65
(g86
g67
NtRp4342
(dp4343
g70
(dp4344
sg79
g4338
sg72
(lp4345
g65
(g66
g67
NtRp4346
(dp4347
g70
(dp4348
g78
I1
ssg79
g4342
sg72
(lp4349
S'/admin/default/design/mycrawler'
p4350
asbasbasbag65
(g81
g67
NtRp4351
(dp4352
g70
(dp4353
sg79
g4309
sg72
(lp4354
g65
(g86
g67
NtRp4355
(dp4356
g70
(dp4357
sg79
g4351
sg72
(lp4358
g65
(g66
g67
NtRp4359
(dp4360
g70
(dp4361
g78
I1
ssg79
g4355
sg72
(lp4362
(lp4363
(g4125
(S't\n\x00\x00\x00Controller'
tRp4364
I00
S'/admin/default/edit/mycrawler/controllers/default.py'
tp4365
a(g4125
(S't\x04\x00\x00\x00View'
tRp4366
I00
S'/admin/default/edit/mycrawler/views/default/search.html'
tp4367
a(g4125
(S't\x06\x00\x00\x00Layout'
tRp4368
I00
S'/admin/default/edit/mycrawler/views/layout.html'
tp4369
a(g4125
(S't\n\x00\x00\x00Stylesheet'
tRp4370
I00
S'/admin/default/edit/mycrawler/static/css/web2py.css'
tp4371
a(g4125
(S's\x08\x00\x00\x00DB Model'
tRp4372
I00
S'/admin/default/edit/mycrawler/models/db.py'
tp4373
a(g4125
(S's\n\x00\x00\x00Menu Model'
tRp4374
I00
S'/admin/default/edit/mycrawler/models/menu.py'
tp4375
a(g4125
(S't\x08\x00\x00\x00Database'
tRp4376
I00
S'/mycrawler/appadmin/index'
tp4377
a(g4125
(S't\x06\x00\x00\x00Errors'
tRp4378
I00
S'/admin/default/errors/mycrawler'
tp4379
a(g4125
(S't\x05\x00\x00\x00About'
tRp4380
I00
S'/admin/default/about/mycrawler'
tp4381
aasbasbasbasbasbasbasbag65
(g81
g67
NtRp4382
(dp4383
g70
(dp4384
sg79
g4239
sg72
(lp4385
g65
(g86
g67
NtRp4386
(dp4387
g70
(dp4388
sg79
g4382
sg72
(lp4389
g65
(g66
g67
NtRp4390
(dp4391
g70
(dp4392
g78
I2
ssg79
g4386
sg72
(lp4393
g65
(g74
g67
NtRp4394
(dp4395
g70
(dp4396
g78
I1
ssg79
Nsg72
(lp4397
g65
(g81
g67
NtRp4398
(dp4399
g70
(dp4400
sg79
g4394
sg72
(lp4401
g65
(g86
g67
NtRp4402
(dp4403
g70
(dp4404
sg79
g4398
sg72
(lp4405
g65
(g66
g67
NtRp4406
(dp4407
g70
(dp4408
g78
I1
ssg79
g4402
sg72
(lp4409
S'web2py.com'
p4410
asbasbasbag65
(g81
g67
NtRp4411
(dp4412
g70
(dp4413
sg79
g4394
sg72
(lp4414
g65
(g86
g67
NtRp4415
(dp4416
g70
(dp4417
sg79
g4411
sg72
(lp4418
g65
(g66
g67
NtRp4419
(dp4420
g70
(dp4421
g78
I1
ssg79
g4415
sg72
(lp4422
I00
asbasbasbag65
(g81
g67
NtRp4423
(dp4424
g70
(dp4425
sg79
g4394
sg72
(lp4426
g65
(g86
g67
NtRp4427
(dp4428
g70
(dp4429
sg79
g4423
sg72
(lp4430
g65
(g66
g67
NtRp4431
(dp4432
g70
(dp4433
g78
I1
ssg79
g4427
sg72
(lp4434
S'http://www.web2py.com'
p4435
asbasbasbag65
(g81
g67
NtRp4436
(dp4437
g70
(dp4438
sg79
g4394
sg72
(lp4439
g65
(g86
g67
NtRp4440
(dp4441
g70
(dp4442
sg79
g4436
sg72
(lp4443
g65
(g66
g67
NtRp4444
(dp4445
g70
(dp4446
g78
I1
ssg79
g4440
sg72
(lp4447
(lp4448
(g4125
(S't\x08\x00\x00\x00Download'
tRp4449
I00
S'http://www.web2py.com/examples/default/download'
p4450
tp4451
a(g4125
(S't\x07\x00\x00\x00Support'
tRp4452
I00
S'http://www.web2py.com/examples/default/support'
p4453
tp4454
a(g4125
(S't\x04\x00\x00\x00Demo'
tRp4455
I00
S'http://web2py.com/demo_admin'
p4456
tp4457
a(g4125
(S's\x0e\x00\x00\x00Quick Examples'
tRp4458
I00
S'http://web2py.com/examples/default/examples'
p4459
tp4460
a(g4125
(S't\x03\x00\x00\x00FAQ'
tRp4461
I00
S'http://web2py.com/AlterEgo'
p4462
tp4463
a(g4125
(S't\x06\x00\x00\x00Videos'
tRp4464
I00
S'http://www.web2py.com/examples/default/videos/'
p4465
tp4466
a(g4125
(S's\x11\x00\x00\x00Free Applications'
tRp4467
I00
S'http://web2py.com/appliances'
p4468
tp4469
a(g4125
(S't\x07\x00\x00\x00Plugins'
tRp4470
I00
S'http://web2py.com/plugins'
p4471
tp4472
a(g4125
(S't\x07\x00\x00\x00Layouts'
tRp4473
I00
S'http://web2py.com/layouts'
p4474
tp4475
a(g4125
(S't\x07\x00\x00\x00Recipes'
tRp4476
I00
S'http://web2pyslices.com/'
p4477
tp4478
a(g4125
(S't\x08\x00\x00\x00Semantic'
tRp4479
I00
S'http://web2py.com/semantic'
p4480
tp4481
aasbasbasbasbasbasbasbag65
(g81
g67
NtRp4482
(dp4483
g70
(dp4484
sg79
g4239
sg72
(lp4485
g65
(g86
g67
NtRp4486
(dp4487
g70
(dp4488
sg79
g4482
sg72
(lp4489
g65
(g66
g67
NtRp4490
(dp4491
g70
(dp4492
g78
I2
ssg79
g4486
sg72
(lp4493
g65
(g74
g67
NtRp4494
(dp4495
g70
(dp4496
g78
I1
ssg79
Nsg72
(lp4497
g65
(g81
g67
NtRp4498
(dp4499
g70
(dp4500
sg79
g4494
sg72
(lp4501
g65
(g86
g67
NtRp4502
(dp4503
g70
(dp4504
sg79
g4498
sg72
(lp4505
g65
(g66
g67
NtRp4506
(dp4507
g70
(dp4508
g78
I1
ssg79
g4502
sg72
(lp4509
g4125
(S't\r\x00\x00\x00Documentation'
tRp4510
asbasbasbag65
(g81
g67
NtRp4511
(dp4512
g70
(dp4513
sg79
g4494
sg72
(lp4514
g65
(g86
g67
NtRp4515
(dp4516
g70
(dp4517
sg79
g4511
sg72
(lp4518
g65
(g66
g67
NtRp4519
(dp4520
g70
(dp4521
g78
I1
ssg79
g4515
sg72
(lp4522
I00
asbasbasbag65
(g81
g67
NtRp4523
(dp4524
g70
(dp4525
sg79
g4494
sg72
(lp4526
g65
(g86
g67
NtRp4527
(dp4528
g70
(dp4529
sg79
g4523
sg72
(lp4530
g65
(g66
g67
NtRp4531
(dp4532
g70
(dp4533
g78
I1
ssg79
g4527
sg72
(lp4534
S'http://www.web2py.com/book'
p4535
asbasbasbag65
(g81
g67
NtRp4536
(dp4537
g70
(dp4538
sg79
g4494
sg72
(lp4539
g65
(g86
g67
NtRp4540
(dp4541
g70
(dp4542
sg79
g4536
sg72
(lp4543
g65
(g66
g67
NtRp4544
(dp4545
g70
(dp4546
g78
I1
ssg79
g4540
sg72
(lp4547
(lp4548
(g4125
(S't\x07\x00\x00\x00Preface'
tRp4549
I00
S'http://www.web2py.com/book/default/chapter/00'
p4550
tp4551
a(g4125
(S't\x0c\x00\x00\x00Introduction'
tRp4552
I00
S'http://www.web2py.com/book/default/chapter/01'
p4553
tp4554
a(g4125
(S't\x06\x00\x00\x00Python'
tRp4555
I00
S'http://www.web2py.com/book/default/chapter/02'
p4556
tp4557
a(g4125
(S't\x08\x00\x00\x00Overview'
tRp4558
I00
S'http://www.web2py.com/book/default/chapter/03'
p4559
tp4560
a(g4125
(S's\x08\x00\x00\x00The Core'
tRp4561
I00
S'http://www.web2py.com/book/default/chapter/04'
p4562
tp4563
a(g4125
(S's\t\x00\x00\x00The Views'
tRp4564
I00
S'http://www.web2py.com/book/default/chapter/05'
p4565
tp4566
a(g4125
(S't\x08\x00\x00\x00Database'
tRp4567
I00
S'http://www.web2py.com/book/default/chapter/06'
p4568
tp4569
a(g4125
(S's\x14\x00\x00\x00Forms and Validators'
tRp4570
I00
S'http://www.web2py.com/book/default/chapter/07'
p4571
tp4572
a(g4125
(S's\r\x00\x00\x00Email and SMS'
tRp4573
I00
S'http://www.web2py.com/book/default/chapter/08'
p4574
tp4575
a(g4125
(S's\x0e\x00\x00\x00Access Control'
tRp4576
I00
S'http://www.web2py.com/book/default/chapter/09'
p4577
tp4578
a(g4125
(S't\x08\x00\x00\x00Services'
tRp4579
I00
S'http://www.web2py.com/book/default/chapter/10'
p4580
tp4581
a(g4125
(S's\x0c\x00\x00\x00Ajax Recipes'
tRp4582
I00
S'http://www.web2py.com/book/default/chapter/11'
p4583
tp4584
a(g4125
(S's\x16\x00\x00\x00Components and Plugins'
tRp4585
I00
S'http://www.web2py.com/book/default/chapter/12'
p4586
tp4587
a(g4125
(S's\x12\x00\x00\x00Deployment Recipes'
tRp4588
I00
S'http://www.web2py.com/book/default/chapter/13'
p4589
tp4590
a(g4125
(S's\r\x00\x00\x00Other Recipes'
tRp4591
I00
S'http://www.web2py.com/book/default/chapter/14'
p4592
tp4593
a(g4125
(S's\r\x00\x00\x00Buy this book'
tRp4594
I00
S'http://stores.lulu.com/web2py'
p4595
tp4596
aasbasbasbasbasbasbasbag65
(g81
g67
NtRp4597
(dp4598
g70
(dp4599
sg79
g4239
sg72
(lp4600
g65
(g86
g67
NtRp4601
(dp4602
g70
(dp4603
sg79
g4597
sg72
(lp4604
g65
(g66
g67
NtRp4605
(dp4606
g70
(dp4607
g78
I2
ssg79
g4601
sg72
(lp4608
g65
(g74
g67
NtRp4609
(dp4610
g70
(dp4611
g78
I1
ssg79
Nsg72
(lp4612
g65
(g81
g67
NtRp4613
(dp4614
g70
(dp4615
sg79
g4609
sg72
(lp4616
g65
(g86
g67
NtRp4617
(dp4618
g70
(dp4619
sg79
g4613
sg72
(lp4620
g65
(g66
g67
NtRp4621
(dp4622
g70
(dp4623
g78
I1
ssg79
g4617
sg72
(lp4624
g4125
(S't\t\x00\x00\x00Community'
tRp4625
asbasbasbag65
(g81
g67
NtRp4626
(dp4627
g70
(dp4628
sg79
g4609
sg72
(lp4629
g65
(g86
g67
NtRp4630
(dp4631
g70
(dp4632
sg79
g4626
sg72
(lp4633
g65
(g66
g67
NtRp4634
(dp4635
g70
(dp4636
g78
I1
ssg79
g4630
sg72
(lp4637
I00
asbasbasbag65
(g81
g67
NtRp4638
(dp4639
g70
(dp4640
sg79
g4609
sg72
(lp4641
g65
(g86
g67
NtRp4642
(dp4643
g70
(dp4644
sg79
g4638
sg72
(lp4645
g65
(g66
g67
NtRp4646
(dp4647
g70
(dp4648
g78
I1
ssg79
g4642
sg72
(lp4649
Nasbasbasbag65
(g81
g67
NtRp4650
(dp4651
g70
(dp4652
sg79
g4609
sg72
(lp4653
g65
(g86
g67
NtRp4654
(dp4655
g70
(dp4656
sg79
g4650
sg72
(lp4657
g65
(g66
g67
NtRp4658
(dp4659
g70
(dp4660
g78
I1
ssg79
g4654
sg72
(lp4661
(lp4662
(g4125
(S't\x06\x00\x00\x00Groups'
tRp4663
I00
S'http://www.web2py.com/examples/default/usergroups'
p4664
tp4665
a(g4125
(S't\x07\x00\x00\x00Twitter'
tRp4666
I00
S'http://twitter.com/web2py'
p4667
tp4668
a(g4125
(S's\t\x00\x00\x00Live Chat'
tRp4669
I00
S'http://webchat.freenode.net/?channels=web2py'
p4670
tp4671
aasbasbasbasbasbasbasbag65
(g81
g67
NtRp4672
(dp4673
g70
(dp4674
sg79
g4239
sg72
(lp4675
g65
(g86
g67
NtRp4676
(dp4677
g70
(dp4678
sg79
g4672
sg72
(lp4679
g65
(g66
g67
NtRp4680
(dp4681
g70
(dp4682
g78
I2
ssg79
g4676
sg72
(lp4683
g65
(g74
g67
NtRp4684
(dp4685
g70
(dp4686
g78
I1
ssg79
Nsg72
(lp4687
g65
(g81
g67
NtRp4688
(dp4689
g70
(dp4690
sg79
g4684
sg72
(lp4691
g65
(g86
g67
NtRp4692
(dp4693
g70
(dp4694
sg79
g4688
sg72
(lp4695
g65
(g66
g67
NtRp4696
(dp4697
g70
(dp4698
g78
I1
ssg79
g4692
sg72
(lp4699
g4125
(S't\x07\x00\x00\x00Plugins'
tRp4700
asbasbasbag65
(g81
g67
NtRp4701
(dp4702
g70
(dp4703
sg79
g4684
sg72
(lp4704
g65
(g86
g67
NtRp4705
(dp4706
g70
(dp4707
sg79
g4701
sg72
(lp4708
g65
(g66
g67
NtRp4709
(dp4710
g70
(dp4711
g78
I1
ssg79
g4705
sg72
(lp4712
I00
asbasbasbag65
(g81
g67
NtRp4713
(dp4714
g70
(dp4715
sg79
g4684
sg72
(lp4716
g65
(g86
g67
NtRp4717
(dp4718
g70
(dp4719
sg79
g4713
sg72
(lp4720
g65
(g66
g67
NtRp4721
(dp4722
g70
(dp4723
g78
I1
ssg79
g4717
sg72
(lp4724
Nasbasbasbag65
(g81
g67
NtRp4725
(dp4726
g70
(dp4727
sg79
g4684
sg72
(lp4728
g65
(g86
g67
NtRp4729
(dp4730
g70
(dp4731
sg79
g4725
sg72
(lp4732
g65
(g66
g67
NtRp4733
(dp4734
g70
(dp4735
g78
I1
ssg79
g4729
sg72
(lp4736
(lp4737
(S'plugin_wiki'
p4738
I00
S'http://web2py.com/examples/default/download'
p4739
tp4740
a(g4125
(S's\r\x00\x00\x00Other Plugins'
tRp4741
I00
g4471
tp4742
a(g4125
(S's\x0e\x00\x00\x00Layout Plugins'
tRp4743
I00
g4474
tp4744
aasbasbasbasbasbasbasbasbasbasbasbasbasbasbasbasbasbasbasbag65
(g81
g67
NtRp4745
(dp4746
g70
(dp4747
sg79
g3569
sg72
(lp4748
g65
(g86
g67
NtRp4749
(dp4750
g70
(dp4751
g90
g91
ssg79
g4745
sg72
(lp4752
S'meta'
p4753
asbag65
(g86
g67
NtRp4754
(dp4755
g70
(dp4756
g97
g98
ssg79
g4745
sg72
(lp4757
S':'
asbag65
(g86
g67
NtRp4758
(dp4759
g70
(dp4760
sg79
g4745
sg72
(lp4761
g65
(g66
g67
NtRp4762
(dp4763
g70
(dp4764
g78
I5
ssg79
g4758
sg72
(lp4765
g65
(g74
g67
NtRp4766
(dp4767
g70
(dp4768
g78
I4
ssg79
Nsg72
(lp4769
g65
(g81
g67
NtRp4770
(dp4771
g70
(dp4772
sg79
g4766
sg72
(lp4773
g65
(g86
g67
NtRp4774
(dp4775
g70
(dp4776
g90
g91
ssg79
g4770
sg72
(lp4777
S'author'
p4778
asbag65
(g86
g67
NtRp4779
(dp4780
g70
(dp4781
g97
g98
ssg79
g4770
sg72
(lp4782
S':'
asbag65
(g86
g67
NtRp4783
(dp4784
g70
(dp4785
sg79
g4770
sg72
(lp4786
g65
(g66
g67
NtRp4787
(dp4788
g70
(dp4789
g78
I4
ssg79
g4783
sg72
(lp4790
S'Your Name <you@example.com>'
p4791
asbasbasbag65
(g81
g67
NtRp4792
(dp4793
g70
(dp4794
sg79
g4766
sg72
(lp4795
g65
(g86
g67
NtRp4796
(dp4797
g70
(dp4798
g90
g91
ssg79
g4792
sg72
(lp4799
S'copyright'
p4800
asbag65
(g86
g67
NtRp4801
(dp4802
g70
(dp4803
g97
g98
ssg79
g4792
sg72
(lp4804
S':'
asbag65
(g86
g67
NtRp4805
(dp4806
g70
(dp4807
sg79
g4792
sg72
(lp4808
g65
(g66
g67
NtRp4809
(dp4810
g70
(dp4811
g78
I4
ssg79
g4805
sg72
(lp4812
S'Copyright 2011'
p4813
asbasbasbag65
(g81
g67
NtRp4814
(dp4815
g70
(dp4816
sg79
g4766
sg72
(lp4817
g65
(g86
g67
NtRp4818
(dp4819
g70
(dp4820
g90
g91
ssg79
g4814
sg72
(lp4821
S'description'
p4822
asbag65
(g86
g67
NtRp4823
(dp4824
g70
(dp4825
g97
g98
ssg79
g4814
sg72
(lp4826
S':'
asbag65
(g86
g67
NtRp4827
(dp4828
g70
(dp4829
sg79
g4814
sg72
(lp4830
g65
(g66
g67
NtRp4831
(dp4832
g70
(dp4833
g78
I4
ssg79
g4827
sg72
(lp4834
S'a cool new app'
p4835
asbasbasbag65
(g81
g67
NtRp4836
(dp4837
g70
(dp4838
sg79
g4766
sg72
(lp4839
g65
(g86
g67
NtRp4840
(dp4841
g70
(dp4842
g90
g91
ssg79
g4836
sg72
(lp4843
S'generator'
p4844
asbag65
(g86
g67
NtRp4845
(dp4846
g70
(dp4847
g97
g98
ssg79
g4836
sg72
(lp4848
S':'
asbag65
(g86
g67
NtRp4849
(dp4850
g70
(dp4851
sg79
g4836
sg72
(lp4852
g65
(g66
g67
NtRp4853
(dp4854
g70
(dp4855
g78
I4
ssg79
g4849
sg72
(lp4856
S'Web2py Web Framework'
p4857
asbasbasbag65
(g81
g67
NtRp4858
(dp4859
g70
(dp4860
sg79
g4766
sg72
(lp4861
g65
(g86
g67
NtRp4862
(dp4863
g70
(dp4864
g90
g91
ssg79
g4858
sg72
(lp4865
S'keywords'
p4866
asbag65
(g86
g67
NtRp4867
(dp4868
g70
(dp4869
g97
g98
ssg79
g4858
sg72
(lp4870
S':'
asbag65
(g86
g67
NtRp4871
(dp4872
g70
(dp4873
sg79
g4858
sg72
(lp4874
g65
(g66
g67
NtRp4875
(dp4876
g70
(dp4877
g78
I4
ssg79
g4871
sg72
(lp4878
S'web2py, python, framework'
p4879
asbasbasbasbasbasbasbag65
(g81
g67
NtRp4880
(dp4881
g70
(dp4882
sg79
g3569
sg72
(lp4883
g65
(g86
g67
NtRp4884
(dp4885
g70
(dp4886
g90
g91
ssg79
g4880
sg72
(lp4887
S'postprocessing'
p4888
asbag65
(g86
g67
NtRp4889
(dp4890
g70
(dp4891
g97
g98
ssg79
g4880
sg72
(lp4892
S':'
asbag65
(g86
g67
NtRp4893
(dp4894
g70
(dp4895
sg79
g4880
sg72
(lp4896
g65
(g66
g67
NtRp4897
(dp4898
g70
(dp4899
g78
I5
ssg79
g4893
sg72
(lp4900
g65
(g74
g67
NtRp4901
(dp4902
g70
(dp4903
g78
I4
ssg79
Nsg72
(lp4904
sbasbasbasbag65
(g81
g67
NtRp4905
(dp4906
g70
(dp4907
sg79
g3569
sg72
(lp4908
g65
(g86
g67
NtRp4909
(dp4910
g70
(dp4911
g90
g91
ssg79
g4905
sg72
(lp4912
S'session_file'
p4913
asbag65
(g86
g67
NtRp4914
(dp4915
g70
(dp4916
g97
g98
ssg79
g4905
sg72
(lp4917
S':'
asbag65
(g86
g67
NtRp4918
(dp4919
g70
(dp4920
sg79
g4905
sg72
(lp4921
g65
(g66
g67
NtRp4922
(dp4923
g70
(dp4924
g78
I5
ssg79
g4918
sg72
(lp4925
S"<open file 'C:\\Documents and Settings\\agrover\\Desktop\\previous crawler\\web2py\\applications\\mycrawler\\sessions\\127.0.0.1-2770ef8a-3056-4fd8-9016-5cf5e194a093', mode 'rb+' at 0x058A83E8>"
p4926
asbasbasbag65
(g81
g67
NtRp4927
(dp4928
g70
(dp4929
sg79
g3569
sg72
(lp4930
g65
(g86
g67
NtRp4931
(dp4932
g70
(dp4933
g90
g91
ssg79
g4927
sg72
(lp4934
S'session_filename'
p4935
asbag65
(g86
g67
NtRp4936
(dp4937
g70
(dp4938
g97
g98
ssg79
g4927
sg72
(lp4939
S':'
asbag65
(g86
g67
NtRp4940
(dp4941
g70
(dp4942
sg79
g4927
sg72
(lp4943
g65
(g66
g67
NtRp4944
(dp4945
g70
(dp4946
g78
I5
ssg79
g4940
sg72
(lp4947
S'C:\\Documents and Settings\\agrover\\Desktop\\previous crawler\\web2py\\applications\\mycrawler\\sessions\\127.0.0.1-2770ef8a-3056-4fd8-9016-5cf5e194a093'
p4948
asbasbasbag65
(g81
g67
NtRp4949
(dp4950
g70
(dp4951
sg79
g3569
sg72
(lp4952
g65
(g86
g67
NtRp4953
(dp4954
g70
(dp4955
g90
g91
ssg79
g4949
sg72
(lp4956
S'session_id'
p4957
asbag65
(g86
g67
NtRp4958
(dp4959
g70
(dp4960
g97
g98
ssg79
g4949
sg72
(lp4961
S':'
asbag65
(g86
g67
NtRp4962
(dp4963
g70
(dp4964
sg79
g4949
sg72
(lp4965
g65
(g66
g67
NtRp4966
(dp4967
g70
(dp4968
g78
I5
ssg79
g4962
sg72
(lp4969
S'127.0.0.1-2770ef8a-3056-4fd8-9016-5cf5e194a093'
p4970
asbasbasbag65
(g81
g67
NtRp4971
(dp4972
g70
(dp4973
sg79
g3569
sg72
(lp4974
g65
(g86
g67
NtRp4975
(dp4976
g70
(dp4977
g90
g91
ssg79
g4971
sg72
(lp4978
S'session_id_name'
p4979
asbag65
(g86
g67
NtRp4980
(dp4981
g70
(dp4982
g97
g98
ssg79
g4971
sg72
(lp4983
S':'
asbag65
(g86
g67
NtRp4984
(dp4985
g70
(dp4986
sg79
g4971
sg72
(lp4987
g65
(g66
g67
NtRp4988
(dp4989
g70
(dp4990
g78
I5
ssg79
g4984
sg72
(lp4991
g3626
asbasbasbag65
(g81
g67
NtRp4992
(dp4993
g70
(dp4994
sg79
g3569
sg72
(lp4995
g65
(g86
g67
NtRp4996
(dp4997
g70
(dp4998
g90
g91
ssg79
g4992
sg72
(lp4999
S'session_locked'
p5000
asbag65
(g86
g67
NtRp5001
(dp5002
g70
(dp5003
g97
g98
ssg79
g4992
sg72
(lp5004
S':'
asbag65
(g86
g67
NtRp5005
(dp5006
g70
(dp5007
sg79
g4992
sg72
(lp5008
g65
(g66
g67
NtRp5009
(dp5010
g70
(dp5011
g78
I5
ssg79
g5005
sg72
(lp5012
g1665
asbasbasbag65
(g81
g67
NtRp5013
(dp5014
g70
(dp5015
sg79
g3569
sg72
(lp5016
g65
(g86
g67
NtRp5017
(dp5018
g70
(dp5019
g90
g91
ssg79
g5013
sg72
(lp5020
S'session_new'
p5021
asbag65
(g86
g67
NtRp5022
(dp5023
g70
(dp5024
g97
g98
ssg79
g5013
sg72
(lp5025
S':'
asbag65
(g86
g67
NtRp5026
(dp5027
g70
(dp5028
sg79
g5013
sg72
(lp5029
g65
(g66
g67
NtRp5030
(dp5031
g70
(dp5032
g78
I5
ssg79
g5026
sg72
(lp5033
g108
asbasbasbag65
(g81
g67
NtRp5034
(dp5035
g70
(dp5036
sg79
g3569
sg72
(lp5037
g65
(g86
g67
NtRp5038
(dp5039
g70
(dp5040
g90
g91
ssg79
g5034
sg72
(lp5041
S'status'
p5042
asbag65
(g86
g67
NtRp5043
(dp5044
g70
(dp5045
g97
g98
ssg79
g5034
sg72
(lp5046
S':'
asbag65
(g86
g67
NtRp5047
(dp5048
g70
(dp5049
sg79
g5034
sg72
(lp5050
g65
(g66
g67
NtRp5051
(dp5052
g70
(dp5053
g78
I5
ssg79
g5047
sg72
(lp5054
S'200'
p5055
asbasbasbag65
(g81
g67
NtRp5056
(dp5057
g70
(dp5058
sg79
g3569
sg72
(lp5059
g65
(g86
g67
NtRp5060
(dp5061
g70
(dp5062
g90
g91
ssg79
g5056
sg72
(lp5063
S'subtitle'
p5064
asbag65
(g86
g67
NtRp5065
(dp5066
g70
(dp5067
g97
g98
ssg79
g5056
sg72
(lp5068
S':'
asbag65
(g86
g67
NtRp5069
(dp5070
g70
(dp5071
sg79
g5056
sg72
(lp5072
g65
(g66
g67
NtRp5073
(dp5074
g70
(dp5075
g78
I5
ssg79
g5069
sg72
(lp5076
g4125
(S's\r\x00\x00\x00customize me!'
tRp5077
asbasbasbag65
(g81
g67
NtRp5078
(dp5079
g70
(dp5080
sg79
g3569
sg72
(lp5081
g65
(g86
g67
NtRp5082
(dp5083
g70
(dp5084
g90
g91
ssg79
g5078
sg72
(lp5085
S'title'
p5086
asbag65
(g86
g67
NtRp5087
(dp5088
g70
(dp5089
g97
g98
ssg79
g5078
sg72
(lp5090
S':'
asbag65
(g86
g67
NtRp5091
(dp5092
g70
(dp5093
sg79
g5078
sg72
(lp5094
g65
(g66
g67
NtRp5095
(dp5096
g70
(dp5097
g78
I5
ssg79
g5091
sg72
(lp5098
S'Mycrawler'
p5099
asbasbasbag65
(g81
g67
NtRp5100
(dp5101
g70
(dp5102
sg79
g3569
sg72
(lp5103
g65
(g86
g67
NtRp5104
(dp5105
g70
(dp5106
g90
g91
ssg79
g5100
sg72
(lp5107
g2566
asbag65
(g86
g67
NtRp5108
(dp5109
g70
(dp5110
g97
g98
ssg79
g5100
sg72
(lp5111
S':'
asbag65
(g86
g67
NtRp5112
(dp5113
g70
(dp5114
sg79
g5100
sg72
(lp5115
g65
(g66
g67
NtRp5116
(dp5117
g70
(dp5118
g78
I5
ssg79
g5112
sg72
(lp5119
g2579
asbasbasbag65
(g81
g67
NtRp5120
(dp5121
g70
(dp5122
sg79
g3569
sg72
(lp5123
g65
(g86
g67
NtRp5124
(dp5125
g70
(dp5126
g90
g91
ssg79
g5120
sg72
(lp5127
S'view'
p5128
asbag65
(g86
g67
NtRp5129
(dp5130
g70
(dp5131
g97
g98
ssg79
g5120
sg72
(lp5132
S':'
asbag65
(g86
g67
NtRp5133
(dp5134
g70
(dp5135
sg79
g5120
sg72
(lp5136
g65
(g66
g67
NtRp5137
(dp5138
g70
(dp5139
g78
I5
ssg79
g5133
sg72
(lp5140
S'default/search.html'
p5141
asbasbasbasbasbsS'locals'
p5142
(dp5143
S'cj'
p5144
S'<_LWPCookieJar.LWPCookieJar[Cookie(version=0, na...=None, comment_url=None, rest={}, rfc2109=True)]>'
p5145
sS'less'
p5146
S"u'Executive Assistant at V\\xe4rde Partners less'"
p5147
sS'temp2'
p5148
S'[]'
p5149
sS'temp1'
p5150
S"['Executive Assistant', 'V\\xc3\\xa4rde Partners ']"
p5151
sS'mechanize'
p5152
S"<module 'mechanize' from 'C:\\Python27\\lib\\site-p...echanize-0.2.5-py2.7.egg\\mechanize\\__init__.pyc'>"
p5153
sS'titl'
p5154
S"[u'Student Assistant at School of Electrical and Computer Engineering', u'Real Estate and Mortgage Broker', u'Freelance Illustrator, Art Project Manager', u'CIBO Caffe Owner / Pastry chef', u'Private Practice located in Fountain Square Mall', u'at Mirifex', u'Immigration Officer at Dept. of Homeland Security', u'Attorney at Fulmer LeRoy Albee Baumann', u'Executive Assistant at Varde Partners', u'Career Specialist at Coastline ROP']"
p5155
sS'BeautifulSoup'
p5156
S"<class 'bs4.BeautifulSoup'>"
p5157
sS'current'
p5158
S"[u'Teaching Assistant - PHYSICS 2212 at Georgia I...liance, President at India Club at Georgia Tech ', u'Vice President - Broker of Record at Teradon Financial ', u'Freelance Illustrator at Self-Employed ', u'Owner at Cibo Sausalito', u'Private Practice at Tera Nance, NCC, LMHC ', u'Bookkeeper at Mirifex', u'Immigration Officer at Department of Homeland Security ', u'Attorney at Fulmer LeRoy Albee Baumann, PLC ']"
p5159
sS'spamWriter'
p5160
S'<_csv.writer object>'
p5161
sS'location'
p5162
S"[u'\\n Greater Atlanta Area\\n ', u'\\n Sacramento, California Area\\n ', u'\\n Greater Nashville Area\\n ', u'\\n San Francisco Bay Area\\n ', u'\\n Bloomington, Indiana Area\\n ', u'\\n Cleveland/Akron, Ohio Area\\n ', u'\\n Burlington, Vermont Area\\n ', u'\\n Tampa/St. Petersburg, Florida Area\\n ', u'\\n Greater Minneapolis-St. Paul Area\\n ', u'\\n Orange County, California Area\\n ']"
p5163
sS'firstname'
p5164
S'[]'
p5165
sS'middlename'
p5166
S'[]'
p5167
sS'lastname'
p5168
S'[]'
p5169
sS'company'
p5170
S"['Georgia Institute of Technology', 'Teradon Financial ', 'Self-Employed ', 'Tera Nance', 'Department of Homeland Security ', 'Fulmer LeRoy Albee Baumann']"
p5171
sS'view_profile'
p5172
S'[]'
p5173
sS'flag'
p5174
S'0'
sS'br'
p5175
S'<mechanize._mechanize.Browser instance>'
p5176
sS'cookielib'
p5177
S"<module 'cookielib' from 'C:\\Python27\\lib\\cookielib.pyc'>"
p5178
sS'temp'
p5179
S"[['LinkedIn', 'Member']]"
p5180
sS'i'
S'9'
sS'k'
S'<dl class="vcard-expanded">\n<dt class="current">..."toggle-show-less">less</span></span>\n</dd>\n</dl>'
p5181
sS'l'
S'<a class="fn n external-link trk-profile-name" h...an class="given-name">LinkedIn Member</span>\n</a>'
p5182
sS'soup'
p5183
S'<!DOCTYPE html>\n\n<!--[if lt IE 7]> <html lang="e...778" width="1">\n</img></img></hr></body>\n</html>\n'
p5184
sS'html2text'
p5185
S"<module 'html2text' from 'C:\\Python27\\lib\\site-packages\\html2text-3.200.3-py2.7.egg\\html2text.pyc'>"
p5186
sS'industry'
p5187
S"[u'\\n Electrical/Electronic Manufacturing\\n ', u'\\n Real Estate\\n ', u'\\n Mental Health Care\\n ', u'\\n Restaurants\\n ', u'\\n Mental Health Care\\n ', u'\\n Accounting\\n ', u'\\n Law Enforcement\\n ', u'\\n Law Practice\\n ', u'\\n Retail\\n ', u'\\n Education Management\\n ']"
p5188
sssS'traceback'
p5189
S'Traceback (most recent call last):\n  File "C:\\Documents and Settings\\agrover\\Desktop\\previous crawler\\web2py\\gluon\\restricted.py", line 205, in restricted\n    exec ccode in environment\n  File "C:\\Documents and Settings\\agrover\\Desktop\\previous crawler\\web2py\\applications\\mycrawler\\controllers/default.py", line 397, in <module>\n  File "C:\\Documents and Settings\\agrover\\Desktop\\previous crawler\\web2py\\gluon\\globals.py", line 173, in <lambda>\n    self._caller = lambda f: f()\n  File "C:\\Documents and Settings\\agrover\\Desktop\\previous crawler\\web2py\\applications\\mycrawler\\controllers/default.py", line 289, in search\n    temp2=temp1[1].encode(\'utf-8\').split(\',\',1)\nUnicodeDecodeError: \'ascii\' codec can\'t decode byte 0xc3 in position 1: ordinal not in range(128)\n'
p5190
s.