(dp1
S'output'
p2
S"<type 'exceptions.UnicodeEncodeError'> 'ascii' codec can't encode character u'\\u0101' in position 6: ordinal not in range(128)"
p3
sS'layer'
p4
S'C:\\Documents and Settings\\agrover\\Desktop\\previous crawler\\web2py\\applications\\mycrawler\\controllers/default.py'
p5
sS'code'
p6
S'# -*- coding: utf-8 -*-\n# this file is released under public domain and you can use without limitations\n\n#########################################################################\n## This is a samples controller\n## - index is the default action of any application\n## - user is required for authentication and authorization\n## - download is for downloading files uploaded in the db (does streaming)\n## - call exposes all registered services (none by default)\n#########################################################################\nimport cStringIO\nimport csv\nimport re\ncountry=[\'United States\', \'Afghanistan\', \'Aland Islands\', \'Albania\', \'Algeria\', \'American Samoa\', \'Andorra\', \'Angola\', \'Anguilla\', \'Antarctica\', \'Antigua and Barbuda\', \'Argentina\', \'Armenia\', \'Aruba\', \'Australia\', \'Austria\', \'Azerbaijan\', \'Bahamas\', \'Bahrain\', \'Bangladesh\', \'Barbados\', \'Belarus\', \'Belgium\', \'Belize\', \'Benin\', \'Bermuda\', \'Bhutan\', \'Bolivia\', \'Bosnia and Herzegovina\', \'Botswana\', \'Brazil\', \'British Indian Ocean Territory\', \'Brunei Darussalam\', \'Bulgaria\', \'Burkina Faso\', \'Burundi\', \'Cambodia\', \'Cameroon\', \'Canada\', \'Cape Verde\', \'Caribbean Nations\', \'Cayman Islands\', \'Central African Republic\', \'Chad\', \'Chile\', \'China\', \'Christmas Island\', \'Cocos (Keeling) Islands\', \'Colombia\', \'Comoros\', \'Congo\', \'Cook Islands\', \'Costa Rica\', "Cote D\'Ivoire (Ivory Coast)", \'Croatia\', \'Cuba\', \'Cyprus\', \'Czech Republic\', \'Democratic Republic of the Congo\', \'Denmark\', \'Djibouti\', \'Dominica\', \'Dominican Republic\', \'East Timor\', \'Ecuador\', \'Egypt\', \'El Salvador\', \'Equatorial Guinea\', \'Eritrea\', \'Estonia\', \'Ethiopia\', \'Falkland Islands (Malvinas)\', \'Faroe Islands\', \'Federated States of Micronesia\', \'Fiji\', \'Finland\', \'France\', \'French Guiana\', \'French Polynesia\', \'French Southern Territories\', \'Gabon\', \'Gambia\', \'Georgia\', \'Germany\', \'Ghana\', \'Gibraltar\', \'Greece\', \'Greenland\', \'Grenada\', \'Guadeloupe\', \'Guam\', \'Guatemala\', \'Guernsey\', \'Guinea\', \'Guinea-Bissau\', \'Guyana\', \'Haiti\', \'Honduras\', \'Hong Kong\', \'Hungary\', \'Iceland\', \'India\', \'Indonesia\', \'Iran\', \'Iraq\', \'Ireland\', \'Isle of Man\', \'Israel\', \'Italy\', \'Jamaica\', \'Japan\', \'Jersey\', \'Jordan\', \'Kazakhstan\', \'Kenya\', \'Kiribati\', \'Korea\', \'Korea (North)\', \'Kuwait\', \'Kyrgyzstan\', \'Laos\', \'Latvia\', \'Lebanon\', \'Lesotho\', \'Liberia\', \'Libya\', \'Liechtenstein\', \'Lithuania\', \'Luxembourg\', \'Macao\', \'Macedonia\', \'Madagascar\', \'Malawi\', \'Malaysia\', \'Maldives\', \'Mali\', \'Malta\', \'Marshall Islands\', \'Martinique\', \'Mauritania\', \'Mauritius\', \'Mayotte\', \'Mexico\', \'Moldova\', \'Monaco\', \'Mongolia\', \'Montenegro\', \'Montserrat\', \'Morocco\', \'Mozambique\', \'Myanmar\', \'Namibia\', \'Nauru\', \'Nepal\', \'Netherlands\', \'Netherlands Antilles\', \'New Caledonia\', \'New Zealand\', \'Nicaragua\', \'Niger\', \'Nigeria\', \'Niue\', \'Norfolk Island\', \'Northern Mariana Islands\', \'Norway\', \'Oman\', \'Pakistan\', \'Palau\', \'Palestinian Territory\', \'Panama\', \'Papua New Guinea\', \'Paraguay\', \'Peru\', \'Philippines\', \'Pitcairn\', \'Poland\', \'Portugal\', \'Puerto Rico\', \'Qatar\', \'Reunion\', \'Romania\', \'Russian Federation\', \'Rwanda\', \'Saint Helena\', \'Saint Kitts and Nevis\', \'Saint Lucia\', \'Saint Pierre and Miquelon\', \'Saint Vincent and the Grenadines\', \'Samoa\', \'San Marino\', \'Sao Tome and Principe\', \'Saudi Arabia\', \'Senegal\', \'Serbia\', \'Seychelles\', \'Sierra Leone\', \'Singapore\', \'Slovak Republic\', \'Slovenia\', \'Solomon Islands\', \'Somalia\', \'South Africa\', \'Spain\', \'Sri Lanka\', \'Sudan\', \'Suriname\', \'Svalbard and Jan Mayen\', \'Swaziland\', \'Sweden\', \'Switzerland\', \'Syria\', \'Taiwan\', \'Tajikistan\', \'Tanzania\', \'Thailand\', \'Timor-Leste\', \'Togo\', \'Tokelau\', \'Tonga\', \'Trinidad and Tobago\', \'Tunisia\', \'Turkey\', \'Turkmenistan\', \'Turks and Caicos Islands\', \'Tuvalu\', \'Uganda\', \'Ukraine\', \'United Arab Emirates\', \'United Kingdom\', \'Uruguay\', \'Uzbekistan\', \'Vanuatu\', \'Vatican City State (Holy See)\', \'Venezuela\', \'Vietnam\', \'Virgin Islands (British)\', \'Virgin Islands (U.S.)\', \'Wallis and Futuna\', \'Western Sahara\', \'Yemen\', \'Zambia\', \'Zimbabwe\', \'Other\']\n    \ncountryid=[\'us\', \'af\', \'ax\', \'al\', \'dz\', \'as\', \'ad\', \'ao\', \'ai\', \'aq\', \'ag\', \'ar\', \'am\', \'aw\', \'au\', \'at\', \'az\', \'bs\', \'bh\', \'bd\', \'bb\', \'by\', \'be\', \'bz\', \'bj\', \'bm\', \'bt\', \'bo\', \'ba\', \'bw\', \'br\', \'io\', \'bn\', \'bg\', \'bf\', \'bi\', \'kh\', \'cm\', \'ca\', \'cv\', \'cb\', \'ky\', \'cf\', \'td\', \'cl\', \'cn\', \'cx\', \'cc\', \'co\', \'km\', \'cg\', \'ck\', \'cr\', \'ci\', \'hr\', \'cu\', \'cy\', \'cz\', \'cd\', \'dk\', \'dj\', \'dm\', \'do\', \'tp\', \'ec\', \'eg\', \'sv\', \'gq\', \'er\', \'ee\', \'et\', \'fk\', \'fo\', \'fm\', \'fj\', \'fi\', \'fr\', \'gf\', \'pf\', \'tf\', \'ga\', \'gm\', \'ge\', \'de\', \'gh\', \'gi\', \'gr\', \'gl\', \'gd\', \'gp\', \'gu\', \'gt\', \'gg\', \'gn\', \'gw\', \'gy\', \'ht\', \'hn\', \'hk\', \'hu\', \'is\', \'in\', \'id\', \'ir\', \'iq\', \'ie\', \'im\', \'il\', \'it\', \'jm\', \'jp\', \'je\', \'jo\', \'kz\', \'ke\', \'ki\', \'kr\', \'kp\', \'kw\', \'kg\', \'la\', \'lv\', \'lb\', \'ls\', \'lr\', \'ly\', \'li\', \'lt\', \'lu\', \'mo\', \'mk\', \'mg\', \'mw\', \'my\', \'mv\', \'ml\', \'mt\', \'mh\', \'mq\', \'mr\', \'mu\', \'yt\', \'mx\', \'md\', \'mc\', \'mn\', \'me\', \'ms\', \'ma\', \'mz\', \'mm\', \'na\', \'nr\', \'np\', \'nl\', \'an\', \'nc\', \'nz\', \'ni\', \'ne\', \'ng\', \'nu\', \'nf\', \'mp\', \'no\', \'om\', \'pk\', \'pw\', \'ps\', \'pa\', \'pg\', \'py\', \'pe\', \'ph\', \'pn\', \'pl\', \'pt\', \'pr\', \'qa\', \'re\', \'ro\', \'ru\', \'rw\', \'sh\', \'kn\', \'lc\', \'pm\', \'vc\', \'ws\', \'sm\', \'st\', \'sa\', \'sn\', \'rs\', \'sc\', \'sl\', \'sg\', \'sk\', \'si\', \'sb\', \'so\', \'za\', \'es\', \'lk\', \'sd\', \'sr\', \'sj\', \'sz\', \'se\', \'ch\', \'sy\', \'tw\', \'tj\', \'tz\', \'th\', \'tl\', \'tg\', \'tk\', \'to\', \'tt\', \'tn\', \'tr\', \'tm\', \'tc\', \'tv\', \'ug\', \'ua\', \'ae\', \'gb\', \'uy\', \'uz\', \'vu\', \'va\', \'ve\', \'vn\', \'vg\', \'vi\', \'wf\', \'eh\', \'ye\', \'zm\', \'zw\', \'oo\']\n\nindustries=[\'All Industries\',\'Accounting\', \'Airlines/Aviation\', \'Alternative Dispute Resolution\', \'Alternative Medicine\', \'Animation\', \'Apparel & Fashion\', \'Architecture & Planning\', \'Arts and Crafts\', \'Automotive\', \'Aviation & Aerospace\', \'Banking\', \'Biotechnology\', \'Broadcast Media\', \'Building Materials\', \'Business Supplies and Equipment\', \'Capital Markets\', \'Chemicals\', \'Civic & Social Organization\', \'Civil Engineering\', \'Commercial Real Estate\', \'Computer & Network Security\', \'Computer Games\', \'Computer Hardware\', \'Computer Networking\', \'Computer Software\', \'Construction\', \'Consumer Electronics\', \'Consumer Goods\', \'Consumer Services\', \'Cosmetics\', \'Dairy\', \'Defense & Space\', \'Design\', \'Education Management\', \'E-Learning\', \'Electrical/Electronic Manufacturing\', \'Entertainment\', \'Environmental Services\', \'Events Services\', \'Executive Office\', \'Facilities Services\', \'Farming\', \'Financial Services\', \'Fine Art\', \'Fishery\', \'Food & Beverages\', \'Food Production\', \'Fund-Raising\', \'Furniture\', \'Gambling & Casinos\', \'Glass, Ceramics & Concrete\', \'Government Administration\', \'Government Relations\', \'Graphic Design\', \'Health, Wellness and Fitness\', \'Higher Education\', \'Hospital & Health Care\', \'Hospitality\', \'Human Resources\', \'Import and Export\', \'Individual & Family Services\', \'Industrial Automation\', \'Information Services\', \'Information Technology and Services\', \'Insurance\', \'International Affairs\', \'International Trade and Development\', \'Internet\', \'Investment Banking\', \'Investment Management\', \'Judiciary\', \'Law Enforcement\', \'Law Practice\', \'Legal Services\', \'Legislative Office\', \'Leisure, Travel & Tourism\', \'Libraries\', \'Logistics and Supply Chain\', \'Luxury Goods & Jewelry\', \'Machinery\', \'Management Consulting\', \'Maritime\', \'Marketing and Advertising\', \'Market Research\', \'Mechanical or Industrial Engineering\', \'Media Production\', \'Medical Devices\', \'Medical Practice\', \'Mental Health Care\', \'Military\', \'Mining & Metals\', \'Motion Pictures and Film\', \'Museums and Institutions\', \'Music\', \'Nanotechnology\', \'Newspapers\', \'Nonprofit Organization Management\', \'Oil & Energy\', \'Online Media\', \'Outsourcing/Offshoring\', \'Package/Freight Delivery\', \'Packaging and Containers\', \'Paper & Forest Products\', \'Performing Arts\', \'Pharmaceuticals\', \'Philanthropy\', \'Photography\', \'Plastics\', \'Political Organization\', \'Primary/Secondary Education\', \'Printing\', \'Professional Training & Coaching\', \'Program Development\', \'Public Policy\', \'Public Relations and Communications\', \'Public Safety\', \'Publishing\', \'Railroad Manufacture\', \'Ranching\', \'Real Estate\', \'Recreational Facilities and Services\', \'Religious Institutions\', \'Renewables & Environment\', \'Research\', \'Restaurants\', \'Retail\', \'Security and Investigations\', \'Semiconductors\', \'Shipbuilding\', \'Sporting Goods\', \'Sports\', \'Staffing and Recruiting\', \'Supermarkets\', \'Telecommunications\', \'Textiles\', \'Think Tanks\', \'Tobacco\', \'Translation and Localization\', \'Transportation/Trucking/Railroad\', \'Utilities\', \'Venture Capital & Private Equity\', \'Veterinary\', \'Warehousing\', \'Wholesale\', \'Wine and Spirits\', \'Wireless\', \'Writing and Editing\']\n\nseniority=[\'All Seniority Levels\', \'Manager\', \'Owner\', \'Partner\', \'CXO\', \'VP\', \'Director\', \'Senior\', \'Entry\', \'Students & Interns\', \'Volunteer\']\n    \ndef index():\n    """\n    example action using the internationalization operator T and flash\n    rendered by views/default/index.html or views/generic.html\n    """\n    response.flash = "Welcome to web2py!"\n    return dict(message=T(\'Hello World\'))\n\ndef user():\n    """\n    exposes:\n    http://..../[app]/default/user/login\n    http://..../[app]/default/user/logout\n    http://..../[app]/default/user/register\n    http://..../[app]/default/user/profile\n    http://..../[app]/default/user/retrieve_password\n    http://..../[app]/default/user/change_password\n    use @auth.requires_login()\n        @auth.requires_membership(\'group name\')\n        @auth.requires_permission(\'read\',\'table name\',record_id)\n    to decorate functions that need access control\n    """\n    return dict(form=auth())\n\n\ndef download():\n    """\n    allows downloading of uploaded files\n    http://..../[app]/default/download/[filename]\n    """\n    return response.download(request,db)\n\n\ndef call():\n    """\n    exposes services. for example:\n    http://..../[app]/default/call/jsonrpc\n    decorate with @services.jsonrpc the functions to expose\n    supports xml, json, xmlrpc, jsonrpc, amfrpc, rss, csv\n    """\n    return service()\n\n\n@auth.requires_signature()\ndef data():\n    """\n    http://..../[app]/default/data/tables\n    http://..../[app]/default/data/create/[table]\n    http://..../[app]/default/data/read/[table]/[id]\n    http://..../[app]/default/data/update/[table]/[id]\n    http://..../[app]/default/data/delete/[table]/[id]\n    http://..../[app]/default/data/select/[table]\n    http://..../[app]/default/data/search/[table]\n    but URLs must be signed, i.e. linked with\n      A(\'table\',_href=URL(\'data/tables\',user_signature=True))\n    or with the signed load operator\n      LOAD(\'default\',\'data.load\',args=\'tables\',ajax=True,user_signature=True)\n    """\n    return dict(form=crud())\n\n#def enter_info():\n\n#     form = SQLFORM.factory(\n#         Field(\'First_Name\'),\n#         Field(\'Last_Name\'),\n#         Field(\'Keywords\'),\n#         Field(\'Title\'),\n#         Field(\'Company\'),\n#         Field(\'School\'))\n         #Field(\'Submit\',\'submit\'))\n#    if form.process().accepted:\n#        response.flash = \'form accepted\'\n#    elif form.errors:\n#        response.flash = \'form has errors\'\n    \n    #form=FORM(\'First Name:\',INPUT(_name=\'fname\',_id=\'fname\'),\n     #         \'Last Name:\',INPUT(_name=\'lname\',_id=\'lname\'),\n      #        \'Keywords:\',INPUT(_name=\'keywords\',_id=\'keywords\'),\n       #       \'Title:\',INPUT(_name=\'title\',_id=\'title\'),\n       #       \'Company:\',INPUT(_name=\'company\',_id=\'company\'),\n       #       \'School:\',INPUT(_name=\'school\',_id=\'school\'),\n              \n        #      INPUT(_type=\'submit\',_value=\'Submit\',_id=\'submit\'))\n    #if form.accepts(request,session):\n    #    response.flash = \'form accepted\'\n    #    redirect(URL(r=request,f=\'search\',vars=request.vars))\n#    return dict(form=form\n    \ndef enter_info():\n    \n    form = SQLFORM.factory(\n       Field(\'First_Name\'),\n       Field(\'Last_Name\'),\n       Field(\'Keywords\'),\n       Field(\'Title\'),\n       Field(\'Company\'),\n       Field(\'School\'),\n       Field(\'File_Name\',requires=IS_NOT_EMPTY()),\n       Field(\'Country\',requires=IS_IN_SET(country),default=\'India\'),\n       Field(\'Industry\',requires=IS_IN_SET(industries,multiple=\'multiple\'),default=\'All Industries\'),\n       Field(\'Seniority_Levels\',requires=IS_IN_SET(seniority,multiple=\'multiple\'),default=\'All Seniority Levels\'))\n    \n    if form.process().accepted:\n        response.flash = \'form accepted\'\n        redirect(URL(r=request,f=\'search\',vars=request.vars))\n    #    session.your_name = form.vars.your_name\n     #   session.filename = form.vars.your_image\n    elif form.errors:\n        response.flash = \'form has errors\'\n    return dict(form=form)\n    \n\ndef search():\n    import mechanize\n    import cookielib\n    import html2text\n    from bs4 import BeautifulSoup\n    \n    \n    # Browser    \n    br = mechanize.Browser()\n\n    # Cookie Jar\n    cj = cookielib.LWPCookieJar()\n    br.set_cookiejar(cj)\n\n    # Browser options\n    br.set_handle_equiv(True)\n    br.set_handle_gzip(True)\n    br.set_handle_redirect(True)\n    br.set_handle_referer(True)\n    br.set_handle_robots(False)\n\n    # Follows refresh 0 but not hangs on refresh > 0\n    br.set_handle_refresh(mechanize._http.HTTPRefreshProcessor(), max_time=1)\n\n    # User-Agent (this is cheating, ok?)\n    br.addheaders = [(\'User-agent\', \'Mozilla/5.0 (X11; U; Linux i686; en-US; rv:1.9.0.1) Gecko/2008071615 Fedora/3.0.1-1.fc9 Firefox/3.0.1\')]\n\n\n    # The site we will navigate into, handling it\'s session    \n    br.open(\'https://www.linkedin.com\')\n\n    # Select the first (index zero) form\n    br.select_form(nr=0)\n\n    #for b in br.forms():\n    #    print b\n\n    # User credentials\n    br.form[\'session_key\'] = \'mrigeshgaurav@gmail.com\'\n    br.form[\'session_password\'] = \'modeln@1234\'\n\n\n    # Login\n    br.submit()\n\n    br.open(\'http://www.linkedin.com/search?trk=advsrch\')\n    br.select_form(nr=1)\n    #print br\n\n    if request.vars.Last_Name:\n        br["lname"]=request.vars.Last_Name\n\n    if request.vars.First_Name:\n        br["fname"]=request.vars.First_Name\n    \n    if request.vars.Keywords:\n        br["keywords"]=request.vars.Keywords\n\n    if request.vars.Company:\n        br["company"]=request.vars.Company\n\n    if request.vars.School:\n        br["school"]=request.vars.School\n\n    if request.vars.Title:\n        br["title"]=request.vars.Title\n        \n    if request.vars.Country:\n        br["countryCode"]=[countryid[country.index(request.vars.Country)]]\n    \n    if request.vars.Industry and request.vars.Industry!=\'All Industries\':\n        for i in request.vars.Industry:\n            br.find_control("facet_I").items[industries.index(i-1)].selected=True\n               \n    #if request.vars.Seniority_Levels and request.vars.Seniority_Levels!=\'All Seniority Levels\':\n    #    for i in request.vars.Seniority_Levels:\n    #        br.find_control("facet_SE").items[industries.index(i-1)].selected=True\n    \n    br.submit()\n\n    view_profile=[]\n    name=[]\n    titl=[]\n    location=[]\n    industry=[]\n    current=[]\n\n    spamWriter = csv.writer(open(request.vars.File_Name+\'.csv\', \'wb\'), delimiter=\',\')\n    soup = BeautifulSoup(br.response().read())\n    spamWriter.writerow([\'NAME\',\'JOB-TITLE\',\'Current\',\'LOCATION\',\'INDUSTRY\',\'PROFLE-URL\'])\n    \n    while soup.find(\'a\',{"class" : "paginator-next"}):\n    #for i in range(1,2):\n        soup = BeautifulSoup(br.response().read())\n        view_profile=[]\n        name=[]\n        titl=[]\n        location=[]\n        industry=[]\n        current=[]\n        for k in soup.find_all(\'dl\',{"class" : "vcard-basic"}):\n            if k.find(\'dd\',{"class" : "title"}):\n                    titl.append(k.find(\'dd\',{"class" : "title"}).get_text())\n            else:\n                    titl.append(\'NONE\')\n                            \n            if k.find(\'span\',{"class" : "location"}):\n                    location.append(k.find(\'span\',{"class" : "location"}).get_text())\n            else:\n                    location.append(\'NONE\')\n            if k.find(\'span\',{"class" : "industry"}):\n                    industry.append(k.find(\'span\',{"class" : "industry"}).get_text())\n            else:\n                    industry.append(\'NONE\')\n                \n        for k in soup.find_all(\'dl\',{"class" : "vcard-expanded"}):\n            if k.find(\'span\',{"class" : "current-details more-text"}):\n                    current.append(k.find(\'span\',{"class" : "current-details more-text"}).get_text())\n            elif k.find(\'span\',{"class" : "current-details"}):\n                    current.append(k.find(\'span\',{"class" : "current-details"}).get_text())\n            else:\n                    current.append(\'NONE\')\n                \n        for l in soup.find_all(\'a\',{"title" : "View Profile"}):\n            #print l.get_text()\n            view_profile.append(\'http://www.linkedin.com\'+l.get(\'href\'))\n            name.append(l.get_text().encode(\'utf-8\'))\n        \n        for i in range(len(name)):\n            spamWriter.writerow([name[i][1:len(name[i])-1].encode(\'utf-8\'),titl[i],current[i],location[i][1:len(location[i])-1],industry[i][1:len(industry[i])-1],view_profile[i]])\n        \n        if soup.find(\'a\',{"class" : "paginator-next"}):\n            br.open(\'http://www.linkedin.com\'+ soup.find(\'a\',{"class" : "paginator-next"}).get(\'href\'))\n        #soup = BeautifulSoup(br.response().read())\n     \n        \n\n    #for link in soup.find_all(\'a\'):\n    #    if link.get(\'title\')==\'View Profile\':\n    #        #print(link.get(\'href\'))\n    #        #print link.get_text()\n    #        view_profile.append(\'http://www.linkedin.com\'+link.get(\'href\'))\n    #        name.append(link.get_text())\n#for l in soup.find_all("span", { "class" : "given-name" }):\n    #print l.get_text()\n\n        \n\n#    for l in soup.find_all(\'dd\',{"class" : "title"}):\n        #print l.get_text()\n#        titl.append(l.get_text())\n    \n#    for l in soup.find_all(\'span\',{"class" : "location"}):\n        #print l.get_text()\n#        location.append(l.get_text())\n\n#    for l in soup.find_all(\'span\',{"class" : "industry"}):\n        #print l.get_text()\n#        industry.append(l.get_text())\n        \n#    for l in soup.find_all(\'span\', {"class" : "current-details"}):\n#        k=l.get_text()\n#        if k[len(k)-4:len(k)]!=\'more\':\n#            current.append(k)\n        #elif(l.get["class"]==\'current-details more text\'):\n        #    current.append(l.get_text())\n    #for l in soup.find_all(\'span\',{"class" : "current-details"}):\n        #print l.get_text()\n        #current.append(l.get_text())\n\n    \n    #global filename,csv_response\n\n    #csv_response = cStringIO.StringIO()\n    \n    #spamWriter = csv.writer(csv_response, delimiter=\',\')\n    \n    #spamWriter.writerow([\'NAME\',\'JOB-TITLE\',\'COMPANY-NAME\',\'LOCATION\',\'INDUSTRY\',\'PROFLE-URL\'])\n   \n    #spamWriter = csv.writer(open(request.vars.File_Name+\'.csv\', \'wb\'), delimiter=\',\')\n    #spamWriter.writerow([\'NAME\',\'JOB-TITLE\',\'Current\',\'LOCATION\',\'INDUSTRY\',\'PROFLE-URL\'])\n    #for i in range(1,10):\n    #    spamWriter.writerow([name[i].encode(\'utf-8\'),titl[i],current[i],location[i],industry[i],view_profile[i]])\n        \n        \n    #,titl[i],current[i],location[i],industry[i],view_profile[i]\n    #response.headers[\'Content-Type\'] = \'text/csv\'\n    #response.headers[\'Content-Disposition\'] = \'attachment; filename=%s\' % request.vars.File_Name\n\n    #print view_profile\n    #print name\n    #print location\n    #print industry\n    #print titl\n    \n    return dict(view_profile=view_profile,name=name,location=location,industry=industry,titl=titl,current=current)\n\nresponse._vars=response._caller(search)\n'
p7
sS'snapshot'
p8
(dp9
S'exception'
p10
(dp11
S'__getslice__'
p12
S"<method-wrapper '__getslice__' of exceptions.UnicodeEncodeError object>"
p13
sS'encoding'
p14
S"'ascii'"
p15
sS'__str__'
p16
S"<method-wrapper '__str__' of exceptions.UnicodeEncodeError object>"
p17
sS'__reduce__'
p18
S'<built-in method __reduce__ of exceptions.UnicodeEncodeError object>'
p19
sS'__dict__'
p20
S'{}'
p21
sS'__sizeof__'
p22
S'<built-in method __sizeof__ of exceptions.UnicodeEncodeError object>'
p23
sS'__init__'
p24
S"<method-wrapper '__init__' of exceptions.UnicodeEncodeError object>"
p25
sS'__setattr__'
p26
S"<method-wrapper '__setattr__' of exceptions.UnicodeEncodeError object>"
p27
sS'__reduce_ex__'
p28
S'<built-in method __reduce_ex__ of exceptions.UnicodeEncodeError object>'
p29
sS'end'
p30
S'7'
sS'__new__'
p31
S'<built-in method __new__ of type object>'
p32
sS'__format__'
p33
S'<built-in method __format__ of exceptions.UnicodeEncodeError object>'
p34
sS'__class__'
p35
S"<type 'exceptions.UnicodeEncodeError'>"
p36
sS'start'
p37
S'6'
sS'__doc__'
p38
S"'Unicode encoding error.'"
p39
sS'object'
p40
S"u' Ahmad\\u0101b\\u0101d Area, India\\n'"
p41
sS'__getitem__'
p42
S"<method-wrapper '__getitem__' of exceptions.UnicodeEncodeError object>"
p43
sS'__setstate__'
p44
S'<built-in method __setstate__ of exceptions.UnicodeEncodeError object>'
p45
sS'__getattribute__'
p46
S"<method-wrapper '__getattribute__' of exceptions.UnicodeEncodeError object>"
p47
sS'args'
p48
S"('ascii', u' Ahmad\\u0101b\\u0101d Area, India\\n', 6, 7, 'ordinal not in range(128)')"
p49
sS'reason'
p50
S"'ordinal not in range(128)'"
p51
sS'__subclasshook__'
p52
S'<built-in method __subclasshook__ of type object>'
p53
sS'__unicode__'
p54
S'<built-in method __unicode__ of exceptions.UnicodeEncodeError object>'
p55
sS'__delattr__'
p56
S"<method-wrapper '__delattr__' of exceptions.UnicodeEncodeError object>"
p57
sS'__repr__'
p58
S"<method-wrapper '__repr__' of exceptions.UnicodeEncodeError object>"
p59
sS'__hash__'
p60
S"<method-wrapper '__hash__' of exceptions.UnicodeEncodeError object>"
p61
ssS'evalue'
p62
S"'ascii' codec can't encode character u'\\u0101' in position 6: ordinal not in range(128)"
p63
sS'request'
p64
ccopy_reg
_reconstructor
p65
(cgluon.html
BEAUTIFY
p66
c__builtin__
object
p67
NtRp68
(dp69
S'attributes'
p70
(dp71
sS'components'
p72
(lp73
g65
(cgluon.html
TABLE
p74
g67
NtRp75
(dp76
g70
(dp77
S'level'
p78
I5
ssS'parent'
p79
Nsg72
(lp80
g65
(cgluon.html
TR
p81
g67
NtRp82
(dp83
g70
(dp84
sg79
g75
sg72
(lp85
g65
(cgluon.html
TD
p86
g67
NtRp87
(dp88
g70
(dp89
S'_style'
p90
S'font-weight:bold;vertical-align:top'
p91
ssg79
g82
sg72
(lp92
S'ajax'
p93
asbag65
(g86
g67
NtRp94
(dp95
g70
(dp96
S'_valign'
p97
S'top'
p98
ssg79
g82
sg72
(lp99
S':'
asbag65
(g86
g67
NtRp100
(dp101
g70
(dp102
sg79
g82
sg72
(lp103
g65
(g66
g67
NtRp104
(dp105
g70
(dp106
g78
I5
ssg79
g100
sg72
(lp107
S'False'
p108
asbasbasbag65
(g81
g67
NtRp109
(dp110
g70
(dp111
sg79
g75
sg72
(lp112
g65
(g86
g67
NtRp113
(dp114
g70
(dp115
g90
g91
ssg79
g109
sg72
(lp116
S'application'
p117
asbag65
(g86
g67
NtRp118
(dp119
g70
(dp120
g97
g98
ssg79
g109
sg72
(lp121
S':'
asbag65
(g86
g67
NtRp122
(dp123
g70
(dp124
sg79
g109
sg72
(lp125
g65
(g66
g67
NtRp126
(dp127
g70
(dp128
g78
I5
ssg79
g122
sg72
(lp129
S'mycrawler'
p130
asbasbasbag65
(g81
g67
NtRp131
(dp132
g70
(dp133
sg79
g75
sg72
(lp134
g65
(g86
g67
NtRp135
(dp136
g70
(dp137
g90
g91
ssg79
g131
sg72
(lp138
g48
asbag65
(g86
g67
NtRp139
(dp140
g70
(dp141
g97
g98
ssg79
g131
sg72
(lp142
S':'
asbag65
(g86
g67
NtRp143
(dp144
g70
(dp145
sg79
g131
sg72
(lp146
g65
(g66
g67
NtRp147
(dp148
g70
(dp149
g78
I5
ssg79
g143
sg72
(lp150
g65
(g74
g67
NtRp151
(dp152
g70
(dp153
g78
I4
ssg79
Nsg72
(lp154
sbasbasbasbag65
(g81
g67
NtRp155
(dp156
g70
(dp157
sg79
g75
sg72
(lp158
g65
(g86
g67
NtRp159
(dp160
g70
(dp161
g90
g91
ssg79
g155
sg72
(lp162
S'body'
p163
asbag65
(g86
g67
NtRp164
(dp165
g70
(dp166
g97
g98
ssg79
g155
sg72
(lp167
S':'
asbag65
(g86
g67
NtRp168
(dp169
g70
(dp170
sg79
g155
sg72
(lp171
g65
(g66
g67
NtRp172
(dp173
g70
(dp174
g78
I5
ssg79
g168
sg72
(lp175
S'<cStringIO.StringO object at 0x05BB43A0>'
p176
asbasbasbag65
(g81
g67
NtRp177
(dp178
g70
(dp179
sg79
g75
sg72
(lp180
g65
(g86
g67
NtRp181
(dp182
g70
(dp183
g90
g91
ssg79
g177
sg72
(lp184
S'client'
p185
asbag65
(g86
g67
NtRp186
(dp187
g70
(dp188
g97
g98
ssg79
g177
sg72
(lp189
S':'
asbag65
(g86
g67
NtRp190
(dp191
g70
(dp192
sg79
g177
sg72
(lp193
g65
(g66
g67
NtRp194
(dp195
g70
(dp196
g78
I5
ssg79
g190
sg72
(lp197
S'127.0.0.1'
p198
asbasbasbag65
(g81
g67
NtRp199
(dp200
g70
(dp201
sg79
g75
sg72
(lp202
g65
(g86
g67
NtRp203
(dp204
g70
(dp205
g90
g91
ssg79
g199
sg72
(lp206
S'controller'
p207
asbag65
(g86
g67
NtRp208
(dp209
g70
(dp210
g97
g98
ssg79
g199
sg72
(lp211
S':'
asbag65
(g86
g67
NtRp212
(dp213
g70
(dp214
sg79
g199
sg72
(lp215
g65
(g66
g67
NtRp216
(dp217
g70
(dp218
g78
I5
ssg79
g212
sg72
(lp219
S'default'
p220
asbasbasbag65
(g81
g67
NtRp221
(dp222
g70
(dp223
sg79
g75
sg72
(lp224
g65
(g86
g67
NtRp225
(dp226
g70
(dp227
g90
g91
ssg79
g221
sg72
(lp228
S'cookies'
p229
asbag65
(g86
g67
NtRp230
(dp231
g70
(dp232
g97
g98
ssg79
g221
sg72
(lp233
S':'
asbag65
(g86
g67
NtRp234
(dp235
g70
(dp236
sg79
g221
sg72
(lp237
g65
(g66
g67
NtRp238
(dp239
g70
(dp240
g78
I5
ssg79
g234
sg72
(lp241
g65
(g74
g67
NtRp242
(dp243
g70
(dp244
g78
I4
ssg79
Nsg72
(lp245
g65
(g81
g67
NtRp246
(dp247
g70
(dp248
sg79
g242
sg72
(lp249
g65
(g86
g67
NtRp250
(dp251
g70
(dp252
g90
g91
ssg79
g246
sg72
(lp253
S'session_id_admin'
p254
asbag65
(g86
g67
NtRp255
(dp256
g70
(dp257
g97
g98
ssg79
g246
sg72
(lp258
S':'
asbag65
(g86
g67
NtRp259
(dp260
g70
(dp261
sg79
g246
sg72
(lp262
g65
(g66
g67
NtRp263
(dp264
g70
(dp265
g78
I4
ssg79
g259
sg72
(lp266
g65
(g74
g67
NtRp267
(dp268
g70
(dp269
g78
I3
ssg79
Nsg72
(lp270
g65
(g81
g67
NtRp271
(dp272
g70
(dp273
sg79
g267
sg72
(lp274
g65
(g86
g67
NtRp275
(dp276
g70
(dp277
g90
g91
ssg79
g271
sg72
(lp278
S'comment'
p279
asbag65
(g86
g67
NtRp280
(dp281
g70
(dp282
g97
g98
ssg79
g271
sg72
(lp283
S':'
asbag65
(g86
g67
NtRp284
(dp285
g70
(dp286
sg79
g271
sg72
(lp287
g65
(g66
g67
NtRp288
(dp289
g70
(dp290
g78
I3
ssg79
g284
sg72
(lp291
S''
asbasbasbag65
(g81
g67
NtRp292
(dp293
g70
(dp294
sg79
g267
sg72
(lp295
g65
(g86
g67
NtRp296
(dp297
g70
(dp298
g90
g91
ssg79
g292
sg72
(lp299
S'domain'
p300
asbag65
(g86
g67
NtRp301
(dp302
g70
(dp303
g97
g98
ssg79
g292
sg72
(lp304
S':'
asbag65
(g86
g67
NtRp305
(dp306
g70
(dp307
sg79
g292
sg72
(lp308
g65
(g66
g67
NtRp309
(dp310
g70
(dp311
g78
I3
ssg79
g305
sg72
(lp312
S''
asbasbasbag65
(g81
g67
NtRp313
(dp314
g70
(dp315
sg79
g267
sg72
(lp316
g65
(g86
g67
NtRp317
(dp318
g70
(dp319
g90
g91
ssg79
g313
sg72
(lp320
S'expires'
p321
asbag65
(g86
g67
NtRp322
(dp323
g70
(dp324
g97
g98
ssg79
g313
sg72
(lp325
S':'
asbag65
(g86
g67
NtRp326
(dp327
g70
(dp328
sg79
g313
sg72
(lp329
g65
(g66
g67
NtRp330
(dp331
g70
(dp332
g78
I3
ssg79
g326
sg72
(lp333
S''
asbasbasbag65
(g81
g67
NtRp334
(dp335
g70
(dp336
sg79
g267
sg72
(lp337
g65
(g86
g67
NtRp338
(dp339
g70
(dp340
g90
g91
ssg79
g334
sg72
(lp341
S'httponly'
p342
asbag65
(g86
g67
NtRp343
(dp344
g70
(dp345
g97
g98
ssg79
g334
sg72
(lp346
S':'
asbag65
(g86
g67
NtRp347
(dp348
g70
(dp349
sg79
g334
sg72
(lp350
g65
(g66
g67
NtRp351
(dp352
g70
(dp353
g78
I3
ssg79
g347
sg72
(lp354
S''
asbasbasbag65
(g81
g67
NtRp355
(dp356
g70
(dp357
sg79
g267
sg72
(lp358
g65
(g86
g67
NtRp359
(dp360
g70
(dp361
g90
g91
ssg79
g355
sg72
(lp362
S'max-age'
p363
asbag65
(g86
g67
NtRp364
(dp365
g70
(dp366
g97
g98
ssg79
g355
sg72
(lp367
S':'
asbag65
(g86
g67
NtRp368
(dp369
g70
(dp370
sg79
g355
sg72
(lp371
g65
(g66
g67
NtRp372
(dp373
g70
(dp374
g78
I3
ssg79
g368
sg72
(lp375
S''
asbasbasbag65
(g81
g67
NtRp376
(dp377
g70
(dp378
sg79
g267
sg72
(lp379
g65
(g86
g67
NtRp380
(dp381
g70
(dp382
g90
g91
ssg79
g376
sg72
(lp383
S'path'
p384
asbag65
(g86
g67
NtRp385
(dp386
g70
(dp387
g97
g98
ssg79
g376
sg72
(lp388
S':'
asbag65
(g86
g67
NtRp389
(dp390
g70
(dp391
sg79
g376
sg72
(lp392
g65
(g66
g67
NtRp393
(dp394
g70
(dp395
g78
I3
ssg79
g389
sg72
(lp396
S''
asbasbasbag65
(g81
g67
NtRp397
(dp398
g70
(dp399
sg79
g267
sg72
(lp400
g65
(g86
g67
NtRp401
(dp402
g70
(dp403
g90
g91
ssg79
g397
sg72
(lp404
S'secure'
p405
asbag65
(g86
g67
NtRp406
(dp407
g70
(dp408
g97
g98
ssg79
g397
sg72
(lp409
S':'
asbag65
(g86
g67
NtRp410
(dp411
g70
(dp412
sg79
g397
sg72
(lp413
g65
(g66
g67
NtRp414
(dp415
g70
(dp416
g78
I3
ssg79
g410
sg72
(lp417
S''
asbasbasbag65
(g81
g67
NtRp418
(dp419
g70
(dp420
sg79
g267
sg72
(lp421
g65
(g86
g67
NtRp422
(dp423
g70
(dp424
g90
g91
ssg79
g418
sg72
(lp425
S'version'
p426
asbag65
(g86
g67
NtRp427
(dp428
g70
(dp429
g97
g98
ssg79
g418
sg72
(lp430
S':'
asbag65
(g86
g67
NtRp431
(dp432
g70
(dp433
sg79
g418
sg72
(lp434
g65
(g66
g67
NtRp435
(dp436
g70
(dp437
g78
I3
ssg79
g431
sg72
(lp438
S''
asbasbasbasbasbasbasbag65
(g81
g67
NtRp439
(dp440
g70
(dp441
sg79
g242
sg72
(lp442
g65
(g86
g67
NtRp443
(dp444
g70
(dp445
g90
g91
ssg79
g439
sg72
(lp446
S'session_id_crawler'
p447
asbag65
(g86
g67
NtRp448
(dp449
g70
(dp450
g97
g98
ssg79
g439
sg72
(lp451
S':'
asbag65
(g86
g67
NtRp452
(dp453
g70
(dp454
sg79
g439
sg72
(lp455
g65
(g66
g67
NtRp456
(dp457
g70
(dp458
g78
I4
ssg79
g452
sg72
(lp459
g65
(g74
g67
NtRp460
(dp461
g70
(dp462
g78
I3
ssg79
Nsg72
(lp463
g65
(g81
g67
NtRp464
(dp465
g70
(dp466
sg79
g460
sg72
(lp467
g65
(g86
g67
NtRp468
(dp469
g70
(dp470
g90
g91
ssg79
g464
sg72
(lp471
g279
asbag65
(g86
g67
NtRp472
(dp473
g70
(dp474
g97
g98
ssg79
g464
sg72
(lp475
S':'
asbag65
(g86
g67
NtRp476
(dp477
g70
(dp478
sg79
g464
sg72
(lp479
g65
(g66
g67
NtRp480
(dp481
g70
(dp482
g78
I3
ssg79
g476
sg72
(lp483
S''
asbasbasbag65
(g81
g67
NtRp484
(dp485
g70
(dp486
sg79
g460
sg72
(lp487
g65
(g86
g67
NtRp488
(dp489
g70
(dp490
g90
g91
ssg79
g484
sg72
(lp491
g300
asbag65
(g86
g67
NtRp492
(dp493
g70
(dp494
g97
g98
ssg79
g484
sg72
(lp495
S':'
asbag65
(g86
g67
NtRp496
(dp497
g70
(dp498
sg79
g484
sg72
(lp499
g65
(g66
g67
NtRp500
(dp501
g70
(dp502
g78
I3
ssg79
g496
sg72
(lp503
S''
asbasbasbag65
(g81
g67
NtRp504
(dp505
g70
(dp506
sg79
g460
sg72
(lp507
g65
(g86
g67
NtRp508
(dp509
g70
(dp510
g90
g91
ssg79
g504
sg72
(lp511
g321
asbag65
(g86
g67
NtRp512
(dp513
g70
(dp514
g97
g98
ssg79
g504
sg72
(lp515
S':'
asbag65
(g86
g67
NtRp516
(dp517
g70
(dp518
sg79
g504
sg72
(lp519
g65
(g66
g67
NtRp520
(dp521
g70
(dp522
g78
I3
ssg79
g516
sg72
(lp523
S''
asbasbasbag65
(g81
g67
NtRp524
(dp525
g70
(dp526
sg79
g460
sg72
(lp527
g65
(g86
g67
NtRp528
(dp529
g70
(dp530
g90
g91
ssg79
g524
sg72
(lp531
g342
asbag65
(g86
g67
NtRp532
(dp533
g70
(dp534
g97
g98
ssg79
g524
sg72
(lp535
S':'
asbag65
(g86
g67
NtRp536
(dp537
g70
(dp538
sg79
g524
sg72
(lp539
g65
(g66
g67
NtRp540
(dp541
g70
(dp542
g78
I3
ssg79
g536
sg72
(lp543
S''
asbasbasbag65
(g81
g67
NtRp544
(dp545
g70
(dp546
sg79
g460
sg72
(lp547
g65
(g86
g67
NtRp548
(dp549
g70
(dp550
g90
g91
ssg79
g544
sg72
(lp551
g363
asbag65
(g86
g67
NtRp552
(dp553
g70
(dp554
g97
g98
ssg79
g544
sg72
(lp555
S':'
asbag65
(g86
g67
NtRp556
(dp557
g70
(dp558
sg79
g544
sg72
(lp559
g65
(g66
g67
NtRp560
(dp561
g70
(dp562
g78
I3
ssg79
g556
sg72
(lp563
S''
asbasbasbag65
(g81
g67
NtRp564
(dp565
g70
(dp566
sg79
g460
sg72
(lp567
g65
(g86
g67
NtRp568
(dp569
g70
(dp570
g90
g91
ssg79
g564
sg72
(lp571
g384
asbag65
(g86
g67
NtRp572
(dp573
g70
(dp574
g97
g98
ssg79
g564
sg72
(lp575
S':'
asbag65
(g86
g67
NtRp576
(dp577
g70
(dp578
sg79
g564
sg72
(lp579
g65
(g66
g67
NtRp580
(dp581
g70
(dp582
g78
I3
ssg79
g576
sg72
(lp583
S''
asbasbasbag65
(g81
g67
NtRp584
(dp585
g70
(dp586
sg79
g460
sg72
(lp587
g65
(g86
g67
NtRp588
(dp589
g70
(dp590
g90
g91
ssg79
g584
sg72
(lp591
g405
asbag65
(g86
g67
NtRp592
(dp593
g70
(dp594
g97
g98
ssg79
g584
sg72
(lp595
S':'
asbag65
(g86
g67
NtRp596
(dp597
g70
(dp598
sg79
g584
sg72
(lp599
g65
(g66
g67
NtRp600
(dp601
g70
(dp602
g78
I3
ssg79
g596
sg72
(lp603
S''
asbasbasbag65
(g81
g67
NtRp604
(dp605
g70
(dp606
sg79
g460
sg72
(lp607
g65
(g86
g67
NtRp608
(dp609
g70
(dp610
g90
g91
ssg79
g604
sg72
(lp611
g426
asbag65
(g86
g67
NtRp612
(dp613
g70
(dp614
g97
g98
ssg79
g604
sg72
(lp615
S':'
asbag65
(g86
g67
NtRp616
(dp617
g70
(dp618
sg79
g604
sg72
(lp619
g65
(g66
g67
NtRp620
(dp621
g70
(dp622
g78
I3
ssg79
g616
sg72
(lp623
S''
asbasbasbasbasbasbasbag65
(g81
g67
NtRp624
(dp625
g70
(dp626
sg79
g242
sg72
(lp627
g65
(g86
g67
NtRp628
(dp629
g70
(dp630
g90
g91
ssg79
g624
sg72
(lp631
S'session_id_mycrawler'
p632
asbag65
(g86
g67
NtRp633
(dp634
g70
(dp635
g97
g98
ssg79
g624
sg72
(lp636
S':'
asbag65
(g86
g67
NtRp637
(dp638
g70
(dp639
sg79
g624
sg72
(lp640
g65
(g66
g67
NtRp641
(dp642
g70
(dp643
g78
I4
ssg79
g637
sg72
(lp644
g65
(g74
g67
NtRp645
(dp646
g70
(dp647
g78
I3
ssg79
Nsg72
(lp648
g65
(g81
g67
NtRp649
(dp650
g70
(dp651
sg79
g645
sg72
(lp652
g65
(g86
g67
NtRp653
(dp654
g70
(dp655
g90
g91
ssg79
g649
sg72
(lp656
g279
asbag65
(g86
g67
NtRp657
(dp658
g70
(dp659
g97
g98
ssg79
g649
sg72
(lp660
S':'
asbag65
(g86
g67
NtRp661
(dp662
g70
(dp663
sg79
g649
sg72
(lp664
g65
(g66
g67
NtRp665
(dp666
g70
(dp667
g78
I3
ssg79
g661
sg72
(lp668
S''
asbasbasbag65
(g81
g67
NtRp669
(dp670
g70
(dp671
sg79
g645
sg72
(lp672
g65
(g86
g67
NtRp673
(dp674
g70
(dp675
g90
g91
ssg79
g669
sg72
(lp676
g300
asbag65
(g86
g67
NtRp677
(dp678
g70
(dp679
g97
g98
ssg79
g669
sg72
(lp680
S':'
asbag65
(g86
g67
NtRp681
(dp682
g70
(dp683
sg79
g669
sg72
(lp684
g65
(g66
g67
NtRp685
(dp686
g70
(dp687
g78
I3
ssg79
g681
sg72
(lp688
S''
asbasbasbag65
(g81
g67
NtRp689
(dp690
g70
(dp691
sg79
g645
sg72
(lp692
g65
(g86
g67
NtRp693
(dp694
g70
(dp695
g90
g91
ssg79
g689
sg72
(lp696
g321
asbag65
(g86
g67
NtRp697
(dp698
g70
(dp699
g97
g98
ssg79
g689
sg72
(lp700
S':'
asbag65
(g86
g67
NtRp701
(dp702
g70
(dp703
sg79
g689
sg72
(lp704
g65
(g66
g67
NtRp705
(dp706
g70
(dp707
g78
I3
ssg79
g701
sg72
(lp708
S''
asbasbasbag65
(g81
g67
NtRp709
(dp710
g70
(dp711
sg79
g645
sg72
(lp712
g65
(g86
g67
NtRp713
(dp714
g70
(dp715
g90
g91
ssg79
g709
sg72
(lp716
g342
asbag65
(g86
g67
NtRp717
(dp718
g70
(dp719
g97
g98
ssg79
g709
sg72
(lp720
S':'
asbag65
(g86
g67
NtRp721
(dp722
g70
(dp723
sg79
g709
sg72
(lp724
g65
(g66
g67
NtRp725
(dp726
g70
(dp727
g78
I3
ssg79
g721
sg72
(lp728
S''
asbasbasbag65
(g81
g67
NtRp729
(dp730
g70
(dp731
sg79
g645
sg72
(lp732
g65
(g86
g67
NtRp733
(dp734
g70
(dp735
g90
g91
ssg79
g729
sg72
(lp736
g363
asbag65
(g86
g67
NtRp737
(dp738
g70
(dp739
g97
g98
ssg79
g729
sg72
(lp740
S':'
asbag65
(g86
g67
NtRp741
(dp742
g70
(dp743
sg79
g729
sg72
(lp744
g65
(g66
g67
NtRp745
(dp746
g70
(dp747
g78
I3
ssg79
g741
sg72
(lp748
S''
asbasbasbag65
(g81
g67
NtRp749
(dp750
g70
(dp751
sg79
g645
sg72
(lp752
g65
(g86
g67
NtRp753
(dp754
g70
(dp755
g90
g91
ssg79
g749
sg72
(lp756
g384
asbag65
(g86
g67
NtRp757
(dp758
g70
(dp759
g97
g98
ssg79
g749
sg72
(lp760
S':'
asbag65
(g86
g67
NtRp761
(dp762
g70
(dp763
sg79
g749
sg72
(lp764
g65
(g66
g67
NtRp765
(dp766
g70
(dp767
g78
I3
ssg79
g761
sg72
(lp768
S''
asbasbasbag65
(g81
g67
NtRp769
(dp770
g70
(dp771
sg79
g645
sg72
(lp772
g65
(g86
g67
NtRp773
(dp774
g70
(dp775
g90
g91
ssg79
g769
sg72
(lp776
g405
asbag65
(g86
g67
NtRp777
(dp778
g70
(dp779
g97
g98
ssg79
g769
sg72
(lp780
S':'
asbag65
(g86
g67
NtRp781
(dp782
g70
(dp783
sg79
g769
sg72
(lp784
g65
(g66
g67
NtRp785
(dp786
g70
(dp787
g78
I3
ssg79
g781
sg72
(lp788
S''
asbasbasbag65
(g81
g67
NtRp789
(dp790
g70
(dp791
sg79
g645
sg72
(lp792
g65
(g86
g67
NtRp793
(dp794
g70
(dp795
g90
g91
ssg79
g789
sg72
(lp796
g426
asbag65
(g86
g67
NtRp797
(dp798
g70
(dp799
g97
g98
ssg79
g789
sg72
(lp800
S':'
asbag65
(g86
g67
NtRp801
(dp802
g70
(dp803
sg79
g789
sg72
(lp804
g65
(g66
g67
NtRp805
(dp806
g70
(dp807
g78
I3
ssg79
g801
sg72
(lp808
S''
asbasbasbasbasbasbasbag65
(g81
g67
NtRp809
(dp810
g70
(dp811
sg79
g242
sg72
(lp812
g65
(g86
g67
NtRp813
(dp814
g70
(dp815
g90
g91
ssg79
g809
sg72
(lp816
S'session_id_mycrawler_2'
p817
asbag65
(g86
g67
NtRp818
(dp819
g70
(dp820
g97
g98
ssg79
g809
sg72
(lp821
S':'
asbag65
(g86
g67
NtRp822
(dp823
g70
(dp824
sg79
g809
sg72
(lp825
g65
(g66
g67
NtRp826
(dp827
g70
(dp828
g78
I4
ssg79
g822
sg72
(lp829
g65
(g74
g67
NtRp830
(dp831
g70
(dp832
g78
I3
ssg79
Nsg72
(lp833
g65
(g81
g67
NtRp834
(dp835
g70
(dp836
sg79
g830
sg72
(lp837
g65
(g86
g67
NtRp838
(dp839
g70
(dp840
g90
g91
ssg79
g834
sg72
(lp841
g279
asbag65
(g86
g67
NtRp842
(dp843
g70
(dp844
g97
g98
ssg79
g834
sg72
(lp845
S':'
asbag65
(g86
g67
NtRp846
(dp847
g70
(dp848
sg79
g834
sg72
(lp849
g65
(g66
g67
NtRp850
(dp851
g70
(dp852
g78
I3
ssg79
g846
sg72
(lp853
S''
asbasbasbag65
(g81
g67
NtRp854
(dp855
g70
(dp856
sg79
g830
sg72
(lp857
g65
(g86
g67
NtRp858
(dp859
g70
(dp860
g90
g91
ssg79
g854
sg72
(lp861
g300
asbag65
(g86
g67
NtRp862
(dp863
g70
(dp864
g97
g98
ssg79
g854
sg72
(lp865
S':'
asbag65
(g86
g67
NtRp866
(dp867
g70
(dp868
sg79
g854
sg72
(lp869
g65
(g66
g67
NtRp870
(dp871
g70
(dp872
g78
I3
ssg79
g866
sg72
(lp873
S''
asbasbasbag65
(g81
g67
NtRp874
(dp875
g70
(dp876
sg79
g830
sg72
(lp877
g65
(g86
g67
NtRp878
(dp879
g70
(dp880
g90
g91
ssg79
g874
sg72
(lp881
g321
asbag65
(g86
g67
NtRp882
(dp883
g70
(dp884
g97
g98
ssg79
g874
sg72
(lp885
S':'
asbag65
(g86
g67
NtRp886
(dp887
g70
(dp888
sg79
g874
sg72
(lp889
g65
(g66
g67
NtRp890
(dp891
g70
(dp892
g78
I3
ssg79
g886
sg72
(lp893
S''
asbasbasbag65
(g81
g67
NtRp894
(dp895
g70
(dp896
sg79
g830
sg72
(lp897
g65
(g86
g67
NtRp898
(dp899
g70
(dp900
g90
g91
ssg79
g894
sg72
(lp901
g342
asbag65
(g86
g67
NtRp902
(dp903
g70
(dp904
g97
g98
ssg79
g894
sg72
(lp905
S':'
asbag65
(g86
g67
NtRp906
(dp907
g70
(dp908
sg79
g894
sg72
(lp909
g65
(g66
g67
NtRp910
(dp911
g70
(dp912
g78
I3
ssg79
g906
sg72
(lp913
S''
asbasbasbag65
(g81
g67
NtRp914
(dp915
g70
(dp916
sg79
g830
sg72
(lp917
g65
(g86
g67
NtRp918
(dp919
g70
(dp920
g90
g91
ssg79
g914
sg72
(lp921
g363
asbag65
(g86
g67
NtRp922
(dp923
g70
(dp924
g97
g98
ssg79
g914
sg72
(lp925
S':'
asbag65
(g86
g67
NtRp926
(dp927
g70
(dp928
sg79
g914
sg72
(lp929
g65
(g66
g67
NtRp930
(dp931
g70
(dp932
g78
I3
ssg79
g926
sg72
(lp933
S''
asbasbasbag65
(g81
g67
NtRp934
(dp935
g70
(dp936
sg79
g830
sg72
(lp937
g65
(g86
g67
NtRp938
(dp939
g70
(dp940
g90
g91
ssg79
g934
sg72
(lp941
g384
asbag65
(g86
g67
NtRp942
(dp943
g70
(dp944
g97
g98
ssg79
g934
sg72
(lp945
S':'
asbag65
(g86
g67
NtRp946
(dp947
g70
(dp948
sg79
g934
sg72
(lp949
g65
(g66
g67
NtRp950
(dp951
g70
(dp952
g78
I3
ssg79
g946
sg72
(lp953
S''
asbasbasbag65
(g81
g67
NtRp954
(dp955
g70
(dp956
sg79
g830
sg72
(lp957
g65
(g86
g67
NtRp958
(dp959
g70
(dp960
g90
g91
ssg79
g954
sg72
(lp961
g405
asbag65
(g86
g67
NtRp962
(dp963
g70
(dp964
g97
g98
ssg79
g954
sg72
(lp965
S':'
asbag65
(g86
g67
NtRp966
(dp967
g70
(dp968
sg79
g954
sg72
(lp969
g65
(g66
g67
NtRp970
(dp971
g70
(dp972
g78
I3
ssg79
g966
sg72
(lp973
S''
asbasbasbag65
(g81
g67
NtRp974
(dp975
g70
(dp976
sg79
g830
sg72
(lp977
g65
(g86
g67
NtRp978
(dp979
g70
(dp980
g90
g91
ssg79
g974
sg72
(lp981
g426
asbag65
(g86
g67
NtRp982
(dp983
g70
(dp984
g97
g98
ssg79
g974
sg72
(lp985
S':'
asbag65
(g86
g67
NtRp986
(dp987
g70
(dp988
sg79
g974
sg72
(lp989
g65
(g66
g67
NtRp990
(dp991
g70
(dp992
g78
I3
ssg79
g986
sg72
(lp993
S''
asbasbasbasbasbasbasbag65
(g81
g67
NtRp994
(dp995
g70
(dp996
sg79
g242
sg72
(lp997
g65
(g86
g67
NtRp998
(dp999
g70
(dp1000
g90
g91
ssg79
g994
sg72
(lp1001
S'session_id_welcome'
p1002
asbag65
(g86
g67
NtRp1003
(dp1004
g70
(dp1005
g97
g98
ssg79
g994
sg72
(lp1006
S':'
asbag65
(g86
g67
NtRp1007
(dp1008
g70
(dp1009
sg79
g994
sg72
(lp1010
g65
(g66
g67
NtRp1011
(dp1012
g70
(dp1013
g78
I4
ssg79
g1007
sg72
(lp1014
g65
(g74
g67
NtRp1015
(dp1016
g70
(dp1017
g78
I3
ssg79
Nsg72
(lp1018
g65
(g81
g67
NtRp1019
(dp1020
g70
(dp1021
sg79
g1015
sg72
(lp1022
g65
(g86
g67
NtRp1023
(dp1024
g70
(dp1025
g90
g91
ssg79
g1019
sg72
(lp1026
g279
asbag65
(g86
g67
NtRp1027
(dp1028
g70
(dp1029
g97
g98
ssg79
g1019
sg72
(lp1030
S':'
asbag65
(g86
g67
NtRp1031
(dp1032
g70
(dp1033
sg79
g1019
sg72
(lp1034
g65
(g66
g67
NtRp1035
(dp1036
g70
(dp1037
g78
I3
ssg79
g1031
sg72
(lp1038
S''
asbasbasbag65
(g81
g67
NtRp1039
(dp1040
g70
(dp1041
sg79
g1015
sg72
(lp1042
g65
(g86
g67
NtRp1043
(dp1044
g70
(dp1045
g90
g91
ssg79
g1039
sg72
(lp1046
g300
asbag65
(g86
g67
NtRp1047
(dp1048
g70
(dp1049
g97
g98
ssg79
g1039
sg72
(lp1050
S':'
asbag65
(g86
g67
NtRp1051
(dp1052
g70
(dp1053
sg79
g1039
sg72
(lp1054
g65
(g66
g67
NtRp1055
(dp1056
g70
(dp1057
g78
I3
ssg79
g1051
sg72
(lp1058
S''
asbasbasbag65
(g81
g67
NtRp1059
(dp1060
g70
(dp1061
sg79
g1015
sg72
(lp1062
g65
(g86
g67
NtRp1063
(dp1064
g70
(dp1065
g90
g91
ssg79
g1059
sg72
(lp1066
g321
asbag65
(g86
g67
NtRp1067
(dp1068
g70
(dp1069
g97
g98
ssg79
g1059
sg72
(lp1070
S':'
asbag65
(g86
g67
NtRp1071
(dp1072
g70
(dp1073
sg79
g1059
sg72
(lp1074
g65
(g66
g67
NtRp1075
(dp1076
g70
(dp1077
g78
I3
ssg79
g1071
sg72
(lp1078
S''
asbasbasbag65
(g81
g67
NtRp1079
(dp1080
g70
(dp1081
sg79
g1015
sg72
(lp1082
g65
(g86
g67
NtRp1083
(dp1084
g70
(dp1085
g90
g91
ssg79
g1079
sg72
(lp1086
g342
asbag65
(g86
g67
NtRp1087
(dp1088
g70
(dp1089
g97
g98
ssg79
g1079
sg72
(lp1090
S':'
asbag65
(g86
g67
NtRp1091
(dp1092
g70
(dp1093
sg79
g1079
sg72
(lp1094
g65
(g66
g67
NtRp1095
(dp1096
g70
(dp1097
g78
I3
ssg79
g1091
sg72
(lp1098
S''
asbasbasbag65
(g81
g67
NtRp1099
(dp1100
g70
(dp1101
sg79
g1015
sg72
(lp1102
g65
(g86
g67
NtRp1103
(dp1104
g70
(dp1105
g90
g91
ssg79
g1099
sg72
(lp1106
g363
asbag65
(g86
g67
NtRp1107
(dp1108
g70
(dp1109
g97
g98
ssg79
g1099
sg72
(lp1110
S':'
asbag65
(g86
g67
NtRp1111
(dp1112
g70
(dp1113
sg79
g1099
sg72
(lp1114
g65
(g66
g67
NtRp1115
(dp1116
g70
(dp1117
g78
I3
ssg79
g1111
sg72
(lp1118
S''
asbasbasbag65
(g81
g67
NtRp1119
(dp1120
g70
(dp1121
sg79
g1015
sg72
(lp1122
g65
(g86
g67
NtRp1123
(dp1124
g70
(dp1125
g90
g91
ssg79
g1119
sg72
(lp1126
g384
asbag65
(g86
g67
NtRp1127
(dp1128
g70
(dp1129
g97
g98
ssg79
g1119
sg72
(lp1130
S':'
asbag65
(g86
g67
NtRp1131
(dp1132
g70
(dp1133
sg79
g1119
sg72
(lp1134
g65
(g66
g67
NtRp1135
(dp1136
g70
(dp1137
g78
I3
ssg79
g1131
sg72
(lp1138
S''
asbasbasbag65
(g81
g67
NtRp1139
(dp1140
g70
(dp1141
sg79
g1015
sg72
(lp1142
g65
(g86
g67
NtRp1143
(dp1144
g70
(dp1145
g90
g91
ssg79
g1139
sg72
(lp1146
g405
asbag65
(g86
g67
NtRp1147
(dp1148
g70
(dp1149
g97
g98
ssg79
g1139
sg72
(lp1150
S':'
asbag65
(g86
g67
NtRp1151
(dp1152
g70
(dp1153
sg79
g1139
sg72
(lp1154
g65
(g66
g67
NtRp1155
(dp1156
g70
(dp1157
g78
I3
ssg79
g1151
sg72
(lp1158
S''
asbasbasbag65
(g81
g67
NtRp1159
(dp1160
g70
(dp1161
sg79
g1015
sg72
(lp1162
g65
(g86
g67
NtRp1163
(dp1164
g70
(dp1165
g90
g91
ssg79
g1159
sg72
(lp1166
g426
asbag65
(g86
g67
NtRp1167
(dp1168
g70
(dp1169
g97
g98
ssg79
g1159
sg72
(lp1170
S':'
asbag65
(g86
g67
NtRp1171
(dp1172
g70
(dp1173
sg79
g1159
sg72
(lp1174
g65
(g66
g67
NtRp1175
(dp1176
g70
(dp1177
g78
I3
ssg79
g1171
sg72
(lp1178
S''
asbasbasbasbasbasbasbasbasbasbasbag65
(g81
g67
NtRp1179
(dp1180
g70
(dp1181
sg79
g75
sg72
(lp1182
g65
(g86
g67
NtRp1183
(dp1184
g70
(dp1185
g90
g91
ssg79
g1179
sg72
(lp1186
S'env'
p1187
asbag65
(g86
g67
NtRp1188
(dp1189
g70
(dp1190
g97
g98
ssg79
g1179
sg72
(lp1191
S':'
asbag65
(g86
g67
NtRp1192
(dp1193
g70
(dp1194
sg79
g1179
sg72
(lp1195
g65
(g66
g67
NtRp1196
(dp1197
g70
(dp1198
g78
I5
ssg79
g1192
sg72
(lp1199
g65
(g74
g67
NtRp1200
(dp1201
g70
(dp1202
g78
I4
ssg79
Nsg72
(lp1203
g65
(g81
g67
NtRp1204
(dp1205
g70
(dp1206
sg79
g1200
sg72
(lp1207
g65
(g86
g67
NtRp1208
(dp1209
g70
(dp1210
g90
g91
ssg79
g1204
sg72
(lp1211
S'app_folders'
p1212
asbag65
(g86
g67
NtRp1213
(dp1214
g70
(dp1215
g97
g98
ssg79
g1204
sg72
(lp1216
S':'
asbag65
(g86
g67
NtRp1217
(dp1218
g70
(dp1219
sg79
g1204
sg72
(lp1220
g65
(g66
g67
NtRp1221
(dp1222
g70
(dp1223
g78
I4
ssg79
g1217
sg72
(lp1224
S"set(['C:\\\\Documents and Settings\\\\agrover\\\\Desktop\\\\previous crawler\\\\web2py\\\\applications\\\\admin\\\\', 'C:\\\\Documents and Settings\\\\agrover\\\\Desktop\\\\previous crawler\\\\web2py\\\\applications\\\\mycrawler\\\\', 'C:\\\\Documents and Settings\\\\agrover\\\\Desktop\\\\previous crawler\\\\web2py\\\\applications\\\\welcome\\\\', 'C:\\\\Documents and Settings\\\\agrover\\\\Desktop\\\\previous crawler\\\\web2py\\\\applications\\\\mycrawler_2\\\\', 'C:\\\\Documents and Settings\\\\agrover\\\\Desktop\\\\previous crawler\\\\web2py\\\\applications\\\\crawler\\\\'])"
p1225
asbasbasbag65
(g81
g67
NtRp1226
(dp1227
g70
(dp1228
sg79
g1200
sg72
(lp1229
g65
(g86
g67
NtRp1230
(dp1231
g70
(dp1232
g90
g91
ssg79
g1226
sg72
(lp1233
S'applications_parent'
p1234
asbag65
(g86
g67
NtRp1235
(dp1236
g70
(dp1237
g97
g98
ssg79
g1226
sg72
(lp1238
S':'
asbag65
(g86
g67
NtRp1239
(dp1240
g70
(dp1241
sg79
g1226
sg72
(lp1242
g65
(g66
g67
NtRp1243
(dp1244
g70
(dp1245
g78
I4
ssg79
g1239
sg72
(lp1246
S'C:\\Documents and Settings\\agrover\\Desktop\\previous crawler\\web2py'
p1247
asbasbasbag65
(g81
g67
NtRp1248
(dp1249
g70
(dp1250
sg79
g1200
sg72
(lp1251
g65
(g86
g67
NtRp1252
(dp1253
g70
(dp1254
g90
g91
ssg79
g1248
sg72
(lp1255
S'cmd_args'
p1256
asbag65
(g86
g67
NtRp1257
(dp1258
g70
(dp1259
g97
g98
ssg79
g1248
sg72
(lp1260
S':'
asbag65
(g86
g67
NtRp1261
(dp1262
g70
(dp1263
sg79
g1248
sg72
(lp1264
g65
(g66
g67
NtRp1265
(dp1266
g70
(dp1267
g78
I4
ssg79
g1261
sg72
(lp1268
g65
(g74
g67
NtRp1269
(dp1270
g70
(dp1271
g78
I3
ssg79
Nsg72
(lp1272
sbasbasbasbag65
(g81
g67
NtRp1273
(dp1274
g70
(dp1275
sg79
g1200
sg72
(lp1276
g65
(g86
g67
NtRp1277
(dp1278
g70
(dp1279
g90
g91
ssg79
g1273
sg72
(lp1280
S'cmd_options'
p1281
asbag65
(g86
g67
NtRp1282
(dp1283
g70
(dp1284
g97
g98
ssg79
g1273
sg72
(lp1285
S':'
asbag65
(g86
g67
NtRp1286
(dp1287
g70
(dp1288
sg79
g1273
sg72
(lp1289
g65
(g66
g67
NtRp1290
(dp1291
g70
(dp1292
g78
I4
ssg79
g1286
sg72
(lp1293
S"<Values at 0x16d63f0: {'verbose': False, 'ip': '127.0.0.1', 'shutdown_timeout': 5, 'taskbar': False, 'nocron': False, 'pid_filename': 'httpserver.pid', 'maxthreads': None, 'softcron': False, 'server_name': 'mniagrover', 'bpython': False, 'nogui': False, 'port': 8000, 'extcron': False, 'debuglevel': 30, 'test': None, 'folder': 'C:\\\\Documents and Settings\\\\agrover\\\\Desktop\\\\previous crawler\\\\web2py', 'config': '', 'import_models': False, 'winservice': '', 'shell': None, 'run': '', 'log_filename': 'httpserver.log', 'args': [''], 'socket_timeout': 5, 'ssl_ca_certificate': None, 'scheduler': None, 'profiler_filename': None, 'ssl_private_key': '', 'password': '<ask>', 'request_queue_size': 5, 'ssl_certificate': '', 'cronjob': False, 'numthreads': None, 'quiet': False, 'interfaces': None, 'minthreads': None, 'timeout': 10, 'plain': False, 'nobanner': False}>"
p1294
asbasbasbag65
(g81
g67
NtRp1295
(dp1296
g70
(dp1297
sg79
g1200
sg72
(lp1298
g65
(g86
g67
NtRp1299
(dp1300
g70
(dp1301
g90
g91
ssg79
g1295
sg72
(lp1302
S'db_sessions'
p1303
asbag65
(g86
g67
NtRp1304
(dp1305
g70
(dp1306
g97
g98
ssg79
g1295
sg72
(lp1307
S':'
asbag65
(g86
g67
NtRp1308
(dp1309
g70
(dp1310
sg79
g1295
sg72
(lp1311
g65
(g66
g67
NtRp1312
(dp1313
g70
(dp1314
g78
I4
ssg79
g1308
sg72
(lp1315
S'set([])'
p1316
asbasbasbag65
(g81
g67
NtRp1317
(dp1318
g70
(dp1319
sg79
g1200
sg72
(lp1320
g65
(g86
g67
NtRp1321
(dp1322
g70
(dp1323
g90
g91
ssg79
g1317
sg72
(lp1324
S'debugging'
p1325
asbag65
(g86
g67
NtRp1326
(dp1327
g70
(dp1328
g97
g98
ssg79
g1317
sg72
(lp1329
S':'
asbag65
(g86
g67
NtRp1330
(dp1331
g70
(dp1332
sg79
g1317
sg72
(lp1333
g65
(g66
g67
NtRp1334
(dp1335
g70
(dp1336
g78
I4
ssg79
g1330
sg72
(lp1337
g108
asbasbasbag65
(g81
g67
NtRp1338
(dp1339
g70
(dp1340
sg79
g1200
sg72
(lp1341
g65
(g86
g67
NtRp1342
(dp1343
g70
(dp1344
g90
g91
ssg79
g1338
sg72
(lp1345
S'gluon_parent'
p1346
asbag65
(g86
g67
NtRp1347
(dp1348
g70
(dp1349
g97
g98
ssg79
g1338
sg72
(lp1350
S':'
asbag65
(g86
g67
NtRp1351
(dp1352
g70
(dp1353
sg79
g1338
sg72
(lp1354
g65
(g66
g67
NtRp1355
(dp1356
g70
(dp1357
g78
I4
ssg79
g1351
sg72
(lp1358
S'C:\\Documents and Settings\\agrover\\Desktop\\previous crawler\\web2py'
p1359
asbasbasbag65
(g81
g67
NtRp1360
(dp1361
g70
(dp1362
sg79
g1200
sg72
(lp1363
g65
(g86
g67
NtRp1364
(dp1365
g70
(dp1366
g90
g91
ssg79
g1360
sg72
(lp1367
S'http_accept'
p1368
asbag65
(g86
g67
NtRp1369
(dp1370
g70
(dp1371
g97
g98
ssg79
g1360
sg72
(lp1372
S':'
asbag65
(g86
g67
NtRp1373
(dp1374
g70
(dp1375
sg79
g1360
sg72
(lp1376
g65
(g66
g67
NtRp1377
(dp1378
g70
(dp1379
g78
I4
ssg79
g1373
sg72
(lp1380
S'text/html,application/xhtml+xml,application/xml;q=0.9,*/*;q=0.8'
p1381
asbasbasbag65
(g81
g67
NtRp1382
(dp1383
g70
(dp1384
sg79
g1200
sg72
(lp1385
g65
(g86
g67
NtRp1386
(dp1387
g70
(dp1388
g90
g91
ssg79
g1382
sg72
(lp1389
S'http_accept_encoding'
p1390
asbag65
(g86
g67
NtRp1391
(dp1392
g70
(dp1393
g97
g98
ssg79
g1382
sg72
(lp1394
S':'
asbag65
(g86
g67
NtRp1395
(dp1396
g70
(dp1397
sg79
g1382
sg72
(lp1398
g65
(g66
g67
NtRp1399
(dp1400
g70
(dp1401
g78
I4
ssg79
g1395
sg72
(lp1402
S'gzip, deflate'
p1403
asbasbasbag65
(g81
g67
NtRp1404
(dp1405
g70
(dp1406
sg79
g1200
sg72
(lp1407
g65
(g86
g67
NtRp1408
(dp1409
g70
(dp1410
g90
g91
ssg79
g1404
sg72
(lp1411
S'http_accept_language'
p1412
asbag65
(g86
g67
NtRp1413
(dp1414
g70
(dp1415
g97
g98
ssg79
g1404
sg72
(lp1416
S':'
asbag65
(g86
g67
NtRp1417
(dp1418
g70
(dp1419
sg79
g1404
sg72
(lp1420
g65
(g66
g67
NtRp1421
(dp1422
g70
(dp1423
g78
I4
ssg79
g1417
sg72
(lp1424
S'en-us,en;q=0.5'
p1425
asbasbasbag65
(g81
g67
NtRp1426
(dp1427
g70
(dp1428
sg79
g1200
sg72
(lp1429
g65
(g86
g67
NtRp1430
(dp1431
g70
(dp1432
g90
g91
ssg79
g1426
sg72
(lp1433
S'http_connection'
p1434
asbag65
(g86
g67
NtRp1435
(dp1436
g70
(dp1437
g97
g98
ssg79
g1426
sg72
(lp1438
S':'
asbag65
(g86
g67
NtRp1439
(dp1440
g70
(dp1441
sg79
g1426
sg72
(lp1442
g65
(g66
g67
NtRp1443
(dp1444
g70
(dp1445
g78
I4
ssg79
g1439
sg72
(lp1446
S'keep-alive'
p1447
asbasbasbag65
(g81
g67
NtRp1448
(dp1449
g70
(dp1450
sg79
g1200
sg72
(lp1451
g65
(g86
g67
NtRp1452
(dp1453
g70
(dp1454
g90
g91
ssg79
g1448
sg72
(lp1455
S'http_cookie'
p1456
asbag65
(g86
g67
NtRp1457
(dp1458
g70
(dp1459
g97
g98
ssg79
g1448
sg72
(lp1460
S':'
asbag65
(g86
g67
NtRp1461
(dp1462
g70
(dp1463
sg79
g1448
sg72
(lp1464
g65
(g66
g67
NtRp1465
(dp1466
g70
(dp1467
g78
I4
ssg79
g1461
sg72
(lp1468
S'session_id_mycrawler=127.0.0.1-32a946d8-ad2c-43d8-be0f-c8249d02766a; session_id_welcome=127.0.0.1-73caaae4-ee5b-4ac4-b73c-0ff18efdb3ae; session_id_mycrawler_2=127.0.0.1-98a9ea69-51ec-42be-9710-06bc291f7746; session_id_admin=127.0.0.1-009fc510-0f0d-40b6-8d37-931711bfe1b4; session_id_crawler=127.0.0.1-b1c96db0-4cef-48f5-a53b-5d185261332f'
p1469
asbasbasbag65
(g81
g67
NtRp1470
(dp1471
g70
(dp1472
sg79
g1200
sg72
(lp1473
g65
(g86
g67
NtRp1474
(dp1475
g70
(dp1476
g90
g91
ssg79
g1470
sg72
(lp1477
S'http_host'
p1478
asbag65
(g86
g67
NtRp1479
(dp1480
g70
(dp1481
g97
g98
ssg79
g1470
sg72
(lp1482
S':'
asbag65
(g86
g67
NtRp1483
(dp1484
g70
(dp1485
sg79
g1470
sg72
(lp1486
g65
(g66
g67
NtRp1487
(dp1488
g70
(dp1489
g78
I4
ssg79
g1483
sg72
(lp1490
S'127.0.0.1:8000'
p1491
asbasbasbag65
(g81
g67
NtRp1492
(dp1493
g70
(dp1494
sg79
g1200
sg72
(lp1495
g65
(g86
g67
NtRp1496
(dp1497
g70
(dp1498
g90
g91
ssg79
g1492
sg72
(lp1499
S'http_referer'
p1500
asbag65
(g86
g67
NtRp1501
(dp1502
g70
(dp1503
g97
g98
ssg79
g1492
sg72
(lp1504
S':'
asbag65
(g86
g67
NtRp1505
(dp1506
g70
(dp1507
sg79
g1492
sg72
(lp1508
g65
(g66
g67
NtRp1509
(dp1510
g70
(dp1511
g78
I4
ssg79
g1505
sg72
(lp1512
S'http://127.0.0.1:8000/mycrawler/default/enter_info'
p1513
asbasbasbag65
(g81
g67
NtRp1514
(dp1515
g70
(dp1516
sg79
g1200
sg72
(lp1517
g65
(g86
g67
NtRp1518
(dp1519
g70
(dp1520
g90
g91
ssg79
g1514
sg72
(lp1521
S'http_user_agent'
p1522
asbag65
(g86
g67
NtRp1523
(dp1524
g70
(dp1525
g97
g98
ssg79
g1514
sg72
(lp1526
S':'
asbag65
(g86
g67
NtRp1527
(dp1528
g70
(dp1529
sg79
g1514
sg72
(lp1530
g65
(g66
g67
NtRp1531
(dp1532
g70
(dp1533
g78
I4
ssg79
g1527
sg72
(lp1534
S'Mozilla/5.0 (Windows NT 5.1; rv:12.0) Gecko/20100101 Firefox/12.0'
p1535
asbasbasbag65
(g81
g67
NtRp1536
(dp1537
g70
(dp1538
sg79
g1200
sg72
(lp1539
g65
(g86
g67
NtRp1540
(dp1541
g70
(dp1542
g90
g91
ssg79
g1536
sg72
(lp1543
S'is_jython'
p1544
asbag65
(g86
g67
NtRp1545
(dp1546
g70
(dp1547
g97
g98
ssg79
g1536
sg72
(lp1548
S':'
asbag65
(g86
g67
NtRp1549
(dp1550
g70
(dp1551
sg79
g1536
sg72
(lp1552
g65
(g66
g67
NtRp1553
(dp1554
g70
(dp1555
g78
I4
ssg79
g1549
sg72
(lp1556
g108
asbasbasbag65
(g81
g67
NtRp1557
(dp1558
g70
(dp1559
sg79
g1200
sg72
(lp1560
g65
(g86
g67
NtRp1561
(dp1562
g70
(dp1563
g90
g91
ssg79
g1557
sg72
(lp1564
S'is_pypy'
p1565
asbag65
(g86
g67
NtRp1566
(dp1567
g70
(dp1568
g97
g98
ssg79
g1557
sg72
(lp1569
S':'
asbag65
(g86
g67
NtRp1570
(dp1571
g70
(dp1572
sg79
g1557
sg72
(lp1573
g65
(g66
g67
NtRp1574
(dp1575
g70
(dp1576
g78
I4
ssg79
g1570
sg72
(lp1577
g108
asbasbasbag65
(g81
g67
NtRp1578
(dp1579
g70
(dp1580
sg79
g1200
sg72
(lp1581
g65
(g86
g67
NtRp1582
(dp1583
g70
(dp1584
g90
g91
ssg79
g1578
sg72
(lp1585
S'path_info'
p1586
asbag65
(g86
g67
NtRp1587
(dp1588
g70
(dp1589
g97
g98
ssg79
g1578
sg72
(lp1590
S':'
asbag65
(g86
g67
NtRp1591
(dp1592
g70
(dp1593
sg79
g1578
sg72
(lp1594
g65
(g66
g67
NtRp1595
(dp1596
g70
(dp1597
g78
I4
ssg79
g1591
sg72
(lp1598
S'/mycrawler/default/search'
p1599
asbasbasbag65
(g81
g67
NtRp1600
(dp1601
g70
(dp1602
sg79
g1200
sg72
(lp1603
g65
(g86
g67
NtRp1604
(dp1605
g70
(dp1606
g90
g91
ssg79
g1600
sg72
(lp1607
S'query_string'
p1608
asbag65
(g86
g67
NtRp1609
(dp1610
g70
(dp1611
g97
g98
ssg79
g1600
sg72
(lp1612
S':'
asbag65
(g86
g67
NtRp1613
(dp1614
g70
(dp1615
sg79
g1600
sg72
(lp1616
g65
(g66
g67
NtRp1617
(dp1618
g70
(dp1619
g78
I4
ssg79
g1613
sg72
(lp1620
S'Company=&Country=India&File_Name=7&First_Name=harsh&Industry=All+Industries&Keywords=&Last_Name=&School=&Seniority_Levels=All+Seniority+Levels&Title=&_formkey=33fe6d4b-3e91-4d2d-826c-983743c20a4c&_formname=no_table%2Fcreate'
p1621
asbasbasbag65
(g81
g67
NtRp1622
(dp1623
g70
(dp1624
sg79
g1200
sg72
(lp1625
g65
(g86
g67
NtRp1626
(dp1627
g70
(dp1628
g90
g91
ssg79
g1622
sg72
(lp1629
S'remote_addr'
p1630
asbag65
(g86
g67
NtRp1631
(dp1632
g70
(dp1633
g97
g98
ssg79
g1622
sg72
(lp1634
S':'
asbag65
(g86
g67
NtRp1635
(dp1636
g70
(dp1637
sg79
g1622
sg72
(lp1638
g65
(g66
g67
NtRp1639
(dp1640
g70
(dp1641
g78
I4
ssg79
g1635
sg72
(lp1642
g198
asbasbasbag65
(g81
g67
NtRp1643
(dp1644
g70
(dp1645
sg79
g1200
sg72
(lp1646
g65
(g86
g67
NtRp1647
(dp1648
g70
(dp1649
g90
g91
ssg79
g1643
sg72
(lp1650
S'remote_port'
p1651
asbag65
(g86
g67
NtRp1652
(dp1653
g70
(dp1654
g97
g98
ssg79
g1643
sg72
(lp1655
S':'
asbag65
(g86
g67
NtRp1656
(dp1657
g70
(dp1658
sg79
g1643
sg72
(lp1659
g65
(g66
g67
NtRp1660
(dp1661
g70
(dp1662
g78
I4
ssg79
g1656
sg72
(lp1663
S'1329'
p1664
asbasbasbag65
(g81
g67
NtRp1665
(dp1666
g70
(dp1667
sg79
g1200
sg72
(lp1668
g65
(g86
g67
NtRp1669
(dp1670
g70
(dp1671
g90
g91
ssg79
g1665
sg72
(lp1672
S'request_method'
p1673
asbag65
(g86
g67
NtRp1674
(dp1675
g70
(dp1676
g97
g98
ssg79
g1665
sg72
(lp1677
S':'
asbag65
(g86
g67
NtRp1678
(dp1679
g70
(dp1680
sg79
g1665
sg72
(lp1681
g65
(g66
g67
NtRp1682
(dp1683
g70
(dp1684
g78
I4
ssg79
g1678
sg72
(lp1685
S'GET'
p1686
asbasbasbag65
(g81
g67
NtRp1687
(dp1688
g70
(dp1689
sg79
g1200
sg72
(lp1690
g65
(g86
g67
NtRp1691
(dp1692
g70
(dp1693
g90
g91
ssg79
g1687
sg72
(lp1694
S'script_name'
p1695
asbag65
(g86
g67
NtRp1696
(dp1697
g70
(dp1698
g97
g98
ssg79
g1687
sg72
(lp1699
S':'
asbag65
(g86
g67
NtRp1700
(dp1701
g70
(dp1702
sg79
g1687
sg72
(lp1703
g65
(g66
g67
NtRp1704
(dp1705
g70
(dp1706
g78
I4
ssg79
g1700
sg72
(lp1707
S''
asbasbasbag65
(g81
g67
NtRp1708
(dp1709
g70
(dp1710
sg79
g1200
sg72
(lp1711
g65
(g86
g67
NtRp1712
(dp1713
g70
(dp1714
g90
g91
ssg79
g1708
sg72
(lp1715
S'server_name'
p1716
asbag65
(g86
g67
NtRp1717
(dp1718
g70
(dp1719
g97
g98
ssg79
g1708
sg72
(lp1720
S':'
asbag65
(g86
g67
NtRp1721
(dp1722
g70
(dp1723
sg79
g1708
sg72
(lp1724
g65
(g66
g67
NtRp1725
(dp1726
g70
(dp1727
g78
I4
ssg79
g1721
sg72
(lp1728
S'mniagrover'
p1729
asbasbasbag65
(g81
g67
NtRp1730
(dp1731
g70
(dp1732
sg79
g1200
sg72
(lp1733
g65
(g86
g67
NtRp1734
(dp1735
g70
(dp1736
g90
g91
ssg79
g1730
sg72
(lp1737
S'server_port'
p1738
asbag65
(g86
g67
NtRp1739
(dp1740
g70
(dp1741
g97
g98
ssg79
g1730
sg72
(lp1742
S':'
asbag65
(g86
g67
NtRp1743
(dp1744
g70
(dp1745
sg79
g1730
sg72
(lp1746
g65
(g66
g67
NtRp1747
(dp1748
g70
(dp1749
g78
I4
ssg79
g1743
sg72
(lp1750
S'8000'
p1751
asbasbasbag65
(g81
g67
NtRp1752
(dp1753
g70
(dp1754
sg79
g1200
sg72
(lp1755
g65
(g86
g67
NtRp1756
(dp1757
g70
(dp1758
g90
g91
ssg79
g1752
sg72
(lp1759
S'server_protocol'
p1760
asbag65
(g86
g67
NtRp1761
(dp1762
g70
(dp1763
g97
g98
ssg79
g1752
sg72
(lp1764
S':'
asbag65
(g86
g67
NtRp1765
(dp1766
g70
(dp1767
sg79
g1752
sg72
(lp1768
g65
(g66
g67
NtRp1769
(dp1770
g70
(dp1771
g78
I4
ssg79
g1765
sg72
(lp1772
S'HTTP/1.1'
p1773
asbasbasbag65
(g81
g67
NtRp1774
(dp1775
g70
(dp1776
sg79
g1200
sg72
(lp1777
g65
(g86
g67
NtRp1778
(dp1779
g70
(dp1780
g90
g91
ssg79
g1774
sg72
(lp1781
S'server_software'
p1782
asbag65
(g86
g67
NtRp1783
(dp1784
g70
(dp1785
g97
g98
ssg79
g1774
sg72
(lp1786
S':'
asbag65
(g86
g67
NtRp1787
(dp1788
g70
(dp1789
sg79
g1774
sg72
(lp1790
g65
(g66
g67
NtRp1791
(dp1792
g70
(dp1793
g78
I4
ssg79
g1787
sg72
(lp1794
S'Rocket 1.2.4'
p1795
asbasbasbag65
(g81
g67
NtRp1796
(dp1797
g70
(dp1798
sg79
g1200
sg72
(lp1799
g65
(g86
g67
NtRp1800
(dp1801
g70
(dp1802
g90
g91
ssg79
g1796
sg72
(lp1803
S'web2py_crontype'
p1804
asbag65
(g86
g67
NtRp1805
(dp1806
g70
(dp1807
g97
g98
ssg79
g1796
sg72
(lp1808
S':'
asbag65
(g86
g67
NtRp1809
(dp1810
g70
(dp1811
sg79
g1796
sg72
(lp1812
g65
(g66
g67
NtRp1813
(dp1814
g70
(dp1815
g78
I4
ssg79
g1809
sg72
(lp1816
S'hard'
p1817
asbasbasbag65
(g81
g67
NtRp1818
(dp1819
g70
(dp1820
sg79
g1200
sg72
(lp1821
g65
(g86
g67
NtRp1822
(dp1823
g70
(dp1824
g90
g91
ssg79
g1818
sg72
(lp1825
S'web2py_path'
p1826
asbag65
(g86
g67
NtRp1827
(dp1828
g70
(dp1829
g97
g98
ssg79
g1818
sg72
(lp1830
S':'
asbag65
(g86
g67
NtRp1831
(dp1832
g70
(dp1833
sg79
g1818
sg72
(lp1834
g65
(g66
g67
NtRp1835
(dp1836
g70
(dp1837
g78
I4
ssg79
g1831
sg72
(lp1838
g1247
asbasbasbag65
(g81
g67
NtRp1839
(dp1840
g70
(dp1841
sg79
g1200
sg72
(lp1842
g65
(g86
g67
NtRp1843
(dp1844
g70
(dp1845
g90
g91
ssg79
g1839
sg72
(lp1846
S'web2py_version'
p1847
asbag65
(g86
g67
NtRp1848
(dp1849
g70
(dp1850
g97
g98
ssg79
g1839
sg72
(lp1851
S':'
asbag65
(g86
g67
NtRp1852
(dp1853
g70
(dp1854
sg79
g1839
sg72
(lp1855
g65
(g66
g67
NtRp1856
(dp1857
g70
(dp1858
g78
I4
ssg79
g1852
sg72
(lp1859
g65
(g74
g67
NtRp1860
(dp1861
g70
(dp1862
g78
I3
ssg79
Nsg72
(lp1863
g65
(g81
g67
NtRp1864
(dp1865
g70
(dp1866
sg79
g1860
sg72
(lp1867
g65
(g86
g67
NtRp1868
(dp1869
g70
(dp1870
sg79
g1864
sg72
(lp1871
g65
(g66
g67
NtRp1872
(dp1873
g70
(dp1874
g78
I3
ssg79
g1868
sg72
(lp1875
S'1'
asbasbasbag65
(g81
g67
NtRp1876
(dp1877
g70
(dp1878
sg79
g1860
sg72
(lp1879
g65
(g86
g67
NtRp1880
(dp1881
g70
(dp1882
sg79
g1876
sg72
(lp1883
g65
(g66
g67
NtRp1884
(dp1885
g70
(dp1886
g78
I3
ssg79
g1880
sg72
(lp1887
S'99'
p1888
asbasbasbag65
(g81
g67
NtRp1889
(dp1890
g70
(dp1891
sg79
g1860
sg72
(lp1892
g65
(g86
g67
NtRp1893
(dp1894
g70
(dp1895
sg79
g1889
sg72
(lp1896
g65
(g66
g67
NtRp1897
(dp1898
g70
(dp1899
g78
I3
ssg79
g1893
sg72
(lp1900
S'7'
asbasbasbag65
(g81
g67
NtRp1901
(dp1902
g70
(dp1903
sg79
g1860
sg72
(lp1904
g65
(g86
g67
NtRp1905
(dp1906
g70
(dp1907
sg79
g1901
sg72
(lp1908
g65
(g66
g67
NtRp1909
(dp1910
g70
(dp1911
g78
I3
ssg79
g1905
sg72
(lp1912
S'datetime.datetime(2012, 3, 4, 22, 12, 8)'
p1913
asbasbasbag65
(g81
g67
NtRp1914
(dp1915
g70
(dp1916
sg79
g1860
sg72
(lp1917
g65
(g86
g67
NtRp1918
(dp1919
g70
(dp1920
sg79
g1914
sg72
(lp1921
g65
(g66
g67
NtRp1922
(dp1923
g70
(dp1924
g78
I3
ssg79
g1918
sg72
(lp1925
S'stable'
p1926
asbasbasbasbasbasbasbag65
(g81
g67
NtRp1927
(dp1928
g70
(dp1929
sg79
g1200
sg72
(lp1930
g65
(g86
g67
NtRp1931
(dp1932
g70
(dp1933
g90
g91
ssg79
g1927
sg72
(lp1934
S'wsgi_errors'
p1935
asbag65
(g86
g67
NtRp1936
(dp1937
g70
(dp1938
g97
g98
ssg79
g1927
sg72
(lp1939
S':'
asbag65
(g86
g67
NtRp1940
(dp1941
g70
(dp1942
sg79
g1927
sg72
(lp1943
g65
(g66
g67
NtRp1944
(dp1945
g70
(dp1946
g78
I4
ssg79
g1940
sg72
(lp1947
S"<open file '<stderr>', mode 'w' at 0x00A550D0>"
p1948
asbasbasbag65
(g81
g67
NtRp1949
(dp1950
g70
(dp1951
sg79
g1200
sg72
(lp1952
g65
(g86
g67
NtRp1953
(dp1954
g70
(dp1955
g90
g91
ssg79
g1949
sg72
(lp1956
S'wsgi_file_wrapper'
p1957
asbag65
(g86
g67
NtRp1958
(dp1959
g70
(dp1960
g97
g98
ssg79
g1949
sg72
(lp1961
S':'
asbag65
(g86
g67
NtRp1962
(dp1963
g70
(dp1964
sg79
g1949
sg72
(lp1965
g65
(g66
g67
NtRp1966
(dp1967
g70
(dp1968
g78
I4
ssg79
g1962
sg72
(lp1969
S'<class wsgiref.util.FileWrapper at 0x015E8AB0>'
p1970
asbasbasbag65
(g81
g67
NtRp1971
(dp1972
g70
(dp1973
sg79
g1200
sg72
(lp1974
g65
(g86
g67
NtRp1975
(dp1976
g70
(dp1977
g90
g91
ssg79
g1971
sg72
(lp1978
S'wsgi_input'
p1979
asbag65
(g86
g67
NtRp1980
(dp1981
g70
(dp1982
g97
g98
ssg79
g1971
sg72
(lp1983
S':'
asbag65
(g86
g67
NtRp1984
(dp1985
g70
(dp1986
sg79
g1971
sg72
(lp1987
g65
(g66
g67
NtRp1988
(dp1989
g70
(dp1990
g78
I4
ssg79
g1984
sg72
(lp1991
S'<socket._fileobject object at 0x04A2BDF0>'
p1992
asbasbasbag65
(g81
g67
NtRp1993
(dp1994
g70
(dp1995
sg79
g1200
sg72
(lp1996
g65
(g86
g67
NtRp1997
(dp1998
g70
(dp1999
g90
g91
ssg79
g1993
sg72
(lp2000
S'wsgi_multiprocess'
p2001
asbag65
(g86
g67
NtRp2002
(dp2003
g70
(dp2004
g97
g98
ssg79
g1993
sg72
(lp2005
S':'
asbag65
(g86
g67
NtRp2006
(dp2007
g70
(dp2008
sg79
g1993
sg72
(lp2009
g65
(g66
g67
NtRp2010
(dp2011
g70
(dp2012
g78
I4
ssg79
g2006
sg72
(lp2013
g108
asbasbasbag65
(g81
g67
NtRp2014
(dp2015
g70
(dp2016
sg79
g1200
sg72
(lp2017
g65
(g86
g67
NtRp2018
(dp2019
g70
(dp2020
g90
g91
ssg79
g2014
sg72
(lp2021
S'wsgi_multithread'
p2022
asbag65
(g86
g67
NtRp2023
(dp2024
g70
(dp2025
g97
g98
ssg79
g2014
sg72
(lp2026
S':'
asbag65
(g86
g67
NtRp2027
(dp2028
g70
(dp2029
sg79
g2014
sg72
(lp2030
g65
(g66
g67
NtRp2031
(dp2032
g70
(dp2033
g78
I4
ssg79
g2027
sg72
(lp2034
S'True'
p2035
asbasbasbag65
(g81
g67
NtRp2036
(dp2037
g70
(dp2038
sg79
g1200
sg72
(lp2039
g65
(g86
g67
NtRp2040
(dp2041
g70
(dp2042
g90
g91
ssg79
g2036
sg72
(lp2043
S'wsgi_run_once'
p2044
asbag65
(g86
g67
NtRp2045
(dp2046
g70
(dp2047
g97
g98
ssg79
g2036
sg72
(lp2048
S':'
asbag65
(g86
g67
NtRp2049
(dp2050
g70
(dp2051
sg79
g2036
sg72
(lp2052
g65
(g66
g67
NtRp2053
(dp2054
g70
(dp2055
g78
I4
ssg79
g2049
sg72
(lp2056
g108
asbasbasbag65
(g81
g67
NtRp2057
(dp2058
g70
(dp2059
sg79
g1200
sg72
(lp2060
g65
(g86
g67
NtRp2061
(dp2062
g70
(dp2063
g90
g91
ssg79
g2057
sg72
(lp2064
S'wsgi_url_scheme'
p2065
asbag65
(g86
g67
NtRp2066
(dp2067
g70
(dp2068
g97
g98
ssg79
g2057
sg72
(lp2069
S':'
asbag65
(g86
g67
NtRp2070
(dp2071
g70
(dp2072
sg79
g2057
sg72
(lp2073
g65
(g66
g67
NtRp2074
(dp2075
g70
(dp2076
g78
I4
ssg79
g2070
sg72
(lp2077
S'http'
p2078
asbasbasbag65
(g81
g67
NtRp2079
(dp2080
g70
(dp2081
sg79
g1200
sg72
(lp2082
g65
(g86
g67
NtRp2083
(dp2084
g70
(dp2085
g90
g91
ssg79
g2079
sg72
(lp2086
S'wsgi_version'
p2087
asbag65
(g86
g67
NtRp2088
(dp2089
g70
(dp2090
g97
g98
ssg79
g2079
sg72
(lp2091
S':'
asbag65
(g86
g67
NtRp2092
(dp2093
g70
(dp2094
sg79
g2079
sg72
(lp2095
g65
(g66
g67
NtRp2096
(dp2097
g70
(dp2098
g78
I4
ssg79
g2092
sg72
(lp2099
g65
(g74
g67
NtRp2100
(dp2101
g70
(dp2102
g78
I3
ssg79
Nsg72
(lp2103
g65
(g81
g67
NtRp2104
(dp2105
g70
(dp2106
sg79
g2100
sg72
(lp2107
g65
(g86
g67
NtRp2108
(dp2109
g70
(dp2110
sg79
g2104
sg72
(lp2111
g65
(g66
g67
NtRp2112
(dp2113
g70
(dp2114
g78
I3
ssg79
g2108
sg72
(lp2115
S'1'
asbasbasbag65
(g81
g67
NtRp2116
(dp2117
g70
(dp2118
sg79
g2100
sg72
(lp2119
g65
(g86
g67
NtRp2120
(dp2121
g70
(dp2122
sg79
g2116
sg72
(lp2123
g65
(g66
g67
NtRp2124
(dp2125
g70
(dp2126
g78
I3
ssg79
g2120
sg72
(lp2127
S'0'
asbasbasbasbasbasbasbasbasbasbasbag65
(g81
g67
NtRp2128
(dp2129
g70
(dp2130
sg79
g75
sg72
(lp2131
g65
(g86
g67
NtRp2132
(dp2133
g70
(dp2134
g90
g91
ssg79
g2128
sg72
(lp2135
S'extension'
p2136
asbag65
(g86
g67
NtRp2137
(dp2138
g70
(dp2139
g97
g98
ssg79
g2128
sg72
(lp2140
S':'
asbag65
(g86
g67
NtRp2141
(dp2142
g70
(dp2143
sg79
g2128
sg72
(lp2144
g65
(g66
g67
NtRp2145
(dp2146
g70
(dp2147
g78
I5
ssg79
g2141
sg72
(lp2148
S'html'
p2149
asbasbasbag65
(g81
g67
NtRp2150
(dp2151
g70
(dp2152
sg79
g75
sg72
(lp2153
g65
(g86
g67
NtRp2154
(dp2155
g70
(dp2156
g90
g91
ssg79
g2150
sg72
(lp2157
S'folder'
p2158
asbag65
(g86
g67
NtRp2159
(dp2160
g70
(dp2161
g97
g98
ssg79
g2150
sg72
(lp2162
S':'
asbag65
(g86
g67
NtRp2163
(dp2164
g70
(dp2165
sg79
g2150
sg72
(lp2166
g65
(g66
g67
NtRp2167
(dp2168
g70
(dp2169
g78
I5
ssg79
g2163
sg72
(lp2170
S'C:\\Documents and Settings\\agrover\\Desktop\\previous crawler\\web2py\\applications\\mycrawler\\'
p2171
asbasbasbag65
(g81
g67
NtRp2172
(dp2173
g70
(dp2174
sg79
g75
sg72
(lp2175
g65
(g86
g67
NtRp2176
(dp2177
g70
(dp2178
g90
g91
ssg79
g2172
sg72
(lp2179
S'function'
p2180
asbag65
(g86
g67
NtRp2181
(dp2182
g70
(dp2183
g97
g98
ssg79
g2172
sg72
(lp2184
S':'
asbag65
(g86
g67
NtRp2185
(dp2186
g70
(dp2187
sg79
g2172
sg72
(lp2188
g65
(g66
g67
NtRp2189
(dp2190
g70
(dp2191
g78
I5
ssg79
g2185
sg72
(lp2192
S'search'
p2193
asbasbasbag65
(g81
g67
NtRp2194
(dp2195
g70
(dp2196
sg79
g75
sg72
(lp2197
g65
(g86
g67
NtRp2198
(dp2199
g70
(dp2200
g90
g91
ssg79
g2194
sg72
(lp2201
S'get_vars'
p2202
asbag65
(g86
g67
NtRp2203
(dp2204
g70
(dp2205
g97
g98
ssg79
g2194
sg72
(lp2206
S':'
asbag65
(g86
g67
NtRp2207
(dp2208
g70
(dp2209
sg79
g2194
sg72
(lp2210
g65
(g66
g67
NtRp2211
(dp2212
g70
(dp2213
g78
I5
ssg79
g2207
sg72
(lp2214
g65
(g74
g67
NtRp2215
(dp2216
g70
(dp2217
g78
I4
ssg79
Nsg72
(lp2218
g65
(g81
g67
NtRp2219
(dp2220
g70
(dp2221
sg79
g2215
sg72
(lp2222
g65
(g86
g67
NtRp2223
(dp2224
g70
(dp2225
g90
g91
ssg79
g2219
sg72
(lp2226
S'Company'
p2227
asbag65
(g86
g67
NtRp2228
(dp2229
g70
(dp2230
g97
g98
ssg79
g2219
sg72
(lp2231
S':'
asbag65
(g86
g67
NtRp2232
(dp2233
g70
(dp2234
sg79
g2219
sg72
(lp2235
g65
(g66
g67
NtRp2236
(dp2237
g70
(dp2238
g78
I4
ssg79
g2232
sg72
(lp2239
S''
asbasbasbag65
(g81
g67
NtRp2240
(dp2241
g70
(dp2242
sg79
g2215
sg72
(lp2243
g65
(g86
g67
NtRp2244
(dp2245
g70
(dp2246
g90
g91
ssg79
g2240
sg72
(lp2247
S'Country'
p2248
asbag65
(g86
g67
NtRp2249
(dp2250
g70
(dp2251
g97
g98
ssg79
g2240
sg72
(lp2252
S':'
asbag65
(g86
g67
NtRp2253
(dp2254
g70
(dp2255
sg79
g2240
sg72
(lp2256
g65
(g66
g67
NtRp2257
(dp2258
g70
(dp2259
g78
I4
ssg79
g2253
sg72
(lp2260
S'India'
p2261
asbasbasbag65
(g81
g67
NtRp2262
(dp2263
g70
(dp2264
sg79
g2215
sg72
(lp2265
g65
(g86
g67
NtRp2266
(dp2267
g70
(dp2268
g90
g91
ssg79
g2262
sg72
(lp2269
S'File_Name'
p2270
asbag65
(g86
g67
NtRp2271
(dp2272
g70
(dp2273
g97
g98
ssg79
g2262
sg72
(lp2274
S':'
asbag65
(g86
g67
NtRp2275
(dp2276
g70
(dp2277
sg79
g2262
sg72
(lp2278
g65
(g66
g67
NtRp2279
(dp2280
g70
(dp2281
g78
I4
ssg79
g2275
sg72
(lp2282
S'7'
asbasbasbag65
(g81
g67
NtRp2283
(dp2284
g70
(dp2285
sg79
g2215
sg72
(lp2286
g65
(g86
g67
NtRp2287
(dp2288
g70
(dp2289
g90
g91
ssg79
g2283
sg72
(lp2290
S'First_Name'
p2291
asbag65
(g86
g67
NtRp2292
(dp2293
g70
(dp2294
g97
g98
ssg79
g2283
sg72
(lp2295
S':'
asbag65
(g86
g67
NtRp2296
(dp2297
g70
(dp2298
sg79
g2283
sg72
(lp2299
g65
(g66
g67
NtRp2300
(dp2301
g70
(dp2302
g78
I4
ssg79
g2296
sg72
(lp2303
S'harsh'
p2304
asbasbasbag65
(g81
g67
NtRp2305
(dp2306
g70
(dp2307
sg79
g2215
sg72
(lp2308
g65
(g86
g67
NtRp2309
(dp2310
g70
(dp2311
g90
g91
ssg79
g2305
sg72
(lp2312
S'Industry'
p2313
asbag65
(g86
g67
NtRp2314
(dp2315
g70
(dp2316
g97
g98
ssg79
g2305
sg72
(lp2317
S':'
asbag65
(g86
g67
NtRp2318
(dp2319
g70
(dp2320
sg79
g2305
sg72
(lp2321
g65
(g66
g67
NtRp2322
(dp2323
g70
(dp2324
g78
I4
ssg79
g2318
sg72
(lp2325
S'All Industries'
p2326
asbasbasbag65
(g81
g67
NtRp2327
(dp2328
g70
(dp2329
sg79
g2215
sg72
(lp2330
g65
(g86
g67
NtRp2331
(dp2332
g70
(dp2333
g90
g91
ssg79
g2327
sg72
(lp2334
S'Keywords'
p2335
asbag65
(g86
g67
NtRp2336
(dp2337
g70
(dp2338
g97
g98
ssg79
g2327
sg72
(lp2339
S':'
asbag65
(g86
g67
NtRp2340
(dp2341
g70
(dp2342
sg79
g2327
sg72
(lp2343
g65
(g66
g67
NtRp2344
(dp2345
g70
(dp2346
g78
I4
ssg79
g2340
sg72
(lp2347
S''
asbasbasbag65
(g81
g67
NtRp2348
(dp2349
g70
(dp2350
sg79
g2215
sg72
(lp2351
g65
(g86
g67
NtRp2352
(dp2353
g70
(dp2354
g90
g91
ssg79
g2348
sg72
(lp2355
S'Last_Name'
p2356
asbag65
(g86
g67
NtRp2357
(dp2358
g70
(dp2359
g97
g98
ssg79
g2348
sg72
(lp2360
S':'
asbag65
(g86
g67
NtRp2361
(dp2362
g70
(dp2363
sg79
g2348
sg72
(lp2364
g65
(g66
g67
NtRp2365
(dp2366
g70
(dp2367
g78
I4
ssg79
g2361
sg72
(lp2368
S''
asbasbasbag65
(g81
g67
NtRp2369
(dp2370
g70
(dp2371
sg79
g2215
sg72
(lp2372
g65
(g86
g67
NtRp2373
(dp2374
g70
(dp2375
g90
g91
ssg79
g2369
sg72
(lp2376
S'School'
p2377
asbag65
(g86
g67
NtRp2378
(dp2379
g70
(dp2380
g97
g98
ssg79
g2369
sg72
(lp2381
S':'
asbag65
(g86
g67
NtRp2382
(dp2383
g70
(dp2384
sg79
g2369
sg72
(lp2385
g65
(g66
g67
NtRp2386
(dp2387
g70
(dp2388
g78
I4
ssg79
g2382
sg72
(lp2389
S''
asbasbasbag65
(g81
g67
NtRp2390
(dp2391
g70
(dp2392
sg79
g2215
sg72
(lp2393
g65
(g86
g67
NtRp2394
(dp2395
g70
(dp2396
g90
g91
ssg79
g2390
sg72
(lp2397
S'Seniority_Levels'
p2398
asbag65
(g86
g67
NtRp2399
(dp2400
g70
(dp2401
g97
g98
ssg79
g2390
sg72
(lp2402
S':'
asbag65
(g86
g67
NtRp2403
(dp2404
g70
(dp2405
sg79
g2390
sg72
(lp2406
g65
(g66
g67
NtRp2407
(dp2408
g70
(dp2409
g78
I4
ssg79
g2403
sg72
(lp2410
S'All Seniority Levels'
p2411
asbasbasbag65
(g81
g67
NtRp2412
(dp2413
g70
(dp2414
sg79
g2215
sg72
(lp2415
g65
(g86
g67
NtRp2416
(dp2417
g70
(dp2418
g90
g91
ssg79
g2412
sg72
(lp2419
S'Title'
p2420
asbag65
(g86
g67
NtRp2421
(dp2422
g70
(dp2423
g97
g98
ssg79
g2412
sg72
(lp2424
S':'
asbag65
(g86
g67
NtRp2425
(dp2426
g70
(dp2427
sg79
g2412
sg72
(lp2428
g65
(g66
g67
NtRp2429
(dp2430
g70
(dp2431
g78
I4
ssg79
g2425
sg72
(lp2432
S''
asbasbasbasbasbasbasbag65
(g81
g67
NtRp2433
(dp2434
g70
(dp2435
sg79
g75
sg72
(lp2436
g65
(g86
g67
NtRp2437
(dp2438
g70
(dp2439
g90
g91
ssg79
g2433
sg72
(lp2440
S'global_settings'
p2441
asbag65
(g86
g67
NtRp2442
(dp2443
g70
(dp2444
g97
g98
ssg79
g2433
sg72
(lp2445
S':'
asbag65
(g86
g67
NtRp2446
(dp2447
g70
(dp2448
sg79
g2433
sg72
(lp2449
g65
(g66
g67
NtRp2450
(dp2451
g70
(dp2452
g78
I5
ssg79
g2446
sg72
(lp2453
g65
(g74
g67
NtRp2454
(dp2455
g70
(dp2456
g78
I4
ssg79
Nsg72
(lp2457
g65
(g81
g67
NtRp2458
(dp2459
g70
(dp2460
sg79
g2454
sg72
(lp2461
g65
(g86
g67
NtRp2462
(dp2463
g70
(dp2464
g90
g91
ssg79
g2458
sg72
(lp2465
g1212
asbag65
(g86
g67
NtRp2466
(dp2467
g70
(dp2468
g97
g98
ssg79
g2458
sg72
(lp2469
S':'
asbag65
(g86
g67
NtRp2470
(dp2471
g70
(dp2472
sg79
g2458
sg72
(lp2473
g65
(g66
g67
NtRp2474
(dp2475
g70
(dp2476
g78
I4
ssg79
g2470
sg72
(lp2477
S"set(['C:\\\\Documents and Settings\\\\agrover\\\\Desktop\\\\previous crawler\\\\web2py\\\\applications\\\\admin\\\\', 'C:\\\\Documents and Settings\\\\agrover\\\\Desktop\\\\previous crawler\\\\web2py\\\\applications\\\\mycrawler\\\\', 'C:\\\\Documents and Settings\\\\agrover\\\\Desktop\\\\previous crawler\\\\web2py\\\\applications\\\\welcome\\\\', 'C:\\\\Documents and Settings\\\\agrover\\\\Desktop\\\\previous crawler\\\\web2py\\\\applications\\\\mycrawler_2\\\\', 'C:\\\\Documents and Settings\\\\agrover\\\\Desktop\\\\previous crawler\\\\web2py\\\\applications\\\\crawler\\\\'])"
p2478
asbasbasbag65
(g81
g67
NtRp2479
(dp2480
g70
(dp2481
sg79
g2454
sg72
(lp2482
g65
(g86
g67
NtRp2483
(dp2484
g70
(dp2485
g90
g91
ssg79
g2479
sg72
(lp2486
g1234
asbag65
(g86
g67
NtRp2487
(dp2488
g70
(dp2489
g97
g98
ssg79
g2479
sg72
(lp2490
S':'
asbag65
(g86
g67
NtRp2491
(dp2492
g70
(dp2493
sg79
g2479
sg72
(lp2494
g65
(g66
g67
NtRp2495
(dp2496
g70
(dp2497
g78
I4
ssg79
g2491
sg72
(lp2498
g1247
asbasbasbag65
(g81
g67
NtRp2499
(dp2500
g70
(dp2501
sg79
g2454
sg72
(lp2502
g65
(g86
g67
NtRp2503
(dp2504
g70
(dp2505
g90
g91
ssg79
g2499
sg72
(lp2506
g1256
asbag65
(g86
g67
NtRp2507
(dp2508
g70
(dp2509
g97
g98
ssg79
g2499
sg72
(lp2510
S':'
asbag65
(g86
g67
NtRp2511
(dp2512
g70
(dp2513
sg79
g2499
sg72
(lp2514
g65
(g66
g67
NtRp2515
(dp2516
g70
(dp2517
g78
I4
ssg79
g2511
sg72
(lp2518
g65
(g74
g67
NtRp2519
(dp2520
g70
(dp2521
g78
I3
ssg79
Nsg72
(lp2522
sbasbasbasbag65
(g81
g67
NtRp2523
(dp2524
g70
(dp2525
sg79
g2454
sg72
(lp2526
g65
(g86
g67
NtRp2527
(dp2528
g70
(dp2529
g90
g91
ssg79
g2523
sg72
(lp2530
g1281
asbag65
(g86
g67
NtRp2531
(dp2532
g70
(dp2533
g97
g98
ssg79
g2523
sg72
(lp2534
S':'
asbag65
(g86
g67
NtRp2535
(dp2536
g70
(dp2537
sg79
g2523
sg72
(lp2538
g65
(g66
g67
NtRp2539
(dp2540
g70
(dp2541
g78
I4
ssg79
g2535
sg72
(lp2542
S"<Values at 0x16d63f0: {'verbose': False, 'ip': '127.0.0.1', 'shutdown_timeout': 5, 'taskbar': False, 'nocron': False, 'pid_filename': 'httpserver.pid', 'maxthreads': None, 'softcron': False, 'server_name': 'mniagrover', 'bpython': False, 'nogui': False, 'port': 8000, 'extcron': False, 'debuglevel': 30, 'test': None, 'folder': 'C:\\\\Documents and Settings\\\\agrover\\\\Desktop\\\\previous crawler\\\\web2py', 'config': '', 'import_models': False, 'winservice': '', 'shell': None, 'run': '', 'log_filename': 'httpserver.log', 'args': [''], 'socket_timeout': 5, 'ssl_ca_certificate': None, 'scheduler': None, 'profiler_filename': None, 'ssl_private_key': '', 'password': '<ask>', 'request_queue_size': 5, 'ssl_certificate': '', 'cronjob': False, 'numthreads': None, 'quiet': False, 'interfaces': None, 'minthreads': None, 'timeout': 10, 'plain': False, 'nobanner': False}>"
p2543
asbasbasbag65
(g81
g67
NtRp2544
(dp2545
g70
(dp2546
sg79
g2454
sg72
(lp2547
g65
(g86
g67
NtRp2548
(dp2549
g70
(dp2550
g90
g91
ssg79
g2544
sg72
(lp2551
g1303
asbag65
(g86
g67
NtRp2552
(dp2553
g70
(dp2554
g97
g98
ssg79
g2544
sg72
(lp2555
S':'
asbag65
(g86
g67
NtRp2556
(dp2557
g70
(dp2558
sg79
g2544
sg72
(lp2559
g65
(g66
g67
NtRp2560
(dp2561
g70
(dp2562
g78
I4
ssg79
g2556
sg72
(lp2563
S'set([])'
p2564
asbasbasbag65
(g81
g67
NtRp2565
(dp2566
g70
(dp2567
sg79
g2454
sg72
(lp2568
g65
(g86
g67
NtRp2569
(dp2570
g70
(dp2571
g90
g91
ssg79
g2565
sg72
(lp2572
g1325
asbag65
(g86
g67
NtRp2573
(dp2574
g70
(dp2575
g97
g98
ssg79
g2565
sg72
(lp2576
S':'
asbag65
(g86
g67
NtRp2577
(dp2578
g70
(dp2579
sg79
g2565
sg72
(lp2580
g65
(g66
g67
NtRp2581
(dp2582
g70
(dp2583
g78
I4
ssg79
g2577
sg72
(lp2584
g108
asbasbasbag65
(g81
g67
NtRp2585
(dp2586
g70
(dp2587
sg79
g2454
sg72
(lp2588
g65
(g86
g67
NtRp2589
(dp2590
g70
(dp2591
g90
g91
ssg79
g2585
sg72
(lp2592
g1346
asbag65
(g86
g67
NtRp2593
(dp2594
g70
(dp2595
g97
g98
ssg79
g2585
sg72
(lp2596
S':'
asbag65
(g86
g67
NtRp2597
(dp2598
g70
(dp2599
sg79
g2585
sg72
(lp2600
g65
(g66
g67
NtRp2601
(dp2602
g70
(dp2603
g78
I4
ssg79
g2597
sg72
(lp2604
g1359
asbasbasbag65
(g81
g67
NtRp2605
(dp2606
g70
(dp2607
sg79
g2454
sg72
(lp2608
g65
(g86
g67
NtRp2609
(dp2610
g70
(dp2611
g90
g91
ssg79
g2605
sg72
(lp2612
g1544
asbag65
(g86
g67
NtRp2613
(dp2614
g70
(dp2615
g97
g98
ssg79
g2605
sg72
(lp2616
S':'
asbag65
(g86
g67
NtRp2617
(dp2618
g70
(dp2619
sg79
g2605
sg72
(lp2620
g65
(g66
g67
NtRp2621
(dp2622
g70
(dp2623
g78
I4
ssg79
g2617
sg72
(lp2624
g108
asbasbasbag65
(g81
g67
NtRp2625
(dp2626
g70
(dp2627
sg79
g2454
sg72
(lp2628
g65
(g86
g67
NtRp2629
(dp2630
g70
(dp2631
g90
g91
ssg79
g2625
sg72
(lp2632
g1565
asbag65
(g86
g67
NtRp2633
(dp2634
g70
(dp2635
g97
g98
ssg79
g2625
sg72
(lp2636
S':'
asbag65
(g86
g67
NtRp2637
(dp2638
g70
(dp2639
sg79
g2625
sg72
(lp2640
g65
(g66
g67
NtRp2641
(dp2642
g70
(dp2643
g78
I4
ssg79
g2637
sg72
(lp2644
g108
asbasbasbag65
(g81
g67
NtRp2645
(dp2646
g70
(dp2647
sg79
g2454
sg72
(lp2648
g65
(g86
g67
NtRp2649
(dp2650
g70
(dp2651
g90
g91
ssg79
g2645
sg72
(lp2652
g1804
asbag65
(g86
g67
NtRp2653
(dp2654
g70
(dp2655
g97
g98
ssg79
g2645
sg72
(lp2656
S':'
asbag65
(g86
g67
NtRp2657
(dp2658
g70
(dp2659
sg79
g2645
sg72
(lp2660
g65
(g66
g67
NtRp2661
(dp2662
g70
(dp2663
g78
I4
ssg79
g2657
sg72
(lp2664
g1817
asbasbasbag65
(g81
g67
NtRp2665
(dp2666
g70
(dp2667
sg79
g2454
sg72
(lp2668
g65
(g86
g67
NtRp2669
(dp2670
g70
(dp2671
g90
g91
ssg79
g2665
sg72
(lp2672
g1847
asbag65
(g86
g67
NtRp2673
(dp2674
g70
(dp2675
g97
g98
ssg79
g2665
sg72
(lp2676
S':'
asbag65
(g86
g67
NtRp2677
(dp2678
g70
(dp2679
sg79
g2665
sg72
(lp2680
g65
(g66
g67
NtRp2681
(dp2682
g70
(dp2683
g78
I4
ssg79
g2677
sg72
(lp2684
g65
(g74
g67
NtRp2685
(dp2686
g70
(dp2687
g78
I3
ssg79
Nsg72
(lp2688
g65
(g81
g67
NtRp2689
(dp2690
g70
(dp2691
sg79
g2685
sg72
(lp2692
g65
(g86
g67
NtRp2693
(dp2694
g70
(dp2695
sg79
g2689
sg72
(lp2696
g65
(g66
g67
NtRp2697
(dp2698
g70
(dp2699
g78
I3
ssg79
g2693
sg72
(lp2700
S'1'
asbasbasbag65
(g81
g67
NtRp2701
(dp2702
g70
(dp2703
sg79
g2685
sg72
(lp2704
g65
(g86
g67
NtRp2705
(dp2706
g70
(dp2707
sg79
g2701
sg72
(lp2708
g65
(g66
g67
NtRp2709
(dp2710
g70
(dp2711
g78
I3
ssg79
g2705
sg72
(lp2712
S'99'
p2713
asbasbasbag65
(g81
g67
NtRp2714
(dp2715
g70
(dp2716
sg79
g2685
sg72
(lp2717
g65
(g86
g67
NtRp2718
(dp2719
g70
(dp2720
sg79
g2714
sg72
(lp2721
g65
(g66
g67
NtRp2722
(dp2723
g70
(dp2724
g78
I3
ssg79
g2718
sg72
(lp2725
S'7'
asbasbasbag65
(g81
g67
NtRp2726
(dp2727
g70
(dp2728
sg79
g2685
sg72
(lp2729
g65
(g86
g67
NtRp2730
(dp2731
g70
(dp2732
sg79
g2726
sg72
(lp2733
g65
(g66
g67
NtRp2734
(dp2735
g70
(dp2736
g78
I3
ssg79
g2730
sg72
(lp2737
S'datetime.datetime(2012, 3, 4, 22, 12, 8)'
p2738
asbasbasbag65
(g81
g67
NtRp2739
(dp2740
g70
(dp2741
sg79
g2685
sg72
(lp2742
g65
(g86
g67
NtRp2743
(dp2744
g70
(dp2745
sg79
g2739
sg72
(lp2746
g65
(g66
g67
NtRp2747
(dp2748
g70
(dp2749
g78
I3
ssg79
g2743
sg72
(lp2750
g1926
asbasbasbasbasbasbasbasbasbasbasbag65
(g81
g67
NtRp2751
(dp2752
g70
(dp2753
sg79
g75
sg72
(lp2754
g65
(g86
g67
NtRp2755
(dp2756
g70
(dp2757
g90
g91
ssg79
g2751
sg72
(lp2758
S'is_https'
p2759
asbag65
(g86
g67
NtRp2760
(dp2761
g70
(dp2762
g97
g98
ssg79
g2751
sg72
(lp2763
S':'
asbag65
(g86
g67
NtRp2764
(dp2765
g70
(dp2766
sg79
g2751
sg72
(lp2767
g65
(g66
g67
NtRp2768
(dp2769
g70
(dp2770
g78
I5
ssg79
g2764
sg72
(lp2771
g108
asbasbasbag65
(g81
g67
NtRp2772
(dp2773
g70
(dp2774
sg79
g75
sg72
(lp2775
g65
(g86
g67
NtRp2776
(dp2777
g70
(dp2778
g90
g91
ssg79
g2772
sg72
(lp2779
S'is_local'
p2780
asbag65
(g86
g67
NtRp2781
(dp2782
g70
(dp2783
g97
g98
ssg79
g2772
sg72
(lp2784
S':'
asbag65
(g86
g67
NtRp2785
(dp2786
g70
(dp2787
sg79
g2772
sg72
(lp2788
g65
(g66
g67
NtRp2789
(dp2790
g70
(dp2791
g78
I5
ssg79
g2785
sg72
(lp2792
g2035
asbasbasbag65
(g81
g67
NtRp2793
(dp2794
g70
(dp2795
sg79
g75
sg72
(lp2796
g65
(g86
g67
NtRp2797
(dp2798
g70
(dp2799
g90
g91
ssg79
g2793
sg72
(lp2800
S'is_restful'
p2801
asbag65
(g86
g67
NtRp2802
(dp2803
g70
(dp2804
g97
g98
ssg79
g2793
sg72
(lp2805
S':'
asbag65
(g86
g67
NtRp2806
(dp2807
g70
(dp2808
sg79
g2793
sg72
(lp2809
g65
(g66
g67
NtRp2810
(dp2811
g70
(dp2812
g78
I5
ssg79
g2806
sg72
(lp2813
g108
asbasbasbag65
(g81
g67
NtRp2814
(dp2815
g70
(dp2816
sg79
g75
sg72
(lp2817
g65
(g86
g67
NtRp2818
(dp2819
g70
(dp2820
g90
g91
ssg79
g2814
sg72
(lp2821
S'now'
p2822
asbag65
(g86
g67
NtRp2823
(dp2824
g70
(dp2825
g97
g98
ssg79
g2814
sg72
(lp2826
S':'
asbag65
(g86
g67
NtRp2827
(dp2828
g70
(dp2829
sg79
g2814
sg72
(lp2830
g65
(g66
g67
NtRp2831
(dp2832
g70
(dp2833
g78
I5
ssg79
g2827
sg72
(lp2834
S'datetime.datetime(2012, 6, 11, 11, 31, 27, 562000)'
p2835
asbasbasbag65
(g81
g67
NtRp2836
(dp2837
g70
(dp2838
sg79
g75
sg72
(lp2839
g65
(g86
g67
NtRp2840
(dp2841
g70
(dp2842
g90
g91
ssg79
g2836
sg72
(lp2843
S'post_vars'
p2844
asbag65
(g86
g67
NtRp2845
(dp2846
g70
(dp2847
g97
g98
ssg79
g2836
sg72
(lp2848
S':'
asbag65
(g86
g67
NtRp2849
(dp2850
g70
(dp2851
sg79
g2836
sg72
(lp2852
g65
(g66
g67
NtRp2853
(dp2854
g70
(dp2855
g78
I5
ssg79
g2849
sg72
(lp2856
g65
(g74
g67
NtRp2857
(dp2858
g70
(dp2859
g78
I4
ssg79
Nsg72
(lp2860
sbasbasbasbag65
(g81
g67
NtRp2861
(dp2862
g70
(dp2863
sg79
g75
sg72
(lp2864
g65
(g86
g67
NtRp2865
(dp2866
g70
(dp2867
g90
g91
ssg79
g2861
sg72
(lp2868
S'url'
p2869
asbag65
(g86
g67
NtRp2870
(dp2871
g70
(dp2872
g97
g98
ssg79
g2861
sg72
(lp2873
S':'
asbag65
(g86
g67
NtRp2874
(dp2875
g70
(dp2876
sg79
g2861
sg72
(lp2877
g65
(g66
g67
NtRp2878
(dp2879
g70
(dp2880
g78
I5
ssg79
g2874
sg72
(lp2881
S'/mycrawler/default/search'
p2882
asbasbasbag65
(g81
g67
NtRp2883
(dp2884
g70
(dp2885
sg79
g75
sg72
(lp2886
g65
(g86
g67
NtRp2887
(dp2888
g70
(dp2889
g90
g91
ssg79
g2883
sg72
(lp2890
S'utcnow'
p2891
asbag65
(g86
g67
NtRp2892
(dp2893
g70
(dp2894
g97
g98
ssg79
g2883
sg72
(lp2895
S':'
asbag65
(g86
g67
NtRp2896
(dp2897
g70
(dp2898
sg79
g2883
sg72
(lp2899
g65
(g66
g67
NtRp2900
(dp2901
g70
(dp2902
g78
I5
ssg79
g2896
sg72
(lp2903
S'datetime.datetime(2012, 6, 11, 18, 31, 27, 562000)'
p2904
asbasbasbag65
(g81
g67
NtRp2905
(dp2906
g70
(dp2907
sg79
g75
sg72
(lp2908
g65
(g86
g67
NtRp2909
(dp2910
g70
(dp2911
g90
g91
ssg79
g2905
sg72
(lp2912
S'uuid'
p2913
asbag65
(g86
g67
NtRp2914
(dp2915
g70
(dp2916
g97
g98
ssg79
g2905
sg72
(lp2917
S':'
asbag65
(g86
g67
NtRp2918
(dp2919
g70
(dp2920
sg79
g2905
sg72
(lp2921
g65
(g66
g67
NtRp2922
(dp2923
g70
(dp2924
g78
I5
ssg79
g2918
sg72
(lp2925
S'mycrawler/127.0.0.1.2012-06-11.11-31-27.13fecdc6-8acb-445c-b940-24c0d1e4a92e'
p2926
asbasbasbag65
(g81
g67
NtRp2927
(dp2928
g70
(dp2929
sg79
g75
sg72
(lp2930
g65
(g86
g67
NtRp2931
(dp2932
g70
(dp2933
g90
g91
ssg79
g2927
sg72
(lp2934
S'vars'
p2935
asbag65
(g86
g67
NtRp2936
(dp2937
g70
(dp2938
g97
g98
ssg79
g2927
sg72
(lp2939
S':'
asbag65
(g86
g67
NtRp2940
(dp2941
g70
(dp2942
sg79
g2927
sg72
(lp2943
g65
(g66
g67
NtRp2944
(dp2945
g70
(dp2946
g78
I5
ssg79
g2940
sg72
(lp2947
g65
(g74
g67
NtRp2948
(dp2949
g70
(dp2950
g78
I4
ssg79
Nsg72
(lp2951
g65
(g81
g67
NtRp2952
(dp2953
g70
(dp2954
sg79
g2948
sg72
(lp2955
g65
(g86
g67
NtRp2956
(dp2957
g70
(dp2958
g90
g91
ssg79
g2952
sg72
(lp2959
g2227
asbag65
(g86
g67
NtRp2960
(dp2961
g70
(dp2962
g97
g98
ssg79
g2952
sg72
(lp2963
S':'
asbag65
(g86
g67
NtRp2964
(dp2965
g70
(dp2966
sg79
g2952
sg72
(lp2967
g65
(g66
g67
NtRp2968
(dp2969
g70
(dp2970
g78
I4
ssg79
g2964
sg72
(lp2971
S''
asbasbasbag65
(g81
g67
NtRp2972
(dp2973
g70
(dp2974
sg79
g2948
sg72
(lp2975
g65
(g86
g67
NtRp2976
(dp2977
g70
(dp2978
g90
g91
ssg79
g2972
sg72
(lp2979
g2248
asbag65
(g86
g67
NtRp2980
(dp2981
g70
(dp2982
g97
g98
ssg79
g2972
sg72
(lp2983
S':'
asbag65
(g86
g67
NtRp2984
(dp2985
g70
(dp2986
sg79
g2972
sg72
(lp2987
g65
(g66
g67
NtRp2988
(dp2989
g70
(dp2990
g78
I4
ssg79
g2984
sg72
(lp2991
g2261
asbasbasbag65
(g81
g67
NtRp2992
(dp2993
g70
(dp2994
sg79
g2948
sg72
(lp2995
g65
(g86
g67
NtRp2996
(dp2997
g70
(dp2998
g90
g91
ssg79
g2992
sg72
(lp2999
g2270
asbag65
(g86
g67
NtRp3000
(dp3001
g70
(dp3002
g97
g98
ssg79
g2992
sg72
(lp3003
S':'
asbag65
(g86
g67
NtRp3004
(dp3005
g70
(dp3006
sg79
g2992
sg72
(lp3007
g65
(g66
g67
NtRp3008
(dp3009
g70
(dp3010
g78
I4
ssg79
g3004
sg72
(lp3011
S'7'
asbasbasbag65
(g81
g67
NtRp3012
(dp3013
g70
(dp3014
sg79
g2948
sg72
(lp3015
g65
(g86
g67
NtRp3016
(dp3017
g70
(dp3018
g90
g91
ssg79
g3012
sg72
(lp3019
g2291
asbag65
(g86
g67
NtRp3020
(dp3021
g70
(dp3022
g97
g98
ssg79
g3012
sg72
(lp3023
S':'
asbag65
(g86
g67
NtRp3024
(dp3025
g70
(dp3026
sg79
g3012
sg72
(lp3027
g65
(g66
g67
NtRp3028
(dp3029
g70
(dp3030
g78
I4
ssg79
g3024
sg72
(lp3031
g2304
asbasbasbag65
(g81
g67
NtRp3032
(dp3033
g70
(dp3034
sg79
g2948
sg72
(lp3035
g65
(g86
g67
NtRp3036
(dp3037
g70
(dp3038
g90
g91
ssg79
g3032
sg72
(lp3039
g2313
asbag65
(g86
g67
NtRp3040
(dp3041
g70
(dp3042
g97
g98
ssg79
g3032
sg72
(lp3043
S':'
asbag65
(g86
g67
NtRp3044
(dp3045
g70
(dp3046
sg79
g3032
sg72
(lp3047
g65
(g66
g67
NtRp3048
(dp3049
g70
(dp3050
g78
I4
ssg79
g3044
sg72
(lp3051
g2326
asbasbasbag65
(g81
g67
NtRp3052
(dp3053
g70
(dp3054
sg79
g2948
sg72
(lp3055
g65
(g86
g67
NtRp3056
(dp3057
g70
(dp3058
g90
g91
ssg79
g3052
sg72
(lp3059
g2335
asbag65
(g86
g67
NtRp3060
(dp3061
g70
(dp3062
g97
g98
ssg79
g3052
sg72
(lp3063
S':'
asbag65
(g86
g67
NtRp3064
(dp3065
g70
(dp3066
sg79
g3052
sg72
(lp3067
g65
(g66
g67
NtRp3068
(dp3069
g70
(dp3070
g78
I4
ssg79
g3064
sg72
(lp3071
S''
asbasbasbag65
(g81
g67
NtRp3072
(dp3073
g70
(dp3074
sg79
g2948
sg72
(lp3075
g65
(g86
g67
NtRp3076
(dp3077
g70
(dp3078
g90
g91
ssg79
g3072
sg72
(lp3079
g2356
asbag65
(g86
g67
NtRp3080
(dp3081
g70
(dp3082
g97
g98
ssg79
g3072
sg72
(lp3083
S':'
asbag65
(g86
g67
NtRp3084
(dp3085
g70
(dp3086
sg79
g3072
sg72
(lp3087
g65
(g66
g67
NtRp3088
(dp3089
g70
(dp3090
g78
I4
ssg79
g3084
sg72
(lp3091
S''
asbasbasbag65
(g81
g67
NtRp3092
(dp3093
g70
(dp3094
sg79
g2948
sg72
(lp3095
g65
(g86
g67
NtRp3096
(dp3097
g70
(dp3098
g90
g91
ssg79
g3092
sg72
(lp3099
g2377
asbag65
(g86
g67
NtRp3100
(dp3101
g70
(dp3102
g97
g98
ssg79
g3092
sg72
(lp3103
S':'
asbag65
(g86
g67
NtRp3104
(dp3105
g70
(dp3106
sg79
g3092
sg72
(lp3107
g65
(g66
g67
NtRp3108
(dp3109
g70
(dp3110
g78
I4
ssg79
g3104
sg72
(lp3111
S''
asbasbasbag65
(g81
g67
NtRp3112
(dp3113
g70
(dp3114
sg79
g2948
sg72
(lp3115
g65
(g86
g67
NtRp3116
(dp3117
g70
(dp3118
g90
g91
ssg79
g3112
sg72
(lp3119
g2398
asbag65
(g86
g67
NtRp3120
(dp3121
g70
(dp3122
g97
g98
ssg79
g3112
sg72
(lp3123
S':'
asbag65
(g86
g67
NtRp3124
(dp3125
g70
(dp3126
sg79
g3112
sg72
(lp3127
g65
(g66
g67
NtRp3128
(dp3129
g70
(dp3130
g78
I4
ssg79
g3124
sg72
(lp3131
g2411
asbasbasbag65
(g81
g67
NtRp3132
(dp3133
g70
(dp3134
sg79
g2948
sg72
(lp3135
g65
(g86
g67
NtRp3136
(dp3137
g70
(dp3138
g90
g91
ssg79
g3132
sg72
(lp3139
g2420
asbag65
(g86
g67
NtRp3140
(dp3141
g70
(dp3142
g97
g98
ssg79
g3132
sg72
(lp3143
S':'
asbag65
(g86
g67
NtRp3144
(dp3145
g70
(dp3146
sg79
g3132
sg72
(lp3147
g65
(g66
g67
NtRp3148
(dp3149
g70
(dp3150
g78
I4
ssg79
g3144
sg72
(lp3151
S''
asbasbasbasbasbasbasbag65
(g81
g67
NtRp3152
(dp3153
g70
(dp3154
sg79
g75
sg72
(lp3155
g65
(g86
g67
NtRp3156
(dp3157
g70
(dp3158
g90
g91
ssg79
g3152
sg72
(lp3159
S'wsgi'
p3160
asbag65
(g86
g67
NtRp3161
(dp3162
g70
(dp3163
g97
g98
ssg79
g3152
sg72
(lp3164
S':'
asbag65
(g86
g67
NtRp3165
(dp3166
g70
(dp3167
sg79
g3152
sg72
(lp3168
g65
(g66
g67
NtRp3169
(dp3170
g70
(dp3171
g78
I5
ssg79
g3165
sg72
(lp3172
g65
(g74
g67
NtRp3173
(dp3174
g70
(dp3175
g78
I4
ssg79
Nsg72
(lp3176
g65
(g81
g67
NtRp3177
(dp3178
g70
(dp3179
sg79
g3173
sg72
(lp3180
g65
(g86
g67
NtRp3181
(dp3182
g70
(dp3183
g90
g91
ssg79
g3177
sg72
(lp3184
S'environ'
p3185
asbag65
(g86
g67
NtRp3186
(dp3187
g70
(dp3188
g97
g98
ssg79
g3177
sg72
(lp3189
S':'
asbag65
(g86
g67
NtRp3190
(dp3191
g70
(dp3192
sg79
g3177
sg72
(lp3193
g65
(g66
g67
NtRp3194
(dp3195
g70
(dp3196
g78
I4
ssg79
g3190
sg72
(lp3197
g65
(g74
g67
NtRp3198
(dp3199
g70
(dp3200
g78
I3
ssg79
Nsg72
(lp3201
g65
(g81
g67
NtRp3202
(dp3203
g70
(dp3204
sg79
g3198
sg72
(lp3205
g65
(g86
g67
NtRp3206
(dp3207
g70
(dp3208
g90
g91
ssg79
g3202
sg72
(lp3209
S'HTTP_ACCEPT'
p3210
asbag65
(g86
g67
NtRp3211
(dp3212
g70
(dp3213
g97
g98
ssg79
g3202
sg72
(lp3214
S':'
asbag65
(g86
g67
NtRp3215
(dp3216
g70
(dp3217
sg79
g3202
sg72
(lp3218
g65
(g66
g67
NtRp3219
(dp3220
g70
(dp3221
g78
I3
ssg79
g3215
sg72
(lp3222
g1381
asbasbasbag65
(g81
g67
NtRp3223
(dp3224
g70
(dp3225
sg79
g3198
sg72
(lp3226
g65
(g86
g67
NtRp3227
(dp3228
g70
(dp3229
g90
g91
ssg79
g3223
sg72
(lp3230
S'HTTP_ACCEPT_ENCODING'
p3231
asbag65
(g86
g67
NtRp3232
(dp3233
g70
(dp3234
g97
g98
ssg79
g3223
sg72
(lp3235
S':'
asbag65
(g86
g67
NtRp3236
(dp3237
g70
(dp3238
sg79
g3223
sg72
(lp3239
g65
(g66
g67
NtRp3240
(dp3241
g70
(dp3242
g78
I3
ssg79
g3236
sg72
(lp3243
g1403
asbasbasbag65
(g81
g67
NtRp3244
(dp3245
g70
(dp3246
sg79
g3198
sg72
(lp3247
g65
(g86
g67
NtRp3248
(dp3249
g70
(dp3250
g90
g91
ssg79
g3244
sg72
(lp3251
S'HTTP_ACCEPT_LANGUAGE'
p3252
asbag65
(g86
g67
NtRp3253
(dp3254
g70
(dp3255
g97
g98
ssg79
g3244
sg72
(lp3256
S':'
asbag65
(g86
g67
NtRp3257
(dp3258
g70
(dp3259
sg79
g3244
sg72
(lp3260
g65
(g66
g67
NtRp3261
(dp3262
g70
(dp3263
g78
I3
ssg79
g3257
sg72
(lp3264
g1425
asbasbasbag65
(g81
g67
NtRp3265
(dp3266
g70
(dp3267
sg79
g3198
sg72
(lp3268
g65
(g86
g67
NtRp3269
(dp3270
g70
(dp3271
g90
g91
ssg79
g3265
sg72
(lp3272
S'HTTP_CONNECTION'
p3273
asbag65
(g86
g67
NtRp3274
(dp3275
g70
(dp3276
g97
g98
ssg79
g3265
sg72
(lp3277
S':'
asbag65
(g86
g67
NtRp3278
(dp3279
g70
(dp3280
sg79
g3265
sg72
(lp3281
g65
(g66
g67
NtRp3282
(dp3283
g70
(dp3284
g78
I3
ssg79
g3278
sg72
(lp3285
g1447
asbasbasbag65
(g81
g67
NtRp3286
(dp3287
g70
(dp3288
sg79
g3198
sg72
(lp3289
g65
(g86
g67
NtRp3290
(dp3291
g70
(dp3292
g90
g91
ssg79
g3286
sg72
(lp3293
S'HTTP_COOKIE'
p3294
asbag65
(g86
g67
NtRp3295
(dp3296
g70
(dp3297
g97
g98
ssg79
g3286
sg72
(lp3298
S':'
asbag65
(g86
g67
NtRp3299
(dp3300
g70
(dp3301
sg79
g3286
sg72
(lp3302
g65
(g66
g67
NtRp3303
(dp3304
g70
(dp3305
g78
I3
ssg79
g3299
sg72
(lp3306
g1469
asbasbasbag65
(g81
g67
NtRp3307
(dp3308
g70
(dp3309
sg79
g3198
sg72
(lp3310
g65
(g86
g67
NtRp3311
(dp3312
g70
(dp3313
g90
g91
ssg79
g3307
sg72
(lp3314
S'HTTP_HOST'
p3315
asbag65
(g86
g67
NtRp3316
(dp3317
g70
(dp3318
g97
g98
ssg79
g3307
sg72
(lp3319
S':'
asbag65
(g86
g67
NtRp3320
(dp3321
g70
(dp3322
sg79
g3307
sg72
(lp3323
g65
(g66
g67
NtRp3324
(dp3325
g70
(dp3326
g78
I3
ssg79
g3320
sg72
(lp3327
g1491
asbasbasbag65
(g81
g67
NtRp3328
(dp3329
g70
(dp3330
sg79
g3198
sg72
(lp3331
g65
(g86
g67
NtRp3332
(dp3333
g70
(dp3334
g90
g91
ssg79
g3328
sg72
(lp3335
S'HTTP_REFERER'
p3336
asbag65
(g86
g67
NtRp3337
(dp3338
g70
(dp3339
g97
g98
ssg79
g3328
sg72
(lp3340
S':'
asbag65
(g86
g67
NtRp3341
(dp3342
g70
(dp3343
sg79
g3328
sg72
(lp3344
g65
(g66
g67
NtRp3345
(dp3346
g70
(dp3347
g78
I3
ssg79
g3341
sg72
(lp3348
g1513
asbasbasbag65
(g81
g67
NtRp3349
(dp3350
g70
(dp3351
sg79
g3198
sg72
(lp3352
g65
(g86
g67
NtRp3353
(dp3354
g70
(dp3355
g90
g91
ssg79
g3349
sg72
(lp3356
S'HTTP_USER_AGENT'
p3357
asbag65
(g86
g67
NtRp3358
(dp3359
g70
(dp3360
g97
g98
ssg79
g3349
sg72
(lp3361
S':'
asbag65
(g86
g67
NtRp3362
(dp3363
g70
(dp3364
sg79
g3349
sg72
(lp3365
g65
(g66
g67
NtRp3366
(dp3367
g70
(dp3368
g78
I3
ssg79
g3362
sg72
(lp3369
g1535
asbasbasbag65
(g81
g67
NtRp3370
(dp3371
g70
(dp3372
sg79
g3198
sg72
(lp3373
g65
(g86
g67
NtRp3374
(dp3375
g70
(dp3376
g90
g91
ssg79
g3370
sg72
(lp3377
S'PATH_INFO'
p3378
asbag65
(g86
g67
NtRp3379
(dp3380
g70
(dp3381
g97
g98
ssg79
g3370
sg72
(lp3382
S':'
asbag65
(g86
g67
NtRp3383
(dp3384
g70
(dp3385
sg79
g3370
sg72
(lp3386
g65
(g66
g67
NtRp3387
(dp3388
g70
(dp3389
g78
I3
ssg79
g3383
sg72
(lp3390
g1599
asbasbasbag65
(g81
g67
NtRp3391
(dp3392
g70
(dp3393
sg79
g3198
sg72
(lp3394
g65
(g86
g67
NtRp3395
(dp3396
g70
(dp3397
g90
g91
ssg79
g3391
sg72
(lp3398
S'QUERY_STRING'
p3399
asbag65
(g86
g67
NtRp3400
(dp3401
g70
(dp3402
g97
g98
ssg79
g3391
sg72
(lp3403
S':'
asbag65
(g86
g67
NtRp3404
(dp3405
g70
(dp3406
sg79
g3391
sg72
(lp3407
g65
(g66
g67
NtRp3408
(dp3409
g70
(dp3410
g78
I3
ssg79
g3404
sg72
(lp3411
g1621
asbasbasbag65
(g81
g67
NtRp3412
(dp3413
g70
(dp3414
sg79
g3198
sg72
(lp3415
g65
(g86
g67
NtRp3416
(dp3417
g70
(dp3418
g90
g91
ssg79
g3412
sg72
(lp3419
S'REMOTE_ADDR'
p3420
asbag65
(g86
g67
NtRp3421
(dp3422
g70
(dp3423
g97
g98
ssg79
g3412
sg72
(lp3424
S':'
asbag65
(g86
g67
NtRp3425
(dp3426
g70
(dp3427
sg79
g3412
sg72
(lp3428
g65
(g66
g67
NtRp3429
(dp3430
g70
(dp3431
g78
I3
ssg79
g3425
sg72
(lp3432
g198
asbasbasbag65
(g81
g67
NtRp3433
(dp3434
g70
(dp3435
sg79
g3198
sg72
(lp3436
g65
(g86
g67
NtRp3437
(dp3438
g70
(dp3439
g90
g91
ssg79
g3433
sg72
(lp3440
S'REMOTE_PORT'
p3441
asbag65
(g86
g67
NtRp3442
(dp3443
g70
(dp3444
g97
g98
ssg79
g3433
sg72
(lp3445
S':'
asbag65
(g86
g67
NtRp3446
(dp3447
g70
(dp3448
sg79
g3433
sg72
(lp3449
g65
(g66
g67
NtRp3450
(dp3451
g70
(dp3452
g78
I3
ssg79
g3446
sg72
(lp3453
g1664
asbasbasbag65
(g81
g67
NtRp3454
(dp3455
g70
(dp3456
sg79
g3198
sg72
(lp3457
g65
(g86
g67
NtRp3458
(dp3459
g70
(dp3460
g90
g91
ssg79
g3454
sg72
(lp3461
S'REQUEST_METHOD'
p3462
asbag65
(g86
g67
NtRp3463
(dp3464
g70
(dp3465
g97
g98
ssg79
g3454
sg72
(lp3466
S':'
asbag65
(g86
g67
NtRp3467
(dp3468
g70
(dp3469
sg79
g3454
sg72
(lp3470
g65
(g66
g67
NtRp3471
(dp3472
g70
(dp3473
g78
I3
ssg79
g3467
sg72
(lp3474
g1686
asbasbasbag65
(g81
g67
NtRp3475
(dp3476
g70
(dp3477
sg79
g3198
sg72
(lp3478
g65
(g86
g67
NtRp3479
(dp3480
g70
(dp3481
g90
g91
ssg79
g3475
sg72
(lp3482
S'SCRIPT_NAME'
p3483
asbag65
(g86
g67
NtRp3484
(dp3485
g70
(dp3486
g97
g98
ssg79
g3475
sg72
(lp3487
S':'
asbag65
(g86
g67
NtRp3488
(dp3489
g70
(dp3490
sg79
g3475
sg72
(lp3491
g65
(g66
g67
NtRp3492
(dp3493
g70
(dp3494
g78
I3
ssg79
g3488
sg72
(lp3495
S''
asbasbasbag65
(g81
g67
NtRp3496
(dp3497
g70
(dp3498
sg79
g3198
sg72
(lp3499
g65
(g86
g67
NtRp3500
(dp3501
g70
(dp3502
g90
g91
ssg79
g3496
sg72
(lp3503
S'SERVER_NAME'
p3504
asbag65
(g86
g67
NtRp3505
(dp3506
g70
(dp3507
g97
g98
ssg79
g3496
sg72
(lp3508
S':'
asbag65
(g86
g67
NtRp3509
(dp3510
g70
(dp3511
sg79
g3496
sg72
(lp3512
g65
(g66
g67
NtRp3513
(dp3514
g70
(dp3515
g78
I3
ssg79
g3509
sg72
(lp3516
g1729
asbasbasbag65
(g81
g67
NtRp3517
(dp3518
g70
(dp3519
sg79
g3198
sg72
(lp3520
g65
(g86
g67
NtRp3521
(dp3522
g70
(dp3523
g90
g91
ssg79
g3517
sg72
(lp3524
S'SERVER_PORT'
p3525
asbag65
(g86
g67
NtRp3526
(dp3527
g70
(dp3528
g97
g98
ssg79
g3517
sg72
(lp3529
S':'
asbag65
(g86
g67
NtRp3530
(dp3531
g70
(dp3532
sg79
g3517
sg72
(lp3533
g65
(g66
g67
NtRp3534
(dp3535
g70
(dp3536
g78
I3
ssg79
g3530
sg72
(lp3537
g1751
asbasbasbag65
(g81
g67
NtRp3538
(dp3539
g70
(dp3540
sg79
g3198
sg72
(lp3541
g65
(g86
g67
NtRp3542
(dp3543
g70
(dp3544
g90
g91
ssg79
g3538
sg72
(lp3545
S'SERVER_PROTOCOL'
p3546
asbag65
(g86
g67
NtRp3547
(dp3548
g70
(dp3549
g97
g98
ssg79
g3538
sg72
(lp3550
S':'
asbag65
(g86
g67
NtRp3551
(dp3552
g70
(dp3553
sg79
g3538
sg72
(lp3554
g65
(g66
g67
NtRp3555
(dp3556
g70
(dp3557
g78
I3
ssg79
g3551
sg72
(lp3558
g1773
asbasbasbag65
(g81
g67
NtRp3559
(dp3560
g70
(dp3561
sg79
g3198
sg72
(lp3562
g65
(g86
g67
NtRp3563
(dp3564
g70
(dp3565
g90
g91
ssg79
g3559
sg72
(lp3566
S'SERVER_SOFTWARE'
p3567
asbag65
(g86
g67
NtRp3568
(dp3569
g70
(dp3570
g97
g98
ssg79
g3559
sg72
(lp3571
S':'
asbag65
(g86
g67
NtRp3572
(dp3573
g70
(dp3574
sg79
g3559
sg72
(lp3575
g65
(g66
g67
NtRp3576
(dp3577
g70
(dp3578
g78
I3
ssg79
g3572
sg72
(lp3579
g1795
asbasbasbag65
(g81
g67
NtRp3580
(dp3581
g70
(dp3582
sg79
g3198
sg72
(lp3583
g65
(g86
g67
NtRp3584
(dp3585
g70
(dp3586
g90
g91
ssg79
g3580
sg72
(lp3587
S'wsgi.errors'
p3588
asbag65
(g86
g67
NtRp3589
(dp3590
g70
(dp3591
g97
g98
ssg79
g3580
sg72
(lp3592
S':'
asbag65
(g86
g67
NtRp3593
(dp3594
g70
(dp3595
sg79
g3580
sg72
(lp3596
g65
(g66
g67
NtRp3597
(dp3598
g70
(dp3599
g78
I3
ssg79
g3593
sg72
(lp3600
S"<open file '<stderr>', mode 'w' at 0x00A550D0>"
p3601
asbasbasbag65
(g81
g67
NtRp3602
(dp3603
g70
(dp3604
sg79
g3198
sg72
(lp3605
g65
(g86
g67
NtRp3606
(dp3607
g70
(dp3608
g90
g91
ssg79
g3602
sg72
(lp3609
S'wsgi.file_wrapper'
p3610
asbag65
(g86
g67
NtRp3611
(dp3612
g70
(dp3613
g97
g98
ssg79
g3602
sg72
(lp3614
S':'
asbag65
(g86
g67
NtRp3615
(dp3616
g70
(dp3617
sg79
g3602
sg72
(lp3618
g65
(g66
g67
NtRp3619
(dp3620
g70
(dp3621
g78
I3
ssg79
g3615
sg72
(lp3622
S'<class wsgiref.util.FileWrapper at 0x015E8AB0>'
p3623
asbasbasbag65
(g81
g67
NtRp3624
(dp3625
g70
(dp3626
sg79
g3198
sg72
(lp3627
g65
(g86
g67
NtRp3628
(dp3629
g70
(dp3630
g90
g91
ssg79
g3624
sg72
(lp3631
S'wsgi.input'
p3632
asbag65
(g86
g67
NtRp3633
(dp3634
g70
(dp3635
g97
g98
ssg79
g3624
sg72
(lp3636
S':'
asbag65
(g86
g67
NtRp3637
(dp3638
g70
(dp3639
sg79
g3624
sg72
(lp3640
g65
(g66
g67
NtRp3641
(dp3642
g70
(dp3643
g78
I3
ssg79
g3637
sg72
(lp3644
S'<cStringIO.StringO object at 0x05BB43A0>'
p3645
asbasbasbag65
(g81
g67
NtRp3646
(dp3647
g70
(dp3648
sg79
g3198
sg72
(lp3649
g65
(g86
g67
NtRp3650
(dp3651
g70
(dp3652
g90
g91
ssg79
g3646
sg72
(lp3653
S'wsgi.multiprocess'
p3654
asbag65
(g86
g67
NtRp3655
(dp3656
g70
(dp3657
g97
g98
ssg79
g3646
sg72
(lp3658
S':'
asbag65
(g86
g67
NtRp3659
(dp3660
g70
(dp3661
sg79
g3646
sg72
(lp3662
g65
(g66
g67
NtRp3663
(dp3664
g70
(dp3665
g78
I3
ssg79
g3659
sg72
(lp3666
g108
asbasbasbag65
(g81
g67
NtRp3667
(dp3668
g70
(dp3669
sg79
g3198
sg72
(lp3670
g65
(g86
g67
NtRp3671
(dp3672
g70
(dp3673
g90
g91
ssg79
g3667
sg72
(lp3674
S'wsgi.multithread'
p3675
asbag65
(g86
g67
NtRp3676
(dp3677
g70
(dp3678
g97
g98
ssg79
g3667
sg72
(lp3679
S':'
asbag65
(g86
g67
NtRp3680
(dp3681
g70
(dp3682
sg79
g3667
sg72
(lp3683
g65
(g66
g67
NtRp3684
(dp3685
g70
(dp3686
g78
I3
ssg79
g3680
sg72
(lp3687
g2035
asbasbasbag65
(g81
g67
NtRp3688
(dp3689
g70
(dp3690
sg79
g3198
sg72
(lp3691
g65
(g86
g67
NtRp3692
(dp3693
g70
(dp3694
g90
g91
ssg79
g3688
sg72
(lp3695
S'wsgi.run_once'
p3696
asbag65
(g86
g67
NtRp3697
(dp3698
g70
(dp3699
g97
g98
ssg79
g3688
sg72
(lp3700
S':'
asbag65
(g86
g67
NtRp3701
(dp3702
g70
(dp3703
sg79
g3688
sg72
(lp3704
g65
(g66
g67
NtRp3705
(dp3706
g70
(dp3707
g78
I3
ssg79
g3701
sg72
(lp3708
g108
asbasbasbag65
(g81
g67
NtRp3709
(dp3710
g70
(dp3711
sg79
g3198
sg72
(lp3712
g65
(g86
g67
NtRp3713
(dp3714
g70
(dp3715
g90
g91
ssg79
g3709
sg72
(lp3716
S'wsgi.url_scheme'
p3717
asbag65
(g86
g67
NtRp3718
(dp3719
g70
(dp3720
g97
g98
ssg79
g3709
sg72
(lp3721
S':'
asbag65
(g86
g67
NtRp3722
(dp3723
g70
(dp3724
sg79
g3709
sg72
(lp3725
g65
(g66
g67
NtRp3726
(dp3727
g70
(dp3728
g78
I3
ssg79
g3722
sg72
(lp3729
g2078
asbasbasbag65
(g81
g67
NtRp3730
(dp3731
g70
(dp3732
sg79
g3198
sg72
(lp3733
g65
(g86
g67
NtRp3734
(dp3735
g70
(dp3736
g90
g91
ssg79
g3730
sg72
(lp3737
S'wsgi.version'
p3738
asbag65
(g86
g67
NtRp3739
(dp3740
g70
(dp3741
g97
g98
ssg79
g3730
sg72
(lp3742
S':'
asbag65
(g86
g67
NtRp3743
(dp3744
g70
(dp3745
sg79
g3730
sg72
(lp3746
g65
(g66
g67
NtRp3747
(dp3748
g70
(dp3749
g78
I3
ssg79
g3743
sg72
(lp3750
S'1'
asbasbasbasbasbasbasbasbasbasbasbasbasbsS'frames'
p3751
(lp3752
(dp3753
S'file'
p3754
S'C:\\Documents and Settings\\agrover\\Desktop\\previous crawler\\web2py\\gluon\\restricted.py'
p3755
sS'dump'
p3756
(dp3757
S'environment'
p3758
S"{'A': <class 'gluon.html.A'>, 'Auth': <class 'gluon.tools.Auth'>, 'B': <class 'gluon.html.B'>, 'BEAUTIFY': <class 'gluon.html.BEAUTIFY'>, 'BODY': <class 'gluon.html.BODY'>, 'BR': <class 'gluon.html.BR'>, 'BUTTON': <class 'gluon.html.BUTTON'>, 'CAT': <class 'gluon.html.CAT'>, 'CENTER': <class 'gluon.html.CENTER'>, 'CLEANUP': <class 'gluon.validators.CLEANUP'>, ...}"
p3759
sS'ccode'
p3760
S'<code object <module> at 04C283C8, file "C:\\Docu...tions\\mycrawler\\controllers/default.py", line 11>'
p3761
ssS'lnum'
p3762
I205
sS'lines'
p3763
(dp3764
I200
S'    try:'
p3765
sI201
S'        if type(code) == types.CodeType:'
p3766
sI202
S'            ccode = code'
p3767
sI203
S'        else:'
p3768
sI204
S'            ccode = compile2(code,layer)'
p3769
sI205
S'        exec ccode in environment'
p3770
sI206
S'    except HTTP:'
p3771
sI207
S'        raise'
p3772
sI208
S'    except RestrictedError:'
p3773
sI209
S'        # do not encapsulate (obfuscate) the original RestrictedError'
p3774
ssS'call'
p3775
S"(code='# -*- coding: utf-8 -*-\\n# this file is released ...urrent)\\n\\nresponse._vars=response._caller(search)\\n', environment={'A': <class 'gluon.html.A'>, 'Auth': <class 'gluon.tools.Auth'>, 'B': <class 'gluon.html.B'>, 'BEAUTIFY': <class 'gluon.html.BEAUTIFY'>, 'BODY': <class 'gluon.html.BODY'>, 'BR': <class 'gluon.html.BR'>, 'BUTTON': <class 'gluon.html.BUTTON'>, 'CAT': <class 'gluon.html.CAT'>, 'CENTER': <class 'gluon.html.CENTER'>, 'CLEANUP': <class 'gluon.validators.CLEANUP'>, ...}, layer=r'C:\\Documents and Settings\\agrover\\Desktop\\previo...2py\\applications\\mycrawler\\controllers/default.py')"
p3776
sS'func'
p3777
S'restricted'
p3778
sa(dp3779
g3754
S'C:\\Documents and Settings\\agrover\\Desktop\\previous crawler\\web2py\\applications\\mycrawler\\controllers\\default.py'
p3780
sg3756
(dp3781
sg3762
I331
sg3763
(dp3782
I320
S"    #response.headers['Content-Type'] = 'text/csv'"
p3783
sI321
S"    #response.headers['Content-Disposition'] = 'attachment; filename=%s' % request.vars.File_Name"
p3784
sI322
S''
sI323
S'    #print view_profile'
p3785
sI324
S'    #print name'
p3786
sI325
S'    #print location'
p3787
sI326
S'    #print industry'
p3788
sI327
S'    #print titl'
p3789
sI328
S''
sI329
S'    return dict(view_profile=view_profile,name=name,location=location,industry=industry,titl=titl,current=current)'
p3790
ssg3775
S'()'
p3791
sg3777
S'<module>'
p3792
sa(dp3793
g3754
S'C:\\Documents and Settings\\agrover\\Desktop\\previous crawler\\web2py\\gluon\\globals.py'
p3794
sg3756
(dp3795
S'self'
p3796
S'undefined'
p3797
sS'f'
S'<function search>'
p3798
ssg3762
I173
sg3763
(dp3799
I168
S'        self.menu = []             # used by the default view layout'
p3800
sI169
S'        self.files = []            # used by web2py_ajax.html'
p3801
sI170
S'        self.generic_patterns = [] # patterns to allow generic views'
p3802
sI171
S"        self.delimiters = ('{{','}}')"
p3803
sI172
S'        self._vars = None'
p3804
sI173
S'        self._caller = lambda f: f()'
p3805
sI174
S'        self._view_environment = None'
p3806
sI175
S'        self._custom_commit = None'
p3807
sI176
S'        self._custom_rollback = None'
p3808
sI177
S''
ssg3775
S'(f=<function search>)'
p3809
sg3777
S'<lambda>'
p3810
sa(dp3811
g3754
S'C:\\Documents and Settings\\agrover\\Desktop\\previous crawler\\web2py\\applications\\mycrawler\\controllers\\default.py'
p3812
sg3756
(dp3813
S'current'
p3814
S"['NONE', u'Software Engineer at IBM India Pvt. Ltd less', u'Business development Executive at Avnet Techno...t Avnet Technology Solutions India Pvt Ltd. less', u'Solution Delivery Analyst at Wipro Technologies less', u'Managing Partner at Raghuvanshi & Associates less', u'Business Analyst at TCS e-Serve International Ltd. less', u'Site Head (Mum,M&G & Guj) at UNINOR (Telenor g...R (Telenor group - Norway) Unitech Wireless less', u'Behavioral Trainer at Applied Management Skill...evelopment | Communication Skill at Purpose less', u'Income Tax Officer at CBDT (Central Board Of Direct Tax) less', u'Executive-Accountant at Anil Limited less']"
p3815
sS'spamWriter.writerow'
p3816
S'<built-in method writerow of _csv.writer object>'
p3817
sS'name'
p3818
S"['\\n Harsh Garg\\n ', '\\n Harsh Sahay\\n ', '\\n harsh aggarwal\\n ', '\\n Harsh Jhamnani\\n ', '\\n Harsh Raghuvanshi\\n ', '\\n Harsh Srivastava\\n ', '\\n Harsh A.\\n ', '\\n Harsh Bhushan\\n ', '\\n Harsh Vardhan Singh Rao\\n ', '\\n Harsh Desai\\n ']"
p3819
sS'view_profile'
p3820
S"[u'http://www.linkedin.com/profile/view?id=492055...2_*2_*2_*2_*2_*2&pvs=ps&trk=pp_profile_name_link', u'http://www.linkedin.com/profile/view?id=493644...2_*2_*2_*2_*2_*2&pvs=ps&trk=pp_profile_name_link', u'http://www.linkedin.com/profile/view?id=494129...2_*2_*2_*2_*2_*2&pvs=ps&trk=pp_profile_name_link', u'http://www.linkedin.com/profile/view?id=496532...2_*2_*2_*2_*2_*2&pvs=ps&trk=pp_profile_name_link', u'http://www.linkedin.com/profile/view?id=499339...2_*2_*2_*2_*2_*2&pvs=ps&trk=pp_profile_name_link', u'http://www.linkedin.com/profile/view?id=500450...2_*2_*2_*2_*2_*2&pvs=ps&trk=pp_profile_name_link', u'http://www.linkedin.com/profile/view?id=501512...2_*2_*2_*2_*2_*2&pvs=ps&trk=pp_profile_name_link', u'http://www.linkedin.com/profile/view?id=502162...2_*2_*2_*2_*2_*2&pvs=ps&trk=pp_profile_name_link', u'http://www.linkedin.com/profile/view?id=505426...2_*2_*2_*2_*2_*2&pvs=ps&trk=pp_profile_name_link', u'http://www.linkedin.com/profile/view?id=505675...2_*2_*2_*2_*2_*2&pvs=ps&trk=pp_profile_name_link']"
p3821
sS'spamWriter'
p3822
S'<_csv.writer object>'
p3823
sS'titl'
p3824
S"[u'Student at National Law Institute University', u'Software Engineer', u'Business development Executive at Avnet Technology Solutions India Pvt Ltd.', u'Solution Delivery Analyst at Wipro Technologies', u'Lawyer', u'Student at IBS Hyderabad', u'Site Head CS&E', u'Behavior Skills Trainer at Purpose', u'1', u'Executive-Accountant at Anil Limited']"
p3825
sS'industry'
p3826
S"[u'\\n Legal Services\\n ', u'\\n Computer Software\\n ', u'\\n Marketing and Advertising\\n ', u'\\n Information Technology and Services\\n ', u'\\n Law Practice\\n ', u'\\n Accounting\\n ', u'\\n Telecommunications\\n ', u'\\n Professional Training & Coaching\\n ', u'\\n Marketing and Advertising\\n ', u'\\n Nonprofit Organization Management\\n ']"
p3827
sS'].encode'
p3828
g3797
sS'builtinlen'
p3829
S'<built-in function len>'
p3830
sS'i'
S'9'
sS'location'
p3831
S"[u'\\n Bhopal Area, India\\n ', u'\\n Bengaluru Area, India\\n ', u'\\n Mumbai Area, India\\n ', u'\\n Bengaluru Area, India\\n ', u'\\n New Delhi Area, India\\n ', u'\\n Jamshedpur Area, India\\n ', u'\\n Mumbai Area, India\\n ', u'\\n Bengaluru Area, India\\n ', u'\\n Dungarpur Area, India\\n ', u'\\n Ahmad\\u0101b\\u0101d Area, India\\n ']"
p3832
ssg3762
I263
sg3763
(dp3833
I258
S'            #print l.get_text()'
p3834
sI259
S"            view_profile.append('http://www.linkedin.com'+l.get('href'))"
p3835
sI260
S"            name.append(l.get_text().encode('utf-8'))"
p3836
sI261
S''
sI262
S'        for i in range(len(name)):'
p3837
sI263
S"            spamWriter.writerow([name[i][1:len(name[i])-1].encode('utf-8'),titl[i],current[i],location[i][1:len(location[i])-1],industry[i][1:len(industry[i])-1],view_profile[i]])"
p3838
sI264
S''
sI265
S'        if soup.find(\'a\',{"class" : "paginator-next"}):'
p3839
sI266
S'            br.open(\'http://www.linkedin.com\'+ soup.find(\'a\',{"class" : "paginator-next"}).get(\'href\'))'
p3840
sI267
S'        #soup = BeautifulSoup(br.response().read())'
p3841
ssg3775
S'()'
p3842
sg3777
S'search'
p3843
sasS'pyver'
p3844
S'Python 2.7.3: C:\\Python27\\python.exe'
p3845
sS'session'
p3846
g65
(g66
g67
NtRp3847
(dp3848
g70
(dp3849
sg72
(lp3850
g65
(g74
g67
NtRp3851
(dp3852
g70
(dp3853
g78
I5
ssg79
Nsg72
(lp3854
sbasbsS'etype'
p3855
S"<type 'exceptions.UnicodeEncodeError'>"
p3856
sS'date'
p3857
S'Mon Jun 11 11:34:25 2012'
p3858
sS'response'
p3859
g65
(g66
g67
NtRp3860
(dp3861
g70
(dp3862
sg72
(lp3863
g65
(g74
g67
NtRp3864
(dp3865
g70
(dp3866
g78
I5
ssg79
Nsg72
(lp3867
g65
(g81
g67
NtRp3868
(dp3869
g70
(dp3870
sg79
g3864
sg72
(lp3871
g65
(g86
g67
NtRp3872
(dp3873
g70
(dp3874
g90
g91
ssg79
g3868
sg72
(lp3875
g163
asbag65
(g86
g67
NtRp3876
(dp3877
g70
(dp3878
g97
g98
ssg79
g3868
sg72
(lp3879
S':'
asbag65
(g86
g67
NtRp3880
(dp3881
g70
(dp3882
sg79
g3868
sg72
(lp3883
g65
(g66
g67
NtRp3884
(dp3885
g70
(dp3886
g78
I5
ssg79
g3880
sg72
(lp3887
S'<cStringIO.StringO object at 0x04F871C0>'
p3888
asbasbasbag65
(g81
g67
NtRp3889
(dp3890
g70
(dp3891
sg79
g3864
sg72
(lp3892
g65
(g86
g67
NtRp3893
(dp3894
g70
(dp3895
g90
g91
ssg79
g3889
sg72
(lp3896
g229
asbag65
(g86
g67
NtRp3897
(dp3898
g70
(dp3899
g97
g98
ssg79
g3889
sg72
(lp3900
S':'
asbag65
(g86
g67
NtRp3901
(dp3902
g70
(dp3903
sg79
g3889
sg72
(lp3904
g65
(g66
g67
NtRp3905
(dp3906
g70
(dp3907
g78
I5
ssg79
g3901
sg72
(lp3908
g65
(g74
g67
NtRp3909
(dp3910
g70
(dp3911
g78
I4
ssg79
Nsg72
(lp3912
g65
(g81
g67
NtRp3913
(dp3914
g70
(dp3915
sg79
g3909
sg72
(lp3916
g65
(g86
g67
NtRp3917
(dp3918
g70
(dp3919
g90
g91
ssg79
g3913
sg72
(lp3920
S'session_id_mycrawler'
p3921
asbag65
(g86
g67
NtRp3922
(dp3923
g70
(dp3924
g97
g98
ssg79
g3913
sg72
(lp3925
S':'
asbag65
(g86
g67
NtRp3926
(dp3927
g70
(dp3928
sg79
g3913
sg72
(lp3929
g65
(g66
g67
NtRp3930
(dp3931
g70
(dp3932
g78
I4
ssg79
g3926
sg72
(lp3933
g65
(g74
g67
NtRp3934
(dp3935
g70
(dp3936
g78
I3
ssg79
Nsg72
(lp3937
g65
(g81
g67
NtRp3938
(dp3939
g70
(dp3940
sg79
g3934
sg72
(lp3941
g65
(g86
g67
NtRp3942
(dp3943
g70
(dp3944
g90
g91
ssg79
g3938
sg72
(lp3945
g279
asbag65
(g86
g67
NtRp3946
(dp3947
g70
(dp3948
g97
g98
ssg79
g3938
sg72
(lp3949
S':'
asbag65
(g86
g67
NtRp3950
(dp3951
g70
(dp3952
sg79
g3938
sg72
(lp3953
g65
(g66
g67
NtRp3954
(dp3955
g70
(dp3956
g78
I3
ssg79
g3950
sg72
(lp3957
S''
asbasbasbag65
(g81
g67
NtRp3958
(dp3959
g70
(dp3960
sg79
g3934
sg72
(lp3961
g65
(g86
g67
NtRp3962
(dp3963
g70
(dp3964
g90
g91
ssg79
g3958
sg72
(lp3965
g300
asbag65
(g86
g67
NtRp3966
(dp3967
g70
(dp3968
g97
g98
ssg79
g3958
sg72
(lp3969
S':'
asbag65
(g86
g67
NtRp3970
(dp3971
g70
(dp3972
sg79
g3958
sg72
(lp3973
g65
(g66
g67
NtRp3974
(dp3975
g70
(dp3976
g78
I3
ssg79
g3970
sg72
(lp3977
S''
asbasbasbag65
(g81
g67
NtRp3978
(dp3979
g70
(dp3980
sg79
g3934
sg72
(lp3981
g65
(g86
g67
NtRp3982
(dp3983
g70
(dp3984
g90
g91
ssg79
g3978
sg72
(lp3985
g321
asbag65
(g86
g67
NtRp3986
(dp3987
g70
(dp3988
g97
g98
ssg79
g3978
sg72
(lp3989
S':'
asbag65
(g86
g67
NtRp3990
(dp3991
g70
(dp3992
sg79
g3978
sg72
(lp3993
g65
(g66
g67
NtRp3994
(dp3995
g70
(dp3996
g78
I3
ssg79
g3990
sg72
(lp3997
S''
asbasbasbag65
(g81
g67
NtRp3998
(dp3999
g70
(dp4000
sg79
g3934
sg72
(lp4001
g65
(g86
g67
NtRp4002
(dp4003
g70
(dp4004
g90
g91
ssg79
g3998
sg72
(lp4005
g342
asbag65
(g86
g67
NtRp4006
(dp4007
g70
(dp4008
g97
g98
ssg79
g3998
sg72
(lp4009
S':'
asbag65
(g86
g67
NtRp4010
(dp4011
g70
(dp4012
sg79
g3998
sg72
(lp4013
g65
(g66
g67
NtRp4014
(dp4015
g70
(dp4016
g78
I3
ssg79
g4010
sg72
(lp4017
S''
asbasbasbag65
(g81
g67
NtRp4018
(dp4019
g70
(dp4020
sg79
g3934
sg72
(lp4021
g65
(g86
g67
NtRp4022
(dp4023
g70
(dp4024
g90
g91
ssg79
g4018
sg72
(lp4025
g363
asbag65
(g86
g67
NtRp4026
(dp4027
g70
(dp4028
g97
g98
ssg79
g4018
sg72
(lp4029
S':'
asbag65
(g86
g67
NtRp4030
(dp4031
g70
(dp4032
sg79
g4018
sg72
(lp4033
g65
(g66
g67
NtRp4034
(dp4035
g70
(dp4036
g78
I3
ssg79
g4030
sg72
(lp4037
S''
asbasbasbag65
(g81
g67
NtRp4038
(dp4039
g70
(dp4040
sg79
g3934
sg72
(lp4041
g65
(g86
g67
NtRp4042
(dp4043
g70
(dp4044
g90
g91
ssg79
g4038
sg72
(lp4045
g384
asbag65
(g86
g67
NtRp4046
(dp4047
g70
(dp4048
g97
g98
ssg79
g4038
sg72
(lp4049
S':'
asbag65
(g86
g67
NtRp4050
(dp4051
g70
(dp4052
sg79
g4038
sg72
(lp4053
g65
(g66
g67
NtRp4054
(dp4055
g70
(dp4056
g78
I3
ssg79
g4050
sg72
(lp4057
S'/'
asbasbasbag65
(g81
g67
NtRp4058
(dp4059
g70
(dp4060
sg79
g3934
sg72
(lp4061
g65
(g86
g67
NtRp4062
(dp4063
g70
(dp4064
g90
g91
ssg79
g4058
sg72
(lp4065
g405
asbag65
(g86
g67
NtRp4066
(dp4067
g70
(dp4068
g97
g98
ssg79
g4058
sg72
(lp4069
S':'
asbag65
(g86
g67
NtRp4070
(dp4071
g70
(dp4072
sg79
g4058
sg72
(lp4073
g65
(g66
g67
NtRp4074
(dp4075
g70
(dp4076
g78
I3
ssg79
g4070
sg72
(lp4077
S''
asbasbasbag65
(g81
g67
NtRp4078
(dp4079
g70
(dp4080
sg79
g3934
sg72
(lp4081
g65
(g86
g67
NtRp4082
(dp4083
g70
(dp4084
g90
g91
ssg79
g4078
sg72
(lp4085
g426
asbag65
(g86
g67
NtRp4086
(dp4087
g70
(dp4088
g97
g98
ssg79
g4078
sg72
(lp4089
S':'
asbag65
(g86
g67
NtRp4090
(dp4091
g70
(dp4092
sg79
g4078
sg72
(lp4093
g65
(g66
g67
NtRp4094
(dp4095
g70
(dp4096
g78
I3
ssg79
g4090
sg72
(lp4097
S''
asbasbasbasbasbasbasbasbasbasbasbag65
(g81
g67
NtRp4098
(dp4099
g70
(dp4100
sg79
g3864
sg72
(lp4101
g65
(g86
g67
NtRp4102
(dp4103
g70
(dp4104
g90
g91
ssg79
g4098
sg72
(lp4105
S'delimiters'
p4106
asbag65
(g86
g67
NtRp4107
(dp4108
g70
(dp4109
g97
g98
ssg79
g4098
sg72
(lp4110
S':'
asbag65
(g86
g67
NtRp4111
(dp4112
g70
(dp4113
sg79
g4098
sg72
(lp4114
g65
(g66
g67
NtRp4115
(dp4116
g70
(dp4117
g78
I5
ssg79
g4111
sg72
(lp4118
g65
(g74
g67
NtRp4119
(dp4120
g70
(dp4121
g78
I4
ssg79
Nsg72
(lp4122
g65
(g81
g67
NtRp4123
(dp4124
g70
(dp4125
sg79
g4119
sg72
(lp4126
g65
(g86
g67
NtRp4127
(dp4128
g70
(dp4129
sg79
g4123
sg72
(lp4130
g65
(g66
g67
NtRp4131
(dp4132
g70
(dp4133
g78
I4
ssg79
g4127
sg72
(lp4134
S'{{'
p4135
asbasbasbag65
(g81
g67
NtRp4136
(dp4137
g70
(dp4138
sg79
g4119
sg72
(lp4139
g65
(g86
g67
NtRp4140
(dp4141
g70
(dp4142
sg79
g4136
sg72
(lp4143
g65
(g66
g67
NtRp4144
(dp4145
g70
(dp4146
g78
I4
ssg79
g4140
sg72
(lp4147
S'}}'
p4148
asbasbasbasbasbasbasbag65
(g81
g67
NtRp4149
(dp4150
g70
(dp4151
sg79
g3864
sg72
(lp4152
g65
(g86
g67
NtRp4153
(dp4154
g70
(dp4155
g90
g91
ssg79
g4149
sg72
(lp4156
S'files'
p4157
asbag65
(g86
g67
NtRp4158
(dp4159
g70
(dp4160
g97
g98
ssg79
g4149
sg72
(lp4161
S':'
asbag65
(g86
g67
NtRp4162
(dp4163
g70
(dp4164
sg79
g4149
sg72
(lp4165
g65
(g66
g67
NtRp4166
(dp4167
g70
(dp4168
g78
I5
ssg79
g4162
sg72
(lp4169
g65
(g74
g67
NtRp4170
(dp4171
g70
(dp4172
g78
I4
ssg79
Nsg72
(lp4173
sbasbasbasbag65
(g81
g67
NtRp4174
(dp4175
g70
(dp4176
sg79
g3864
sg72
(lp4177
g65
(g86
g67
NtRp4178
(dp4179
g70
(dp4180
g90
g91
ssg79
g4174
sg72
(lp4181
S'flash'
p4182
asbag65
(g86
g67
NtRp4183
(dp4184
g70
(dp4185
g97
g98
ssg79
g4174
sg72
(lp4186
S':'
asbag65
(g86
g67
NtRp4187
(dp4188
g70
(dp4189
sg79
g4174
sg72
(lp4190
g65
(g66
g67
NtRp4191
(dp4192
g70
(dp4193
g78
I5
ssg79
g4187
sg72
(lp4194
S''
asbasbasbag65
(g81
g67
NtRp4195
(dp4196
g70
(dp4197
sg79
g3864
sg72
(lp4198
g65
(g86
g67
NtRp4199
(dp4200
g70
(dp4201
g90
g91
ssg79
g4195
sg72
(lp4202
S'generic_patterns'
p4203
asbag65
(g86
g67
NtRp4204
(dp4205
g70
(dp4206
g97
g98
ssg79
g4195
sg72
(lp4207
S':'
asbag65
(g86
g67
NtRp4208
(dp4209
g70
(dp4210
sg79
g4195
sg72
(lp4211
g65
(g66
g67
NtRp4212
(dp4213
g70
(dp4214
g78
I5
ssg79
g4208
sg72
(lp4215
g65
(g74
g67
NtRp4216
(dp4217
g70
(dp4218
g78
I4
ssg79
Nsg72
(lp4219
g65
(g81
g67
NtRp4220
(dp4221
g70
(dp4222
sg79
g4216
sg72
(lp4223
g65
(g86
g67
NtRp4224
(dp4225
g70
(dp4226
sg79
g4220
sg72
(lp4227
g65
(g66
g67
NtRp4228
(dp4229
g70
(dp4230
g78
I4
ssg79
g4224
sg72
(lp4231
S'*'
asbasbasbasbasbasbasbag65
(g81
g67
NtRp4232
(dp4233
g70
(dp4234
sg79
g3864
sg72
(lp4235
g65
(g86
g67
NtRp4236
(dp4237
g70
(dp4238
g90
g91
ssg79
g4232
sg72
(lp4239
S'headers'
p4240
asbag65
(g86
g67
NtRp4241
(dp4242
g70
(dp4243
g97
g98
ssg79
g4232
sg72
(lp4244
S':'
asbag65
(g86
g67
NtRp4245
(dp4246
g70
(dp4247
sg79
g4232
sg72
(lp4248
g65
(g66
g67
NtRp4249
(dp4250
g70
(dp4251
g78
I5
ssg79
g4245
sg72
(lp4252
g65
(g74
g67
NtRp4253
(dp4254
g70
(dp4255
g78
I4
ssg79
Nsg72
(lp4256
g65
(g81
g67
NtRp4257
(dp4258
g70
(dp4259
sg79
g4253
sg72
(lp4260
g65
(g86
g67
NtRp4261
(dp4262
g70
(dp4263
g90
g91
ssg79
g4257
sg72
(lp4264
S'Cache-Control'
p4265
asbag65
(g86
g67
NtRp4266
(dp4267
g70
(dp4268
g97
g98
ssg79
g4257
sg72
(lp4269
S':'
asbag65
(g86
g67
NtRp4270
(dp4271
g70
(dp4272
sg79
g4257
sg72
(lp4273
g65
(g66
g67
NtRp4274
(dp4275
g70
(dp4276
g78
I4
ssg79
g4270
sg72
(lp4277
S'no-store, no-cache, must-revalidate, post-check=0, pre-check=0'
p4278
asbasbasbag65
(g81
g67
NtRp4279
(dp4280
g70
(dp4281
sg79
g4253
sg72
(lp4282
g65
(g86
g67
NtRp4283
(dp4284
g70
(dp4285
g90
g91
ssg79
g4279
sg72
(lp4286
S'Content-Type'
p4287
asbag65
(g86
g67
NtRp4288
(dp4289
g70
(dp4290
g97
g98
ssg79
g4279
sg72
(lp4291
S':'
asbag65
(g86
g67
NtRp4292
(dp4293
g70
(dp4294
sg79
g4279
sg72
(lp4295
g65
(g66
g67
NtRp4296
(dp4297
g70
(dp4298
g78
I4
ssg79
g4292
sg72
(lp4299
S'text/html; charset=utf-8'
p4300
asbasbasbag65
(g81
g67
NtRp4301
(dp4302
g70
(dp4303
sg79
g4253
sg72
(lp4304
g65
(g86
g67
NtRp4305
(dp4306
g70
(dp4307
g90
g91
ssg79
g4301
sg72
(lp4308
S'Expires'
p4309
asbag65
(g86
g67
NtRp4310
(dp4311
g70
(dp4312
g97
g98
ssg79
g4301
sg72
(lp4313
S':'
asbag65
(g86
g67
NtRp4314
(dp4315
g70
(dp4316
sg79
g4301
sg72
(lp4317
g65
(g66
g67
NtRp4318
(dp4319
g70
(dp4320
g78
I4
ssg79
g4314
sg72
(lp4321
S'Mon, 11 Jun 2012 18:31:27 GMT'
p4322
asbasbasbag65
(g81
g67
NtRp4323
(dp4324
g70
(dp4325
sg79
g4253
sg72
(lp4326
g65
(g86
g67
NtRp4327
(dp4328
g70
(dp4329
g90
g91
ssg79
g4323
sg72
(lp4330
S'Pragma'
p4331
asbag65
(g86
g67
NtRp4332
(dp4333
g70
(dp4334
g97
g98
ssg79
g4323
sg72
(lp4335
S':'
asbag65
(g86
g67
NtRp4336
(dp4337
g70
(dp4338
sg79
g4323
sg72
(lp4339
g65
(g66
g67
NtRp4340
(dp4341
g70
(dp4342
g78
I4
ssg79
g4336
sg72
(lp4343
S'no-cache'
p4344
asbasbasbag65
(g81
g67
NtRp4345
(dp4346
g70
(dp4347
sg79
g4253
sg72
(lp4348
g65
(g86
g67
NtRp4349
(dp4350
g70
(dp4351
g90
g91
ssg79
g4345
sg72
(lp4352
S'X-Powered-By'
p4353
asbag65
(g86
g67
NtRp4354
(dp4355
g70
(dp4356
g97
g98
ssg79
g4345
sg72
(lp4357
S':'
asbag65
(g86
g67
NtRp4358
(dp4359
g70
(dp4360
sg79
g4345
sg72
(lp4361
g65
(g66
g67
NtRp4362
(dp4363
g70
(dp4364
g78
I4
ssg79
g4358
sg72
(lp4365
S'web2py'
p4366
asbasbasbasbasbasbasbag65
(g81
g67
NtRp4367
(dp4368
g70
(dp4369
sg79
g3864
sg72
(lp4370
g65
(g86
g67
NtRp4371
(dp4372
g70
(dp4373
g90
g91
ssg79
g4367
sg72
(lp4374
S'menu'
p4375
asbag65
(g86
g67
NtRp4376
(dp4377
g70
(dp4378
g97
g98
ssg79
g4367
sg72
(lp4379
S':'
asbag65
(g86
g67
NtRp4380
(dp4381
g70
(dp4382
sg79
g4367
sg72
(lp4383
g65
(g66
g67
NtRp4384
(dp4385
g70
(dp4386
g78
I5
ssg79
g4380
sg72
(lp4387
g65
(g74
g67
NtRp4388
(dp4389
g70
(dp4390
g78
I4
ssg79
Nsg72
(lp4391
g65
(g81
g67
NtRp4392
(dp4393
g70
(dp4394
sg79
g4388
sg72
(lp4395
g65
(g86
g67
NtRp4396
(dp4397
g70
(dp4398
sg79
g4392
sg72
(lp4399
g65
(g66
g67
NtRp4400
(dp4401
g70
(dp4402
g78
I4
ssg79
g4396
sg72
(lp4403
g65
(g74
g67
NtRp4404
(dp4405
g70
(dp4406
g78
I3
ssg79
Nsg72
(lp4407
g65
(g81
g67
NtRp4408
(dp4409
g70
(dp4410
sg79
g4404
sg72
(lp4411
g65
(g86
g67
NtRp4412
(dp4413
g70
(dp4414
sg79
g4408
sg72
(lp4415
g65
(g66
g67
NtRp4416
(dp4417
g70
(dp4418
g78
I3
ssg79
g4412
sg72
(lp4419
cgluon.languages
lazyT_unpickle
p4420
(S't\x04\x00\x00\x00Home'
tRp4421
asbasbasbag65
(g81
g67
NtRp4422
(dp4423
g70
(dp4424
sg79
g4404
sg72
(lp4425
g65
(g86
g67
NtRp4426
(dp4427
g70
(dp4428
sg79
g4422
sg72
(lp4429
g65
(g66
g67
NtRp4430
(dp4431
g70
(dp4432
g78
I3
ssg79
g4426
sg72
(lp4433
g108
asbasbasbag65
(g81
g67
NtRp4434
(dp4435
g70
(dp4436
sg79
g4404
sg72
(lp4437
g65
(g86
g67
NtRp4438
(dp4439
g70
(dp4440
sg79
g4434
sg72
(lp4441
g65
(g66
g67
NtRp4442
(dp4443
g70
(dp4444
g78
I3
ssg79
g4438
sg72
(lp4445
S'/mycrawler/default/index'
p4446
asbasbasbag65
(g81
g67
NtRp4447
(dp4448
g70
(dp4449
sg79
g4404
sg72
(lp4450
g65
(g86
g67
NtRp4451
(dp4452
g70
(dp4453
sg79
g4447
sg72
(lp4454
g65
(g66
g67
NtRp4455
(dp4456
g70
(dp4457
g78
I3
ssg79
g4451
sg72
(lp4458
g65
(g74
g67
NtRp4459
(dp4460
g70
(dp4461
g78
I2
ssg79
Nsg72
(lp4462
sbasbasbasbasbasbasbasbag65
(g81
g67
NtRp4463
(dp4464
g70
(dp4465
sg79
g4388
sg72
(lp4466
g65
(g86
g67
NtRp4467
(dp4468
g70
(dp4469
sg79
g4463
sg72
(lp4470
g65
(g66
g67
NtRp4471
(dp4472
g70
(dp4473
g78
I4
ssg79
g4467
sg72
(lp4474
g65
(g74
g67
NtRp4475
(dp4476
g70
(dp4477
g78
I3
ssg79
Nsg72
(lp4478
g65
(g81
g67
NtRp4479
(dp4480
g70
(dp4481
sg79
g4475
sg72
(lp4482
g65
(g86
g67
NtRp4483
(dp4484
g70
(dp4485
sg79
g4479
sg72
(lp4486
g65
(g66
g67
NtRp4487
(dp4488
g70
(dp4489
g78
I3
ssg79
g4483
sg72
(lp4490
g65
(cgluon.html
SPAN
p4491
g67
NtRp4492
(dp4493
g70
(dp4494
g90
S'color:yellow'
p4495
ssg79
Nsg72
(lp4496
g4366
asbasbasbasbag65
(g81
g67
NtRp4497
(dp4498
g70
(dp4499
sg79
g4475
sg72
(lp4500
g65
(g86
g67
NtRp4501
(dp4502
g70
(dp4503
sg79
g4497
sg72
(lp4504
g65
(g66
g67
NtRp4505
(dp4506
g70
(dp4507
g78
I3
ssg79
g4501
sg72
(lp4508
g108
asbasbasbag65
(g81
g67
NtRp4509
(dp4510
g70
(dp4511
sg79
g4475
sg72
(lp4512
g65
(g86
g67
NtRp4513
(dp4514
g70
(dp4515
sg79
g4509
sg72
(lp4516
g65
(g66
g67
NtRp4517
(dp4518
g70
(dp4519
g78
I3
ssg79
g4513
sg72
(lp4520
S'None'
p4521
asbasbasbag65
(g81
g67
NtRp4522
(dp4523
g70
(dp4524
sg79
g4475
sg72
(lp4525
g65
(g86
g67
NtRp4526
(dp4527
g70
(dp4528
sg79
g4522
sg72
(lp4529
g65
(g66
g67
NtRp4530
(dp4531
g70
(dp4532
g78
I3
ssg79
g4526
sg72
(lp4533
g65
(g74
g67
NtRp4534
(dp4535
g70
(dp4536
g78
I2
ssg79
Nsg72
(lp4537
g65
(g81
g67
NtRp4538
(dp4539
g70
(dp4540
sg79
g4534
sg72
(lp4541
g65
(g86
g67
NtRp4542
(dp4543
g70
(dp4544
sg79
g4538
sg72
(lp4545
g65
(g66
g67
NtRp4546
(dp4547
g70
(dp4548
g78
I2
ssg79
g4542
sg72
(lp4549
g65
(g74
g67
NtRp4550
(dp4551
g70
(dp4552
g78
I1
ssg79
Nsg72
(lp4553
g65
(g81
g67
NtRp4554
(dp4555
g70
(dp4556
sg79
g4550
sg72
(lp4557
g65
(g86
g67
NtRp4558
(dp4559
g70
(dp4560
sg79
g4554
sg72
(lp4561
g65
(g66
g67
NtRp4562
(dp4563
g70
(dp4564
g78
I1
ssg79
g4558
sg72
(lp4565
g4420
(S's\x08\x00\x00\x00My Sites'
tRp4566
asbasbasbag65
(g81
g67
NtRp4567
(dp4568
g70
(dp4569
sg79
g4550
sg72
(lp4570
g65
(g86
g67
NtRp4571
(dp4572
g70
(dp4573
sg79
g4567
sg72
(lp4574
g65
(g66
g67
NtRp4575
(dp4576
g70
(dp4577
g78
I1
ssg79
g4571
sg72
(lp4578
I00
asbasbasbag65
(g81
g67
NtRp4579
(dp4580
g70
(dp4581
sg79
g4550
sg72
(lp4582
g65
(g86
g67
NtRp4583
(dp4584
g70
(dp4585
sg79
g4579
sg72
(lp4586
g65
(g66
g67
NtRp4587
(dp4588
g70
(dp4589
g78
I1
ssg79
g4583
sg72
(lp4590
S'/admin/default/site'
p4591
asbasbasbasbasbasbasbag65
(g81
g67
NtRp4592
(dp4593
g70
(dp4594
sg79
g4534
sg72
(lp4595
g65
(g86
g67
NtRp4596
(dp4597
g70
(dp4598
sg79
g4592
sg72
(lp4599
g65
(g66
g67
NtRp4600
(dp4601
g70
(dp4602
g78
I2
ssg79
g4596
sg72
(lp4603
g65
(g74
g67
NtRp4604
(dp4605
g70
(dp4606
g78
I1
ssg79
Nsg72
(lp4607
g65
(g81
g67
NtRp4608
(dp4609
g70
(dp4610
sg79
g4604
sg72
(lp4611
g65
(g86
g67
NtRp4612
(dp4613
g70
(dp4614
sg79
g4608
sg72
(lp4615
g65
(g66
g67
NtRp4616
(dp4617
g70
(dp4618
g78
I1
ssg79
g4612
sg72
(lp4619
g4420
(S's\x08\x00\x00\x00This App'
tRp4620
asbasbasbag65
(g81
g67
NtRp4621
(dp4622
g70
(dp4623
sg79
g4604
sg72
(lp4624
g65
(g86
g67
NtRp4625
(dp4626
g70
(dp4627
sg79
g4621
sg72
(lp4628
g65
(g66
g67
NtRp4629
(dp4630
g70
(dp4631
g78
I1
ssg79
g4625
sg72
(lp4632
I00
asbasbasbag65
(g81
g67
NtRp4633
(dp4634
g70
(dp4635
sg79
g4604
sg72
(lp4636
g65
(g86
g67
NtRp4637
(dp4638
g70
(dp4639
sg79
g4633
sg72
(lp4640
g65
(g66
g67
NtRp4641
(dp4642
g70
(dp4643
g78
I1
ssg79
g4637
sg72
(lp4644
S'/admin/default/design/mycrawler'
p4645
asbasbasbag65
(g81
g67
NtRp4646
(dp4647
g70
(dp4648
sg79
g4604
sg72
(lp4649
g65
(g86
g67
NtRp4650
(dp4651
g70
(dp4652
sg79
g4646
sg72
(lp4653
g65
(g66
g67
NtRp4654
(dp4655
g70
(dp4656
g78
I1
ssg79
g4650
sg72
(lp4657
(lp4658
(g4420
(S't\n\x00\x00\x00Controller'
tRp4659
I00
S'/admin/default/edit/mycrawler/controllers/default.py'
tp4660
a(g4420
(S't\x04\x00\x00\x00View'
tRp4661
I00
S'/admin/default/edit/mycrawler/views/default/search.html'
tp4662
a(g4420
(S't\x06\x00\x00\x00Layout'
tRp4663
I00
S'/admin/default/edit/mycrawler/views/layout.html'
tp4664
a(g4420
(S't\n\x00\x00\x00Stylesheet'
tRp4665
I00
S'/admin/default/edit/mycrawler/static/css/web2py.css'
tp4666
a(g4420
(S's\x08\x00\x00\x00DB Model'
tRp4667
I00
S'/admin/default/edit/mycrawler/models/db.py'
tp4668
a(g4420
(S's\n\x00\x00\x00Menu Model'
tRp4669
I00
S'/admin/default/edit/mycrawler/models/menu.py'
tp4670
a(g4420
(S't\x08\x00\x00\x00Database'
tRp4671
I00
S'/mycrawler/appadmin/index'
tp4672
a(g4420
(S't\x06\x00\x00\x00Errors'
tRp4673
I00
S'/admin/default/errors/mycrawler'
tp4674
a(g4420
(S't\x05\x00\x00\x00About'
tRp4675
I00
S'/admin/default/about/mycrawler'
tp4676
aasbasbasbasbasbasbasbag65
(g81
g67
NtRp4677
(dp4678
g70
(dp4679
sg79
g4534
sg72
(lp4680
g65
(g86
g67
NtRp4681
(dp4682
g70
(dp4683
sg79
g4677
sg72
(lp4684
g65
(g66
g67
NtRp4685
(dp4686
g70
(dp4687
g78
I2
ssg79
g4681
sg72
(lp4688
g65
(g74
g67
NtRp4689
(dp4690
g70
(dp4691
g78
I1
ssg79
Nsg72
(lp4692
g65
(g81
g67
NtRp4693
(dp4694
g70
(dp4695
sg79
g4689
sg72
(lp4696
g65
(g86
g67
NtRp4697
(dp4698
g70
(dp4699
sg79
g4693
sg72
(lp4700
g65
(g66
g67
NtRp4701
(dp4702
g70
(dp4703
g78
I1
ssg79
g4697
sg72
(lp4704
S'web2py.com'
p4705
asbasbasbag65
(g81
g67
NtRp4706
(dp4707
g70
(dp4708
sg79
g4689
sg72
(lp4709
g65
(g86
g67
NtRp4710
(dp4711
g70
(dp4712
sg79
g4706
sg72
(lp4713
g65
(g66
g67
NtRp4714
(dp4715
g70
(dp4716
g78
I1
ssg79
g4710
sg72
(lp4717
I00
asbasbasbag65
(g81
g67
NtRp4718
(dp4719
g70
(dp4720
sg79
g4689
sg72
(lp4721
g65
(g86
g67
NtRp4722
(dp4723
g70
(dp4724
sg79
g4718
sg72
(lp4725
g65
(g66
g67
NtRp4726
(dp4727
g70
(dp4728
g78
I1
ssg79
g4722
sg72
(lp4729
S'http://www.web2py.com'
p4730
asbasbasbag65
(g81
g67
NtRp4731
(dp4732
g70
(dp4733
sg79
g4689
sg72
(lp4734
g65
(g86
g67
NtRp4735
(dp4736
g70
(dp4737
sg79
g4731
sg72
(lp4738
g65
(g66
g67
NtRp4739
(dp4740
g70
(dp4741
g78
I1
ssg79
g4735
sg72
(lp4742
(lp4743
(g4420
(S't\x08\x00\x00\x00Download'
tRp4744
I00
S'http://www.web2py.com/examples/default/download'
p4745
tp4746
a(g4420
(S't\x07\x00\x00\x00Support'
tRp4747
I00
S'http://www.web2py.com/examples/default/support'
p4748
tp4749
a(g4420
(S't\x04\x00\x00\x00Demo'
tRp4750
I00
S'http://web2py.com/demo_admin'
p4751
tp4752
a(g4420
(S's\x0e\x00\x00\x00Quick Examples'
tRp4753
I00
S'http://web2py.com/examples/default/examples'
p4754
tp4755
a(g4420
(S't\x03\x00\x00\x00FAQ'
tRp4756
I00
S'http://web2py.com/AlterEgo'
p4757
tp4758
a(g4420
(S't\x06\x00\x00\x00Videos'
tRp4759
I00
S'http://www.web2py.com/examples/default/videos/'
p4760
tp4761
a(g4420
(S's\x11\x00\x00\x00Free Applications'
tRp4762
I00
S'http://web2py.com/appliances'
p4763
tp4764
a(g4420
(S't\x07\x00\x00\x00Plugins'
tRp4765
I00
S'http://web2py.com/plugins'
p4766
tp4767
a(g4420
(S't\x07\x00\x00\x00Layouts'
tRp4768
I00
S'http://web2py.com/layouts'
p4769
tp4770
a(g4420
(S't\x07\x00\x00\x00Recipes'
tRp4771
I00
S'http://web2pyslices.com/'
p4772
tp4773
a(g4420
(S't\x08\x00\x00\x00Semantic'
tRp4774
I00
S'http://web2py.com/semantic'
p4775
tp4776
aasbasbasbasbasbasbasbag65
(g81
g67
NtRp4777
(dp4778
g70
(dp4779
sg79
g4534
sg72
(lp4780
g65
(g86
g67
NtRp4781
(dp4782
g70
(dp4783
sg79
g4777
sg72
(lp4784
g65
(g66
g67
NtRp4785
(dp4786
g70
(dp4787
g78
I2
ssg79
g4781
sg72
(lp4788
g65
(g74
g67
NtRp4789
(dp4790
g70
(dp4791
g78
I1
ssg79
Nsg72
(lp4792
g65
(g81
g67
NtRp4793
(dp4794
g70
(dp4795
sg79
g4789
sg72
(lp4796
g65
(g86
g67
NtRp4797
(dp4798
g70
(dp4799
sg79
g4793
sg72
(lp4800
g65
(g66
g67
NtRp4801
(dp4802
g70
(dp4803
g78
I1
ssg79
g4797
sg72
(lp4804
g4420
(S't\r\x00\x00\x00Documentation'
tRp4805
asbasbasbag65
(g81
g67
NtRp4806
(dp4807
g70
(dp4808
sg79
g4789
sg72
(lp4809
g65
(g86
g67
NtRp4810
(dp4811
g70
(dp4812
sg79
g4806
sg72
(lp4813
g65
(g66
g67
NtRp4814
(dp4815
g70
(dp4816
g78
I1
ssg79
g4810
sg72
(lp4817
I00
asbasbasbag65
(g81
g67
NtRp4818
(dp4819
g70
(dp4820
sg79
g4789
sg72
(lp4821
g65
(g86
g67
NtRp4822
(dp4823
g70
(dp4824
sg79
g4818
sg72
(lp4825
g65
(g66
g67
NtRp4826
(dp4827
g70
(dp4828
g78
I1
ssg79
g4822
sg72
(lp4829
S'http://www.web2py.com/book'
p4830
asbasbasbag65
(g81
g67
NtRp4831
(dp4832
g70
(dp4833
sg79
g4789
sg72
(lp4834
g65
(g86
g67
NtRp4835
(dp4836
g70
(dp4837
sg79
g4831
sg72
(lp4838
g65
(g66
g67
NtRp4839
(dp4840
g70
(dp4841
g78
I1
ssg79
g4835
sg72
(lp4842
(lp4843
(g4420
(S't\x07\x00\x00\x00Preface'
tRp4844
I00
S'http://www.web2py.com/book/default/chapter/00'
p4845
tp4846
a(g4420
(S't\x0c\x00\x00\x00Introduction'
tRp4847
I00
S'http://www.web2py.com/book/default/chapter/01'
p4848
tp4849
a(g4420
(S't\x06\x00\x00\x00Python'
tRp4850
I00
S'http://www.web2py.com/book/default/chapter/02'
p4851
tp4852
a(g4420
(S't\x08\x00\x00\x00Overview'
tRp4853
I00
S'http://www.web2py.com/book/default/chapter/03'
p4854
tp4855
a(g4420
(S's\x08\x00\x00\x00The Core'
tRp4856
I00
S'http://www.web2py.com/book/default/chapter/04'
p4857
tp4858
a(g4420
(S's\t\x00\x00\x00The Views'
tRp4859
I00
S'http://www.web2py.com/book/default/chapter/05'
p4860
tp4861
a(g4420
(S't\x08\x00\x00\x00Database'
tRp4862
I00
S'http://www.web2py.com/book/default/chapter/06'
p4863
tp4864
a(g4420
(S's\x14\x00\x00\x00Forms and Validators'
tRp4865
I00
S'http://www.web2py.com/book/default/chapter/07'
p4866
tp4867
a(g4420
(S's\r\x00\x00\x00Email and SMS'
tRp4868
I00
S'http://www.web2py.com/book/default/chapter/08'
p4869
tp4870
a(g4420
(S's\x0e\x00\x00\x00Access Control'
tRp4871
I00
S'http://www.web2py.com/book/default/chapter/09'
p4872
tp4873
a(g4420
(S't\x08\x00\x00\x00Services'
tRp4874
I00
S'http://www.web2py.com/book/default/chapter/10'
p4875
tp4876
a(g4420
(S's\x0c\x00\x00\x00Ajax Recipes'
tRp4877
I00
S'http://www.web2py.com/book/default/chapter/11'
p4878
tp4879
a(g4420
(S's\x16\x00\x00\x00Components and Plugins'
tRp4880
I00
S'http://www.web2py.com/book/default/chapter/12'
p4881
tp4882
a(g4420
(S's\x12\x00\x00\x00Deployment Recipes'
tRp4883
I00
S'http://www.web2py.com/book/default/chapter/13'
p4884
tp4885
a(g4420
(S's\r\x00\x00\x00Other Recipes'
tRp4886
I00
S'http://www.web2py.com/book/default/chapter/14'
p4887
tp4888
a(g4420
(S's\r\x00\x00\x00Buy this book'
tRp4889
I00
S'http://stores.lulu.com/web2py'
p4890
tp4891
aasbasbasbasbasbasbasbag65
(g81
g67
NtRp4892
(dp4893
g70
(dp4894
sg79
g4534
sg72
(lp4895
g65
(g86
g67
NtRp4896
(dp4897
g70
(dp4898
sg79
g4892
sg72
(lp4899
g65
(g66
g67
NtRp4900
(dp4901
g70
(dp4902
g78
I2
ssg79
g4896
sg72
(lp4903
g65
(g74
g67
NtRp4904
(dp4905
g70
(dp4906
g78
I1
ssg79
Nsg72
(lp4907
g65
(g81
g67
NtRp4908
(dp4909
g70
(dp4910
sg79
g4904
sg72
(lp4911
g65
(g86
g67
NtRp4912
(dp4913
g70
(dp4914
sg79
g4908
sg72
(lp4915
g65
(g66
g67
NtRp4916
(dp4917
g70
(dp4918
g78
I1
ssg79
g4912
sg72
(lp4919
g4420
(S't\t\x00\x00\x00Community'
tRp4920
asbasbasbag65
(g81
g67
NtRp4921
(dp4922
g70
(dp4923
sg79
g4904
sg72
(lp4924
g65
(g86
g67
NtRp4925
(dp4926
g70
(dp4927
sg79
g4921
sg72
(lp4928
g65
(g66
g67
NtRp4929
(dp4930
g70
(dp4931
g78
I1
ssg79
g4925
sg72
(lp4932
I00
asbasbasbag65
(g81
g67
NtRp4933
(dp4934
g70
(dp4935
sg79
g4904
sg72
(lp4936
g65
(g86
g67
NtRp4937
(dp4938
g70
(dp4939
sg79
g4933
sg72
(lp4940
g65
(g66
g67
NtRp4941
(dp4942
g70
(dp4943
g78
I1
ssg79
g4937
sg72
(lp4944
Nasbasbasbag65
(g81
g67
NtRp4945
(dp4946
g70
(dp4947
sg79
g4904
sg72
(lp4948
g65
(g86
g67
NtRp4949
(dp4950
g70
(dp4951
sg79
g4945
sg72
(lp4952
g65
(g66
g67
NtRp4953
(dp4954
g70
(dp4955
g78
I1
ssg79
g4949
sg72
(lp4956
(lp4957
(g4420
(S't\x06\x00\x00\x00Groups'
tRp4958
I00
S'http://www.web2py.com/examples/default/usergroups'
p4959
tp4960
a(g4420
(S't\x07\x00\x00\x00Twitter'
tRp4961
I00
S'http://twitter.com/web2py'
p4962
tp4963
a(g4420
(S's\t\x00\x00\x00Live Chat'
tRp4964
I00
S'http://webchat.freenode.net/?channels=web2py'
p4965
tp4966
aasbasbasbasbasbasbasbag65
(g81
g67
NtRp4967
(dp4968
g70
(dp4969
sg79
g4534
sg72
(lp4970
g65
(g86
g67
NtRp4971
(dp4972
g70
(dp4973
sg79
g4967
sg72
(lp4974
g65
(g66
g67
NtRp4975
(dp4976
g70
(dp4977
g78
I2
ssg79
g4971
sg72
(lp4978
g65
(g74
g67
NtRp4979
(dp4980
g70
(dp4981
g78
I1
ssg79
Nsg72
(lp4982
g65
(g81
g67
NtRp4983
(dp4984
g70
(dp4985
sg79
g4979
sg72
(lp4986
g65
(g86
g67
NtRp4987
(dp4988
g70
(dp4989
sg79
g4983
sg72
(lp4990
g65
(g66
g67
NtRp4991
(dp4992
g70
(dp4993
g78
I1
ssg79
g4987
sg72
(lp4994
g4420
(S't\x07\x00\x00\x00Plugins'
tRp4995
asbasbasbag65
(g81
g67
NtRp4996
(dp4997
g70
(dp4998
sg79
g4979
sg72
(lp4999
g65
(g86
g67
NtRp5000
(dp5001
g70
(dp5002
sg79
g4996
sg72
(lp5003
g65
(g66
g67
NtRp5004
(dp5005
g70
(dp5006
g78
I1
ssg79
g5000
sg72
(lp5007
I00
asbasbasbag65
(g81
g67
NtRp5008
(dp5009
g70
(dp5010
sg79
g4979
sg72
(lp5011
g65
(g86
g67
NtRp5012
(dp5013
g70
(dp5014
sg79
g5008
sg72
(lp5015
g65
(g66
g67
NtRp5016
(dp5017
g70
(dp5018
g78
I1
ssg79
g5012
sg72
(lp5019
Nasbasbasbag65
(g81
g67
NtRp5020
(dp5021
g70
(dp5022
sg79
g4979
sg72
(lp5023
g65
(g86
g67
NtRp5024
(dp5025
g70
(dp5026
sg79
g5020
sg72
(lp5027
g65
(g66
g67
NtRp5028
(dp5029
g70
(dp5030
g78
I1
ssg79
g5024
sg72
(lp5031
(lp5032
(S'plugin_wiki'
p5033
I00
S'http://web2py.com/examples/default/download'
p5034
tp5035
a(g4420
(S's\r\x00\x00\x00Other Plugins'
tRp5036
I00
g4766
tp5037
a(g4420
(S's\x0e\x00\x00\x00Layout Plugins'
tRp5038
I00
g4769
tp5039
aasbasbasbasbasbasbasbasbasbasbasbasbasbasbasbasbasbasbasbag65
(g81
g67
NtRp5040
(dp5041
g70
(dp5042
sg79
g3864
sg72
(lp5043
g65
(g86
g67
NtRp5044
(dp5045
g70
(dp5046
g90
g91
ssg79
g5040
sg72
(lp5047
S'meta'
p5048
asbag65
(g86
g67
NtRp5049
(dp5050
g70
(dp5051
g97
g98
ssg79
g5040
sg72
(lp5052
S':'
asbag65
(g86
g67
NtRp5053
(dp5054
g70
(dp5055
sg79
g5040
sg72
(lp5056
g65
(g66
g67
NtRp5057
(dp5058
g70
(dp5059
g78
I5
ssg79
g5053
sg72
(lp5060
g65
(g74
g67
NtRp5061
(dp5062
g70
(dp5063
g78
I4
ssg79
Nsg72
(lp5064
g65
(g81
g67
NtRp5065
(dp5066
g70
(dp5067
sg79
g5061
sg72
(lp5068
g65
(g86
g67
NtRp5069
(dp5070
g70
(dp5071
g90
g91
ssg79
g5065
sg72
(lp5072
S'author'
p5073
asbag65
(g86
g67
NtRp5074
(dp5075
g70
(dp5076
g97
g98
ssg79
g5065
sg72
(lp5077
S':'
asbag65
(g86
g67
NtRp5078
(dp5079
g70
(dp5080
sg79
g5065
sg72
(lp5081
g65
(g66
g67
NtRp5082
(dp5083
g70
(dp5084
g78
I4
ssg79
g5078
sg72
(lp5085
S'Your Name <you@example.com>'
p5086
asbasbasbag65
(g81
g67
NtRp5087
(dp5088
g70
(dp5089
sg79
g5061
sg72
(lp5090
g65
(g86
g67
NtRp5091
(dp5092
g70
(dp5093
g90
g91
ssg79
g5087
sg72
(lp5094
S'copyright'
p5095
asbag65
(g86
g67
NtRp5096
(dp5097
g70
(dp5098
g97
g98
ssg79
g5087
sg72
(lp5099
S':'
asbag65
(g86
g67
NtRp5100
(dp5101
g70
(dp5102
sg79
g5087
sg72
(lp5103
g65
(g66
g67
NtRp5104
(dp5105
g70
(dp5106
g78
I4
ssg79
g5100
sg72
(lp5107
S'Copyright 2011'
p5108
asbasbasbag65
(g81
g67
NtRp5109
(dp5110
g70
(dp5111
sg79
g5061
sg72
(lp5112
g65
(g86
g67
NtRp5113
(dp5114
g70
(dp5115
g90
g91
ssg79
g5109
sg72
(lp5116
S'description'
p5117
asbag65
(g86
g67
NtRp5118
(dp5119
g70
(dp5120
g97
g98
ssg79
g5109
sg72
(lp5121
S':'
asbag65
(g86
g67
NtRp5122
(dp5123
g70
(dp5124
sg79
g5109
sg72
(lp5125
g65
(g66
g67
NtRp5126
(dp5127
g70
(dp5128
g78
I4
ssg79
g5122
sg72
(lp5129
S'a cool new app'
p5130
asbasbasbag65
(g81
g67
NtRp5131
(dp5132
g70
(dp5133
sg79
g5061
sg72
(lp5134
g65
(g86
g67
NtRp5135
(dp5136
g70
(dp5137
g90
g91
ssg79
g5131
sg72
(lp5138
S'generator'
p5139
asbag65
(g86
g67
NtRp5140
(dp5141
g70
(dp5142
g97
g98
ssg79
g5131
sg72
(lp5143
S':'
asbag65
(g86
g67
NtRp5144
(dp5145
g70
(dp5146
sg79
g5131
sg72
(lp5147
g65
(g66
g67
NtRp5148
(dp5149
g70
(dp5150
g78
I4
ssg79
g5144
sg72
(lp5151
S'Web2py Web Framework'
p5152
asbasbasbag65
(g81
g67
NtRp5153
(dp5154
g70
(dp5155
sg79
g5061
sg72
(lp5156
g65
(g86
g67
NtRp5157
(dp5158
g70
(dp5159
g90
g91
ssg79
g5153
sg72
(lp5160
S'keywords'
p5161
asbag65
(g86
g67
NtRp5162
(dp5163
g70
(dp5164
g97
g98
ssg79
g5153
sg72
(lp5165
S':'
asbag65
(g86
g67
NtRp5166
(dp5167
g70
(dp5168
sg79
g5153
sg72
(lp5169
g65
(g66
g67
NtRp5170
(dp5171
g70
(dp5172
g78
I4
ssg79
g5166
sg72
(lp5173
S'web2py, python, framework'
p5174
asbasbasbasbasbasbasbag65
(g81
g67
NtRp5175
(dp5176
g70
(dp5177
sg79
g3864
sg72
(lp5178
g65
(g86
g67
NtRp5179
(dp5180
g70
(dp5181
g90
g91
ssg79
g5175
sg72
(lp5182
S'postprocessing'
p5183
asbag65
(g86
g67
NtRp5184
(dp5185
g70
(dp5186
g97
g98
ssg79
g5175
sg72
(lp5187
S':'
asbag65
(g86
g67
NtRp5188
(dp5189
g70
(dp5190
sg79
g5175
sg72
(lp5191
g65
(g66
g67
NtRp5192
(dp5193
g70
(dp5194
g78
I5
ssg79
g5188
sg72
(lp5195
g65
(g74
g67
NtRp5196
(dp5197
g70
(dp5198
g78
I4
ssg79
Nsg72
(lp5199
sbasbasbasbag65
(g81
g67
NtRp5200
(dp5201
g70
(dp5202
sg79
g3864
sg72
(lp5203
g65
(g86
g67
NtRp5204
(dp5205
g70
(dp5206
g90
g91
ssg79
g5200
sg72
(lp5207
S'session_file'
p5208
asbag65
(g86
g67
NtRp5209
(dp5210
g70
(dp5211
g97
g98
ssg79
g5200
sg72
(lp5212
S':'
asbag65
(g86
g67
NtRp5213
(dp5214
g70
(dp5215
sg79
g5200
sg72
(lp5216
g65
(g66
g67
NtRp5217
(dp5218
g70
(dp5219
g78
I5
ssg79
g5213
sg72
(lp5220
S"<open file 'C:\\Documents and Settings\\agrover\\Desktop\\previous crawler\\web2py\\applications\\mycrawler\\sessions\\127.0.0.1-32a946d8-ad2c-43d8-be0f-c8249d02766a', mode 'rb+' at 0x05129B78>"
p5221
asbasbasbag65
(g81
g67
NtRp5222
(dp5223
g70
(dp5224
sg79
g3864
sg72
(lp5225
g65
(g86
g67
NtRp5226
(dp5227
g70
(dp5228
g90
g91
ssg79
g5222
sg72
(lp5229
S'session_filename'
p5230
asbag65
(g86
g67
NtRp5231
(dp5232
g70
(dp5233
g97
g98
ssg79
g5222
sg72
(lp5234
S':'
asbag65
(g86
g67
NtRp5235
(dp5236
g70
(dp5237
sg79
g5222
sg72
(lp5238
g65
(g66
g67
NtRp5239
(dp5240
g70
(dp5241
g78
I5
ssg79
g5235
sg72
(lp5242
S'C:\\Documents and Settings\\agrover\\Desktop\\previous crawler\\web2py\\applications\\mycrawler\\sessions\\127.0.0.1-32a946d8-ad2c-43d8-be0f-c8249d02766a'
p5243
asbasbasbag65
(g81
g67
NtRp5244
(dp5245
g70
(dp5246
sg79
g3864
sg72
(lp5247
g65
(g86
g67
NtRp5248
(dp5249
g70
(dp5250
g90
g91
ssg79
g5244
sg72
(lp5251
S'session_id'
p5252
asbag65
(g86
g67
NtRp5253
(dp5254
g70
(dp5255
g97
g98
ssg79
g5244
sg72
(lp5256
S':'
asbag65
(g86
g67
NtRp5257
(dp5258
g70
(dp5259
sg79
g5244
sg72
(lp5260
g65
(g66
g67
NtRp5261
(dp5262
g70
(dp5263
g78
I5
ssg79
g5257
sg72
(lp5264
S'127.0.0.1-32a946d8-ad2c-43d8-be0f-c8249d02766a'
p5265
asbasbasbag65
(g81
g67
NtRp5266
(dp5267
g70
(dp5268
sg79
g3864
sg72
(lp5269
g65
(g86
g67
NtRp5270
(dp5271
g70
(dp5272
g90
g91
ssg79
g5266
sg72
(lp5273
S'session_id_name'
p5274
asbag65
(g86
g67
NtRp5275
(dp5276
g70
(dp5277
g97
g98
ssg79
g5266
sg72
(lp5278
S':'
asbag65
(g86
g67
NtRp5279
(dp5280
g70
(dp5281
sg79
g5266
sg72
(lp5282
g65
(g66
g67
NtRp5283
(dp5284
g70
(dp5285
g78
I5
ssg79
g5279
sg72
(lp5286
g3921
asbasbasbag65
(g81
g67
NtRp5287
(dp5288
g70
(dp5289
sg79
g3864
sg72
(lp5290
g65
(g86
g67
NtRp5291
(dp5292
g70
(dp5293
g90
g91
ssg79
g5287
sg72
(lp5294
S'session_locked'
p5295
asbag65
(g86
g67
NtRp5296
(dp5297
g70
(dp5298
g97
g98
ssg79
g5287
sg72
(lp5299
S':'
asbag65
(g86
g67
NtRp5300
(dp5301
g70
(dp5302
sg79
g5287
sg72
(lp5303
g65
(g66
g67
NtRp5304
(dp5305
g70
(dp5306
g78
I5
ssg79
g5300
sg72
(lp5307
g2035
asbasbasbag65
(g81
g67
NtRp5308
(dp5309
g70
(dp5310
sg79
g3864
sg72
(lp5311
g65
(g86
g67
NtRp5312
(dp5313
g70
(dp5314
g90
g91
ssg79
g5308
sg72
(lp5315
S'session_new'
p5316
asbag65
(g86
g67
NtRp5317
(dp5318
g70
(dp5319
g97
g98
ssg79
g5308
sg72
(lp5320
S':'
asbag65
(g86
g67
NtRp5321
(dp5322
g70
(dp5323
sg79
g5308
sg72
(lp5324
g65
(g66
g67
NtRp5325
(dp5326
g70
(dp5327
g78
I5
ssg79
g5321
sg72
(lp5328
g108
asbasbasbag65
(g81
g67
NtRp5329
(dp5330
g70
(dp5331
sg79
g3864
sg72
(lp5332
g65
(g86
g67
NtRp5333
(dp5334
g70
(dp5335
g90
g91
ssg79
g5329
sg72
(lp5336
S'status'
p5337
asbag65
(g86
g67
NtRp5338
(dp5339
g70
(dp5340
g97
g98
ssg79
g5329
sg72
(lp5341
S':'
asbag65
(g86
g67
NtRp5342
(dp5343
g70
(dp5344
sg79
g5329
sg72
(lp5345
g65
(g66
g67
NtRp5346
(dp5347
g70
(dp5348
g78
I5
ssg79
g5342
sg72
(lp5349
S'200'
p5350
asbasbasbag65
(g81
g67
NtRp5351
(dp5352
g70
(dp5353
sg79
g3864
sg72
(lp5354
g65
(g86
g67
NtRp5355
(dp5356
g70
(dp5357
g90
g91
ssg79
g5351
sg72
(lp5358
S'subtitle'
p5359
asbag65
(g86
g67
NtRp5360
(dp5361
g70
(dp5362
g97
g98
ssg79
g5351
sg72
(lp5363
S':'
asbag65
(g86
g67
NtRp5364
(dp5365
g70
(dp5366
sg79
g5351
sg72
(lp5367
g65
(g66
g67
NtRp5368
(dp5369
g70
(dp5370
g78
I5
ssg79
g5364
sg72
(lp5371
g4420
(S's\r\x00\x00\x00customize me!'
tRp5372
asbasbasbag65
(g81
g67
NtRp5373
(dp5374
g70
(dp5375
sg79
g3864
sg72
(lp5376
g65
(g86
g67
NtRp5377
(dp5378
g70
(dp5379
g90
g91
ssg79
g5373
sg72
(lp5380
S'title'
p5381
asbag65
(g86
g67
NtRp5382
(dp5383
g70
(dp5384
g97
g98
ssg79
g5373
sg72
(lp5385
S':'
asbag65
(g86
g67
NtRp5386
(dp5387
g70
(dp5388
sg79
g5373
sg72
(lp5389
g65
(g66
g67
NtRp5390
(dp5391
g70
(dp5392
g78
I5
ssg79
g5386
sg72
(lp5393
S'Mycrawler'
p5394
asbasbasbag65
(g81
g67
NtRp5395
(dp5396
g70
(dp5397
sg79
g3864
sg72
(lp5398
g65
(g86
g67
NtRp5399
(dp5400
g70
(dp5401
g90
g91
ssg79
g5395
sg72
(lp5402
g2913
asbag65
(g86
g67
NtRp5403
(dp5404
g70
(dp5405
g97
g98
ssg79
g5395
sg72
(lp5406
S':'
asbag65
(g86
g67
NtRp5407
(dp5408
g70
(dp5409
sg79
g5395
sg72
(lp5410
g65
(g66
g67
NtRp5411
(dp5412
g70
(dp5413
g78
I5
ssg79
g5407
sg72
(lp5414
g2926
asbasbasbag65
(g81
g67
NtRp5415
(dp5416
g70
(dp5417
sg79
g3864
sg72
(lp5418
g65
(g86
g67
NtRp5419
(dp5420
g70
(dp5421
g90
g91
ssg79
g5415
sg72
(lp5422
S'view'
p5423
asbag65
(g86
g67
NtRp5424
(dp5425
g70
(dp5426
g97
g98
ssg79
g5415
sg72
(lp5427
S':'
asbag65
(g86
g67
NtRp5428
(dp5429
g70
(dp5430
sg79
g5415
sg72
(lp5431
g65
(g66
g67
NtRp5432
(dp5433
g70
(dp5434
g78
I5
ssg79
g5428
sg72
(lp5435
S'default/search.html'
p5436
asbasbasbasbasbsS'locals'
p5437
(dp5438
S'cj'
p5439
S'<_LWPCookieJar.LWPCookieJar[Cookie(version=0, na...=None, comment_url=None, rest={}, rfc2109=True)]>'
p5440
sS'name'
p5441
S"['\\n Harsh Garg\\n ', '\\n Harsh Sahay\\n ', '\\n harsh aggarwal\\n ', '\\n Harsh Jhamnani\\n ', '\\n Harsh Raghuvanshi\\n ', '\\n Harsh Srivastava\\n ', '\\n Harsh A.\\n ', '\\n Harsh Bhushan\\n ', '\\n Harsh Vardhan Singh Rao\\n ', '\\n Harsh Desai\\n ']"
p5442
sS'soup'
p5443
S'<!DOCTYPE html>\n\n<!--[if lt IE 7]> <html lang="e...541" width="1">\n</img></img></hr></body>\n</html>\n'
p5444
sS'spamWriter'
p5445
S'<_csv.writer object>'
p5446
sS'titl'
p5447
S"[u'Student at National Law Institute University', u'Software Engineer', u'Business development Executive at Avnet Technology Solutions India Pvt Ltd.', u'Solution Delivery Analyst at Wipro Technologies', u'Lawyer', u'Student at IBS Hyderabad', u'Site Head CS&E', u'Behavior Skills Trainer at Purpose', u'1', u'Executive-Accountant at Anil Limited']"
p5448
sS'k'
S'<dl class="vcard-expanded">\n<dt class="current">...w similar people">Similar</a>\n</span>\n</dd>\n</dl>'
p5449
sS'l'
S'<a class="fn n external-link trk-profile-name" h...me_link" title="View Profile">\n Harsh Desai\n </a>'
p5450
sS'BeautifulSoup'
p5451
S"<class 'bs4.BeautifulSoup'>"
p5452
sS'current'
p5453
S"['NONE', u'Software Engineer at IBM India Pvt. Ltd less', u'Business development Executive at Avnet Techno...t Avnet Technology Solutions India Pvt Ltd. less', u'Solution Delivery Analyst at Wipro Technologies less', u'Managing Partner at Raghuvanshi & Associates less', u'Business Analyst at TCS e-Serve International Ltd. less', u'Site Head (Mum,M&G & Guj) at UNINOR (Telenor g...R (Telenor group - Norway) Unitech Wireless less', u'Behavioral Trainer at Applied Management Skill...evelopment | Communication Skill at Purpose less', u'Income Tax Officer at CBDT (Central Board Of Direct Tax) less', u'Executive-Accountant at Anil Limited less']"
p5454
sS'view_profile'
p5455
S"[u'http://www.linkedin.com/profile/view?id=492055...2_*2_*2_*2_*2_*2&pvs=ps&trk=pp_profile_name_link', u'http://www.linkedin.com/profile/view?id=493644...2_*2_*2_*2_*2_*2&pvs=ps&trk=pp_profile_name_link', u'http://www.linkedin.com/profile/view?id=494129...2_*2_*2_*2_*2_*2&pvs=ps&trk=pp_profile_name_link', u'http://www.linkedin.com/profile/view?id=496532...2_*2_*2_*2_*2_*2&pvs=ps&trk=pp_profile_name_link', u'http://www.linkedin.com/profile/view?id=499339...2_*2_*2_*2_*2_*2&pvs=ps&trk=pp_profile_name_link', u'http://www.linkedin.com/profile/view?id=500450...2_*2_*2_*2_*2_*2&pvs=ps&trk=pp_profile_name_link', u'http://www.linkedin.com/profile/view?id=501512...2_*2_*2_*2_*2_*2&pvs=ps&trk=pp_profile_name_link', u'http://www.linkedin.com/profile/view?id=502162...2_*2_*2_*2_*2_*2&pvs=ps&trk=pp_profile_name_link', u'http://www.linkedin.com/profile/view?id=505426...2_*2_*2_*2_*2_*2&pvs=ps&trk=pp_profile_name_link', u'http://www.linkedin.com/profile/view?id=505675...2_*2_*2_*2_*2_*2&pvs=ps&trk=pp_profile_name_link']"
p5456
sS'html2text'
p5457
S"<module 'html2text' from 'C:\\Python27\\lib\\site-packages\\html2text-3.200.3-py2.7.egg\\html2text.pyc'>"
p5458
sS'location'
p5459
S"[u'\\n Bhopal Area, India\\n ', u'\\n Bengaluru Area, India\\n ', u'\\n Mumbai Area, India\\n ', u'\\n Bengaluru Area, India\\n ', u'\\n New Delhi Area, India\\n ', u'\\n Jamshedpur Area, India\\n ', u'\\n Mumbai Area, India\\n ', u'\\n Bengaluru Area, India\\n ', u'\\n Dungarpur Area, India\\n ', u'\\n Ahmad\\u0101b\\u0101d Area, India\\n ']"
p5460
sS'br'
p5461
S'<mechanize._mechanize.Browser instance>'
p5462
sS'mechanize'
p5463
S"<module 'mechanize' from 'C:\\Python27\\lib\\site-p...echanize-0.2.5-py2.7.egg\\mechanize\\__init__.pyc'>"
p5464
sS'i'
S'9'
sS'industry'
p5465
S"[u'\\n Legal Services\\n ', u'\\n Computer Software\\n ', u'\\n Marketing and Advertising\\n ', u'\\n Information Technology and Services\\n ', u'\\n Law Practice\\n ', u'\\n Accounting\\n ', u'\\n Telecommunications\\n ', u'\\n Professional Training & Coaching\\n ', u'\\n Marketing and Advertising\\n ', u'\\n Nonprofit Organization Management\\n ']"
p5466
sS'cookielib'
p5467
S"<module 'cookielib' from 'C:\\Python27\\lib\\cookielib.pyc'>"
p5468
sssS'traceback'
p5469
S'Traceback (most recent call last):\n  File "C:\\Documents and Settings\\agrover\\Desktop\\previous crawler\\web2py\\gluon\\restricted.py", line 205, in restricted\n    exec ccode in environment\n  File "C:\\Documents and Settings\\agrover\\Desktop\\previous crawler\\web2py\\applications\\mycrawler\\controllers/default.py", line 331, in <module>\n  File "C:\\Documents and Settings\\agrover\\Desktop\\previous crawler\\web2py\\gluon\\globals.py", line 173, in <lambda>\n    self._caller = lambda f: f()\n  File "C:\\Documents and Settings\\agrover\\Desktop\\previous crawler\\web2py\\applications\\mycrawler\\controllers/default.py", line 263, in search\n    spamWriter.writerow([name[i][1:len(name[i])-1].encode(\'utf-8\'),titl[i],current[i],location[i][1:len(location[i])-1],industry[i][1:len(industry[i])-1],view_profile[i]])\nUnicodeEncodeError: \'ascii\' codec can\'t encode character u\'\\u0101\' in position 6: ordinal not in range(128)\n'
p5470
s.