(dp1
S'output'
p2
S"<type 'exceptions.SyntaxError'> invalid syntax (controllers/default.py, line 78)"
p3
sS'layer'
p4
S'C:\\Documents and Settings\\agrover\\Desktop\\previous crawler\\web2py\\applications\\mycrawler\\controllers/default.py'
p5
sS'code'
p6
S'# -*- coding: utf-8 -*-\n# this file is released under public domain and you can use without limitations\n\n#########################################################################\n## This is a samples controller\n## - index is the default action of any application\n## - user is required for authentication and authorization\n## - download is for downloading files uploaded in the db (does streaming)\n## - call exposes all registered services (none by default)\n#########################################################################\n\ndef index():\n    """\n    example action using the internationalization operator T and flash\n    rendered by views/default/index.html or views/generic.html\n    """\n    response.flash = "Welcome to web2py!"\n    return dict(message=T(\'Hello World\'))\n\ndef user():\n    """\n    exposes:\n    http://..../[app]/default/user/login\n    http://..../[app]/default/user/logout\n    http://..../[app]/default/user/register\n    http://..../[app]/default/user/profile\n    http://..../[app]/default/user/retrieve_password\n    http://..../[app]/default/user/change_password\n    use @auth.requires_login()\n        @auth.requires_membership(\'group name\')\n        @auth.requires_permission(\'read\',\'table name\',record_id)\n    to decorate functions that need access control\n    """\n    return dict(form=auth())\n\n\ndef download():\n    """\n    allows downloading of uploaded files\n    http://..../[app]/default/download/[filename]\n    """\n    return response.download(request,db)\n\n\ndef call():\n    """\n    exposes services. for example:\n    http://..../[app]/default/call/jsonrpc\n    decorate with @services.jsonrpc the functions to expose\n    supports xml, json, xmlrpc, jsonrpc, amfrpc, rss, csv\n    """\n    return service()\n\n\n@auth.requires_signature()\ndef data():\n    """\n    http://..../[app]/default/data/tables\n    http://..../[app]/default/data/create/[table]\n    http://..../[app]/default/data/read/[table]/[id]\n    http://..../[app]/default/data/update/[table]/[id]\n    http://..../[app]/default/data/delete/[table]/[id]\n    http://..../[app]/default/data/select/[table]\n    http://..../[app]/default/data/search/[table]\n    but URLs must be signed, i.e. linked with\n      A(\'table\',_href=URL(\'data/tables\',user_signature=True))\n    or with the signed load operator\n      LOAD(\'default\',\'data.load\',args=\'tables\',ajax=True,user_signature=True)\n    """\n    return dict(form=crud())\n\ndef enter_info():\n    form=FORM(\'First Name:\',INPUT(_name=\'fname\'),\n              \'Last Name:\',INPUT(_name=\'lname\'),\n              INPUT(_type=\'submit\'))\n    if form.accepts(request,session):\n        response.flash = \'form accepted\'\n    return (form=form)\n    \n    \ndef search():\n    import mechanize\n    import cookielib\n    #from BeautifulSoup import BeautifulSoup\n    import html2text\n    from bs4 import BeautifulSoup\n    \n    \n\n    # Browser    \n    br = mechanize.Browser()\n\n    # Cookie Jar\n    cj = cookielib.LWPCookieJar()\n    br.set_cookiejar(cj)\n\n    # Browser options\n    br.set_handle_equiv(True)\n    br.set_handle_gzip(True)\n    br.set_handle_redirect(True)\n    br.set_handle_referer(True)\n    br.set_handle_robots(False)\n\n    # Follows refresh 0 but not hangs on refresh > 0\n    br.set_handle_refresh(mechanize._http.HTTPRefreshProcessor(), max_time=1)\n\n    # User-Agent (this is cheating, ok?)\n    br.addheaders = [(\'User-agent\', \'Mozilla/5.0 (X11; U; Linux i686; en-US; rv:1.9.0.1) Gecko/2008071615 Fedora/3.0.1-1.fc9 Firefox/3.0.1\')]\n\n\n    # The site we will navigate into, handling it\'s session    \n    br.open(\'https://www.linkedin.com\')\n\n    # Select the first (index zero) form\n    br.select_form(nr=0)\n\n    #for b in br.forms():\n    #    print b\n\n    # User credentials\n    br.form[\'session_key\'] = \'dummy.modeln@gmail.com\'\n    br.form[\'session_password\'] = \'iiit$123\'\n\n\n\n    # Login\n    br.submit()\n\n    br.open(\'http://www.linkedin.com/search?trk=advsrch\')\n    br.select_form(nr=1)\n    #print br\n\n    br["lname"]=\'pai\'\n    br.submit()\n\n    view_profile=[]\n    name=[]\n    titl=[]\n    location=[]\n    industry=[]\n\n    soup = BeautifulSoup(br.response().read())\n\n    for link in soup.find_all(\'a\'):\n        if link.get(\'title\')==\'View Profile\':\n            #print(link.get(\'href\'))\n            #print link.get_text()\n            view_profile.append(\'http://www.linkedin.com\'+link.get(\'href\'))\n            name.append(link.get_text())\n#for l in soup.find_all("span", { "class" : "given-name" }):\n    #print l.get_text()\n    \n\n    for l in soup.find_all(\'dd\',{"class" : "title"}):\n        #print l.get_text()\n        titl.append(l.get_text())\n    \n    for l in soup.find_all(\'span\',{"class" : "location"}):\n        #print l.get_text()\n        location.append(l.get_text())\n\n    for l in soup.find_all(\'span\',{"class" : "industry"}):\n        #print l.get_text()\n        industry.append(l.get_text())\n\n    print view_profile\n    print name\n    print location\n    print industry\n    print titl\n\nresponse._vars=response._caller(enter_info)\n'
p7
sS'snapshot'
p8
(dp9
S'exception'
p10
(dp11
S'__getslice__'
p12
S"<method-wrapper '__getslice__' of exceptions.SyntaxError object>"
p13
sS'text'
p14
S"'    return (form=form)\\n'"
p15
sS'__str__'
p16
S"<method-wrapper '__str__' of exceptions.SyntaxError object>"
p17
sS'__reduce__'
p18
S'<built-in method __reduce__ of exceptions.SyntaxError object>'
p19
sS'__dict__'
p20
S'{}'
p21
sS'__sizeof__'
p22
S'<built-in method __sizeof__ of exceptions.SyntaxError object>'
p23
sS'__init__'
p24
S"<method-wrapper '__init__' of exceptions.SyntaxError object>"
p25
sS'__setattr__'
p26
S"<method-wrapper '__setattr__' of exceptions.SyntaxError object>"
p27
sS'__reduce_ex__'
p28
S'<built-in method __reduce_ex__ of exceptions.SyntaxError object>'
p29
sS'__new__'
p30
S'<built-in method __new__ of type object>'
p31
sS'__format__'
p32
S'<built-in method __format__ of exceptions.SyntaxError object>'
p33
sS'__class__'
p34
S"<type 'exceptions.SyntaxError'>"
p35
sS'filename'
p36
S"r'C:\\Documents and Settings\\agrover\\Desktop\\previo...2py\\applications\\mycrawler\\controllers/default.py'"
p37
sS'lineno'
p38
S'78'
p39
sS'msg'
p40
S"'invalid syntax'"
p41
sS'__doc__'
p42
S"'Invalid syntax.'"
p43
sS'__getitem__'
p44
S"<method-wrapper '__getitem__' of exceptions.SyntaxError object>"
p45
sS'__setstate__'
p46
S'<built-in method __setstate__ of exceptions.SyntaxError object>'
p47
sS'__getattribute__'
p48
S"<method-wrapper '__getattribute__' of exceptions.SyntaxError object>"
p49
sS'print_file_and_line'
p50
S'None'
p51
sS'args'
p52
S"('invalid syntax', (r'C:\\Documents and Settings\\agrover\\Desktop\\previo...2py\\applications\\mycrawler\\controllers/default.py', 78, 17, '    return (form=form)\\n'))"
p53
sS'__subclasshook__'
p54
S'<built-in method __subclasshook__ of type object>'
p55
sS'offset'
p56
S'17'
p57
sS'__unicode__'
p58
S'<built-in method __unicode__ of exceptions.SyntaxError object>'
p59
sS'__delattr__'
p60
S"<method-wrapper '__delattr__' of exceptions.SyntaxError object>"
p61
sS'__repr__'
p62
S"<method-wrapper '__repr__' of exceptions.SyntaxError object>"
p63
sS'__hash__'
p64
S"<method-wrapper '__hash__' of exceptions.SyntaxError object>"
p65
ssS'evalue'
p66
S'invalid syntax (controllers/default.py, line 78)'
p67
sS'request'
p68
ccopy_reg
_reconstructor
p69
(cgluon.html
BEAUTIFY
p70
c__builtin__
object
p71
NtRp72
(dp73
S'attributes'
p74
(dp75
sS'components'
p76
(lp77
g69
(cgluon.html
TABLE
p78
g71
NtRp79
(dp80
g74
(dp81
S'level'
p82
I5
ssS'parent'
p83
Nsg76
(lp84
g69
(cgluon.html
TR
p85
g71
NtRp86
(dp87
g74
(dp88
sg83
g79
sg76
(lp89
g69
(cgluon.html
TD
p90
g71
NtRp91
(dp92
g74
(dp93
S'_style'
p94
S'font-weight:bold;vertical-align:top'
p95
ssg83
g86
sg76
(lp96
S'ajax'
p97
asbag69
(g90
g71
NtRp98
(dp99
g74
(dp100
S'_valign'
p101
S'top'
p102
ssg83
g86
sg76
(lp103
S':'
asbag69
(g90
g71
NtRp104
(dp105
g74
(dp106
sg83
g86
sg76
(lp107
g69
(g70
g71
NtRp108
(dp109
g74
(dp110
g82
I5
ssg83
g104
sg76
(lp111
S'False'
p112
asbasbasbag69
(g85
g71
NtRp113
(dp114
g74
(dp115
sg83
g79
sg76
(lp116
g69
(g90
g71
NtRp117
(dp118
g74
(dp119
g94
g95
ssg83
g113
sg76
(lp120
S'application'
p121
asbag69
(g90
g71
NtRp122
(dp123
g74
(dp124
g101
g102
ssg83
g113
sg76
(lp125
S':'
asbag69
(g90
g71
NtRp126
(dp127
g74
(dp128
sg83
g113
sg76
(lp129
g69
(g70
g71
NtRp130
(dp131
g74
(dp132
g82
I5
ssg83
g126
sg76
(lp133
S'mycrawler'
p134
asbasbasbag69
(g85
g71
NtRp135
(dp136
g74
(dp137
sg83
g79
sg76
(lp138
g69
(g90
g71
NtRp139
(dp140
g74
(dp141
g94
g95
ssg83
g135
sg76
(lp142
g52
asbag69
(g90
g71
NtRp143
(dp144
g74
(dp145
g101
g102
ssg83
g135
sg76
(lp146
S':'
asbag69
(g90
g71
NtRp147
(dp148
g74
(dp149
sg83
g135
sg76
(lp150
g69
(g70
g71
NtRp151
(dp152
g74
(dp153
g82
I5
ssg83
g147
sg76
(lp154
g69
(g78
g71
NtRp155
(dp156
g74
(dp157
g82
I4
ssg83
Nsg76
(lp158
sbasbasbasbag69
(g85
g71
NtRp159
(dp160
g74
(dp161
sg83
g79
sg76
(lp162
g69
(g90
g71
NtRp163
(dp164
g74
(dp165
g94
g95
ssg83
g159
sg76
(lp166
S'body'
p167
asbag69
(g90
g71
NtRp168
(dp169
g74
(dp170
g101
g102
ssg83
g159
sg76
(lp171
S':'
asbag69
(g90
g71
NtRp172
(dp173
g74
(dp174
sg83
g159
sg76
(lp175
g69
(g70
g71
NtRp176
(dp177
g74
(dp178
g82
I5
ssg83
g172
sg76
(lp179
S'<cStringIO.StringO object at 0x01D229A0>'
p180
asbasbasbag69
(g85
g71
NtRp181
(dp182
g74
(dp183
sg83
g79
sg76
(lp184
g69
(g90
g71
NtRp185
(dp186
g74
(dp187
g94
g95
ssg83
g181
sg76
(lp188
S'client'
p189
asbag69
(g90
g71
NtRp190
(dp191
g74
(dp192
g101
g102
ssg83
g181
sg76
(lp193
S':'
asbag69
(g90
g71
NtRp194
(dp195
g74
(dp196
sg83
g181
sg76
(lp197
g69
(g70
g71
NtRp198
(dp199
g74
(dp200
g82
I5
ssg83
g194
sg76
(lp201
S'127.0.0.1'
p202
asbasbasbag69
(g85
g71
NtRp203
(dp204
g74
(dp205
sg83
g79
sg76
(lp206
g69
(g90
g71
NtRp207
(dp208
g74
(dp209
g94
g95
ssg83
g203
sg76
(lp210
S'controller'
p211
asbag69
(g90
g71
NtRp212
(dp213
g74
(dp214
g101
g102
ssg83
g203
sg76
(lp215
S':'
asbag69
(g90
g71
NtRp216
(dp217
g74
(dp218
sg83
g203
sg76
(lp219
g69
(g70
g71
NtRp220
(dp221
g74
(dp222
g82
I5
ssg83
g216
sg76
(lp223
S'default'
p224
asbasbasbag69
(g85
g71
NtRp225
(dp226
g74
(dp227
sg83
g79
sg76
(lp228
g69
(g90
g71
NtRp229
(dp230
g74
(dp231
g94
g95
ssg83
g225
sg76
(lp232
S'cookies'
p233
asbag69
(g90
g71
NtRp234
(dp235
g74
(dp236
g101
g102
ssg83
g225
sg76
(lp237
S':'
asbag69
(g90
g71
NtRp238
(dp239
g74
(dp240
sg83
g225
sg76
(lp241
g69
(g70
g71
NtRp242
(dp243
g74
(dp244
g82
I5
ssg83
g238
sg76
(lp245
g69
(g78
g71
NtRp246
(dp247
g74
(dp248
g82
I4
ssg83
Nsg76
(lp249
g69
(g85
g71
NtRp250
(dp251
g74
(dp252
sg83
g246
sg76
(lp253
g69
(g90
g71
NtRp254
(dp255
g74
(dp256
g94
g95
ssg83
g250
sg76
(lp257
S'session_id_admin'
p258
asbag69
(g90
g71
NtRp259
(dp260
g74
(dp261
g101
g102
ssg83
g250
sg76
(lp262
S':'
asbag69
(g90
g71
NtRp263
(dp264
g74
(dp265
sg83
g250
sg76
(lp266
g69
(g70
g71
NtRp267
(dp268
g74
(dp269
g82
I4
ssg83
g263
sg76
(lp270
g69
(g78
g71
NtRp271
(dp272
g74
(dp273
g82
I3
ssg83
Nsg76
(lp274
g69
(g85
g71
NtRp275
(dp276
g74
(dp277
sg83
g271
sg76
(lp278
g69
(g90
g71
NtRp279
(dp280
g74
(dp281
g94
g95
ssg83
g275
sg76
(lp282
S'comment'
p283
asbag69
(g90
g71
NtRp284
(dp285
g74
(dp286
g101
g102
ssg83
g275
sg76
(lp287
S':'
asbag69
(g90
g71
NtRp288
(dp289
g74
(dp290
sg83
g275
sg76
(lp291
g69
(g70
g71
NtRp292
(dp293
g74
(dp294
g82
I3
ssg83
g288
sg76
(lp295
S''
asbasbasbag69
(g85
g71
NtRp296
(dp297
g74
(dp298
sg83
g271
sg76
(lp299
g69
(g90
g71
NtRp300
(dp301
g74
(dp302
g94
g95
ssg83
g296
sg76
(lp303
S'domain'
p304
asbag69
(g90
g71
NtRp305
(dp306
g74
(dp307
g101
g102
ssg83
g296
sg76
(lp308
S':'
asbag69
(g90
g71
NtRp309
(dp310
g74
(dp311
sg83
g296
sg76
(lp312
g69
(g70
g71
NtRp313
(dp314
g74
(dp315
g82
I3
ssg83
g309
sg76
(lp316
S''
asbasbasbag69
(g85
g71
NtRp317
(dp318
g74
(dp319
sg83
g271
sg76
(lp320
g69
(g90
g71
NtRp321
(dp322
g74
(dp323
g94
g95
ssg83
g317
sg76
(lp324
S'expires'
p325
asbag69
(g90
g71
NtRp326
(dp327
g74
(dp328
g101
g102
ssg83
g317
sg76
(lp329
S':'
asbag69
(g90
g71
NtRp330
(dp331
g74
(dp332
sg83
g317
sg76
(lp333
g69
(g70
g71
NtRp334
(dp335
g74
(dp336
g82
I3
ssg83
g330
sg76
(lp337
S''
asbasbasbag69
(g85
g71
NtRp338
(dp339
g74
(dp340
sg83
g271
sg76
(lp341
g69
(g90
g71
NtRp342
(dp343
g74
(dp344
g94
g95
ssg83
g338
sg76
(lp345
S'httponly'
p346
asbag69
(g90
g71
NtRp347
(dp348
g74
(dp349
g101
g102
ssg83
g338
sg76
(lp350
S':'
asbag69
(g90
g71
NtRp351
(dp352
g74
(dp353
sg83
g338
sg76
(lp354
g69
(g70
g71
NtRp355
(dp356
g74
(dp357
g82
I3
ssg83
g351
sg76
(lp358
S''
asbasbasbag69
(g85
g71
NtRp359
(dp360
g74
(dp361
sg83
g271
sg76
(lp362
g69
(g90
g71
NtRp363
(dp364
g74
(dp365
g94
g95
ssg83
g359
sg76
(lp366
S'max-age'
p367
asbag69
(g90
g71
NtRp368
(dp369
g74
(dp370
g101
g102
ssg83
g359
sg76
(lp371
S':'
asbag69
(g90
g71
NtRp372
(dp373
g74
(dp374
sg83
g359
sg76
(lp375
g69
(g70
g71
NtRp376
(dp377
g74
(dp378
g82
I3
ssg83
g372
sg76
(lp379
S''
asbasbasbag69
(g85
g71
NtRp380
(dp381
g74
(dp382
sg83
g271
sg76
(lp383
g69
(g90
g71
NtRp384
(dp385
g74
(dp386
g94
g95
ssg83
g380
sg76
(lp387
S'path'
p388
asbag69
(g90
g71
NtRp389
(dp390
g74
(dp391
g101
g102
ssg83
g380
sg76
(lp392
S':'
asbag69
(g90
g71
NtRp393
(dp394
g74
(dp395
sg83
g380
sg76
(lp396
g69
(g70
g71
NtRp397
(dp398
g74
(dp399
g82
I3
ssg83
g393
sg76
(lp400
S''
asbasbasbag69
(g85
g71
NtRp401
(dp402
g74
(dp403
sg83
g271
sg76
(lp404
g69
(g90
g71
NtRp405
(dp406
g74
(dp407
g94
g95
ssg83
g401
sg76
(lp408
S'secure'
p409
asbag69
(g90
g71
NtRp410
(dp411
g74
(dp412
g101
g102
ssg83
g401
sg76
(lp413
S':'
asbag69
(g90
g71
NtRp414
(dp415
g74
(dp416
sg83
g401
sg76
(lp417
g69
(g70
g71
NtRp418
(dp419
g74
(dp420
g82
I3
ssg83
g414
sg76
(lp421
S''
asbasbasbag69
(g85
g71
NtRp422
(dp423
g74
(dp424
sg83
g271
sg76
(lp425
g69
(g90
g71
NtRp426
(dp427
g74
(dp428
g94
g95
ssg83
g422
sg76
(lp429
S'version'
p430
asbag69
(g90
g71
NtRp431
(dp432
g74
(dp433
g101
g102
ssg83
g422
sg76
(lp434
S':'
asbag69
(g90
g71
NtRp435
(dp436
g74
(dp437
sg83
g422
sg76
(lp438
g69
(g70
g71
NtRp439
(dp440
g74
(dp441
g82
I3
ssg83
g435
sg76
(lp442
S''
asbasbasbasbasbasbasbag69
(g85
g71
NtRp443
(dp444
g74
(dp445
sg83
g246
sg76
(lp446
g69
(g90
g71
NtRp447
(dp448
g74
(dp449
g94
g95
ssg83
g443
sg76
(lp450
S'session_id_crawler'
p451
asbag69
(g90
g71
NtRp452
(dp453
g74
(dp454
g101
g102
ssg83
g443
sg76
(lp455
S':'
asbag69
(g90
g71
NtRp456
(dp457
g74
(dp458
sg83
g443
sg76
(lp459
g69
(g70
g71
NtRp460
(dp461
g74
(dp462
g82
I4
ssg83
g456
sg76
(lp463
g69
(g78
g71
NtRp464
(dp465
g74
(dp466
g82
I3
ssg83
Nsg76
(lp467
g69
(g85
g71
NtRp468
(dp469
g74
(dp470
sg83
g464
sg76
(lp471
g69
(g90
g71
NtRp472
(dp473
g74
(dp474
g94
g95
ssg83
g468
sg76
(lp475
g283
asbag69
(g90
g71
NtRp476
(dp477
g74
(dp478
g101
g102
ssg83
g468
sg76
(lp479
S':'
asbag69
(g90
g71
NtRp480
(dp481
g74
(dp482
sg83
g468
sg76
(lp483
g69
(g70
g71
NtRp484
(dp485
g74
(dp486
g82
I3
ssg83
g480
sg76
(lp487
S''
asbasbasbag69
(g85
g71
NtRp488
(dp489
g74
(dp490
sg83
g464
sg76
(lp491
g69
(g90
g71
NtRp492
(dp493
g74
(dp494
g94
g95
ssg83
g488
sg76
(lp495
g304
asbag69
(g90
g71
NtRp496
(dp497
g74
(dp498
g101
g102
ssg83
g488
sg76
(lp499
S':'
asbag69
(g90
g71
NtRp500
(dp501
g74
(dp502
sg83
g488
sg76
(lp503
g69
(g70
g71
NtRp504
(dp505
g74
(dp506
g82
I3
ssg83
g500
sg76
(lp507
S''
asbasbasbag69
(g85
g71
NtRp508
(dp509
g74
(dp510
sg83
g464
sg76
(lp511
g69
(g90
g71
NtRp512
(dp513
g74
(dp514
g94
g95
ssg83
g508
sg76
(lp515
g325
asbag69
(g90
g71
NtRp516
(dp517
g74
(dp518
g101
g102
ssg83
g508
sg76
(lp519
S':'
asbag69
(g90
g71
NtRp520
(dp521
g74
(dp522
sg83
g508
sg76
(lp523
g69
(g70
g71
NtRp524
(dp525
g74
(dp526
g82
I3
ssg83
g520
sg76
(lp527
S''
asbasbasbag69
(g85
g71
NtRp528
(dp529
g74
(dp530
sg83
g464
sg76
(lp531
g69
(g90
g71
NtRp532
(dp533
g74
(dp534
g94
g95
ssg83
g528
sg76
(lp535
g346
asbag69
(g90
g71
NtRp536
(dp537
g74
(dp538
g101
g102
ssg83
g528
sg76
(lp539
S':'
asbag69
(g90
g71
NtRp540
(dp541
g74
(dp542
sg83
g528
sg76
(lp543
g69
(g70
g71
NtRp544
(dp545
g74
(dp546
g82
I3
ssg83
g540
sg76
(lp547
S''
asbasbasbag69
(g85
g71
NtRp548
(dp549
g74
(dp550
sg83
g464
sg76
(lp551
g69
(g90
g71
NtRp552
(dp553
g74
(dp554
g94
g95
ssg83
g548
sg76
(lp555
g367
asbag69
(g90
g71
NtRp556
(dp557
g74
(dp558
g101
g102
ssg83
g548
sg76
(lp559
S':'
asbag69
(g90
g71
NtRp560
(dp561
g74
(dp562
sg83
g548
sg76
(lp563
g69
(g70
g71
NtRp564
(dp565
g74
(dp566
g82
I3
ssg83
g560
sg76
(lp567
S''
asbasbasbag69
(g85
g71
NtRp568
(dp569
g74
(dp570
sg83
g464
sg76
(lp571
g69
(g90
g71
NtRp572
(dp573
g74
(dp574
g94
g95
ssg83
g568
sg76
(lp575
g388
asbag69
(g90
g71
NtRp576
(dp577
g74
(dp578
g101
g102
ssg83
g568
sg76
(lp579
S':'
asbag69
(g90
g71
NtRp580
(dp581
g74
(dp582
sg83
g568
sg76
(lp583
g69
(g70
g71
NtRp584
(dp585
g74
(dp586
g82
I3
ssg83
g580
sg76
(lp587
S''
asbasbasbag69
(g85
g71
NtRp588
(dp589
g74
(dp590
sg83
g464
sg76
(lp591
g69
(g90
g71
NtRp592
(dp593
g74
(dp594
g94
g95
ssg83
g588
sg76
(lp595
g409
asbag69
(g90
g71
NtRp596
(dp597
g74
(dp598
g101
g102
ssg83
g588
sg76
(lp599
S':'
asbag69
(g90
g71
NtRp600
(dp601
g74
(dp602
sg83
g588
sg76
(lp603
g69
(g70
g71
NtRp604
(dp605
g74
(dp606
g82
I3
ssg83
g600
sg76
(lp607
S''
asbasbasbag69
(g85
g71
NtRp608
(dp609
g74
(dp610
sg83
g464
sg76
(lp611
g69
(g90
g71
NtRp612
(dp613
g74
(dp614
g94
g95
ssg83
g608
sg76
(lp615
g430
asbag69
(g90
g71
NtRp616
(dp617
g74
(dp618
g101
g102
ssg83
g608
sg76
(lp619
S':'
asbag69
(g90
g71
NtRp620
(dp621
g74
(dp622
sg83
g608
sg76
(lp623
g69
(g70
g71
NtRp624
(dp625
g74
(dp626
g82
I3
ssg83
g620
sg76
(lp627
S''
asbasbasbasbasbasbasbag69
(g85
g71
NtRp628
(dp629
g74
(dp630
sg83
g246
sg76
(lp631
g69
(g90
g71
NtRp632
(dp633
g74
(dp634
g94
g95
ssg83
g628
sg76
(lp635
S'session_id_mycrawler'
p636
asbag69
(g90
g71
NtRp637
(dp638
g74
(dp639
g101
g102
ssg83
g628
sg76
(lp640
S':'
asbag69
(g90
g71
NtRp641
(dp642
g74
(dp643
sg83
g628
sg76
(lp644
g69
(g70
g71
NtRp645
(dp646
g74
(dp647
g82
I4
ssg83
g641
sg76
(lp648
g69
(g78
g71
NtRp649
(dp650
g74
(dp651
g82
I3
ssg83
Nsg76
(lp652
g69
(g85
g71
NtRp653
(dp654
g74
(dp655
sg83
g649
sg76
(lp656
g69
(g90
g71
NtRp657
(dp658
g74
(dp659
g94
g95
ssg83
g653
sg76
(lp660
g283
asbag69
(g90
g71
NtRp661
(dp662
g74
(dp663
g101
g102
ssg83
g653
sg76
(lp664
S':'
asbag69
(g90
g71
NtRp665
(dp666
g74
(dp667
sg83
g653
sg76
(lp668
g69
(g70
g71
NtRp669
(dp670
g74
(dp671
g82
I3
ssg83
g665
sg76
(lp672
S''
asbasbasbag69
(g85
g71
NtRp673
(dp674
g74
(dp675
sg83
g649
sg76
(lp676
g69
(g90
g71
NtRp677
(dp678
g74
(dp679
g94
g95
ssg83
g673
sg76
(lp680
g304
asbag69
(g90
g71
NtRp681
(dp682
g74
(dp683
g101
g102
ssg83
g673
sg76
(lp684
S':'
asbag69
(g90
g71
NtRp685
(dp686
g74
(dp687
sg83
g673
sg76
(lp688
g69
(g70
g71
NtRp689
(dp690
g74
(dp691
g82
I3
ssg83
g685
sg76
(lp692
S''
asbasbasbag69
(g85
g71
NtRp693
(dp694
g74
(dp695
sg83
g649
sg76
(lp696
g69
(g90
g71
NtRp697
(dp698
g74
(dp699
g94
g95
ssg83
g693
sg76
(lp700
g325
asbag69
(g90
g71
NtRp701
(dp702
g74
(dp703
g101
g102
ssg83
g693
sg76
(lp704
S':'
asbag69
(g90
g71
NtRp705
(dp706
g74
(dp707
sg83
g693
sg76
(lp708
g69
(g70
g71
NtRp709
(dp710
g74
(dp711
g82
I3
ssg83
g705
sg76
(lp712
S''
asbasbasbag69
(g85
g71
NtRp713
(dp714
g74
(dp715
sg83
g649
sg76
(lp716
g69
(g90
g71
NtRp717
(dp718
g74
(dp719
g94
g95
ssg83
g713
sg76
(lp720
g346
asbag69
(g90
g71
NtRp721
(dp722
g74
(dp723
g101
g102
ssg83
g713
sg76
(lp724
S':'
asbag69
(g90
g71
NtRp725
(dp726
g74
(dp727
sg83
g713
sg76
(lp728
g69
(g70
g71
NtRp729
(dp730
g74
(dp731
g82
I3
ssg83
g725
sg76
(lp732
S''
asbasbasbag69
(g85
g71
NtRp733
(dp734
g74
(dp735
sg83
g649
sg76
(lp736
g69
(g90
g71
NtRp737
(dp738
g74
(dp739
g94
g95
ssg83
g733
sg76
(lp740
g367
asbag69
(g90
g71
NtRp741
(dp742
g74
(dp743
g101
g102
ssg83
g733
sg76
(lp744
S':'
asbag69
(g90
g71
NtRp745
(dp746
g74
(dp747
sg83
g733
sg76
(lp748
g69
(g70
g71
NtRp749
(dp750
g74
(dp751
g82
I3
ssg83
g745
sg76
(lp752
S''
asbasbasbag69
(g85
g71
NtRp753
(dp754
g74
(dp755
sg83
g649
sg76
(lp756
g69
(g90
g71
NtRp757
(dp758
g74
(dp759
g94
g95
ssg83
g753
sg76
(lp760
g388
asbag69
(g90
g71
NtRp761
(dp762
g74
(dp763
g101
g102
ssg83
g753
sg76
(lp764
S':'
asbag69
(g90
g71
NtRp765
(dp766
g74
(dp767
sg83
g753
sg76
(lp768
g69
(g70
g71
NtRp769
(dp770
g74
(dp771
g82
I3
ssg83
g765
sg76
(lp772
S''
asbasbasbag69
(g85
g71
NtRp773
(dp774
g74
(dp775
sg83
g649
sg76
(lp776
g69
(g90
g71
NtRp777
(dp778
g74
(dp779
g94
g95
ssg83
g773
sg76
(lp780
g409
asbag69
(g90
g71
NtRp781
(dp782
g74
(dp783
g101
g102
ssg83
g773
sg76
(lp784
S':'
asbag69
(g90
g71
NtRp785
(dp786
g74
(dp787
sg83
g773
sg76
(lp788
g69
(g70
g71
NtRp789
(dp790
g74
(dp791
g82
I3
ssg83
g785
sg76
(lp792
S''
asbasbasbag69
(g85
g71
NtRp793
(dp794
g74
(dp795
sg83
g649
sg76
(lp796
g69
(g90
g71
NtRp797
(dp798
g74
(dp799
g94
g95
ssg83
g793
sg76
(lp800
g430
asbag69
(g90
g71
NtRp801
(dp802
g74
(dp803
g101
g102
ssg83
g793
sg76
(lp804
S':'
asbag69
(g90
g71
NtRp805
(dp806
g74
(dp807
sg83
g793
sg76
(lp808
g69
(g70
g71
NtRp809
(dp810
g74
(dp811
g82
I3
ssg83
g805
sg76
(lp812
S''
asbasbasbasbasbasbasbag69
(g85
g71
NtRp813
(dp814
g74
(dp815
sg83
g246
sg76
(lp816
g69
(g90
g71
NtRp817
(dp818
g74
(dp819
g94
g95
ssg83
g813
sg76
(lp820
S'session_id_welcome'
p821
asbag69
(g90
g71
NtRp822
(dp823
g74
(dp824
g101
g102
ssg83
g813
sg76
(lp825
S':'
asbag69
(g90
g71
NtRp826
(dp827
g74
(dp828
sg83
g813
sg76
(lp829
g69
(g70
g71
NtRp830
(dp831
g74
(dp832
g82
I4
ssg83
g826
sg76
(lp833
g69
(g78
g71
NtRp834
(dp835
g74
(dp836
g82
I3
ssg83
Nsg76
(lp837
g69
(g85
g71
NtRp838
(dp839
g74
(dp840
sg83
g834
sg76
(lp841
g69
(g90
g71
NtRp842
(dp843
g74
(dp844
g94
g95
ssg83
g838
sg76
(lp845
g283
asbag69
(g90
g71
NtRp846
(dp847
g74
(dp848
g101
g102
ssg83
g838
sg76
(lp849
S':'
asbag69
(g90
g71
NtRp850
(dp851
g74
(dp852
sg83
g838
sg76
(lp853
g69
(g70
g71
NtRp854
(dp855
g74
(dp856
g82
I3
ssg83
g850
sg76
(lp857
S''
asbasbasbag69
(g85
g71
NtRp858
(dp859
g74
(dp860
sg83
g834
sg76
(lp861
g69
(g90
g71
NtRp862
(dp863
g74
(dp864
g94
g95
ssg83
g858
sg76
(lp865
g304
asbag69
(g90
g71
NtRp866
(dp867
g74
(dp868
g101
g102
ssg83
g858
sg76
(lp869
S':'
asbag69
(g90
g71
NtRp870
(dp871
g74
(dp872
sg83
g858
sg76
(lp873
g69
(g70
g71
NtRp874
(dp875
g74
(dp876
g82
I3
ssg83
g870
sg76
(lp877
S''
asbasbasbag69
(g85
g71
NtRp878
(dp879
g74
(dp880
sg83
g834
sg76
(lp881
g69
(g90
g71
NtRp882
(dp883
g74
(dp884
g94
g95
ssg83
g878
sg76
(lp885
g325
asbag69
(g90
g71
NtRp886
(dp887
g74
(dp888
g101
g102
ssg83
g878
sg76
(lp889
S':'
asbag69
(g90
g71
NtRp890
(dp891
g74
(dp892
sg83
g878
sg76
(lp893
g69
(g70
g71
NtRp894
(dp895
g74
(dp896
g82
I3
ssg83
g890
sg76
(lp897
S''
asbasbasbag69
(g85
g71
NtRp898
(dp899
g74
(dp900
sg83
g834
sg76
(lp901
g69
(g90
g71
NtRp902
(dp903
g74
(dp904
g94
g95
ssg83
g898
sg76
(lp905
g346
asbag69
(g90
g71
NtRp906
(dp907
g74
(dp908
g101
g102
ssg83
g898
sg76
(lp909
S':'
asbag69
(g90
g71
NtRp910
(dp911
g74
(dp912
sg83
g898
sg76
(lp913
g69
(g70
g71
NtRp914
(dp915
g74
(dp916
g82
I3
ssg83
g910
sg76
(lp917
S''
asbasbasbag69
(g85
g71
NtRp918
(dp919
g74
(dp920
sg83
g834
sg76
(lp921
g69
(g90
g71
NtRp922
(dp923
g74
(dp924
g94
g95
ssg83
g918
sg76
(lp925
g367
asbag69
(g90
g71
NtRp926
(dp927
g74
(dp928
g101
g102
ssg83
g918
sg76
(lp929
S':'
asbag69
(g90
g71
NtRp930
(dp931
g74
(dp932
sg83
g918
sg76
(lp933
g69
(g70
g71
NtRp934
(dp935
g74
(dp936
g82
I3
ssg83
g930
sg76
(lp937
S''
asbasbasbag69
(g85
g71
NtRp938
(dp939
g74
(dp940
sg83
g834
sg76
(lp941
g69
(g90
g71
NtRp942
(dp943
g74
(dp944
g94
g95
ssg83
g938
sg76
(lp945
g388
asbag69
(g90
g71
NtRp946
(dp947
g74
(dp948
g101
g102
ssg83
g938
sg76
(lp949
S':'
asbag69
(g90
g71
NtRp950
(dp951
g74
(dp952
sg83
g938
sg76
(lp953
g69
(g70
g71
NtRp954
(dp955
g74
(dp956
g82
I3
ssg83
g950
sg76
(lp957
S''
asbasbasbag69
(g85
g71
NtRp958
(dp959
g74
(dp960
sg83
g834
sg76
(lp961
g69
(g90
g71
NtRp962
(dp963
g74
(dp964
g94
g95
ssg83
g958
sg76
(lp965
g409
asbag69
(g90
g71
NtRp966
(dp967
g74
(dp968
g101
g102
ssg83
g958
sg76
(lp969
S':'
asbag69
(g90
g71
NtRp970
(dp971
g74
(dp972
sg83
g958
sg76
(lp973
g69
(g70
g71
NtRp974
(dp975
g74
(dp976
g82
I3
ssg83
g970
sg76
(lp977
S''
asbasbasbag69
(g85
g71
NtRp978
(dp979
g74
(dp980
sg83
g834
sg76
(lp981
g69
(g90
g71
NtRp982
(dp983
g74
(dp984
g94
g95
ssg83
g978
sg76
(lp985
g430
asbag69
(g90
g71
NtRp986
(dp987
g74
(dp988
g101
g102
ssg83
g978
sg76
(lp989
S':'
asbag69
(g90
g71
NtRp990
(dp991
g74
(dp992
sg83
g978
sg76
(lp993
g69
(g70
g71
NtRp994
(dp995
g74
(dp996
g82
I3
ssg83
g990
sg76
(lp997
S''
asbasbasbasbasbasbasbasbasbasbasbag69
(g85
g71
NtRp998
(dp999
g74
(dp1000
sg83
g79
sg76
(lp1001
g69
(g90
g71
NtRp1002
(dp1003
g74
(dp1004
g94
g95
ssg83
g998
sg76
(lp1005
S'env'
p1006
asbag69
(g90
g71
NtRp1007
(dp1008
g74
(dp1009
g101
g102
ssg83
g998
sg76
(lp1010
S':'
asbag69
(g90
g71
NtRp1011
(dp1012
g74
(dp1013
sg83
g998
sg76
(lp1014
g69
(g70
g71
NtRp1015
(dp1016
g74
(dp1017
g82
I5
ssg83
g1011
sg76
(lp1018
g69
(g78
g71
NtRp1019
(dp1020
g74
(dp1021
g82
I4
ssg83
Nsg76
(lp1022
g69
(g85
g71
NtRp1023
(dp1024
g74
(dp1025
sg83
g1019
sg76
(lp1026
g69
(g90
g71
NtRp1027
(dp1028
g74
(dp1029
g94
g95
ssg83
g1023
sg76
(lp1030
S'app_folders'
p1031
asbag69
(g90
g71
NtRp1032
(dp1033
g74
(dp1034
g101
g102
ssg83
g1023
sg76
(lp1035
S':'
asbag69
(g90
g71
NtRp1036
(dp1037
g74
(dp1038
sg83
g1023
sg76
(lp1039
g69
(g70
g71
NtRp1040
(dp1041
g74
(dp1042
g82
I4
ssg83
g1036
sg76
(lp1043
S"set(['C:\\\\Documents and Settings\\\\agrover\\\\Desktop\\\\previous crawler\\\\web2py\\\\applications\\\\admin\\\\', 'C:\\\\Documents and Settings\\\\agrover\\\\Desktop\\\\previous crawler\\\\web2py\\\\applications\\\\mycrawler\\\\', 'C:\\\\Documents and Settings\\\\agrover\\\\Desktop\\\\previous crawler\\\\web2py\\\\applications\\\\welcome\\\\', 'C:\\\\Documents and Settings\\\\agrover\\\\Desktop\\\\previous crawler\\\\web2py\\\\applications\\\\crawler\\\\'])"
p1044
asbasbasbag69
(g85
g71
NtRp1045
(dp1046
g74
(dp1047
sg83
g1019
sg76
(lp1048
g69
(g90
g71
NtRp1049
(dp1050
g74
(dp1051
g94
g95
ssg83
g1045
sg76
(lp1052
S'applications_parent'
p1053
asbag69
(g90
g71
NtRp1054
(dp1055
g74
(dp1056
g101
g102
ssg83
g1045
sg76
(lp1057
S':'
asbag69
(g90
g71
NtRp1058
(dp1059
g74
(dp1060
sg83
g1045
sg76
(lp1061
g69
(g70
g71
NtRp1062
(dp1063
g74
(dp1064
g82
I4
ssg83
g1058
sg76
(lp1065
S'C:\\Documents and Settings\\agrover\\Desktop\\previous crawler\\web2py'
p1066
asbasbasbag69
(g85
g71
NtRp1067
(dp1068
g74
(dp1069
sg83
g1019
sg76
(lp1070
g69
(g90
g71
NtRp1071
(dp1072
g74
(dp1073
g94
g95
ssg83
g1067
sg76
(lp1074
S'cmd_args'
p1075
asbag69
(g90
g71
NtRp1076
(dp1077
g74
(dp1078
g101
g102
ssg83
g1067
sg76
(lp1079
S':'
asbag69
(g90
g71
NtRp1080
(dp1081
g74
(dp1082
sg83
g1067
sg76
(lp1083
g69
(g70
g71
NtRp1084
(dp1085
g74
(dp1086
g82
I4
ssg83
g1080
sg76
(lp1087
g69
(g78
g71
NtRp1088
(dp1089
g74
(dp1090
g82
I3
ssg83
Nsg76
(lp1091
sbasbasbasbag69
(g85
g71
NtRp1092
(dp1093
g74
(dp1094
sg83
g1019
sg76
(lp1095
g69
(g90
g71
NtRp1096
(dp1097
g74
(dp1098
g94
g95
ssg83
g1092
sg76
(lp1099
S'cmd_options'
p1100
asbag69
(g90
g71
NtRp1101
(dp1102
g74
(dp1103
g101
g102
ssg83
g1092
sg76
(lp1104
S':'
asbag69
(g90
g71
NtRp1105
(dp1106
g74
(dp1107
sg83
g1092
sg76
(lp1108
g69
(g70
g71
NtRp1109
(dp1110
g74
(dp1111
g82
I4
ssg83
g1105
sg76
(lp1112
S"<Values at 0x16d73f0: {'verbose': False, 'ip': '127.0.0.1', 'shutdown_timeout': 5, 'taskbar': False, 'nocron': False, 'pid_filename': 'httpserver.pid', 'maxthreads': None, 'softcron': False, 'server_name': 'mniagrover', 'bpython': False, 'nogui': False, 'port': 8000, 'extcron': False, 'debuglevel': 30, 'test': None, 'folder': 'C:\\\\Documents and Settings\\\\agrover\\\\Desktop\\\\previous crawler\\\\web2py', 'config': '', 'import_models': False, 'winservice': '', 'shell': None, 'run': '', 'log_filename': 'httpserver.log', 'args': [''], 'socket_timeout': 5, 'ssl_ca_certificate': None, 'scheduler': None, 'profiler_filename': None, 'ssl_private_key': '', 'password': '<ask>', 'request_queue_size': 5, 'ssl_certificate': '', 'cronjob': False, 'numthreads': None, 'quiet': False, 'interfaces': None, 'minthreads': None, 'timeout': 10, 'plain': False, 'nobanner': False}>"
p1113
asbasbasbag69
(g85
g71
NtRp1114
(dp1115
g74
(dp1116
sg83
g1019
sg76
(lp1117
g69
(g90
g71
NtRp1118
(dp1119
g74
(dp1120
g94
g95
ssg83
g1114
sg76
(lp1121
S'db_sessions'
p1122
asbag69
(g90
g71
NtRp1123
(dp1124
g74
(dp1125
g101
g102
ssg83
g1114
sg76
(lp1126
S':'
asbag69
(g90
g71
NtRp1127
(dp1128
g74
(dp1129
sg83
g1114
sg76
(lp1130
g69
(g70
g71
NtRp1131
(dp1132
g74
(dp1133
g82
I4
ssg83
g1127
sg76
(lp1134
S'set([])'
p1135
asbasbasbag69
(g85
g71
NtRp1136
(dp1137
g74
(dp1138
sg83
g1019
sg76
(lp1139
g69
(g90
g71
NtRp1140
(dp1141
g74
(dp1142
g94
g95
ssg83
g1136
sg76
(lp1143
S'debugging'
p1144
asbag69
(g90
g71
NtRp1145
(dp1146
g74
(dp1147
g101
g102
ssg83
g1136
sg76
(lp1148
S':'
asbag69
(g90
g71
NtRp1149
(dp1150
g74
(dp1151
sg83
g1136
sg76
(lp1152
g69
(g70
g71
NtRp1153
(dp1154
g74
(dp1155
g82
I4
ssg83
g1149
sg76
(lp1156
g112
asbasbasbag69
(g85
g71
NtRp1157
(dp1158
g74
(dp1159
sg83
g1019
sg76
(lp1160
g69
(g90
g71
NtRp1161
(dp1162
g74
(dp1163
g94
g95
ssg83
g1157
sg76
(lp1164
S'gluon_parent'
p1165
asbag69
(g90
g71
NtRp1166
(dp1167
g74
(dp1168
g101
g102
ssg83
g1157
sg76
(lp1169
S':'
asbag69
(g90
g71
NtRp1170
(dp1171
g74
(dp1172
sg83
g1157
sg76
(lp1173
g69
(g70
g71
NtRp1174
(dp1175
g74
(dp1176
g82
I4
ssg83
g1170
sg76
(lp1177
S'C:\\Documents and Settings\\agrover\\Desktop\\previous crawler\\web2py'
p1178
asbasbasbag69
(g85
g71
NtRp1179
(dp1180
g74
(dp1181
sg83
g1019
sg76
(lp1182
g69
(g90
g71
NtRp1183
(dp1184
g74
(dp1185
g94
g95
ssg83
g1179
sg76
(lp1186
S'http_accept'
p1187
asbag69
(g90
g71
NtRp1188
(dp1189
g74
(dp1190
g101
g102
ssg83
g1179
sg76
(lp1191
S':'
asbag69
(g90
g71
NtRp1192
(dp1193
g74
(dp1194
sg83
g1179
sg76
(lp1195
g69
(g70
g71
NtRp1196
(dp1197
g74
(dp1198
g82
I4
ssg83
g1192
sg76
(lp1199
S'text/html,application/xhtml+xml,application/xml;q=0.9,*/*;q=0.8'
p1200
asbasbasbag69
(g85
g71
NtRp1201
(dp1202
g74
(dp1203
sg83
g1019
sg76
(lp1204
g69
(g90
g71
NtRp1205
(dp1206
g74
(dp1207
g94
g95
ssg83
g1201
sg76
(lp1208
S'http_accept_encoding'
p1209
asbag69
(g90
g71
NtRp1210
(dp1211
g74
(dp1212
g101
g102
ssg83
g1201
sg76
(lp1213
S':'
asbag69
(g90
g71
NtRp1214
(dp1215
g74
(dp1216
sg83
g1201
sg76
(lp1217
g69
(g70
g71
NtRp1218
(dp1219
g74
(dp1220
g82
I4
ssg83
g1214
sg76
(lp1221
S'gzip, deflate'
p1222
asbasbasbag69
(g85
g71
NtRp1223
(dp1224
g74
(dp1225
sg83
g1019
sg76
(lp1226
g69
(g90
g71
NtRp1227
(dp1228
g74
(dp1229
g94
g95
ssg83
g1223
sg76
(lp1230
S'http_accept_language'
p1231
asbag69
(g90
g71
NtRp1232
(dp1233
g74
(dp1234
g101
g102
ssg83
g1223
sg76
(lp1235
S':'
asbag69
(g90
g71
NtRp1236
(dp1237
g74
(dp1238
sg83
g1223
sg76
(lp1239
g69
(g70
g71
NtRp1240
(dp1241
g74
(dp1242
g82
I4
ssg83
g1236
sg76
(lp1243
S'en-us,en;q=0.5'
p1244
asbasbasbag69
(g85
g71
NtRp1245
(dp1246
g74
(dp1247
sg83
g1019
sg76
(lp1248
g69
(g90
g71
NtRp1249
(dp1250
g74
(dp1251
g94
g95
ssg83
g1245
sg76
(lp1252
S'http_connection'
p1253
asbag69
(g90
g71
NtRp1254
(dp1255
g74
(dp1256
g101
g102
ssg83
g1245
sg76
(lp1257
S':'
asbag69
(g90
g71
NtRp1258
(dp1259
g74
(dp1260
sg83
g1245
sg76
(lp1261
g69
(g70
g71
NtRp1262
(dp1263
g74
(dp1264
g82
I4
ssg83
g1258
sg76
(lp1265
S'keep-alive'
p1266
asbasbasbag69
(g85
g71
NtRp1267
(dp1268
g74
(dp1269
sg83
g1019
sg76
(lp1270
g69
(g90
g71
NtRp1271
(dp1272
g74
(dp1273
g94
g95
ssg83
g1267
sg76
(lp1274
S'http_cookie'
p1275
asbag69
(g90
g71
NtRp1276
(dp1277
g74
(dp1278
g101
g102
ssg83
g1267
sg76
(lp1279
S':'
asbag69
(g90
g71
NtRp1280
(dp1281
g74
(dp1282
sg83
g1267
sg76
(lp1283
g69
(g70
g71
NtRp1284
(dp1285
g74
(dp1286
g82
I4
ssg83
g1280
sg76
(lp1287
S'session_id_welcome=127.0.0.1-021ac449-a294-4218-b252-433a1553cea9; session_id_admin=127.0.0.1-6c582451-9afe-4b27-a715-192f5a4c3a1f; session_id_crawler=127.0.0.1-72f49d2e-1330-467a-b976-c47b9b50ec34; session_id_mycrawler=127.0.0.1-05d302d9-dfe2-4e60-ab26-5eeb721fac09'
p1288
asbasbasbag69
(g85
g71
NtRp1289
(dp1290
g74
(dp1291
sg83
g1019
sg76
(lp1292
g69
(g90
g71
NtRp1293
(dp1294
g74
(dp1295
g94
g95
ssg83
g1289
sg76
(lp1296
S'http_host'
p1297
asbag69
(g90
g71
NtRp1298
(dp1299
g74
(dp1300
g101
g102
ssg83
g1289
sg76
(lp1301
S':'
asbag69
(g90
g71
NtRp1302
(dp1303
g74
(dp1304
sg83
g1289
sg76
(lp1305
g69
(g70
g71
NtRp1306
(dp1307
g74
(dp1308
g82
I4
ssg83
g1302
sg76
(lp1309
S'127.0.0.1:8000'
p1310
asbasbasbag69
(g85
g71
NtRp1311
(dp1312
g74
(dp1313
sg83
g1019
sg76
(lp1314
g69
(g90
g71
NtRp1315
(dp1316
g74
(dp1317
g94
g95
ssg83
g1311
sg76
(lp1318
S'http_referer'
p1319
asbag69
(g90
g71
NtRp1320
(dp1321
g74
(dp1322
g101
g102
ssg83
g1311
sg76
(lp1323
S':'
asbag69
(g90
g71
NtRp1324
(dp1325
g74
(dp1326
sg83
g1311
sg76
(lp1327
g69
(g70
g71
NtRp1328
(dp1329
g74
(dp1330
g82
I4
ssg83
g1324
sg76
(lp1331
S'http://127.0.0.1:8000/admin/default/edit/mycrawler/controllers/default.py'
p1332
asbasbasbag69
(g85
g71
NtRp1333
(dp1334
g74
(dp1335
sg83
g1019
sg76
(lp1336
g69
(g90
g71
NtRp1337
(dp1338
g74
(dp1339
g94
g95
ssg83
g1333
sg76
(lp1340
S'http_user_agent'
p1341
asbag69
(g90
g71
NtRp1342
(dp1343
g74
(dp1344
g101
g102
ssg83
g1333
sg76
(lp1345
S':'
asbag69
(g90
g71
NtRp1346
(dp1347
g74
(dp1348
sg83
g1333
sg76
(lp1349
g69
(g70
g71
NtRp1350
(dp1351
g74
(dp1352
g82
I4
ssg83
g1346
sg76
(lp1353
S'Mozilla/5.0 (Windows NT 5.1; rv:12.0) Gecko/20100101 Firefox/12.0'
p1354
asbasbasbag69
(g85
g71
NtRp1355
(dp1356
g74
(dp1357
sg83
g1019
sg76
(lp1358
g69
(g90
g71
NtRp1359
(dp1360
g74
(dp1361
g94
g95
ssg83
g1355
sg76
(lp1362
S'is_jython'
p1363
asbag69
(g90
g71
NtRp1364
(dp1365
g74
(dp1366
g101
g102
ssg83
g1355
sg76
(lp1367
S':'
asbag69
(g90
g71
NtRp1368
(dp1369
g74
(dp1370
sg83
g1355
sg76
(lp1371
g69
(g70
g71
NtRp1372
(dp1373
g74
(dp1374
g82
I4
ssg83
g1368
sg76
(lp1375
g112
asbasbasbag69
(g85
g71
NtRp1376
(dp1377
g74
(dp1378
sg83
g1019
sg76
(lp1379
g69
(g90
g71
NtRp1380
(dp1381
g74
(dp1382
g94
g95
ssg83
g1376
sg76
(lp1383
S'is_pypy'
p1384
asbag69
(g90
g71
NtRp1385
(dp1386
g74
(dp1387
g101
g102
ssg83
g1376
sg76
(lp1388
S':'
asbag69
(g90
g71
NtRp1389
(dp1390
g74
(dp1391
sg83
g1376
sg76
(lp1392
g69
(g70
g71
NtRp1393
(dp1394
g74
(dp1395
g82
I4
ssg83
g1389
sg76
(lp1396
g112
asbasbasbag69
(g85
g71
NtRp1397
(dp1398
g74
(dp1399
sg83
g1019
sg76
(lp1400
g69
(g90
g71
NtRp1401
(dp1402
g74
(dp1403
g94
g95
ssg83
g1397
sg76
(lp1404
S'path_info'
p1405
asbag69
(g90
g71
NtRp1406
(dp1407
g74
(dp1408
g101
g102
ssg83
g1397
sg76
(lp1409
S':'
asbag69
(g90
g71
NtRp1410
(dp1411
g74
(dp1412
sg83
g1397
sg76
(lp1413
g69
(g70
g71
NtRp1414
(dp1415
g74
(dp1416
g82
I4
ssg83
g1410
sg76
(lp1417
S'/mycrawler/default/enter_info'
p1418
asbasbasbag69
(g85
g71
NtRp1419
(dp1420
g74
(dp1421
sg83
g1019
sg76
(lp1422
g69
(g90
g71
NtRp1423
(dp1424
g74
(dp1425
g94
g95
ssg83
g1419
sg76
(lp1426
S'query_string'
p1427
asbag69
(g90
g71
NtRp1428
(dp1429
g74
(dp1430
g101
g102
ssg83
g1419
sg76
(lp1431
S':'
asbag69
(g90
g71
NtRp1432
(dp1433
g74
(dp1434
sg83
g1419
sg76
(lp1435
g69
(g70
g71
NtRp1436
(dp1437
g74
(dp1438
g82
I4
ssg83
g1432
sg76
(lp1439
S''
asbasbasbag69
(g85
g71
NtRp1440
(dp1441
g74
(dp1442
sg83
g1019
sg76
(lp1443
g69
(g90
g71
NtRp1444
(dp1445
g74
(dp1446
g94
g95
ssg83
g1440
sg76
(lp1447
S'remote_addr'
p1448
asbag69
(g90
g71
NtRp1449
(dp1450
g74
(dp1451
g101
g102
ssg83
g1440
sg76
(lp1452
S':'
asbag69
(g90
g71
NtRp1453
(dp1454
g74
(dp1455
sg83
g1440
sg76
(lp1456
g69
(g70
g71
NtRp1457
(dp1458
g74
(dp1459
g82
I4
ssg83
g1453
sg76
(lp1460
g202
asbasbasbag69
(g85
g71
NtRp1461
(dp1462
g74
(dp1463
sg83
g1019
sg76
(lp1464
g69
(g90
g71
NtRp1465
(dp1466
g74
(dp1467
g94
g95
ssg83
g1461
sg76
(lp1468
S'remote_port'
p1469
asbag69
(g90
g71
NtRp1470
(dp1471
g74
(dp1472
g101
g102
ssg83
g1461
sg76
(lp1473
S':'
asbag69
(g90
g71
NtRp1474
(dp1475
g74
(dp1476
sg83
g1461
sg76
(lp1477
g69
(g70
g71
NtRp1478
(dp1479
g74
(dp1480
g82
I4
ssg83
g1474
sg76
(lp1481
S'2587'
p1482
asbasbasbag69
(g85
g71
NtRp1483
(dp1484
g74
(dp1485
sg83
g1019
sg76
(lp1486
g69
(g90
g71
NtRp1487
(dp1488
g74
(dp1489
g94
g95
ssg83
g1483
sg76
(lp1490
S'request_method'
p1491
asbag69
(g90
g71
NtRp1492
(dp1493
g74
(dp1494
g101
g102
ssg83
g1483
sg76
(lp1495
S':'
asbag69
(g90
g71
NtRp1496
(dp1497
g74
(dp1498
sg83
g1483
sg76
(lp1499
g69
(g70
g71
NtRp1500
(dp1501
g74
(dp1502
g82
I4
ssg83
g1496
sg76
(lp1503
S'GET'
p1504
asbasbasbag69
(g85
g71
NtRp1505
(dp1506
g74
(dp1507
sg83
g1019
sg76
(lp1508
g69
(g90
g71
NtRp1509
(dp1510
g74
(dp1511
g94
g95
ssg83
g1505
sg76
(lp1512
S'script_name'
p1513
asbag69
(g90
g71
NtRp1514
(dp1515
g74
(dp1516
g101
g102
ssg83
g1505
sg76
(lp1517
S':'
asbag69
(g90
g71
NtRp1518
(dp1519
g74
(dp1520
sg83
g1505
sg76
(lp1521
g69
(g70
g71
NtRp1522
(dp1523
g74
(dp1524
g82
I4
ssg83
g1518
sg76
(lp1525
S''
asbasbasbag69
(g85
g71
NtRp1526
(dp1527
g74
(dp1528
sg83
g1019
sg76
(lp1529
g69
(g90
g71
NtRp1530
(dp1531
g74
(dp1532
g94
g95
ssg83
g1526
sg76
(lp1533
S'server_name'
p1534
asbag69
(g90
g71
NtRp1535
(dp1536
g74
(dp1537
g101
g102
ssg83
g1526
sg76
(lp1538
S':'
asbag69
(g90
g71
NtRp1539
(dp1540
g74
(dp1541
sg83
g1526
sg76
(lp1542
g69
(g70
g71
NtRp1543
(dp1544
g74
(dp1545
g82
I4
ssg83
g1539
sg76
(lp1546
S'mniagrover'
p1547
asbasbasbag69
(g85
g71
NtRp1548
(dp1549
g74
(dp1550
sg83
g1019
sg76
(lp1551
g69
(g90
g71
NtRp1552
(dp1553
g74
(dp1554
g94
g95
ssg83
g1548
sg76
(lp1555
S'server_port'
p1556
asbag69
(g90
g71
NtRp1557
(dp1558
g74
(dp1559
g101
g102
ssg83
g1548
sg76
(lp1560
S':'
asbag69
(g90
g71
NtRp1561
(dp1562
g74
(dp1563
sg83
g1548
sg76
(lp1564
g69
(g70
g71
NtRp1565
(dp1566
g74
(dp1567
g82
I4
ssg83
g1561
sg76
(lp1568
S'8000'
p1569
asbasbasbag69
(g85
g71
NtRp1570
(dp1571
g74
(dp1572
sg83
g1019
sg76
(lp1573
g69
(g90
g71
NtRp1574
(dp1575
g74
(dp1576
g94
g95
ssg83
g1570
sg76
(lp1577
S'server_protocol'
p1578
asbag69
(g90
g71
NtRp1579
(dp1580
g74
(dp1581
g101
g102
ssg83
g1570
sg76
(lp1582
S':'
asbag69
(g90
g71
NtRp1583
(dp1584
g74
(dp1585
sg83
g1570
sg76
(lp1586
g69
(g70
g71
NtRp1587
(dp1588
g74
(dp1589
g82
I4
ssg83
g1583
sg76
(lp1590
S'HTTP/1.1'
p1591
asbasbasbag69
(g85
g71
NtRp1592
(dp1593
g74
(dp1594
sg83
g1019
sg76
(lp1595
g69
(g90
g71
NtRp1596
(dp1597
g74
(dp1598
g94
g95
ssg83
g1592
sg76
(lp1599
S'server_software'
p1600
asbag69
(g90
g71
NtRp1601
(dp1602
g74
(dp1603
g101
g102
ssg83
g1592
sg76
(lp1604
S':'
asbag69
(g90
g71
NtRp1605
(dp1606
g74
(dp1607
sg83
g1592
sg76
(lp1608
g69
(g70
g71
NtRp1609
(dp1610
g74
(dp1611
g82
I4
ssg83
g1605
sg76
(lp1612
S'Rocket 1.2.4'
p1613
asbasbasbag69
(g85
g71
NtRp1614
(dp1615
g74
(dp1616
sg83
g1019
sg76
(lp1617
g69
(g90
g71
NtRp1618
(dp1619
g74
(dp1620
g94
g95
ssg83
g1614
sg76
(lp1621
S'web2py_crontype'
p1622
asbag69
(g90
g71
NtRp1623
(dp1624
g74
(dp1625
g101
g102
ssg83
g1614
sg76
(lp1626
S':'
asbag69
(g90
g71
NtRp1627
(dp1628
g74
(dp1629
sg83
g1614
sg76
(lp1630
g69
(g70
g71
NtRp1631
(dp1632
g74
(dp1633
g82
I4
ssg83
g1627
sg76
(lp1634
S'hard'
p1635
asbasbasbag69
(g85
g71
NtRp1636
(dp1637
g74
(dp1638
sg83
g1019
sg76
(lp1639
g69
(g90
g71
NtRp1640
(dp1641
g74
(dp1642
g94
g95
ssg83
g1636
sg76
(lp1643
S'web2py_path'
p1644
asbag69
(g90
g71
NtRp1645
(dp1646
g74
(dp1647
g101
g102
ssg83
g1636
sg76
(lp1648
S':'
asbag69
(g90
g71
NtRp1649
(dp1650
g74
(dp1651
sg83
g1636
sg76
(lp1652
g69
(g70
g71
NtRp1653
(dp1654
g74
(dp1655
g82
I4
ssg83
g1649
sg76
(lp1656
g1066
asbasbasbag69
(g85
g71
NtRp1657
(dp1658
g74
(dp1659
sg83
g1019
sg76
(lp1660
g69
(g90
g71
NtRp1661
(dp1662
g74
(dp1663
g94
g95
ssg83
g1657
sg76
(lp1664
S'web2py_version'
p1665
asbag69
(g90
g71
NtRp1666
(dp1667
g74
(dp1668
g101
g102
ssg83
g1657
sg76
(lp1669
S':'
asbag69
(g90
g71
NtRp1670
(dp1671
g74
(dp1672
sg83
g1657
sg76
(lp1673
g69
(g70
g71
NtRp1674
(dp1675
g74
(dp1676
g82
I4
ssg83
g1670
sg76
(lp1677
g69
(g78
g71
NtRp1678
(dp1679
g74
(dp1680
g82
I3
ssg83
Nsg76
(lp1681
g69
(g85
g71
NtRp1682
(dp1683
g74
(dp1684
sg83
g1678
sg76
(lp1685
g69
(g90
g71
NtRp1686
(dp1687
g74
(dp1688
sg83
g1682
sg76
(lp1689
g69
(g70
g71
NtRp1690
(dp1691
g74
(dp1692
g82
I3
ssg83
g1686
sg76
(lp1693
S'1'
asbasbasbag69
(g85
g71
NtRp1694
(dp1695
g74
(dp1696
sg83
g1678
sg76
(lp1697
g69
(g90
g71
NtRp1698
(dp1699
g74
(dp1700
sg83
g1694
sg76
(lp1701
g69
(g70
g71
NtRp1702
(dp1703
g74
(dp1704
g82
I3
ssg83
g1698
sg76
(lp1705
S'99'
p1706
asbasbasbag69
(g85
g71
NtRp1707
(dp1708
g74
(dp1709
sg83
g1678
sg76
(lp1710
g69
(g90
g71
NtRp1711
(dp1712
g74
(dp1713
sg83
g1707
sg76
(lp1714
g69
(g70
g71
NtRp1715
(dp1716
g74
(dp1717
g82
I3
ssg83
g1711
sg76
(lp1718
S'7'
asbasbasbag69
(g85
g71
NtRp1719
(dp1720
g74
(dp1721
sg83
g1678
sg76
(lp1722
g69
(g90
g71
NtRp1723
(dp1724
g74
(dp1725
sg83
g1719
sg76
(lp1726
g69
(g70
g71
NtRp1727
(dp1728
g74
(dp1729
g82
I3
ssg83
g1723
sg76
(lp1730
S'datetime.datetime(2012, 3, 4, 22, 12, 8)'
p1731
asbasbasbag69
(g85
g71
NtRp1732
(dp1733
g74
(dp1734
sg83
g1678
sg76
(lp1735
g69
(g90
g71
NtRp1736
(dp1737
g74
(dp1738
sg83
g1732
sg76
(lp1739
g69
(g70
g71
NtRp1740
(dp1741
g74
(dp1742
g82
I3
ssg83
g1736
sg76
(lp1743
S'stable'
p1744
asbasbasbasbasbasbasbag69
(g85
g71
NtRp1745
(dp1746
g74
(dp1747
sg83
g1019
sg76
(lp1748
g69
(g90
g71
NtRp1749
(dp1750
g74
(dp1751
g94
g95
ssg83
g1745
sg76
(lp1752
S'wsgi_errors'
p1753
asbag69
(g90
g71
NtRp1754
(dp1755
g74
(dp1756
g101
g102
ssg83
g1745
sg76
(lp1757
S':'
asbag69
(g90
g71
NtRp1758
(dp1759
g74
(dp1760
sg83
g1745
sg76
(lp1761
g69
(g70
g71
NtRp1762
(dp1763
g74
(dp1764
g82
I4
ssg83
g1758
sg76
(lp1765
S"<open file '<stderr>', mode 'w' at 0x00A550D0>"
p1766
asbasbasbag69
(g85
g71
NtRp1767
(dp1768
g74
(dp1769
sg83
g1019
sg76
(lp1770
g69
(g90
g71
NtRp1771
(dp1772
g74
(dp1773
g94
g95
ssg83
g1767
sg76
(lp1774
S'wsgi_file_wrapper'
p1775
asbag69
(g90
g71
NtRp1776
(dp1777
g74
(dp1778
g101
g102
ssg83
g1767
sg76
(lp1779
S':'
asbag69
(g90
g71
NtRp1780
(dp1781
g74
(dp1782
sg83
g1767
sg76
(lp1783
g69
(g70
g71
NtRp1784
(dp1785
g74
(dp1786
g82
I4
ssg83
g1780
sg76
(lp1787
S'<class wsgiref.util.FileWrapper at 0x015E8AB0>'
p1788
asbasbasbag69
(g85
g71
NtRp1789
(dp1790
g74
(dp1791
sg83
g1019
sg76
(lp1792
g69
(g90
g71
NtRp1793
(dp1794
g74
(dp1795
g94
g95
ssg83
g1789
sg76
(lp1796
S'wsgi_input'
p1797
asbag69
(g90
g71
NtRp1798
(dp1799
g74
(dp1800
g101
g102
ssg83
g1789
sg76
(lp1801
S':'
asbag69
(g90
g71
NtRp1802
(dp1803
g74
(dp1804
sg83
g1789
sg76
(lp1805
g69
(g70
g71
NtRp1806
(dp1807
g74
(dp1808
g82
I4
ssg83
g1802
sg76
(lp1809
S'<socket._fileobject object at 0x01D34770>'
p1810
asbasbasbag69
(g85
g71
NtRp1811
(dp1812
g74
(dp1813
sg83
g1019
sg76
(lp1814
g69
(g90
g71
NtRp1815
(dp1816
g74
(dp1817
g94
g95
ssg83
g1811
sg76
(lp1818
S'wsgi_multiprocess'
p1819
asbag69
(g90
g71
NtRp1820
(dp1821
g74
(dp1822
g101
g102
ssg83
g1811
sg76
(lp1823
S':'
asbag69
(g90
g71
NtRp1824
(dp1825
g74
(dp1826
sg83
g1811
sg76
(lp1827
g69
(g70
g71
NtRp1828
(dp1829
g74
(dp1830
g82
I4
ssg83
g1824
sg76
(lp1831
g112
asbasbasbag69
(g85
g71
NtRp1832
(dp1833
g74
(dp1834
sg83
g1019
sg76
(lp1835
g69
(g90
g71
NtRp1836
(dp1837
g74
(dp1838
g94
g95
ssg83
g1832
sg76
(lp1839
S'wsgi_multithread'
p1840
asbag69
(g90
g71
NtRp1841
(dp1842
g74
(dp1843
g101
g102
ssg83
g1832
sg76
(lp1844
S':'
asbag69
(g90
g71
NtRp1845
(dp1846
g74
(dp1847
sg83
g1832
sg76
(lp1848
g69
(g70
g71
NtRp1849
(dp1850
g74
(dp1851
g82
I4
ssg83
g1845
sg76
(lp1852
S'True'
p1853
asbasbasbag69
(g85
g71
NtRp1854
(dp1855
g74
(dp1856
sg83
g1019
sg76
(lp1857
g69
(g90
g71
NtRp1858
(dp1859
g74
(dp1860
g94
g95
ssg83
g1854
sg76
(lp1861
S'wsgi_run_once'
p1862
asbag69
(g90
g71
NtRp1863
(dp1864
g74
(dp1865
g101
g102
ssg83
g1854
sg76
(lp1866
S':'
asbag69
(g90
g71
NtRp1867
(dp1868
g74
(dp1869
sg83
g1854
sg76
(lp1870
g69
(g70
g71
NtRp1871
(dp1872
g74
(dp1873
g82
I4
ssg83
g1867
sg76
(lp1874
g112
asbasbasbag69
(g85
g71
NtRp1875
(dp1876
g74
(dp1877
sg83
g1019
sg76
(lp1878
g69
(g90
g71
NtRp1879
(dp1880
g74
(dp1881
g94
g95
ssg83
g1875
sg76
(lp1882
S'wsgi_url_scheme'
p1883
asbag69
(g90
g71
NtRp1884
(dp1885
g74
(dp1886
g101
g102
ssg83
g1875
sg76
(lp1887
S':'
asbag69
(g90
g71
NtRp1888
(dp1889
g74
(dp1890
sg83
g1875
sg76
(lp1891
g69
(g70
g71
NtRp1892
(dp1893
g74
(dp1894
g82
I4
ssg83
g1888
sg76
(lp1895
S'http'
p1896
asbasbasbag69
(g85
g71
NtRp1897
(dp1898
g74
(dp1899
sg83
g1019
sg76
(lp1900
g69
(g90
g71
NtRp1901
(dp1902
g74
(dp1903
g94
g95
ssg83
g1897
sg76
(lp1904
S'wsgi_version'
p1905
asbag69
(g90
g71
NtRp1906
(dp1907
g74
(dp1908
g101
g102
ssg83
g1897
sg76
(lp1909
S':'
asbag69
(g90
g71
NtRp1910
(dp1911
g74
(dp1912
sg83
g1897
sg76
(lp1913
g69
(g70
g71
NtRp1914
(dp1915
g74
(dp1916
g82
I4
ssg83
g1910
sg76
(lp1917
g69
(g78
g71
NtRp1918
(dp1919
g74
(dp1920
g82
I3
ssg83
Nsg76
(lp1921
g69
(g85
g71
NtRp1922
(dp1923
g74
(dp1924
sg83
g1918
sg76
(lp1925
g69
(g90
g71
NtRp1926
(dp1927
g74
(dp1928
sg83
g1922
sg76
(lp1929
g69
(g70
g71
NtRp1930
(dp1931
g74
(dp1932
g82
I3
ssg83
g1926
sg76
(lp1933
S'1'
asbasbasbag69
(g85
g71
NtRp1934
(dp1935
g74
(dp1936
sg83
g1918
sg76
(lp1937
g69
(g90
g71
NtRp1938
(dp1939
g74
(dp1940
sg83
g1934
sg76
(lp1941
g69
(g70
g71
NtRp1942
(dp1943
g74
(dp1944
g82
I3
ssg83
g1938
sg76
(lp1945
S'0'
asbasbasbasbasbasbasbasbasbasbasbag69
(g85
g71
NtRp1946
(dp1947
g74
(dp1948
sg83
g79
sg76
(lp1949
g69
(g90
g71
NtRp1950
(dp1951
g74
(dp1952
g94
g95
ssg83
g1946
sg76
(lp1953
S'extension'
p1954
asbag69
(g90
g71
NtRp1955
(dp1956
g74
(dp1957
g101
g102
ssg83
g1946
sg76
(lp1958
S':'
asbag69
(g90
g71
NtRp1959
(dp1960
g74
(dp1961
sg83
g1946
sg76
(lp1962
g69
(g70
g71
NtRp1963
(dp1964
g74
(dp1965
g82
I5
ssg83
g1959
sg76
(lp1966
S'html'
p1967
asbasbasbag69
(g85
g71
NtRp1968
(dp1969
g74
(dp1970
sg83
g79
sg76
(lp1971
g69
(g90
g71
NtRp1972
(dp1973
g74
(dp1974
g94
g95
ssg83
g1968
sg76
(lp1975
S'folder'
p1976
asbag69
(g90
g71
NtRp1977
(dp1978
g74
(dp1979
g101
g102
ssg83
g1968
sg76
(lp1980
S':'
asbag69
(g90
g71
NtRp1981
(dp1982
g74
(dp1983
sg83
g1968
sg76
(lp1984
g69
(g70
g71
NtRp1985
(dp1986
g74
(dp1987
g82
I5
ssg83
g1981
sg76
(lp1988
S'C:\\Documents and Settings\\agrover\\Desktop\\previous crawler\\web2py\\applications\\mycrawler\\'
p1989
asbasbasbag69
(g85
g71
NtRp1990
(dp1991
g74
(dp1992
sg83
g79
sg76
(lp1993
g69
(g90
g71
NtRp1994
(dp1995
g74
(dp1996
g94
g95
ssg83
g1990
sg76
(lp1997
S'function'
p1998
asbag69
(g90
g71
NtRp1999
(dp2000
g74
(dp2001
g101
g102
ssg83
g1990
sg76
(lp2002
S':'
asbag69
(g90
g71
NtRp2003
(dp2004
g74
(dp2005
sg83
g1990
sg76
(lp2006
g69
(g70
g71
NtRp2007
(dp2008
g74
(dp2009
g82
I5
ssg83
g2003
sg76
(lp2010
S'enter_info'
p2011
asbasbasbag69
(g85
g71
NtRp2012
(dp2013
g74
(dp2014
sg83
g79
sg76
(lp2015
g69
(g90
g71
NtRp2016
(dp2017
g74
(dp2018
g94
g95
ssg83
g2012
sg76
(lp2019
S'get_vars'
p2020
asbag69
(g90
g71
NtRp2021
(dp2022
g74
(dp2023
g101
g102
ssg83
g2012
sg76
(lp2024
S':'
asbag69
(g90
g71
NtRp2025
(dp2026
g74
(dp2027
sg83
g2012
sg76
(lp2028
g69
(g70
g71
NtRp2029
(dp2030
g74
(dp2031
g82
I5
ssg83
g2025
sg76
(lp2032
g69
(g78
g71
NtRp2033
(dp2034
g74
(dp2035
g82
I4
ssg83
Nsg76
(lp2036
sbasbasbasbag69
(g85
g71
NtRp2037
(dp2038
g74
(dp2039
sg83
g79
sg76
(lp2040
g69
(g90
g71
NtRp2041
(dp2042
g74
(dp2043
g94
g95
ssg83
g2037
sg76
(lp2044
S'global_settings'
p2045
asbag69
(g90
g71
NtRp2046
(dp2047
g74
(dp2048
g101
g102
ssg83
g2037
sg76
(lp2049
S':'
asbag69
(g90
g71
NtRp2050
(dp2051
g74
(dp2052
sg83
g2037
sg76
(lp2053
g69
(g70
g71
NtRp2054
(dp2055
g74
(dp2056
g82
I5
ssg83
g2050
sg76
(lp2057
g69
(g78
g71
NtRp2058
(dp2059
g74
(dp2060
g82
I4
ssg83
Nsg76
(lp2061
g69
(g85
g71
NtRp2062
(dp2063
g74
(dp2064
sg83
g2058
sg76
(lp2065
g69
(g90
g71
NtRp2066
(dp2067
g74
(dp2068
g94
g95
ssg83
g2062
sg76
(lp2069
g1031
asbag69
(g90
g71
NtRp2070
(dp2071
g74
(dp2072
g101
g102
ssg83
g2062
sg76
(lp2073
S':'
asbag69
(g90
g71
NtRp2074
(dp2075
g74
(dp2076
sg83
g2062
sg76
(lp2077
g69
(g70
g71
NtRp2078
(dp2079
g74
(dp2080
g82
I4
ssg83
g2074
sg76
(lp2081
S"set(['C:\\\\Documents and Settings\\\\agrover\\\\Desktop\\\\previous crawler\\\\web2py\\\\applications\\\\admin\\\\', 'C:\\\\Documents and Settings\\\\agrover\\\\Desktop\\\\previous crawler\\\\web2py\\\\applications\\\\mycrawler\\\\', 'C:\\\\Documents and Settings\\\\agrover\\\\Desktop\\\\previous crawler\\\\web2py\\\\applications\\\\welcome\\\\', 'C:\\\\Documents and Settings\\\\agrover\\\\Desktop\\\\previous crawler\\\\web2py\\\\applications\\\\crawler\\\\'])"
p2082
asbasbasbag69
(g85
g71
NtRp2083
(dp2084
g74
(dp2085
sg83
g2058
sg76
(lp2086
g69
(g90
g71
NtRp2087
(dp2088
g74
(dp2089
g94
g95
ssg83
g2083
sg76
(lp2090
g1053
asbag69
(g90
g71
NtRp2091
(dp2092
g74
(dp2093
g101
g102
ssg83
g2083
sg76
(lp2094
S':'
asbag69
(g90
g71
NtRp2095
(dp2096
g74
(dp2097
sg83
g2083
sg76
(lp2098
g69
(g70
g71
NtRp2099
(dp2100
g74
(dp2101
g82
I4
ssg83
g2095
sg76
(lp2102
g1066
asbasbasbag69
(g85
g71
NtRp2103
(dp2104
g74
(dp2105
sg83
g2058
sg76
(lp2106
g69
(g90
g71
NtRp2107
(dp2108
g74
(dp2109
g94
g95
ssg83
g2103
sg76
(lp2110
g1075
asbag69
(g90
g71
NtRp2111
(dp2112
g74
(dp2113
g101
g102
ssg83
g2103
sg76
(lp2114
S':'
asbag69
(g90
g71
NtRp2115
(dp2116
g74
(dp2117
sg83
g2103
sg76
(lp2118
g69
(g70
g71
NtRp2119
(dp2120
g74
(dp2121
g82
I4
ssg83
g2115
sg76
(lp2122
g69
(g78
g71
NtRp2123
(dp2124
g74
(dp2125
g82
I3
ssg83
Nsg76
(lp2126
sbasbasbasbag69
(g85
g71
NtRp2127
(dp2128
g74
(dp2129
sg83
g2058
sg76
(lp2130
g69
(g90
g71
NtRp2131
(dp2132
g74
(dp2133
g94
g95
ssg83
g2127
sg76
(lp2134
g1100
asbag69
(g90
g71
NtRp2135
(dp2136
g74
(dp2137
g101
g102
ssg83
g2127
sg76
(lp2138
S':'
asbag69
(g90
g71
NtRp2139
(dp2140
g74
(dp2141
sg83
g2127
sg76
(lp2142
g69
(g70
g71
NtRp2143
(dp2144
g74
(dp2145
g82
I4
ssg83
g2139
sg76
(lp2146
S"<Values at 0x16d73f0: {'verbose': False, 'ip': '127.0.0.1', 'shutdown_timeout': 5, 'taskbar': False, 'nocron': False, 'pid_filename': 'httpserver.pid', 'maxthreads': None, 'softcron': False, 'server_name': 'mniagrover', 'bpython': False, 'nogui': False, 'port': 8000, 'extcron': False, 'debuglevel': 30, 'test': None, 'folder': 'C:\\\\Documents and Settings\\\\agrover\\\\Desktop\\\\previous crawler\\\\web2py', 'config': '', 'import_models': False, 'winservice': '', 'shell': None, 'run': '', 'log_filename': 'httpserver.log', 'args': [''], 'socket_timeout': 5, 'ssl_ca_certificate': None, 'scheduler': None, 'profiler_filename': None, 'ssl_private_key': '', 'password': '<ask>', 'request_queue_size': 5, 'ssl_certificate': '', 'cronjob': False, 'numthreads': None, 'quiet': False, 'interfaces': None, 'minthreads': None, 'timeout': 10, 'plain': False, 'nobanner': False}>"
p2147
asbasbasbag69
(g85
g71
NtRp2148
(dp2149
g74
(dp2150
sg83
g2058
sg76
(lp2151
g69
(g90
g71
NtRp2152
(dp2153
g74
(dp2154
g94
g95
ssg83
g2148
sg76
(lp2155
g1122
asbag69
(g90
g71
NtRp2156
(dp2157
g74
(dp2158
g101
g102
ssg83
g2148
sg76
(lp2159
S':'
asbag69
(g90
g71
NtRp2160
(dp2161
g74
(dp2162
sg83
g2148
sg76
(lp2163
g69
(g70
g71
NtRp2164
(dp2165
g74
(dp2166
g82
I4
ssg83
g2160
sg76
(lp2167
S'set([])'
p2168
asbasbasbag69
(g85
g71
NtRp2169
(dp2170
g74
(dp2171
sg83
g2058
sg76
(lp2172
g69
(g90
g71
NtRp2173
(dp2174
g74
(dp2175
g94
g95
ssg83
g2169
sg76
(lp2176
g1144
asbag69
(g90
g71
NtRp2177
(dp2178
g74
(dp2179
g101
g102
ssg83
g2169
sg76
(lp2180
S':'
asbag69
(g90
g71
NtRp2181
(dp2182
g74
(dp2183
sg83
g2169
sg76
(lp2184
g69
(g70
g71
NtRp2185
(dp2186
g74
(dp2187
g82
I4
ssg83
g2181
sg76
(lp2188
g112
asbasbasbag69
(g85
g71
NtRp2189
(dp2190
g74
(dp2191
sg83
g2058
sg76
(lp2192
g69
(g90
g71
NtRp2193
(dp2194
g74
(dp2195
g94
g95
ssg83
g2189
sg76
(lp2196
g1165
asbag69
(g90
g71
NtRp2197
(dp2198
g74
(dp2199
g101
g102
ssg83
g2189
sg76
(lp2200
S':'
asbag69
(g90
g71
NtRp2201
(dp2202
g74
(dp2203
sg83
g2189
sg76
(lp2204
g69
(g70
g71
NtRp2205
(dp2206
g74
(dp2207
g82
I4
ssg83
g2201
sg76
(lp2208
g1178
asbasbasbag69
(g85
g71
NtRp2209
(dp2210
g74
(dp2211
sg83
g2058
sg76
(lp2212
g69
(g90
g71
NtRp2213
(dp2214
g74
(dp2215
g94
g95
ssg83
g2209
sg76
(lp2216
g1363
asbag69
(g90
g71
NtRp2217
(dp2218
g74
(dp2219
g101
g102
ssg83
g2209
sg76
(lp2220
S':'
asbag69
(g90
g71
NtRp2221
(dp2222
g74
(dp2223
sg83
g2209
sg76
(lp2224
g69
(g70
g71
NtRp2225
(dp2226
g74
(dp2227
g82
I4
ssg83
g2221
sg76
(lp2228
g112
asbasbasbag69
(g85
g71
NtRp2229
(dp2230
g74
(dp2231
sg83
g2058
sg76
(lp2232
g69
(g90
g71
NtRp2233
(dp2234
g74
(dp2235
g94
g95
ssg83
g2229
sg76
(lp2236
g1384
asbag69
(g90
g71
NtRp2237
(dp2238
g74
(dp2239
g101
g102
ssg83
g2229
sg76
(lp2240
S':'
asbag69
(g90
g71
NtRp2241
(dp2242
g74
(dp2243
sg83
g2229
sg76
(lp2244
g69
(g70
g71
NtRp2245
(dp2246
g74
(dp2247
g82
I4
ssg83
g2241
sg76
(lp2248
g112
asbasbasbag69
(g85
g71
NtRp2249
(dp2250
g74
(dp2251
sg83
g2058
sg76
(lp2252
g69
(g90
g71
NtRp2253
(dp2254
g74
(dp2255
g94
g95
ssg83
g2249
sg76
(lp2256
g1622
asbag69
(g90
g71
NtRp2257
(dp2258
g74
(dp2259
g101
g102
ssg83
g2249
sg76
(lp2260
S':'
asbag69
(g90
g71
NtRp2261
(dp2262
g74
(dp2263
sg83
g2249
sg76
(lp2264
g69
(g70
g71
NtRp2265
(dp2266
g74
(dp2267
g82
I4
ssg83
g2261
sg76
(lp2268
g1635
asbasbasbag69
(g85
g71
NtRp2269
(dp2270
g74
(dp2271
sg83
g2058
sg76
(lp2272
g69
(g90
g71
NtRp2273
(dp2274
g74
(dp2275
g94
g95
ssg83
g2269
sg76
(lp2276
g1665
asbag69
(g90
g71
NtRp2277
(dp2278
g74
(dp2279
g101
g102
ssg83
g2269
sg76
(lp2280
S':'
asbag69
(g90
g71
NtRp2281
(dp2282
g74
(dp2283
sg83
g2269
sg76
(lp2284
g69
(g70
g71
NtRp2285
(dp2286
g74
(dp2287
g82
I4
ssg83
g2281
sg76
(lp2288
g69
(g78
g71
NtRp2289
(dp2290
g74
(dp2291
g82
I3
ssg83
Nsg76
(lp2292
g69
(g85
g71
NtRp2293
(dp2294
g74
(dp2295
sg83
g2289
sg76
(lp2296
g69
(g90
g71
NtRp2297
(dp2298
g74
(dp2299
sg83
g2293
sg76
(lp2300
g69
(g70
g71
NtRp2301
(dp2302
g74
(dp2303
g82
I3
ssg83
g2297
sg76
(lp2304
S'1'
asbasbasbag69
(g85
g71
NtRp2305
(dp2306
g74
(dp2307
sg83
g2289
sg76
(lp2308
g69
(g90
g71
NtRp2309
(dp2310
g74
(dp2311
sg83
g2305
sg76
(lp2312
g69
(g70
g71
NtRp2313
(dp2314
g74
(dp2315
g82
I3
ssg83
g2309
sg76
(lp2316
S'99'
p2317
asbasbasbag69
(g85
g71
NtRp2318
(dp2319
g74
(dp2320
sg83
g2289
sg76
(lp2321
g69
(g90
g71
NtRp2322
(dp2323
g74
(dp2324
sg83
g2318
sg76
(lp2325
g69
(g70
g71
NtRp2326
(dp2327
g74
(dp2328
g82
I3
ssg83
g2322
sg76
(lp2329
S'7'
asbasbasbag69
(g85
g71
NtRp2330
(dp2331
g74
(dp2332
sg83
g2289
sg76
(lp2333
g69
(g90
g71
NtRp2334
(dp2335
g74
(dp2336
sg83
g2330
sg76
(lp2337
g69
(g70
g71
NtRp2338
(dp2339
g74
(dp2340
g82
I3
ssg83
g2334
sg76
(lp2341
S'datetime.datetime(2012, 3, 4, 22, 12, 8)'
p2342
asbasbasbag69
(g85
g71
NtRp2343
(dp2344
g74
(dp2345
sg83
g2289
sg76
(lp2346
g69
(g90
g71
NtRp2347
(dp2348
g74
(dp2349
sg83
g2343
sg76
(lp2350
g69
(g70
g71
NtRp2351
(dp2352
g74
(dp2353
g82
I3
ssg83
g2347
sg76
(lp2354
g1744
asbasbasbasbasbasbasbasbasbasbasbag69
(g85
g71
NtRp2355
(dp2356
g74
(dp2357
sg83
g79
sg76
(lp2358
g69
(g90
g71
NtRp2359
(dp2360
g74
(dp2361
g94
g95
ssg83
g2355
sg76
(lp2362
S'is_https'
p2363
asbag69
(g90
g71
NtRp2364
(dp2365
g74
(dp2366
g101
g102
ssg83
g2355
sg76
(lp2367
S':'
asbag69
(g90
g71
NtRp2368
(dp2369
g74
(dp2370
sg83
g2355
sg76
(lp2371
g69
(g70
g71
NtRp2372
(dp2373
g74
(dp2374
g82
I5
ssg83
g2368
sg76
(lp2375
g112
asbasbasbag69
(g85
g71
NtRp2376
(dp2377
g74
(dp2378
sg83
g79
sg76
(lp2379
g69
(g90
g71
NtRp2380
(dp2381
g74
(dp2382
g94
g95
ssg83
g2376
sg76
(lp2383
S'is_local'
p2384
asbag69
(g90
g71
NtRp2385
(dp2386
g74
(dp2387
g101
g102
ssg83
g2376
sg76
(lp2388
S':'
asbag69
(g90
g71
NtRp2389
(dp2390
g74
(dp2391
sg83
g2376
sg76
(lp2392
g69
(g70
g71
NtRp2393
(dp2394
g74
(dp2395
g82
I5
ssg83
g2389
sg76
(lp2396
g1853
asbasbasbag69
(g85
g71
NtRp2397
(dp2398
g74
(dp2399
sg83
g79
sg76
(lp2400
g69
(g90
g71
NtRp2401
(dp2402
g74
(dp2403
g94
g95
ssg83
g2397
sg76
(lp2404
S'is_restful'
p2405
asbag69
(g90
g71
NtRp2406
(dp2407
g74
(dp2408
g101
g102
ssg83
g2397
sg76
(lp2409
S':'
asbag69
(g90
g71
NtRp2410
(dp2411
g74
(dp2412
sg83
g2397
sg76
(lp2413
g69
(g70
g71
NtRp2414
(dp2415
g74
(dp2416
g82
I5
ssg83
g2410
sg76
(lp2417
g112
asbasbasbag69
(g85
g71
NtRp2418
(dp2419
g74
(dp2420
sg83
g79
sg76
(lp2421
g69
(g90
g71
NtRp2422
(dp2423
g74
(dp2424
g94
g95
ssg83
g2418
sg76
(lp2425
S'now'
p2426
asbag69
(g90
g71
NtRp2427
(dp2428
g74
(dp2429
g101
g102
ssg83
g2418
sg76
(lp2430
S':'
asbag69
(g90
g71
NtRp2431
(dp2432
g74
(dp2433
sg83
g2418
sg76
(lp2434
g69
(g70
g71
NtRp2435
(dp2436
g74
(dp2437
g82
I5
ssg83
g2431
sg76
(lp2438
S'datetime.datetime(2012, 6, 6, 15, 31, 26, 578000)'
p2439
asbasbasbag69
(g85
g71
NtRp2440
(dp2441
g74
(dp2442
sg83
g79
sg76
(lp2443
g69
(g90
g71
NtRp2444
(dp2445
g74
(dp2446
g94
g95
ssg83
g2440
sg76
(lp2447
S'post_vars'
p2448
asbag69
(g90
g71
NtRp2449
(dp2450
g74
(dp2451
g101
g102
ssg83
g2440
sg76
(lp2452
S':'
asbag69
(g90
g71
NtRp2453
(dp2454
g74
(dp2455
sg83
g2440
sg76
(lp2456
g69
(g70
g71
NtRp2457
(dp2458
g74
(dp2459
g82
I5
ssg83
g2453
sg76
(lp2460
g69
(g78
g71
NtRp2461
(dp2462
g74
(dp2463
g82
I4
ssg83
Nsg76
(lp2464
sbasbasbasbag69
(g85
g71
NtRp2465
(dp2466
g74
(dp2467
sg83
g79
sg76
(lp2468
g69
(g90
g71
NtRp2469
(dp2470
g74
(dp2471
g94
g95
ssg83
g2465
sg76
(lp2472
S'url'
p2473
asbag69
(g90
g71
NtRp2474
(dp2475
g74
(dp2476
g101
g102
ssg83
g2465
sg76
(lp2477
S':'
asbag69
(g90
g71
NtRp2478
(dp2479
g74
(dp2480
sg83
g2465
sg76
(lp2481
g69
(g70
g71
NtRp2482
(dp2483
g74
(dp2484
g82
I5
ssg83
g2478
sg76
(lp2485
S'/mycrawler/default/enter_info'
p2486
asbasbasbag69
(g85
g71
NtRp2487
(dp2488
g74
(dp2489
sg83
g79
sg76
(lp2490
g69
(g90
g71
NtRp2491
(dp2492
g74
(dp2493
g94
g95
ssg83
g2487
sg76
(lp2494
S'utcnow'
p2495
asbag69
(g90
g71
NtRp2496
(dp2497
g74
(dp2498
g101
g102
ssg83
g2487
sg76
(lp2499
S':'
asbag69
(g90
g71
NtRp2500
(dp2501
g74
(dp2502
sg83
g2487
sg76
(lp2503
g69
(g70
g71
NtRp2504
(dp2505
g74
(dp2506
g82
I5
ssg83
g2500
sg76
(lp2507
S'datetime.datetime(2012, 6, 6, 22, 31, 26, 578000)'
p2508
asbasbasbag69
(g85
g71
NtRp2509
(dp2510
g74
(dp2511
sg83
g79
sg76
(lp2512
g69
(g90
g71
NtRp2513
(dp2514
g74
(dp2515
g94
g95
ssg83
g2509
sg76
(lp2516
S'uuid'
p2517
asbag69
(g90
g71
NtRp2518
(dp2519
g74
(dp2520
g101
g102
ssg83
g2509
sg76
(lp2521
S':'
asbag69
(g90
g71
NtRp2522
(dp2523
g74
(dp2524
sg83
g2509
sg76
(lp2525
g69
(g70
g71
NtRp2526
(dp2527
g74
(dp2528
g82
I5
ssg83
g2522
sg76
(lp2529
S'mycrawler/127.0.0.1.2012-06-06.15-31-26.e857cc74-9774-40f4-9aae-2590a87c6801'
p2530
asbasbasbag69
(g85
g71
NtRp2531
(dp2532
g74
(dp2533
sg83
g79
sg76
(lp2534
g69
(g90
g71
NtRp2535
(dp2536
g74
(dp2537
g94
g95
ssg83
g2531
sg76
(lp2538
S'vars'
p2539
asbag69
(g90
g71
NtRp2540
(dp2541
g74
(dp2542
g101
g102
ssg83
g2531
sg76
(lp2543
S':'
asbag69
(g90
g71
NtRp2544
(dp2545
g74
(dp2546
sg83
g2531
sg76
(lp2547
g69
(g70
g71
NtRp2548
(dp2549
g74
(dp2550
g82
I5
ssg83
g2544
sg76
(lp2551
g69
(g78
g71
NtRp2552
(dp2553
g74
(dp2554
g82
I4
ssg83
Nsg76
(lp2555
sbasbasbasbag69
(g85
g71
NtRp2556
(dp2557
g74
(dp2558
sg83
g79
sg76
(lp2559
g69
(g90
g71
NtRp2560
(dp2561
g74
(dp2562
g94
g95
ssg83
g2556
sg76
(lp2563
S'wsgi'
p2564
asbag69
(g90
g71
NtRp2565
(dp2566
g74
(dp2567
g101
g102
ssg83
g2556
sg76
(lp2568
S':'
asbag69
(g90
g71
NtRp2569
(dp2570
g74
(dp2571
sg83
g2556
sg76
(lp2572
g69
(g70
g71
NtRp2573
(dp2574
g74
(dp2575
g82
I5
ssg83
g2569
sg76
(lp2576
g69
(g78
g71
NtRp2577
(dp2578
g74
(dp2579
g82
I4
ssg83
Nsg76
(lp2580
g69
(g85
g71
NtRp2581
(dp2582
g74
(dp2583
sg83
g2577
sg76
(lp2584
g69
(g90
g71
NtRp2585
(dp2586
g74
(dp2587
g94
g95
ssg83
g2581
sg76
(lp2588
S'environ'
p2589
asbag69
(g90
g71
NtRp2590
(dp2591
g74
(dp2592
g101
g102
ssg83
g2581
sg76
(lp2593
S':'
asbag69
(g90
g71
NtRp2594
(dp2595
g74
(dp2596
sg83
g2581
sg76
(lp2597
g69
(g70
g71
NtRp2598
(dp2599
g74
(dp2600
g82
I4
ssg83
g2594
sg76
(lp2601
g69
(g78
g71
NtRp2602
(dp2603
g74
(dp2604
g82
I3
ssg83
Nsg76
(lp2605
g69
(g85
g71
NtRp2606
(dp2607
g74
(dp2608
sg83
g2602
sg76
(lp2609
g69
(g90
g71
NtRp2610
(dp2611
g74
(dp2612
g94
g95
ssg83
g2606
sg76
(lp2613
S'HTTP_ACCEPT'
p2614
asbag69
(g90
g71
NtRp2615
(dp2616
g74
(dp2617
g101
g102
ssg83
g2606
sg76
(lp2618
S':'
asbag69
(g90
g71
NtRp2619
(dp2620
g74
(dp2621
sg83
g2606
sg76
(lp2622
g69
(g70
g71
NtRp2623
(dp2624
g74
(dp2625
g82
I3
ssg83
g2619
sg76
(lp2626
g1200
asbasbasbag69
(g85
g71
NtRp2627
(dp2628
g74
(dp2629
sg83
g2602
sg76
(lp2630
g69
(g90
g71
NtRp2631
(dp2632
g74
(dp2633
g94
g95
ssg83
g2627
sg76
(lp2634
S'HTTP_ACCEPT_ENCODING'
p2635
asbag69
(g90
g71
NtRp2636
(dp2637
g74
(dp2638
g101
g102
ssg83
g2627
sg76
(lp2639
S':'
asbag69
(g90
g71
NtRp2640
(dp2641
g74
(dp2642
sg83
g2627
sg76
(lp2643
g69
(g70
g71
NtRp2644
(dp2645
g74
(dp2646
g82
I3
ssg83
g2640
sg76
(lp2647
g1222
asbasbasbag69
(g85
g71
NtRp2648
(dp2649
g74
(dp2650
sg83
g2602
sg76
(lp2651
g69
(g90
g71
NtRp2652
(dp2653
g74
(dp2654
g94
g95
ssg83
g2648
sg76
(lp2655
S'HTTP_ACCEPT_LANGUAGE'
p2656
asbag69
(g90
g71
NtRp2657
(dp2658
g74
(dp2659
g101
g102
ssg83
g2648
sg76
(lp2660
S':'
asbag69
(g90
g71
NtRp2661
(dp2662
g74
(dp2663
sg83
g2648
sg76
(lp2664
g69
(g70
g71
NtRp2665
(dp2666
g74
(dp2667
g82
I3
ssg83
g2661
sg76
(lp2668
g1244
asbasbasbag69
(g85
g71
NtRp2669
(dp2670
g74
(dp2671
sg83
g2602
sg76
(lp2672
g69
(g90
g71
NtRp2673
(dp2674
g74
(dp2675
g94
g95
ssg83
g2669
sg76
(lp2676
S'HTTP_CONNECTION'
p2677
asbag69
(g90
g71
NtRp2678
(dp2679
g74
(dp2680
g101
g102
ssg83
g2669
sg76
(lp2681
S':'
asbag69
(g90
g71
NtRp2682
(dp2683
g74
(dp2684
sg83
g2669
sg76
(lp2685
g69
(g70
g71
NtRp2686
(dp2687
g74
(dp2688
g82
I3
ssg83
g2682
sg76
(lp2689
g1266
asbasbasbag69
(g85
g71
NtRp2690
(dp2691
g74
(dp2692
sg83
g2602
sg76
(lp2693
g69
(g90
g71
NtRp2694
(dp2695
g74
(dp2696
g94
g95
ssg83
g2690
sg76
(lp2697
S'HTTP_COOKIE'
p2698
asbag69
(g90
g71
NtRp2699
(dp2700
g74
(dp2701
g101
g102
ssg83
g2690
sg76
(lp2702
S':'
asbag69
(g90
g71
NtRp2703
(dp2704
g74
(dp2705
sg83
g2690
sg76
(lp2706
g69
(g70
g71
NtRp2707
(dp2708
g74
(dp2709
g82
I3
ssg83
g2703
sg76
(lp2710
g1288
asbasbasbag69
(g85
g71
NtRp2711
(dp2712
g74
(dp2713
sg83
g2602
sg76
(lp2714
g69
(g90
g71
NtRp2715
(dp2716
g74
(dp2717
g94
g95
ssg83
g2711
sg76
(lp2718
S'HTTP_HOST'
p2719
asbag69
(g90
g71
NtRp2720
(dp2721
g74
(dp2722
g101
g102
ssg83
g2711
sg76
(lp2723
S':'
asbag69
(g90
g71
NtRp2724
(dp2725
g74
(dp2726
sg83
g2711
sg76
(lp2727
g69
(g70
g71
NtRp2728
(dp2729
g74
(dp2730
g82
I3
ssg83
g2724
sg76
(lp2731
g1310
asbasbasbag69
(g85
g71
NtRp2732
(dp2733
g74
(dp2734
sg83
g2602
sg76
(lp2735
g69
(g90
g71
NtRp2736
(dp2737
g74
(dp2738
g94
g95
ssg83
g2732
sg76
(lp2739
S'HTTP_REFERER'
p2740
asbag69
(g90
g71
NtRp2741
(dp2742
g74
(dp2743
g101
g102
ssg83
g2732
sg76
(lp2744
S':'
asbag69
(g90
g71
NtRp2745
(dp2746
g74
(dp2747
sg83
g2732
sg76
(lp2748
g69
(g70
g71
NtRp2749
(dp2750
g74
(dp2751
g82
I3
ssg83
g2745
sg76
(lp2752
g1332
asbasbasbag69
(g85
g71
NtRp2753
(dp2754
g74
(dp2755
sg83
g2602
sg76
(lp2756
g69
(g90
g71
NtRp2757
(dp2758
g74
(dp2759
g94
g95
ssg83
g2753
sg76
(lp2760
S'HTTP_USER_AGENT'
p2761
asbag69
(g90
g71
NtRp2762
(dp2763
g74
(dp2764
g101
g102
ssg83
g2753
sg76
(lp2765
S':'
asbag69
(g90
g71
NtRp2766
(dp2767
g74
(dp2768
sg83
g2753
sg76
(lp2769
g69
(g70
g71
NtRp2770
(dp2771
g74
(dp2772
g82
I3
ssg83
g2766
sg76
(lp2773
g1354
asbasbasbag69
(g85
g71
NtRp2774
(dp2775
g74
(dp2776
sg83
g2602
sg76
(lp2777
g69
(g90
g71
NtRp2778
(dp2779
g74
(dp2780
g94
g95
ssg83
g2774
sg76
(lp2781
S'PATH_INFO'
p2782
asbag69
(g90
g71
NtRp2783
(dp2784
g74
(dp2785
g101
g102
ssg83
g2774
sg76
(lp2786
S':'
asbag69
(g90
g71
NtRp2787
(dp2788
g74
(dp2789
sg83
g2774
sg76
(lp2790
g69
(g70
g71
NtRp2791
(dp2792
g74
(dp2793
g82
I3
ssg83
g2787
sg76
(lp2794
g1418
asbasbasbag69
(g85
g71
NtRp2795
(dp2796
g74
(dp2797
sg83
g2602
sg76
(lp2798
g69
(g90
g71
NtRp2799
(dp2800
g74
(dp2801
g94
g95
ssg83
g2795
sg76
(lp2802
S'QUERY_STRING'
p2803
asbag69
(g90
g71
NtRp2804
(dp2805
g74
(dp2806
g101
g102
ssg83
g2795
sg76
(lp2807
S':'
asbag69
(g90
g71
NtRp2808
(dp2809
g74
(dp2810
sg83
g2795
sg76
(lp2811
g69
(g70
g71
NtRp2812
(dp2813
g74
(dp2814
g82
I3
ssg83
g2808
sg76
(lp2815
S''
asbasbasbag69
(g85
g71
NtRp2816
(dp2817
g74
(dp2818
sg83
g2602
sg76
(lp2819
g69
(g90
g71
NtRp2820
(dp2821
g74
(dp2822
g94
g95
ssg83
g2816
sg76
(lp2823
S'REMOTE_ADDR'
p2824
asbag69
(g90
g71
NtRp2825
(dp2826
g74
(dp2827
g101
g102
ssg83
g2816
sg76
(lp2828
S':'
asbag69
(g90
g71
NtRp2829
(dp2830
g74
(dp2831
sg83
g2816
sg76
(lp2832
g69
(g70
g71
NtRp2833
(dp2834
g74
(dp2835
g82
I3
ssg83
g2829
sg76
(lp2836
g202
asbasbasbag69
(g85
g71
NtRp2837
(dp2838
g74
(dp2839
sg83
g2602
sg76
(lp2840
g69
(g90
g71
NtRp2841
(dp2842
g74
(dp2843
g94
g95
ssg83
g2837
sg76
(lp2844
S'REMOTE_PORT'
p2845
asbag69
(g90
g71
NtRp2846
(dp2847
g74
(dp2848
g101
g102
ssg83
g2837
sg76
(lp2849
S':'
asbag69
(g90
g71
NtRp2850
(dp2851
g74
(dp2852
sg83
g2837
sg76
(lp2853
g69
(g70
g71
NtRp2854
(dp2855
g74
(dp2856
g82
I3
ssg83
g2850
sg76
(lp2857
g1482
asbasbasbag69
(g85
g71
NtRp2858
(dp2859
g74
(dp2860
sg83
g2602
sg76
(lp2861
g69
(g90
g71
NtRp2862
(dp2863
g74
(dp2864
g94
g95
ssg83
g2858
sg76
(lp2865
S'REQUEST_METHOD'
p2866
asbag69
(g90
g71
NtRp2867
(dp2868
g74
(dp2869
g101
g102
ssg83
g2858
sg76
(lp2870
S':'
asbag69
(g90
g71
NtRp2871
(dp2872
g74
(dp2873
sg83
g2858
sg76
(lp2874
g69
(g70
g71
NtRp2875
(dp2876
g74
(dp2877
g82
I3
ssg83
g2871
sg76
(lp2878
g1504
asbasbasbag69
(g85
g71
NtRp2879
(dp2880
g74
(dp2881
sg83
g2602
sg76
(lp2882
g69
(g90
g71
NtRp2883
(dp2884
g74
(dp2885
g94
g95
ssg83
g2879
sg76
(lp2886
S'SCRIPT_NAME'
p2887
asbag69
(g90
g71
NtRp2888
(dp2889
g74
(dp2890
g101
g102
ssg83
g2879
sg76
(lp2891
S':'
asbag69
(g90
g71
NtRp2892
(dp2893
g74
(dp2894
sg83
g2879
sg76
(lp2895
g69
(g70
g71
NtRp2896
(dp2897
g74
(dp2898
g82
I3
ssg83
g2892
sg76
(lp2899
S''
asbasbasbag69
(g85
g71
NtRp2900
(dp2901
g74
(dp2902
sg83
g2602
sg76
(lp2903
g69
(g90
g71
NtRp2904
(dp2905
g74
(dp2906
g94
g95
ssg83
g2900
sg76
(lp2907
S'SERVER_NAME'
p2908
asbag69
(g90
g71
NtRp2909
(dp2910
g74
(dp2911
g101
g102
ssg83
g2900
sg76
(lp2912
S':'
asbag69
(g90
g71
NtRp2913
(dp2914
g74
(dp2915
sg83
g2900
sg76
(lp2916
g69
(g70
g71
NtRp2917
(dp2918
g74
(dp2919
g82
I3
ssg83
g2913
sg76
(lp2920
g1547
asbasbasbag69
(g85
g71
NtRp2921
(dp2922
g74
(dp2923
sg83
g2602
sg76
(lp2924
g69
(g90
g71
NtRp2925
(dp2926
g74
(dp2927
g94
g95
ssg83
g2921
sg76
(lp2928
S'SERVER_PORT'
p2929
asbag69
(g90
g71
NtRp2930
(dp2931
g74
(dp2932
g101
g102
ssg83
g2921
sg76
(lp2933
S':'
asbag69
(g90
g71
NtRp2934
(dp2935
g74
(dp2936
sg83
g2921
sg76
(lp2937
g69
(g70
g71
NtRp2938
(dp2939
g74
(dp2940
g82
I3
ssg83
g2934
sg76
(lp2941
g1569
asbasbasbag69
(g85
g71
NtRp2942
(dp2943
g74
(dp2944
sg83
g2602
sg76
(lp2945
g69
(g90
g71
NtRp2946
(dp2947
g74
(dp2948
g94
g95
ssg83
g2942
sg76
(lp2949
S'SERVER_PROTOCOL'
p2950
asbag69
(g90
g71
NtRp2951
(dp2952
g74
(dp2953
g101
g102
ssg83
g2942
sg76
(lp2954
S':'
asbag69
(g90
g71
NtRp2955
(dp2956
g74
(dp2957
sg83
g2942
sg76
(lp2958
g69
(g70
g71
NtRp2959
(dp2960
g74
(dp2961
g82
I3
ssg83
g2955
sg76
(lp2962
g1591
asbasbasbag69
(g85
g71
NtRp2963
(dp2964
g74
(dp2965
sg83
g2602
sg76
(lp2966
g69
(g90
g71
NtRp2967
(dp2968
g74
(dp2969
g94
g95
ssg83
g2963
sg76
(lp2970
S'SERVER_SOFTWARE'
p2971
asbag69
(g90
g71
NtRp2972
(dp2973
g74
(dp2974
g101
g102
ssg83
g2963
sg76
(lp2975
S':'
asbag69
(g90
g71
NtRp2976
(dp2977
g74
(dp2978
sg83
g2963
sg76
(lp2979
g69
(g70
g71
NtRp2980
(dp2981
g74
(dp2982
g82
I3
ssg83
g2976
sg76
(lp2983
g1613
asbasbasbag69
(g85
g71
NtRp2984
(dp2985
g74
(dp2986
sg83
g2602
sg76
(lp2987
g69
(g90
g71
NtRp2988
(dp2989
g74
(dp2990
g94
g95
ssg83
g2984
sg76
(lp2991
S'wsgi.errors'
p2992
asbag69
(g90
g71
NtRp2993
(dp2994
g74
(dp2995
g101
g102
ssg83
g2984
sg76
(lp2996
S':'
asbag69
(g90
g71
NtRp2997
(dp2998
g74
(dp2999
sg83
g2984
sg76
(lp3000
g69
(g70
g71
NtRp3001
(dp3002
g74
(dp3003
g82
I3
ssg83
g2997
sg76
(lp3004
S"<open file '<stderr>', mode 'w' at 0x00A550D0>"
p3005
asbasbasbag69
(g85
g71
NtRp3006
(dp3007
g74
(dp3008
sg83
g2602
sg76
(lp3009
g69
(g90
g71
NtRp3010
(dp3011
g74
(dp3012
g94
g95
ssg83
g3006
sg76
(lp3013
S'wsgi.file_wrapper'
p3014
asbag69
(g90
g71
NtRp3015
(dp3016
g74
(dp3017
g101
g102
ssg83
g3006
sg76
(lp3018
S':'
asbag69
(g90
g71
NtRp3019
(dp3020
g74
(dp3021
sg83
g3006
sg76
(lp3022
g69
(g70
g71
NtRp3023
(dp3024
g74
(dp3025
g82
I3
ssg83
g3019
sg76
(lp3026
S'<class wsgiref.util.FileWrapper at 0x015E8AB0>'
p3027
asbasbasbag69
(g85
g71
NtRp3028
(dp3029
g74
(dp3030
sg83
g2602
sg76
(lp3031
g69
(g90
g71
NtRp3032
(dp3033
g74
(dp3034
g94
g95
ssg83
g3028
sg76
(lp3035
S'wsgi.input'
p3036
asbag69
(g90
g71
NtRp3037
(dp3038
g74
(dp3039
g101
g102
ssg83
g3028
sg76
(lp3040
S':'
asbag69
(g90
g71
NtRp3041
(dp3042
g74
(dp3043
sg83
g3028
sg76
(lp3044
g69
(g70
g71
NtRp3045
(dp3046
g74
(dp3047
g82
I3
ssg83
g3041
sg76
(lp3048
S'<cStringIO.StringO object at 0x01D229A0>'
p3049
asbasbasbag69
(g85
g71
NtRp3050
(dp3051
g74
(dp3052
sg83
g2602
sg76
(lp3053
g69
(g90
g71
NtRp3054
(dp3055
g74
(dp3056
g94
g95
ssg83
g3050
sg76
(lp3057
S'wsgi.multiprocess'
p3058
asbag69
(g90
g71
NtRp3059
(dp3060
g74
(dp3061
g101
g102
ssg83
g3050
sg76
(lp3062
S':'
asbag69
(g90
g71
NtRp3063
(dp3064
g74
(dp3065
sg83
g3050
sg76
(lp3066
g69
(g70
g71
NtRp3067
(dp3068
g74
(dp3069
g82
I3
ssg83
g3063
sg76
(lp3070
g112
asbasbasbag69
(g85
g71
NtRp3071
(dp3072
g74
(dp3073
sg83
g2602
sg76
(lp3074
g69
(g90
g71
NtRp3075
(dp3076
g74
(dp3077
g94
g95
ssg83
g3071
sg76
(lp3078
S'wsgi.multithread'
p3079
asbag69
(g90
g71
NtRp3080
(dp3081
g74
(dp3082
g101
g102
ssg83
g3071
sg76
(lp3083
S':'
asbag69
(g90
g71
NtRp3084
(dp3085
g74
(dp3086
sg83
g3071
sg76
(lp3087
g69
(g70
g71
NtRp3088
(dp3089
g74
(dp3090
g82
I3
ssg83
g3084
sg76
(lp3091
g1853
asbasbasbag69
(g85
g71
NtRp3092
(dp3093
g74
(dp3094
sg83
g2602
sg76
(lp3095
g69
(g90
g71
NtRp3096
(dp3097
g74
(dp3098
g94
g95
ssg83
g3092
sg76
(lp3099
S'wsgi.run_once'
p3100
asbag69
(g90
g71
NtRp3101
(dp3102
g74
(dp3103
g101
g102
ssg83
g3092
sg76
(lp3104
S':'
asbag69
(g90
g71
NtRp3105
(dp3106
g74
(dp3107
sg83
g3092
sg76
(lp3108
g69
(g70
g71
NtRp3109
(dp3110
g74
(dp3111
g82
I3
ssg83
g3105
sg76
(lp3112
g112
asbasbasbag69
(g85
g71
NtRp3113
(dp3114
g74
(dp3115
sg83
g2602
sg76
(lp3116
g69
(g90
g71
NtRp3117
(dp3118
g74
(dp3119
g94
g95
ssg83
g3113
sg76
(lp3120
S'wsgi.url_scheme'
p3121
asbag69
(g90
g71
NtRp3122
(dp3123
g74
(dp3124
g101
g102
ssg83
g3113
sg76
(lp3125
S':'
asbag69
(g90
g71
NtRp3126
(dp3127
g74
(dp3128
sg83
g3113
sg76
(lp3129
g69
(g70
g71
NtRp3130
(dp3131
g74
(dp3132
g82
I3
ssg83
g3126
sg76
(lp3133
g1896
asbasbasbag69
(g85
g71
NtRp3134
(dp3135
g74
(dp3136
sg83
g2602
sg76
(lp3137
g69
(g90
g71
NtRp3138
(dp3139
g74
(dp3140
g94
g95
ssg83
g3134
sg76
(lp3141
S'wsgi.version'
p3142
asbag69
(g90
g71
NtRp3143
(dp3144
g74
(dp3145
g101
g102
ssg83
g3134
sg76
(lp3146
S':'
asbag69
(g90
g71
NtRp3147
(dp3148
g74
(dp3149
sg83
g3134
sg76
(lp3150
g69
(g70
g71
NtRp3151
(dp3152
g74
(dp3153
g82
I3
ssg83
g3147
sg76
(lp3154
S'1'
asbasbasbasbasbasbasbasbasbasbasbasbasbsS'frames'
p3155
(lp3156
(dp3157
S'file'
p3158
S'C:\\Documents and Settings\\agrover\\Desktop\\previous crawler\\web2py\\gluon\\restricted.py'
p3159
sS'dump'
p3160
(dp3161
S'code'
p3162
S"'# -*- coding: utf-8 -*-\\n# this file is released ...itl\\n\\nresponse._vars=response._caller(enter_info)\\n'"
p3163
sS'layer'
p3164
S"r'C:\\Documents and Settings\\agrover\\Desktop\\previo...2py\\applications\\mycrawler\\controllers/default.py'"
p3165
sS'global compile2'
p3166
S'<function compile2>'
p3167
sS'ccode'
p3168
S'undefined'
p3169
ssS'lnum'
p3170
I204
sS'lines'
p3171
(dp3172
I199
S"    environment['__name__'] = '__restricted__'"
p3173
sI200
S'    try:'
p3174
sI201
S'        if type(code) == types.CodeType:'
p3175
sI202
S'            ccode = code'
p3176
sI203
S'        else:'
p3177
sI204
S'            ccode = compile2(code,layer)'
p3178
sI205
S'        exec ccode in environment'
p3179
sI206
S'    except HTTP:'
p3180
sI207
S'        raise'
p3181
sI208
S'    except RestrictedError:'
p3182
ssS'call'
p3183
S"(code='# -*- coding: utf-8 -*-\\n# this file is released ...itl\\n\\nresponse._vars=response._caller(enter_info)\\n', environment={'A': <class 'gluon.html.A'>, 'Auth': <class 'gluon.tools.Auth'>, 'B': <class 'gluon.html.B'>, 'BEAUTIFY': <class 'gluon.html.BEAUTIFY'>, 'BODY': <class 'gluon.html.BODY'>, 'BR': <class 'gluon.html.BR'>, 'BUTTON': <class 'gluon.html.BUTTON'>, 'CAT': <class 'gluon.html.CAT'>, 'CENTER': <class 'gluon.html.CENTER'>, 'CLEANUP': <class 'gluon.validators.CLEANUP'>, ...}, layer=r'C:\\Documents and Settings\\agrover\\Desktop\\previo...2py\\applications\\mycrawler\\controllers/default.py')"
p3184
sS'func'
p3185
S'restricted'
p3186
sa(dp3187
g3158
S'C:\\Documents and Settings\\agrover\\Desktop\\previous crawler\\web2py\\gluon\\restricted.py'
p3188
sg3160
(dp3189
S'builtincompile'
p3190
S'<built-in function compile>'
p3191
sS'code'
p3192
S"'# -*- coding: utf-8 -*-\\n# this file is released ...itl\\n\\nresponse._vars=response._caller(enter_info)\\n'"
p3193
sS'code.rstrip'
p3194
S'<built-in method rstrip of str object>'
p3195
sS').replace'
p3196
g3169
sS'layer'
p3197
S"r'C:\\Documents and Settings\\agrover\\Desktop\\previo...2py\\applications\\mycrawler\\controllers/default.py'"
p3198
ssg3170
I189
sg3171
(dp3199
I192
S'    """'
p3200
sI193
S'    runs code in environment and returns the output. if an exception occurs'
p3201
sI184
S''
sI185
S'def compile2(code,layer):'
p3202
sI186
S'    """'
p3203
sI187
S"    The +'\\n' is necessary else compile fails when code ends in a comment."
p3204
sI188
S'    """'
p3205
sI189
S"    return compile(code.rstrip().replace('\\r\\n','\\n')+'\\n', layer, 'exec')"
p3206
sI190
S''
sI191
S"def restricted(code, environment=None, layer='Unknown'):"
p3207
ssg3183
S"(code='# -*- coding: utf-8 -*-\\n# this file is released ...itl\\n\\nresponse._vars=response._caller(enter_info)\\n', layer=r'C:\\Documents and Settings\\agrover\\Desktop\\previo...2py\\applications\\mycrawler\\controllers/default.py')"
p3208
sg3185
S'compile2'
p3209
sasS'pyver'
p3210
S'Python 2.7.3: C:\\Python27\\python.exe'
p3211
sS'session'
p3212
g69
(g70
g71
NtRp3213
(dp3214
g74
(dp3215
sg76
(lp3216
g69
(g78
g71
NtRp3217
(dp3218
g74
(dp3219
g82
I5
ssg83
Nsg76
(lp3220
sbasbsS'etype'
p3221
S"<type 'exceptions.SyntaxError'>"
p3222
sS'date'
p3223
S'Wed Jun 06 15:31:26 2012'
p3224
sS'response'
p3225
g69
(g70
g71
NtRp3226
(dp3227
g74
(dp3228
sg76
(lp3229
g69
(g78
g71
NtRp3230
(dp3231
g74
(dp3232
g82
I5
ssg83
Nsg76
(lp3233
g69
(g85
g71
NtRp3234
(dp3235
g74
(dp3236
sg83
g3230
sg76
(lp3237
g69
(g90
g71
NtRp3238
(dp3239
g74
(dp3240
g94
g95
ssg83
g3234
sg76
(lp3241
g167
asbag69
(g90
g71
NtRp3242
(dp3243
g74
(dp3244
g101
g102
ssg83
g3234
sg76
(lp3245
S':'
asbag69
(g90
g71
NtRp3246
(dp3247
g74
(dp3248
sg83
g3234
sg76
(lp3249
g69
(g70
g71
NtRp3250
(dp3251
g74
(dp3252
g82
I5
ssg83
g3246
sg76
(lp3253
S'<cStringIO.StringO object at 0x05078F00>'
p3254
asbasbasbag69
(g85
g71
NtRp3255
(dp3256
g74
(dp3257
sg83
g3230
sg76
(lp3258
g69
(g90
g71
NtRp3259
(dp3260
g74
(dp3261
g94
g95
ssg83
g3255
sg76
(lp3262
g233
asbag69
(g90
g71
NtRp3263
(dp3264
g74
(dp3265
g101
g102
ssg83
g3255
sg76
(lp3266
S':'
asbag69
(g90
g71
NtRp3267
(dp3268
g74
(dp3269
sg83
g3255
sg76
(lp3270
g69
(g70
g71
NtRp3271
(dp3272
g74
(dp3273
g82
I5
ssg83
g3267
sg76
(lp3274
g69
(g78
g71
NtRp3275
(dp3276
g74
(dp3277
g82
I4
ssg83
Nsg76
(lp3278
g69
(g85
g71
NtRp3279
(dp3280
g74
(dp3281
sg83
g3275
sg76
(lp3282
g69
(g90
g71
NtRp3283
(dp3284
g74
(dp3285
g94
g95
ssg83
g3279
sg76
(lp3286
S'session_id_mycrawler'
p3287
asbag69
(g90
g71
NtRp3288
(dp3289
g74
(dp3290
g101
g102
ssg83
g3279
sg76
(lp3291
S':'
asbag69
(g90
g71
NtRp3292
(dp3293
g74
(dp3294
sg83
g3279
sg76
(lp3295
g69
(g70
g71
NtRp3296
(dp3297
g74
(dp3298
g82
I4
ssg83
g3292
sg76
(lp3299
g69
(g78
g71
NtRp3300
(dp3301
g74
(dp3302
g82
I3
ssg83
Nsg76
(lp3303
g69
(g85
g71
NtRp3304
(dp3305
g74
(dp3306
sg83
g3300
sg76
(lp3307
g69
(g90
g71
NtRp3308
(dp3309
g74
(dp3310
g94
g95
ssg83
g3304
sg76
(lp3311
g283
asbag69
(g90
g71
NtRp3312
(dp3313
g74
(dp3314
g101
g102
ssg83
g3304
sg76
(lp3315
S':'
asbag69
(g90
g71
NtRp3316
(dp3317
g74
(dp3318
sg83
g3304
sg76
(lp3319
g69
(g70
g71
NtRp3320
(dp3321
g74
(dp3322
g82
I3
ssg83
g3316
sg76
(lp3323
S''
asbasbasbag69
(g85
g71
NtRp3324
(dp3325
g74
(dp3326
sg83
g3300
sg76
(lp3327
g69
(g90
g71
NtRp3328
(dp3329
g74
(dp3330
g94
g95
ssg83
g3324
sg76
(lp3331
g304
asbag69
(g90
g71
NtRp3332
(dp3333
g74
(dp3334
g101
g102
ssg83
g3324
sg76
(lp3335
S':'
asbag69
(g90
g71
NtRp3336
(dp3337
g74
(dp3338
sg83
g3324
sg76
(lp3339
g69
(g70
g71
NtRp3340
(dp3341
g74
(dp3342
g82
I3
ssg83
g3336
sg76
(lp3343
S''
asbasbasbag69
(g85
g71
NtRp3344
(dp3345
g74
(dp3346
sg83
g3300
sg76
(lp3347
g69
(g90
g71
NtRp3348
(dp3349
g74
(dp3350
g94
g95
ssg83
g3344
sg76
(lp3351
g325
asbag69
(g90
g71
NtRp3352
(dp3353
g74
(dp3354
g101
g102
ssg83
g3344
sg76
(lp3355
S':'
asbag69
(g90
g71
NtRp3356
(dp3357
g74
(dp3358
sg83
g3344
sg76
(lp3359
g69
(g70
g71
NtRp3360
(dp3361
g74
(dp3362
g82
I3
ssg83
g3356
sg76
(lp3363
S''
asbasbasbag69
(g85
g71
NtRp3364
(dp3365
g74
(dp3366
sg83
g3300
sg76
(lp3367
g69
(g90
g71
NtRp3368
(dp3369
g74
(dp3370
g94
g95
ssg83
g3364
sg76
(lp3371
g346
asbag69
(g90
g71
NtRp3372
(dp3373
g74
(dp3374
g101
g102
ssg83
g3364
sg76
(lp3375
S':'
asbag69
(g90
g71
NtRp3376
(dp3377
g74
(dp3378
sg83
g3364
sg76
(lp3379
g69
(g70
g71
NtRp3380
(dp3381
g74
(dp3382
g82
I3
ssg83
g3376
sg76
(lp3383
S''
asbasbasbag69
(g85
g71
NtRp3384
(dp3385
g74
(dp3386
sg83
g3300
sg76
(lp3387
g69
(g90
g71
NtRp3388
(dp3389
g74
(dp3390
g94
g95
ssg83
g3384
sg76
(lp3391
g367
asbag69
(g90
g71
NtRp3392
(dp3393
g74
(dp3394
g101
g102
ssg83
g3384
sg76
(lp3395
S':'
asbag69
(g90
g71
NtRp3396
(dp3397
g74
(dp3398
sg83
g3384
sg76
(lp3399
g69
(g70
g71
NtRp3400
(dp3401
g74
(dp3402
g82
I3
ssg83
g3396
sg76
(lp3403
S''
asbasbasbag69
(g85
g71
NtRp3404
(dp3405
g74
(dp3406
sg83
g3300
sg76
(lp3407
g69
(g90
g71
NtRp3408
(dp3409
g74
(dp3410
g94
g95
ssg83
g3404
sg76
(lp3411
g388
asbag69
(g90
g71
NtRp3412
(dp3413
g74
(dp3414
g101
g102
ssg83
g3404
sg76
(lp3415
S':'
asbag69
(g90
g71
NtRp3416
(dp3417
g74
(dp3418
sg83
g3404
sg76
(lp3419
g69
(g70
g71
NtRp3420
(dp3421
g74
(dp3422
g82
I3
ssg83
g3416
sg76
(lp3423
S'/'
asbasbasbag69
(g85
g71
NtRp3424
(dp3425
g74
(dp3426
sg83
g3300
sg76
(lp3427
g69
(g90
g71
NtRp3428
(dp3429
g74
(dp3430
g94
g95
ssg83
g3424
sg76
(lp3431
g409
asbag69
(g90
g71
NtRp3432
(dp3433
g74
(dp3434
g101
g102
ssg83
g3424
sg76
(lp3435
S':'
asbag69
(g90
g71
NtRp3436
(dp3437
g74
(dp3438
sg83
g3424
sg76
(lp3439
g69
(g70
g71
NtRp3440
(dp3441
g74
(dp3442
g82
I3
ssg83
g3436
sg76
(lp3443
S''
asbasbasbag69
(g85
g71
NtRp3444
(dp3445
g74
(dp3446
sg83
g3300
sg76
(lp3447
g69
(g90
g71
NtRp3448
(dp3449
g74
(dp3450
g94
g95
ssg83
g3444
sg76
(lp3451
g430
asbag69
(g90
g71
NtRp3452
(dp3453
g74
(dp3454
g101
g102
ssg83
g3444
sg76
(lp3455
S':'
asbag69
(g90
g71
NtRp3456
(dp3457
g74
(dp3458
sg83
g3444
sg76
(lp3459
g69
(g70
g71
NtRp3460
(dp3461
g74
(dp3462
g82
I3
ssg83
g3456
sg76
(lp3463
S''
asbasbasbasbasbasbasbasbasbasbasbag69
(g85
g71
NtRp3464
(dp3465
g74
(dp3466
sg83
g3230
sg76
(lp3467
g69
(g90
g71
NtRp3468
(dp3469
g74
(dp3470
g94
g95
ssg83
g3464
sg76
(lp3471
S'delimiters'
p3472
asbag69
(g90
g71
NtRp3473
(dp3474
g74
(dp3475
g101
g102
ssg83
g3464
sg76
(lp3476
S':'
asbag69
(g90
g71
NtRp3477
(dp3478
g74
(dp3479
sg83
g3464
sg76
(lp3480
g69
(g70
g71
NtRp3481
(dp3482
g74
(dp3483
g82
I5
ssg83
g3477
sg76
(lp3484
g69
(g78
g71
NtRp3485
(dp3486
g74
(dp3487
g82
I4
ssg83
Nsg76
(lp3488
g69
(g85
g71
NtRp3489
(dp3490
g74
(dp3491
sg83
g3485
sg76
(lp3492
g69
(g90
g71
NtRp3493
(dp3494
g74
(dp3495
sg83
g3489
sg76
(lp3496
g69
(g70
g71
NtRp3497
(dp3498
g74
(dp3499
g82
I4
ssg83
g3493
sg76
(lp3500
S'{{'
p3501
asbasbasbag69
(g85
g71
NtRp3502
(dp3503
g74
(dp3504
sg83
g3485
sg76
(lp3505
g69
(g90
g71
NtRp3506
(dp3507
g74
(dp3508
sg83
g3502
sg76
(lp3509
g69
(g70
g71
NtRp3510
(dp3511
g74
(dp3512
g82
I4
ssg83
g3506
sg76
(lp3513
S'}}'
p3514
asbasbasbasbasbasbasbag69
(g85
g71
NtRp3515
(dp3516
g74
(dp3517
sg83
g3230
sg76
(lp3518
g69
(g90
g71
NtRp3519
(dp3520
g74
(dp3521
g94
g95
ssg83
g3515
sg76
(lp3522
S'files'
p3523
asbag69
(g90
g71
NtRp3524
(dp3525
g74
(dp3526
g101
g102
ssg83
g3515
sg76
(lp3527
S':'
asbag69
(g90
g71
NtRp3528
(dp3529
g74
(dp3530
sg83
g3515
sg76
(lp3531
g69
(g70
g71
NtRp3532
(dp3533
g74
(dp3534
g82
I5
ssg83
g3528
sg76
(lp3535
g69
(g78
g71
NtRp3536
(dp3537
g74
(dp3538
g82
I4
ssg83
Nsg76
(lp3539
sbasbasbasbag69
(g85
g71
NtRp3540
(dp3541
g74
(dp3542
sg83
g3230
sg76
(lp3543
g69
(g90
g71
NtRp3544
(dp3545
g74
(dp3546
g94
g95
ssg83
g3540
sg76
(lp3547
S'flash'
p3548
asbag69
(g90
g71
NtRp3549
(dp3550
g74
(dp3551
g101
g102
ssg83
g3540
sg76
(lp3552
S':'
asbag69
(g90
g71
NtRp3553
(dp3554
g74
(dp3555
sg83
g3540
sg76
(lp3556
g69
(g70
g71
NtRp3557
(dp3558
g74
(dp3559
g82
I5
ssg83
g3553
sg76
(lp3560
S''
asbasbasbag69
(g85
g71
NtRp3561
(dp3562
g74
(dp3563
sg83
g3230
sg76
(lp3564
g69
(g90
g71
NtRp3565
(dp3566
g74
(dp3567
g94
g95
ssg83
g3561
sg76
(lp3568
S'generic_patterns'
p3569
asbag69
(g90
g71
NtRp3570
(dp3571
g74
(dp3572
g101
g102
ssg83
g3561
sg76
(lp3573
S':'
asbag69
(g90
g71
NtRp3574
(dp3575
g74
(dp3576
sg83
g3561
sg76
(lp3577
g69
(g70
g71
NtRp3578
(dp3579
g74
(dp3580
g82
I5
ssg83
g3574
sg76
(lp3581
g69
(g78
g71
NtRp3582
(dp3583
g74
(dp3584
g82
I4
ssg83
Nsg76
(lp3585
g69
(g85
g71
NtRp3586
(dp3587
g74
(dp3588
sg83
g3582
sg76
(lp3589
g69
(g90
g71
NtRp3590
(dp3591
g74
(dp3592
sg83
g3586
sg76
(lp3593
g69
(g70
g71
NtRp3594
(dp3595
g74
(dp3596
g82
I4
ssg83
g3590
sg76
(lp3597
S'*'
asbasbasbasbasbasbasbag69
(g85
g71
NtRp3598
(dp3599
g74
(dp3600
sg83
g3230
sg76
(lp3601
g69
(g90
g71
NtRp3602
(dp3603
g74
(dp3604
g94
g95
ssg83
g3598
sg76
(lp3605
S'headers'
p3606
asbag69
(g90
g71
NtRp3607
(dp3608
g74
(dp3609
g101
g102
ssg83
g3598
sg76
(lp3610
S':'
asbag69
(g90
g71
NtRp3611
(dp3612
g74
(dp3613
sg83
g3598
sg76
(lp3614
g69
(g70
g71
NtRp3615
(dp3616
g74
(dp3617
g82
I5
ssg83
g3611
sg76
(lp3618
g69
(g78
g71
NtRp3619
(dp3620
g74
(dp3621
g82
I4
ssg83
Nsg76
(lp3622
g69
(g85
g71
NtRp3623
(dp3624
g74
(dp3625
sg83
g3619
sg76
(lp3626
g69
(g90
g71
NtRp3627
(dp3628
g74
(dp3629
g94
g95
ssg83
g3623
sg76
(lp3630
S'Cache-Control'
p3631
asbag69
(g90
g71
NtRp3632
(dp3633
g74
(dp3634
g101
g102
ssg83
g3623
sg76
(lp3635
S':'
asbag69
(g90
g71
NtRp3636
(dp3637
g74
(dp3638
sg83
g3623
sg76
(lp3639
g69
(g70
g71
NtRp3640
(dp3641
g74
(dp3642
g82
I4
ssg83
g3636
sg76
(lp3643
S'no-store, no-cache, must-revalidate, post-check=0, pre-check=0'
p3644
asbasbasbag69
(g85
g71
NtRp3645
(dp3646
g74
(dp3647
sg83
g3619
sg76
(lp3648
g69
(g90
g71
NtRp3649
(dp3650
g74
(dp3651
g94
g95
ssg83
g3645
sg76
(lp3652
S'Content-Type'
p3653
asbag69
(g90
g71
NtRp3654
(dp3655
g74
(dp3656
g101
g102
ssg83
g3645
sg76
(lp3657
S':'
asbag69
(g90
g71
NtRp3658
(dp3659
g74
(dp3660
sg83
g3645
sg76
(lp3661
g69
(g70
g71
NtRp3662
(dp3663
g74
(dp3664
g82
I4
ssg83
g3658
sg76
(lp3665
S'text/html; charset=utf-8'
p3666
asbasbasbag69
(g85
g71
NtRp3667
(dp3668
g74
(dp3669
sg83
g3619
sg76
(lp3670
g69
(g90
g71
NtRp3671
(dp3672
g74
(dp3673
g94
g95
ssg83
g3667
sg76
(lp3674
S'Expires'
p3675
asbag69
(g90
g71
NtRp3676
(dp3677
g74
(dp3678
g101
g102
ssg83
g3667
sg76
(lp3679
S':'
asbag69
(g90
g71
NtRp3680
(dp3681
g74
(dp3682
sg83
g3667
sg76
(lp3683
g69
(g70
g71
NtRp3684
(dp3685
g74
(dp3686
g82
I4
ssg83
g3680
sg76
(lp3687
S'Wed, 06 Jun 2012 22:31:26 GMT'
p3688
asbasbasbag69
(g85
g71
NtRp3689
(dp3690
g74
(dp3691
sg83
g3619
sg76
(lp3692
g69
(g90
g71
NtRp3693
(dp3694
g74
(dp3695
g94
g95
ssg83
g3689
sg76
(lp3696
S'Pragma'
p3697
asbag69
(g90
g71
NtRp3698
(dp3699
g74
(dp3700
g101
g102
ssg83
g3689
sg76
(lp3701
S':'
asbag69
(g90
g71
NtRp3702
(dp3703
g74
(dp3704
sg83
g3689
sg76
(lp3705
g69
(g70
g71
NtRp3706
(dp3707
g74
(dp3708
g82
I4
ssg83
g3702
sg76
(lp3709
S'no-cache'
p3710
asbasbasbag69
(g85
g71
NtRp3711
(dp3712
g74
(dp3713
sg83
g3619
sg76
(lp3714
g69
(g90
g71
NtRp3715
(dp3716
g74
(dp3717
g94
g95
ssg83
g3711
sg76
(lp3718
S'X-Powered-By'
p3719
asbag69
(g90
g71
NtRp3720
(dp3721
g74
(dp3722
g101
g102
ssg83
g3711
sg76
(lp3723
S':'
asbag69
(g90
g71
NtRp3724
(dp3725
g74
(dp3726
sg83
g3711
sg76
(lp3727
g69
(g70
g71
NtRp3728
(dp3729
g74
(dp3730
g82
I4
ssg83
g3724
sg76
(lp3731
S'web2py'
p3732
asbasbasbasbasbasbasbag69
(g85
g71
NtRp3733
(dp3734
g74
(dp3735
sg83
g3230
sg76
(lp3736
g69
(g90
g71
NtRp3737
(dp3738
g74
(dp3739
g94
g95
ssg83
g3733
sg76
(lp3740
S'menu'
p3741
asbag69
(g90
g71
NtRp3742
(dp3743
g74
(dp3744
g101
g102
ssg83
g3733
sg76
(lp3745
S':'
asbag69
(g90
g71
NtRp3746
(dp3747
g74
(dp3748
sg83
g3733
sg76
(lp3749
g69
(g70
g71
NtRp3750
(dp3751
g74
(dp3752
g82
I5
ssg83
g3746
sg76
(lp3753
g69
(g78
g71
NtRp3754
(dp3755
g74
(dp3756
g82
I4
ssg83
Nsg76
(lp3757
g69
(g85
g71
NtRp3758
(dp3759
g74
(dp3760
sg83
g3754
sg76
(lp3761
g69
(g90
g71
NtRp3762
(dp3763
g74
(dp3764
sg83
g3758
sg76
(lp3765
g69
(g70
g71
NtRp3766
(dp3767
g74
(dp3768
g82
I4
ssg83
g3762
sg76
(lp3769
g69
(g78
g71
NtRp3770
(dp3771
g74
(dp3772
g82
I3
ssg83
Nsg76
(lp3773
g69
(g85
g71
NtRp3774
(dp3775
g74
(dp3776
sg83
g3770
sg76
(lp3777
g69
(g90
g71
NtRp3778
(dp3779
g74
(dp3780
sg83
g3774
sg76
(lp3781
g69
(g70
g71
NtRp3782
(dp3783
g74
(dp3784
g82
I3
ssg83
g3778
sg76
(lp3785
cgluon.languages
lazyT_unpickle
p3786
(S't\x04\x00\x00\x00Home'
tRp3787
asbasbasbag69
(g85
g71
NtRp3788
(dp3789
g74
(dp3790
sg83
g3770
sg76
(lp3791
g69
(g90
g71
NtRp3792
(dp3793
g74
(dp3794
sg83
g3788
sg76
(lp3795
g69
(g70
g71
NtRp3796
(dp3797
g74
(dp3798
g82
I3
ssg83
g3792
sg76
(lp3799
g112
asbasbasbag69
(g85
g71
NtRp3800
(dp3801
g74
(dp3802
sg83
g3770
sg76
(lp3803
g69
(g90
g71
NtRp3804
(dp3805
g74
(dp3806
sg83
g3800
sg76
(lp3807
g69
(g70
g71
NtRp3808
(dp3809
g74
(dp3810
g82
I3
ssg83
g3804
sg76
(lp3811
S'/mycrawler/default/index'
p3812
asbasbasbag69
(g85
g71
NtRp3813
(dp3814
g74
(dp3815
sg83
g3770
sg76
(lp3816
g69
(g90
g71
NtRp3817
(dp3818
g74
(dp3819
sg83
g3813
sg76
(lp3820
g69
(g70
g71
NtRp3821
(dp3822
g74
(dp3823
g82
I3
ssg83
g3817
sg76
(lp3824
g69
(g78
g71
NtRp3825
(dp3826
g74
(dp3827
g82
I2
ssg83
Nsg76
(lp3828
sbasbasbasbasbasbasbasbag69
(g85
g71
NtRp3829
(dp3830
g74
(dp3831
sg83
g3754
sg76
(lp3832
g69
(g90
g71
NtRp3833
(dp3834
g74
(dp3835
sg83
g3829
sg76
(lp3836
g69
(g70
g71
NtRp3837
(dp3838
g74
(dp3839
g82
I4
ssg83
g3833
sg76
(lp3840
g69
(g78
g71
NtRp3841
(dp3842
g74
(dp3843
g82
I3
ssg83
Nsg76
(lp3844
g69
(g85
g71
NtRp3845
(dp3846
g74
(dp3847
sg83
g3841
sg76
(lp3848
g69
(g90
g71
NtRp3849
(dp3850
g74
(dp3851
sg83
g3845
sg76
(lp3852
g69
(g70
g71
NtRp3853
(dp3854
g74
(dp3855
g82
I3
ssg83
g3849
sg76
(lp3856
g69
(cgluon.html
SPAN
p3857
g71
NtRp3858
(dp3859
g74
(dp3860
g94
S'color:yellow'
p3861
ssg83
Nsg76
(lp3862
g3732
asbasbasbasbag69
(g85
g71
NtRp3863
(dp3864
g74
(dp3865
sg83
g3841
sg76
(lp3866
g69
(g90
g71
NtRp3867
(dp3868
g74
(dp3869
sg83
g3863
sg76
(lp3870
g69
(g70
g71
NtRp3871
(dp3872
g74
(dp3873
g82
I3
ssg83
g3867
sg76
(lp3874
g112
asbasbasbag69
(g85
g71
NtRp3875
(dp3876
g74
(dp3877
sg83
g3841
sg76
(lp3878
g69
(g90
g71
NtRp3879
(dp3880
g74
(dp3881
sg83
g3875
sg76
(lp3882
g69
(g70
g71
NtRp3883
(dp3884
g74
(dp3885
g82
I3
ssg83
g3879
sg76
(lp3886
S'None'
p3887
asbasbasbag69
(g85
g71
NtRp3888
(dp3889
g74
(dp3890
sg83
g3841
sg76
(lp3891
g69
(g90
g71
NtRp3892
(dp3893
g74
(dp3894
sg83
g3888
sg76
(lp3895
g69
(g70
g71
NtRp3896
(dp3897
g74
(dp3898
g82
I3
ssg83
g3892
sg76
(lp3899
g69
(g78
g71
NtRp3900
(dp3901
g74
(dp3902
g82
I2
ssg83
Nsg76
(lp3903
g69
(g85
g71
NtRp3904
(dp3905
g74
(dp3906
sg83
g3900
sg76
(lp3907
g69
(g90
g71
NtRp3908
(dp3909
g74
(dp3910
sg83
g3904
sg76
(lp3911
g69
(g70
g71
NtRp3912
(dp3913
g74
(dp3914
g82
I2
ssg83
g3908
sg76
(lp3915
g69
(g78
g71
NtRp3916
(dp3917
g74
(dp3918
g82
I1
ssg83
Nsg76
(lp3919
g69
(g85
g71
NtRp3920
(dp3921
g74
(dp3922
sg83
g3916
sg76
(lp3923
g69
(g90
g71
NtRp3924
(dp3925
g74
(dp3926
sg83
g3920
sg76
(lp3927
g69
(g70
g71
NtRp3928
(dp3929
g74
(dp3930
g82
I1
ssg83
g3924
sg76
(lp3931
g3786
(S's\x08\x00\x00\x00My Sites'
tRp3932
asbasbasbag69
(g85
g71
NtRp3933
(dp3934
g74
(dp3935
sg83
g3916
sg76
(lp3936
g69
(g90
g71
NtRp3937
(dp3938
g74
(dp3939
sg83
g3933
sg76
(lp3940
g69
(g70
g71
NtRp3941
(dp3942
g74
(dp3943
g82
I1
ssg83
g3937
sg76
(lp3944
I00
asbasbasbag69
(g85
g71
NtRp3945
(dp3946
g74
(dp3947
sg83
g3916
sg76
(lp3948
g69
(g90
g71
NtRp3949
(dp3950
g74
(dp3951
sg83
g3945
sg76
(lp3952
g69
(g70
g71
NtRp3953
(dp3954
g74
(dp3955
g82
I1
ssg83
g3949
sg76
(lp3956
S'/admin/default/site'
p3957
asbasbasbasbasbasbasbag69
(g85
g71
NtRp3958
(dp3959
g74
(dp3960
sg83
g3900
sg76
(lp3961
g69
(g90
g71
NtRp3962
(dp3963
g74
(dp3964
sg83
g3958
sg76
(lp3965
g69
(g70
g71
NtRp3966
(dp3967
g74
(dp3968
g82
I2
ssg83
g3962
sg76
(lp3969
g69
(g78
g71
NtRp3970
(dp3971
g74
(dp3972
g82
I1
ssg83
Nsg76
(lp3973
g69
(g85
g71
NtRp3974
(dp3975
g74
(dp3976
sg83
g3970
sg76
(lp3977
g69
(g90
g71
NtRp3978
(dp3979
g74
(dp3980
sg83
g3974
sg76
(lp3981
g69
(g70
g71
NtRp3982
(dp3983
g74
(dp3984
g82
I1
ssg83
g3978
sg76
(lp3985
g3786
(S's\x08\x00\x00\x00This App'
tRp3986
asbasbasbag69
(g85
g71
NtRp3987
(dp3988
g74
(dp3989
sg83
g3970
sg76
(lp3990
g69
(g90
g71
NtRp3991
(dp3992
g74
(dp3993
sg83
g3987
sg76
(lp3994
g69
(g70
g71
NtRp3995
(dp3996
g74
(dp3997
g82
I1
ssg83
g3991
sg76
(lp3998
I00
asbasbasbag69
(g85
g71
NtRp3999
(dp4000
g74
(dp4001
sg83
g3970
sg76
(lp4002
g69
(g90
g71
NtRp4003
(dp4004
g74
(dp4005
sg83
g3999
sg76
(lp4006
g69
(g70
g71
NtRp4007
(dp4008
g74
(dp4009
g82
I1
ssg83
g4003
sg76
(lp4010
S'/admin/default/design/mycrawler'
p4011
asbasbasbag69
(g85
g71
NtRp4012
(dp4013
g74
(dp4014
sg83
g3970
sg76
(lp4015
g69
(g90
g71
NtRp4016
(dp4017
g74
(dp4018
sg83
g4012
sg76
(lp4019
g69
(g70
g71
NtRp4020
(dp4021
g74
(dp4022
g82
I1
ssg83
g4016
sg76
(lp4023
(lp4024
(g3786
(S't\n\x00\x00\x00Controller'
tRp4025
I00
S'/admin/default/edit/mycrawler/controllers/default.py'
tp4026
a(g3786
(S't\x04\x00\x00\x00View'
tRp4027
I00
S'/admin/default/edit/mycrawler/views/default/enter_info.html'
tp4028
a(g3786
(S't\x06\x00\x00\x00Layout'
tRp4029
I00
S'/admin/default/edit/mycrawler/views/layout.html'
tp4030
a(g3786
(S't\n\x00\x00\x00Stylesheet'
tRp4031
I00
S'/admin/default/edit/mycrawler/static/css/web2py.css'
tp4032
a(g3786
(S's\x08\x00\x00\x00DB Model'
tRp4033
I00
S'/admin/default/edit/mycrawler/models/db.py'
tp4034
a(g3786
(S's\n\x00\x00\x00Menu Model'
tRp4035
I00
S'/admin/default/edit/mycrawler/models/menu.py'
tp4036
a(g3786
(S't\x08\x00\x00\x00Database'
tRp4037
I00
S'/mycrawler/appadmin/index'
tp4038
a(g3786
(S't\x06\x00\x00\x00Errors'
tRp4039
I00
S'/admin/default/errors/mycrawler'
tp4040
a(g3786
(S't\x05\x00\x00\x00About'
tRp4041
I00
S'/admin/default/about/mycrawler'
tp4042
aasbasbasbasbasbasbasbag69
(g85
g71
NtRp4043
(dp4044
g74
(dp4045
sg83
g3900
sg76
(lp4046
g69
(g90
g71
NtRp4047
(dp4048
g74
(dp4049
sg83
g4043
sg76
(lp4050
g69
(g70
g71
NtRp4051
(dp4052
g74
(dp4053
g82
I2
ssg83
g4047
sg76
(lp4054
g69
(g78
g71
NtRp4055
(dp4056
g74
(dp4057
g82
I1
ssg83
Nsg76
(lp4058
g69
(g85
g71
NtRp4059
(dp4060
g74
(dp4061
sg83
g4055
sg76
(lp4062
g69
(g90
g71
NtRp4063
(dp4064
g74
(dp4065
sg83
g4059
sg76
(lp4066
g69
(g70
g71
NtRp4067
(dp4068
g74
(dp4069
g82
I1
ssg83
g4063
sg76
(lp4070
S'web2py.com'
p4071
asbasbasbag69
(g85
g71
NtRp4072
(dp4073
g74
(dp4074
sg83
g4055
sg76
(lp4075
g69
(g90
g71
NtRp4076
(dp4077
g74
(dp4078
sg83
g4072
sg76
(lp4079
g69
(g70
g71
NtRp4080
(dp4081
g74
(dp4082
g82
I1
ssg83
g4076
sg76
(lp4083
I00
asbasbasbag69
(g85
g71
NtRp4084
(dp4085
g74
(dp4086
sg83
g4055
sg76
(lp4087
g69
(g90
g71
NtRp4088
(dp4089
g74
(dp4090
sg83
g4084
sg76
(lp4091
g69
(g70
g71
NtRp4092
(dp4093
g74
(dp4094
g82
I1
ssg83
g4088
sg76
(lp4095
S'http://www.web2py.com'
p4096
asbasbasbag69
(g85
g71
NtRp4097
(dp4098
g74
(dp4099
sg83
g4055
sg76
(lp4100
g69
(g90
g71
NtRp4101
(dp4102
g74
(dp4103
sg83
g4097
sg76
(lp4104
g69
(g70
g71
NtRp4105
(dp4106
g74
(dp4107
g82
I1
ssg83
g4101
sg76
(lp4108
(lp4109
(g3786
(S't\x08\x00\x00\x00Download'
tRp4110
I00
S'http://www.web2py.com/examples/default/download'
p4111
tp4112
a(g3786
(S't\x07\x00\x00\x00Support'
tRp4113
I00
S'http://www.web2py.com/examples/default/support'
p4114
tp4115
a(g3786
(S't\x04\x00\x00\x00Demo'
tRp4116
I00
S'http://web2py.com/demo_admin'
p4117
tp4118
a(g3786
(S's\x0e\x00\x00\x00Quick Examples'
tRp4119
I00
S'http://web2py.com/examples/default/examples'
p4120
tp4121
a(g3786
(S't\x03\x00\x00\x00FAQ'
tRp4122
I00
S'http://web2py.com/AlterEgo'
p4123
tp4124
a(g3786
(S't\x06\x00\x00\x00Videos'
tRp4125
I00
S'http://www.web2py.com/examples/default/videos/'
p4126
tp4127
a(g3786
(S's\x11\x00\x00\x00Free Applications'
tRp4128
I00
S'http://web2py.com/appliances'
p4129
tp4130
a(g3786
(S't\x07\x00\x00\x00Plugins'
tRp4131
I00
S'http://web2py.com/plugins'
p4132
tp4133
a(g3786
(S't\x07\x00\x00\x00Layouts'
tRp4134
I00
S'http://web2py.com/layouts'
p4135
tp4136
a(g3786
(S't\x07\x00\x00\x00Recipes'
tRp4137
I00
S'http://web2pyslices.com/'
p4138
tp4139
a(g3786
(S't\x08\x00\x00\x00Semantic'
tRp4140
I00
S'http://web2py.com/semantic'
p4141
tp4142
aasbasbasbasbasbasbasbag69
(g85
g71
NtRp4143
(dp4144
g74
(dp4145
sg83
g3900
sg76
(lp4146
g69
(g90
g71
NtRp4147
(dp4148
g74
(dp4149
sg83
g4143
sg76
(lp4150
g69
(g70
g71
NtRp4151
(dp4152
g74
(dp4153
g82
I2
ssg83
g4147
sg76
(lp4154
g69
(g78
g71
NtRp4155
(dp4156
g74
(dp4157
g82
I1
ssg83
Nsg76
(lp4158
g69
(g85
g71
NtRp4159
(dp4160
g74
(dp4161
sg83
g4155
sg76
(lp4162
g69
(g90
g71
NtRp4163
(dp4164
g74
(dp4165
sg83
g4159
sg76
(lp4166
g69
(g70
g71
NtRp4167
(dp4168
g74
(dp4169
g82
I1
ssg83
g4163
sg76
(lp4170
g3786
(S't\r\x00\x00\x00Documentation'
tRp4171
asbasbasbag69
(g85
g71
NtRp4172
(dp4173
g74
(dp4174
sg83
g4155
sg76
(lp4175
g69
(g90
g71
NtRp4176
(dp4177
g74
(dp4178
sg83
g4172
sg76
(lp4179
g69
(g70
g71
NtRp4180
(dp4181
g74
(dp4182
g82
I1
ssg83
g4176
sg76
(lp4183
I00
asbasbasbag69
(g85
g71
NtRp4184
(dp4185
g74
(dp4186
sg83
g4155
sg76
(lp4187
g69
(g90
g71
NtRp4188
(dp4189
g74
(dp4190
sg83
g4184
sg76
(lp4191
g69
(g70
g71
NtRp4192
(dp4193
g74
(dp4194
g82
I1
ssg83
g4188
sg76
(lp4195
S'http://www.web2py.com/book'
p4196
asbasbasbag69
(g85
g71
NtRp4197
(dp4198
g74
(dp4199
sg83
g4155
sg76
(lp4200
g69
(g90
g71
NtRp4201
(dp4202
g74
(dp4203
sg83
g4197
sg76
(lp4204
g69
(g70
g71
NtRp4205
(dp4206
g74
(dp4207
g82
I1
ssg83
g4201
sg76
(lp4208
(lp4209
(g3786
(S't\x07\x00\x00\x00Preface'
tRp4210
I00
S'http://www.web2py.com/book/default/chapter/00'
p4211
tp4212
a(g3786
(S't\x0c\x00\x00\x00Introduction'
tRp4213
I00
S'http://www.web2py.com/book/default/chapter/01'
p4214
tp4215
a(g3786
(S't\x06\x00\x00\x00Python'
tRp4216
I00
S'http://www.web2py.com/book/default/chapter/02'
p4217
tp4218
a(g3786
(S't\x08\x00\x00\x00Overview'
tRp4219
I00
S'http://www.web2py.com/book/default/chapter/03'
p4220
tp4221
a(g3786
(S's\x08\x00\x00\x00The Core'
tRp4222
I00
S'http://www.web2py.com/book/default/chapter/04'
p4223
tp4224
a(g3786
(S's\t\x00\x00\x00The Views'
tRp4225
I00
S'http://www.web2py.com/book/default/chapter/05'
p4226
tp4227
a(g3786
(S't\x08\x00\x00\x00Database'
tRp4228
I00
S'http://www.web2py.com/book/default/chapter/06'
p4229
tp4230
a(g3786
(S's\x14\x00\x00\x00Forms and Validators'
tRp4231
I00
S'http://www.web2py.com/book/default/chapter/07'
p4232
tp4233
a(g3786
(S's\r\x00\x00\x00Email and SMS'
tRp4234
I00
S'http://www.web2py.com/book/default/chapter/08'
p4235
tp4236
a(g3786
(S's\x0e\x00\x00\x00Access Control'
tRp4237
I00
S'http://www.web2py.com/book/default/chapter/09'
p4238
tp4239
a(g3786
(S't\x08\x00\x00\x00Services'
tRp4240
I00
S'http://www.web2py.com/book/default/chapter/10'
p4241
tp4242
a(g3786
(S's\x0c\x00\x00\x00Ajax Recipes'
tRp4243
I00
S'http://www.web2py.com/book/default/chapter/11'
p4244
tp4245
a(g3786
(S's\x16\x00\x00\x00Components and Plugins'
tRp4246
I00
S'http://www.web2py.com/book/default/chapter/12'
p4247
tp4248
a(g3786
(S's\x12\x00\x00\x00Deployment Recipes'
tRp4249
I00
S'http://www.web2py.com/book/default/chapter/13'
p4250
tp4251
a(g3786
(S's\r\x00\x00\x00Other Recipes'
tRp4252
I00
S'http://www.web2py.com/book/default/chapter/14'
p4253
tp4254
a(g3786
(S's\r\x00\x00\x00Buy this book'
tRp4255
I00
S'http://stores.lulu.com/web2py'
p4256
tp4257
aasbasbasbasbasbasbasbag69
(g85
g71
NtRp4258
(dp4259
g74
(dp4260
sg83
g3900
sg76
(lp4261
g69
(g90
g71
NtRp4262
(dp4263
g74
(dp4264
sg83
g4258
sg76
(lp4265
g69
(g70
g71
NtRp4266
(dp4267
g74
(dp4268
g82
I2
ssg83
g4262
sg76
(lp4269
g69
(g78
g71
NtRp4270
(dp4271
g74
(dp4272
g82
I1
ssg83
Nsg76
(lp4273
g69
(g85
g71
NtRp4274
(dp4275
g74
(dp4276
sg83
g4270
sg76
(lp4277
g69
(g90
g71
NtRp4278
(dp4279
g74
(dp4280
sg83
g4274
sg76
(lp4281
g69
(g70
g71
NtRp4282
(dp4283
g74
(dp4284
g82
I1
ssg83
g4278
sg76
(lp4285
g3786
(S't\t\x00\x00\x00Community'
tRp4286
asbasbasbag69
(g85
g71
NtRp4287
(dp4288
g74
(dp4289
sg83
g4270
sg76
(lp4290
g69
(g90
g71
NtRp4291
(dp4292
g74
(dp4293
sg83
g4287
sg76
(lp4294
g69
(g70
g71
NtRp4295
(dp4296
g74
(dp4297
g82
I1
ssg83
g4291
sg76
(lp4298
I00
asbasbasbag69
(g85
g71
NtRp4299
(dp4300
g74
(dp4301
sg83
g4270
sg76
(lp4302
g69
(g90
g71
NtRp4303
(dp4304
g74
(dp4305
sg83
g4299
sg76
(lp4306
g69
(g70
g71
NtRp4307
(dp4308
g74
(dp4309
g82
I1
ssg83
g4303
sg76
(lp4310
Nasbasbasbag69
(g85
g71
NtRp4311
(dp4312
g74
(dp4313
sg83
g4270
sg76
(lp4314
g69
(g90
g71
NtRp4315
(dp4316
g74
(dp4317
sg83
g4311
sg76
(lp4318
g69
(g70
g71
NtRp4319
(dp4320
g74
(dp4321
g82
I1
ssg83
g4315
sg76
(lp4322
(lp4323
(g3786
(S't\x06\x00\x00\x00Groups'
tRp4324
I00
S'http://www.web2py.com/examples/default/usergroups'
p4325
tp4326
a(g3786
(S't\x07\x00\x00\x00Twitter'
tRp4327
I00
S'http://twitter.com/web2py'
p4328
tp4329
a(g3786
(S's\t\x00\x00\x00Live Chat'
tRp4330
I00
S'http://webchat.freenode.net/?channels=web2py'
p4331
tp4332
aasbasbasbasbasbasbasbag69
(g85
g71
NtRp4333
(dp4334
g74
(dp4335
sg83
g3900
sg76
(lp4336
g69
(g90
g71
NtRp4337
(dp4338
g74
(dp4339
sg83
g4333
sg76
(lp4340
g69
(g70
g71
NtRp4341
(dp4342
g74
(dp4343
g82
I2
ssg83
g4337
sg76
(lp4344
g69
(g78
g71
NtRp4345
(dp4346
g74
(dp4347
g82
I1
ssg83
Nsg76
(lp4348
g69
(g85
g71
NtRp4349
(dp4350
g74
(dp4351
sg83
g4345
sg76
(lp4352
g69
(g90
g71
NtRp4353
(dp4354
g74
(dp4355
sg83
g4349
sg76
(lp4356
g69
(g70
g71
NtRp4357
(dp4358
g74
(dp4359
g82
I1
ssg83
g4353
sg76
(lp4360
g3786
(S't\x07\x00\x00\x00Plugins'
tRp4361
asbasbasbag69
(g85
g71
NtRp4362
(dp4363
g74
(dp4364
sg83
g4345
sg76
(lp4365
g69
(g90
g71
NtRp4366
(dp4367
g74
(dp4368
sg83
g4362
sg76
(lp4369
g69
(g70
g71
NtRp4370
(dp4371
g74
(dp4372
g82
I1
ssg83
g4366
sg76
(lp4373
I00
asbasbasbag69
(g85
g71
NtRp4374
(dp4375
g74
(dp4376
sg83
g4345
sg76
(lp4377
g69
(g90
g71
NtRp4378
(dp4379
g74
(dp4380
sg83
g4374
sg76
(lp4381
g69
(g70
g71
NtRp4382
(dp4383
g74
(dp4384
g82
I1
ssg83
g4378
sg76
(lp4385
Nasbasbasbag69
(g85
g71
NtRp4386
(dp4387
g74
(dp4388
sg83
g4345
sg76
(lp4389
g69
(g90
g71
NtRp4390
(dp4391
g74
(dp4392
sg83
g4386
sg76
(lp4393
g69
(g70
g71
NtRp4394
(dp4395
g74
(dp4396
g82
I1
ssg83
g4390
sg76
(lp4397
(lp4398
(S'plugin_wiki'
p4399
I00
S'http://web2py.com/examples/default/download'
p4400
tp4401
a(g3786
(S's\r\x00\x00\x00Other Plugins'
tRp4402
I00
g4132
tp4403
a(g3786
(S's\x0e\x00\x00\x00Layout Plugins'
tRp4404
I00
g4135
tp4405
aasbasbasbasbasbasbasbasbasbasbasbasbasbasbasbasbasbasbasbag69
(g85
g71
NtRp4406
(dp4407
g74
(dp4408
sg83
g3230
sg76
(lp4409
g69
(g90
g71
NtRp4410
(dp4411
g74
(dp4412
g94
g95
ssg83
g4406
sg76
(lp4413
S'meta'
p4414
asbag69
(g90
g71
NtRp4415
(dp4416
g74
(dp4417
g101
g102
ssg83
g4406
sg76
(lp4418
S':'
asbag69
(g90
g71
NtRp4419
(dp4420
g74
(dp4421
sg83
g4406
sg76
(lp4422
g69
(g70
g71
NtRp4423
(dp4424
g74
(dp4425
g82
I5
ssg83
g4419
sg76
(lp4426
g69
(g78
g71
NtRp4427
(dp4428
g74
(dp4429
g82
I4
ssg83
Nsg76
(lp4430
g69
(g85
g71
NtRp4431
(dp4432
g74
(dp4433
sg83
g4427
sg76
(lp4434
g69
(g90
g71
NtRp4435
(dp4436
g74
(dp4437
g94
g95
ssg83
g4431
sg76
(lp4438
S'author'
p4439
asbag69
(g90
g71
NtRp4440
(dp4441
g74
(dp4442
g101
g102
ssg83
g4431
sg76
(lp4443
S':'
asbag69
(g90
g71
NtRp4444
(dp4445
g74
(dp4446
sg83
g4431
sg76
(lp4447
g69
(g70
g71
NtRp4448
(dp4449
g74
(dp4450
g82
I4
ssg83
g4444
sg76
(lp4451
S'Your Name <you@example.com>'
p4452
asbasbasbag69
(g85
g71
NtRp4453
(dp4454
g74
(dp4455
sg83
g4427
sg76
(lp4456
g69
(g90
g71
NtRp4457
(dp4458
g74
(dp4459
g94
g95
ssg83
g4453
sg76
(lp4460
S'copyright'
p4461
asbag69
(g90
g71
NtRp4462
(dp4463
g74
(dp4464
g101
g102
ssg83
g4453
sg76
(lp4465
S':'
asbag69
(g90
g71
NtRp4466
(dp4467
g74
(dp4468
sg83
g4453
sg76
(lp4469
g69
(g70
g71
NtRp4470
(dp4471
g74
(dp4472
g82
I4
ssg83
g4466
sg76
(lp4473
S'Copyright 2011'
p4474
asbasbasbag69
(g85
g71
NtRp4475
(dp4476
g74
(dp4477
sg83
g4427
sg76
(lp4478
g69
(g90
g71
NtRp4479
(dp4480
g74
(dp4481
g94
g95
ssg83
g4475
sg76
(lp4482
S'description'
p4483
asbag69
(g90
g71
NtRp4484
(dp4485
g74
(dp4486
g101
g102
ssg83
g4475
sg76
(lp4487
S':'
asbag69
(g90
g71
NtRp4488
(dp4489
g74
(dp4490
sg83
g4475
sg76
(lp4491
g69
(g70
g71
NtRp4492
(dp4493
g74
(dp4494
g82
I4
ssg83
g4488
sg76
(lp4495
S'a cool new app'
p4496
asbasbasbag69
(g85
g71
NtRp4497
(dp4498
g74
(dp4499
sg83
g4427
sg76
(lp4500
g69
(g90
g71
NtRp4501
(dp4502
g74
(dp4503
g94
g95
ssg83
g4497
sg76
(lp4504
S'generator'
p4505
asbag69
(g90
g71
NtRp4506
(dp4507
g74
(dp4508
g101
g102
ssg83
g4497
sg76
(lp4509
S':'
asbag69
(g90
g71
NtRp4510
(dp4511
g74
(dp4512
sg83
g4497
sg76
(lp4513
g69
(g70
g71
NtRp4514
(dp4515
g74
(dp4516
g82
I4
ssg83
g4510
sg76
(lp4517
S'Web2py Web Framework'
p4518
asbasbasbag69
(g85
g71
NtRp4519
(dp4520
g74
(dp4521
sg83
g4427
sg76
(lp4522
g69
(g90
g71
NtRp4523
(dp4524
g74
(dp4525
g94
g95
ssg83
g4519
sg76
(lp4526
S'keywords'
p4527
asbag69
(g90
g71
NtRp4528
(dp4529
g74
(dp4530
g101
g102
ssg83
g4519
sg76
(lp4531
S':'
asbag69
(g90
g71
NtRp4532
(dp4533
g74
(dp4534
sg83
g4519
sg76
(lp4535
g69
(g70
g71
NtRp4536
(dp4537
g74
(dp4538
g82
I4
ssg83
g4532
sg76
(lp4539
S'web2py, python, framework'
p4540
asbasbasbasbasbasbasbag69
(g85
g71
NtRp4541
(dp4542
g74
(dp4543
sg83
g3230
sg76
(lp4544
g69
(g90
g71
NtRp4545
(dp4546
g74
(dp4547
g94
g95
ssg83
g4541
sg76
(lp4548
S'postprocessing'
p4549
asbag69
(g90
g71
NtRp4550
(dp4551
g74
(dp4552
g101
g102
ssg83
g4541
sg76
(lp4553
S':'
asbag69
(g90
g71
NtRp4554
(dp4555
g74
(dp4556
sg83
g4541
sg76
(lp4557
g69
(g70
g71
NtRp4558
(dp4559
g74
(dp4560
g82
I5
ssg83
g4554
sg76
(lp4561
g69
(g78
g71
NtRp4562
(dp4563
g74
(dp4564
g82
I4
ssg83
Nsg76
(lp4565
sbasbasbasbag69
(g85
g71
NtRp4566
(dp4567
g74
(dp4568
sg83
g3230
sg76
(lp4569
g69
(g90
g71
NtRp4570
(dp4571
g74
(dp4572
g94
g95
ssg83
g4566
sg76
(lp4573
S'session_file'
p4574
asbag69
(g90
g71
NtRp4575
(dp4576
g74
(dp4577
g101
g102
ssg83
g4566
sg76
(lp4578
S':'
asbag69
(g90
g71
NtRp4579
(dp4580
g74
(dp4581
sg83
g4566
sg76
(lp4582
g69
(g70
g71
NtRp4583
(dp4584
g74
(dp4585
g82
I5
ssg83
g4579
sg76
(lp4586
S"<open file 'C:\\Documents and Settings\\agrover\\Desktop\\previous crawler\\web2py\\applications\\mycrawler\\sessions\\127.0.0.1-05d302d9-dfe2-4e60-ab26-5eeb721fac09', mode 'rb+' at 0x0148B808>"
p4587
asbasbasbag69
(g85
g71
NtRp4588
(dp4589
g74
(dp4590
sg83
g3230
sg76
(lp4591
g69
(g90
g71
NtRp4592
(dp4593
g74
(dp4594
g94
g95
ssg83
g4588
sg76
(lp4595
S'session_filename'
p4596
asbag69
(g90
g71
NtRp4597
(dp4598
g74
(dp4599
g101
g102
ssg83
g4588
sg76
(lp4600
S':'
asbag69
(g90
g71
NtRp4601
(dp4602
g74
(dp4603
sg83
g4588
sg76
(lp4604
g69
(g70
g71
NtRp4605
(dp4606
g74
(dp4607
g82
I5
ssg83
g4601
sg76
(lp4608
S'C:\\Documents and Settings\\agrover\\Desktop\\previous crawler\\web2py\\applications\\mycrawler\\sessions\\127.0.0.1-05d302d9-dfe2-4e60-ab26-5eeb721fac09'
p4609
asbasbasbag69
(g85
g71
NtRp4610
(dp4611
g74
(dp4612
sg83
g3230
sg76
(lp4613
g69
(g90
g71
NtRp4614
(dp4615
g74
(dp4616
g94
g95
ssg83
g4610
sg76
(lp4617
S'session_id'
p4618
asbag69
(g90
g71
NtRp4619
(dp4620
g74
(dp4621
g101
g102
ssg83
g4610
sg76
(lp4622
S':'
asbag69
(g90
g71
NtRp4623
(dp4624
g74
(dp4625
sg83
g4610
sg76
(lp4626
g69
(g70
g71
NtRp4627
(dp4628
g74
(dp4629
g82
I5
ssg83
g4623
sg76
(lp4630
S'127.0.0.1-05d302d9-dfe2-4e60-ab26-5eeb721fac09'
p4631
asbasbasbag69
(g85
g71
NtRp4632
(dp4633
g74
(dp4634
sg83
g3230
sg76
(lp4635
g69
(g90
g71
NtRp4636
(dp4637
g74
(dp4638
g94
g95
ssg83
g4632
sg76
(lp4639
S'session_id_name'
p4640
asbag69
(g90
g71
NtRp4641
(dp4642
g74
(dp4643
g101
g102
ssg83
g4632
sg76
(lp4644
S':'
asbag69
(g90
g71
NtRp4645
(dp4646
g74
(dp4647
sg83
g4632
sg76
(lp4648
g69
(g70
g71
NtRp4649
(dp4650
g74
(dp4651
g82
I5
ssg83
g4645
sg76
(lp4652
g3287
asbasbasbag69
(g85
g71
NtRp4653
(dp4654
g74
(dp4655
sg83
g3230
sg76
(lp4656
g69
(g90
g71
NtRp4657
(dp4658
g74
(dp4659
g94
g95
ssg83
g4653
sg76
(lp4660
S'session_locked'
p4661
asbag69
(g90
g71
NtRp4662
(dp4663
g74
(dp4664
g101
g102
ssg83
g4653
sg76
(lp4665
S':'
asbag69
(g90
g71
NtRp4666
(dp4667
g74
(dp4668
sg83
g4653
sg76
(lp4669
g69
(g70
g71
NtRp4670
(dp4671
g74
(dp4672
g82
I5
ssg83
g4666
sg76
(lp4673
g1853
asbasbasbag69
(g85
g71
NtRp4674
(dp4675
g74
(dp4676
sg83
g3230
sg76
(lp4677
g69
(g90
g71
NtRp4678
(dp4679
g74
(dp4680
g94
g95
ssg83
g4674
sg76
(lp4681
S'session_new'
p4682
asbag69
(g90
g71
NtRp4683
(dp4684
g74
(dp4685
g101
g102
ssg83
g4674
sg76
(lp4686
S':'
asbag69
(g90
g71
NtRp4687
(dp4688
g74
(dp4689
sg83
g4674
sg76
(lp4690
g69
(g70
g71
NtRp4691
(dp4692
g74
(dp4693
g82
I5
ssg83
g4687
sg76
(lp4694
g112
asbasbasbag69
(g85
g71
NtRp4695
(dp4696
g74
(dp4697
sg83
g3230
sg76
(lp4698
g69
(g90
g71
NtRp4699
(dp4700
g74
(dp4701
g94
g95
ssg83
g4695
sg76
(lp4702
S'status'
p4703
asbag69
(g90
g71
NtRp4704
(dp4705
g74
(dp4706
g101
g102
ssg83
g4695
sg76
(lp4707
S':'
asbag69
(g90
g71
NtRp4708
(dp4709
g74
(dp4710
sg83
g4695
sg76
(lp4711
g69
(g70
g71
NtRp4712
(dp4713
g74
(dp4714
g82
I5
ssg83
g4708
sg76
(lp4715
S'200'
p4716
asbasbasbag69
(g85
g71
NtRp4717
(dp4718
g74
(dp4719
sg83
g3230
sg76
(lp4720
g69
(g90
g71
NtRp4721
(dp4722
g74
(dp4723
g94
g95
ssg83
g4717
sg76
(lp4724
S'subtitle'
p4725
asbag69
(g90
g71
NtRp4726
(dp4727
g74
(dp4728
g101
g102
ssg83
g4717
sg76
(lp4729
S':'
asbag69
(g90
g71
NtRp4730
(dp4731
g74
(dp4732
sg83
g4717
sg76
(lp4733
g69
(g70
g71
NtRp4734
(dp4735
g74
(dp4736
g82
I5
ssg83
g4730
sg76
(lp4737
g3786
(S's\r\x00\x00\x00customize me!'
tRp4738
asbasbasbag69
(g85
g71
NtRp4739
(dp4740
g74
(dp4741
sg83
g3230
sg76
(lp4742
g69
(g90
g71
NtRp4743
(dp4744
g74
(dp4745
g94
g95
ssg83
g4739
sg76
(lp4746
S'title'
p4747
asbag69
(g90
g71
NtRp4748
(dp4749
g74
(dp4750
g101
g102
ssg83
g4739
sg76
(lp4751
S':'
asbag69
(g90
g71
NtRp4752
(dp4753
g74
(dp4754
sg83
g4739
sg76
(lp4755
g69
(g70
g71
NtRp4756
(dp4757
g74
(dp4758
g82
I5
ssg83
g4752
sg76
(lp4759
S'Mycrawler'
p4760
asbasbasbag69
(g85
g71
NtRp4761
(dp4762
g74
(dp4763
sg83
g3230
sg76
(lp4764
g69
(g90
g71
NtRp4765
(dp4766
g74
(dp4767
g94
g95
ssg83
g4761
sg76
(lp4768
g2517
asbag69
(g90
g71
NtRp4769
(dp4770
g74
(dp4771
g101
g102
ssg83
g4761
sg76
(lp4772
S':'
asbag69
(g90
g71
NtRp4773
(dp4774
g74
(dp4775
sg83
g4761
sg76
(lp4776
g69
(g70
g71
NtRp4777
(dp4778
g74
(dp4779
g82
I5
ssg83
g4773
sg76
(lp4780
g2530
asbasbasbag69
(g85
g71
NtRp4781
(dp4782
g74
(dp4783
sg83
g3230
sg76
(lp4784
g69
(g90
g71
NtRp4785
(dp4786
g74
(dp4787
g94
g95
ssg83
g4781
sg76
(lp4788
S'view'
p4789
asbag69
(g90
g71
NtRp4790
(dp4791
g74
(dp4792
g101
g102
ssg83
g4781
sg76
(lp4793
S':'
asbag69
(g90
g71
NtRp4794
(dp4795
g74
(dp4796
sg83
g4781
sg76
(lp4797
g69
(g70
g71
NtRp4798
(dp4799
g74
(dp4800
g82
I5
ssg83
g4794
sg76
(lp4801
S'default/enter_info.html'
p4802
asbasbasbasbasbsS'locals'
p4803
(dp4804
g4
S"r'C:\\Documents and Settings\\agrover\\Desktop\\previo...2py\\applications\\mycrawler\\controllers/default.py'"
p4805
sg6
S"'# -*- coding: utf-8 -*-\\n# this file is released ...itl\\n\\nresponse._vars=response._caller(enter_info)\\n'"
p4806
sssS'traceback'
p4807
S'Traceback (most recent call last):\n  File "C:\\Documents and Settings\\agrover\\Desktop\\previous crawler\\web2py\\gluon\\restricted.py", line 204, in restricted\n    ccode = compile2(code,layer)\n  File "C:\\Documents and Settings\\agrover\\Desktop\\previous crawler\\web2py\\gluon\\restricted.py", line 189, in compile2\n    return compile(code.rstrip().replace(\'\\r\\n\',\'\\n\')+\'\\n\', layer, \'exec\')\n  File "C:\\Documents and Settings\\agrover\\Desktop\\previous crawler\\web2py\\applications\\mycrawler\\controllers/default.py", line 78\n    return (form=form)\n                ^\nSyntaxError: invalid syntax\n'
p4808
s.