(dp1
S'output'
p2
S"<type 'exceptions.TypeError'> argument 1 must be an iterator"
p3
sS'layer'
p4
S'C:\\Documents and Settings\\agrover\\Desktop\\previous crawler\\web2py\\applications\\mycrawler\\controllers/default.py'
p5
sS'code'
p6
S'# -*- coding: utf-8 -*-\n# this file is released under public domain and you can use without limitations\n\n#########################################################################\n## This is a samples controller\n## - index is the default action of any application\n## - user is required for authentication and authorization\n## - download is for downloading files uploaded in the db (does streaming)\n## - call exposes all registered services (none by default)\n#########################################################################\nimport cStringIO\nimport csv\nimport re\nimport string\nimport subprocess\nimport time\ncountry=[\'United States\', \'Afghanistan\', \'Aland Islands\', \'Albania\', \'Algeria\', \'American Samoa\', \'Andorra\', \'Angola\', \'Anguilla\', \'Antarctica\', \'Antigua and Barbuda\', \'Argentina\', \'Armenia\', \'Aruba\', \'Australia\', \'Austria\', \'Azerbaijan\', \'Bahamas\', \'Bahrain\', \'Bangladesh\', \'Barbados\', \'Belarus\', \'Belgium\', \'Belize\', \'Benin\', \'Bermuda\', \'Bhutan\', \'Bolivia\', \'Bosnia and Herzegovina\', \'Botswana\', \'Brazil\', \'British Indian Ocean Territory\', \'Brunei Darussalam\', \'Bulgaria\', \'Burkina Faso\', \'Burundi\', \'Cambodia\', \'Cameroon\', \'Canada\', \'Cape Verde\', \'Caribbean Nations\', \'Cayman Islands\', \'Central African Republic\', \'Chad\', \'Chile\', \'China\', \'Christmas Island\', \'Cocos (Keeling) Islands\', \'Colombia\', \'Comoros\', \'Congo\', \'Cook Islands\', \'Costa Rica\', "Cote D\'Ivoire (Ivory Coast)", \'Croatia\', \'Cuba\', \'Cyprus\', \'Czech Republic\', \'Democratic Republic of the Congo\', \'Denmark\', \'Djibouti\', \'Dominica\', \'Dominican Republic\', \'East Timor\', \'Ecuador\', \'Egypt\', \'El Salvador\', \'Equatorial Guinea\', \'Eritrea\', \'Estonia\', \'Ethiopia\', \'Falkland Islands (Malvinas)\', \'Faroe Islands\', \'Federated States of Micronesia\', \'Fiji\', \'Finland\', \'France\', \'French Guiana\', \'French Polynesia\', \'French Southern Territories\', \'Gabon\', \'Gambia\', \'Georgia\', \'Germany\', \'Ghana\', \'Gibraltar\', \'Greece\', \'Greenland\', \'Grenada\', \'Guadeloupe\', \'Guam\', \'Guatemala\', \'Guernsey\', \'Guinea\', \'Guinea-Bissau\', \'Guyana\', \'Haiti\', \'Honduras\', \'Hong Kong\', \'Hungary\', \'Iceland\', \'India\', \'Indonesia\', \'Iran\', \'Iraq\', \'Ireland\', \'Isle of Man\', \'Israel\', \'Italy\', \'Jamaica\', \'Japan\', \'Jersey\', \'Jordan\', \'Kazakhstan\', \'Kenya\', \'Kiribati\', \'Korea\', \'Korea (North)\', \'Kuwait\', \'Kyrgyzstan\', \'Laos\', \'Latvia\', \'Lebanon\', \'Lesotho\', \'Liberia\', \'Libya\', \'Liechtenstein\', \'Lithuania\', \'Luxembourg\', \'Macao\', \'Macedonia\', \'Madagascar\', \'Malawi\', \'Malaysia\', \'Maldives\', \'Mali\', \'Malta\', \'Marshall Islands\', \'Martinique\', \'Mauritania\', \'Mauritius\', \'Mayotte\', \'Mexico\', \'Moldova\', \'Monaco\', \'Mongolia\', \'Montenegro\', \'Montserrat\', \'Morocco\', \'Mozambique\', \'Myanmar\', \'Namibia\', \'Nauru\', \'Nepal\', \'Netherlands\', \'Netherlands Antilles\', \'New Caledonia\', \'New Zealand\', \'Nicaragua\', \'Niger\', \'Nigeria\', \'Niue\', \'Norfolk Island\', \'Northern Mariana Islands\', \'Norway\', \'Oman\', \'Pakistan\', \'Palau\', \'Palestinian Territory\', \'Panama\', \'Papua New Guinea\', \'Paraguay\', \'Peru\', \'Philippines\', \'Pitcairn\', \'Poland\', \'Portugal\', \'Puerto Rico\', \'Qatar\', \'Reunion\', \'Romania\', \'Russian Federation\', \'Rwanda\', \'Saint Helena\', \'Saint Kitts and Nevis\', \'Saint Lucia\', \'Saint Pierre and Miquelon\', \'Saint Vincent and the Grenadines\', \'Samoa\', \'San Marino\', \'Sao Tome and Principe\', \'Saudi Arabia\', \'Senegal\', \'Serbia\', \'Seychelles\', \'Sierra Leone\', \'Singapore\', \'Slovak Republic\', \'Slovenia\', \'Solomon Islands\', \'Somalia\', \'South Africa\', \'Spain\', \'Sri Lanka\', \'Sudan\', \'Suriname\', \'Svalbard and Jan Mayen\', \'Swaziland\', \'Sweden\', \'Switzerland\', \'Syria\', \'Taiwan\', \'Tajikistan\', \'Tanzania\', \'Thailand\', \'Timor-Leste\', \'Togo\', \'Tokelau\', \'Tonga\', \'Trinidad and Tobago\', \'Tunisia\', \'Turkey\', \'Turkmenistan\', \'Turks and Caicos Islands\', \'Tuvalu\', \'Uganda\', \'Ukraine\', \'United Arab Emirates\', \'United Kingdom\', \'Uruguay\', \'Uzbekistan\', \'Vanuatu\', \'Vatican City State (Holy See)\', \'Venezuela\', \'Vietnam\', \'Virgin Islands (British)\', \'Virgin Islands (U.S.)\', \'Wallis and Futuna\', \'Western Sahara\', \'Yemen\', \'Zambia\', \'Zimbabwe\', \'Other\']\n    \ncountryid=[\'us\', \'af\', \'ax\', \'al\', \'dz\', \'as\', \'ad\', \'ao\', \'ai\', \'aq\', \'ag\', \'ar\', \'am\', \'aw\', \'au\', \'at\', \'az\', \'bs\', \'bh\', \'bd\', \'bb\', \'by\', \'be\', \'bz\', \'bj\', \'bm\', \'bt\', \'bo\', \'ba\', \'bw\', \'br\', \'io\', \'bn\', \'bg\', \'bf\', \'bi\', \'kh\', \'cm\', \'ca\', \'cv\', \'cb\', \'ky\', \'cf\', \'td\', \'cl\', \'cn\', \'cx\', \'cc\', \'co\', \'km\', \'cg\', \'ck\', \'cr\', \'ci\', \'hr\', \'cu\', \'cy\', \'cz\', \'cd\', \'dk\', \'dj\', \'dm\', \'do\', \'tp\', \'ec\', \'eg\', \'sv\', \'gq\', \'er\', \'ee\', \'et\', \'fk\', \'fo\', \'fm\', \'fj\', \'fi\', \'fr\', \'gf\', \'pf\', \'tf\', \'ga\', \'gm\', \'ge\', \'de\', \'gh\', \'gi\', \'gr\', \'gl\', \'gd\', \'gp\', \'gu\', \'gt\', \'gg\', \'gn\', \'gw\', \'gy\', \'ht\', \'hn\', \'hk\', \'hu\', \'is\', \'in\', \'id\', \'ir\', \'iq\', \'ie\', \'im\', \'il\', \'it\', \'jm\', \'jp\', \'je\', \'jo\', \'kz\', \'ke\', \'ki\', \'kr\', \'kp\', \'kw\', \'kg\', \'la\', \'lv\', \'lb\', \'ls\', \'lr\', \'ly\', \'li\', \'lt\', \'lu\', \'mo\', \'mk\', \'mg\', \'mw\', \'my\', \'mv\', \'ml\', \'mt\', \'mh\', \'mq\', \'mr\', \'mu\', \'yt\', \'mx\', \'md\', \'mc\', \'mn\', \'me\', \'ms\', \'ma\', \'mz\', \'mm\', \'na\', \'nr\', \'np\', \'nl\', \'an\', \'nc\', \'nz\', \'ni\', \'ne\', \'ng\', \'nu\', \'nf\', \'mp\', \'no\', \'om\', \'pk\', \'pw\', \'ps\', \'pa\', \'pg\', \'py\', \'pe\', \'ph\', \'pn\', \'pl\', \'pt\', \'pr\', \'qa\', \'re\', \'ro\', \'ru\', \'rw\', \'sh\', \'kn\', \'lc\', \'pm\', \'vc\', \'ws\', \'sm\', \'st\', \'sa\', \'sn\', \'rs\', \'sc\', \'sl\', \'sg\', \'sk\', \'si\', \'sb\', \'so\', \'za\', \'es\', \'lk\', \'sd\', \'sr\', \'sj\', \'sz\', \'se\', \'ch\', \'sy\', \'tw\', \'tj\', \'tz\', \'th\', \'tl\', \'tg\', \'tk\', \'to\', \'tt\', \'tn\', \'tr\', \'tm\', \'tc\', \'tv\', \'ug\', \'ua\', \'ae\', \'gb\', \'uy\', \'uz\', \'vu\', \'va\', \'ve\', \'vn\', \'vg\', \'vi\', \'wf\', \'eh\', \'ye\', \'zm\', \'zw\', \'oo\']\n\nindustries=[\'All Industries\',\'Accounting\', \'Airlines/Aviation\', \'Alternative Dispute Resolution\', \'Alternative Medicine\', \'Animation\', \'Apparel & Fashion\', \'Architecture & Planning\', \'Arts and Crafts\', \'Automotive\', \'Aviation & Aerospace\', \'Banking\', \'Biotechnology\', \'Broadcast Media\', \'Building Materials\', \'Business Supplies and Equipment\', \'Capital Markets\', \'Chemicals\', \'Civic & Social Organization\', \'Civil Engineering\', \'Commercial Real Estate\', \'Computer & Network Security\', \'Computer Games\', \'Computer Hardware\', \'Computer Networking\', \'Computer Software\', \'Construction\', \'Consumer Electronics\', \'Consumer Goods\', \'Consumer Services\', \'Cosmetics\', \'Dairy\', \'Defense & Space\', \'Design\', \'Education Management\', \'E-Learning\', \'Electrical/Electronic Manufacturing\', \'Entertainment\', \'Environmental Services\', \'Events Services\', \'Executive Office\', \'Facilities Services\', \'Farming\', \'Financial Services\', \'Fine Art\', \'Fishery\', \'Food & Beverages\', \'Food Production\', \'Fund-Raising\', \'Furniture\', \'Gambling & Casinos\', \'Glass, Ceramics & Concrete\', \'Government Administration\', \'Government Relations\', \'Graphic Design\', \'Health, Wellness and Fitness\', \'Higher Education\', \'Hospital & Health Care\', \'Hospitality\', \'Human Resources\', \'Import and Export\', \'Individual & Family Services\', \'Industrial Automation\', \'Information Services\', \'Information Technology and Services\', \'Insurance\', \'International Affairs\', \'International Trade and Development\', \'Internet\', \'Investment Banking\', \'Investment Management\', \'Judiciary\', \'Law Enforcement\', \'Law Practice\', \'Legal Services\', \'Legislative Office\', \'Leisure, Travel & Tourism\', \'Libraries\', \'Logistics and Supply Chain\', \'Luxury Goods & Jewelry\', \'Machinery\', \'Management Consulting\', \'Maritime\', \'Marketing and Advertising\', \'Market Research\', \'Mechanical or Industrial Engineering\', \'Media Production\', \'Medical Devices\', \'Medical Practice\', \'Mental Health Care\', \'Military\', \'Mining & Metals\', \'Motion Pictures and Film\', \'Museums and Institutions\', \'Music\', \'Nanotechnology\', \'Newspapers\', \'Nonprofit Organization Management\', \'Oil & Energy\', \'Online Media\', \'Outsourcing/Offshoring\', \'Package/Freight Delivery\', \'Packaging and Containers\', \'Paper & Forest Products\', \'Performing Arts\', \'Pharmaceuticals\', \'Philanthropy\', \'Photography\', \'Plastics\', \'Political Organization\', \'Primary/Secondary Education\', \'Printing\', \'Professional Training & Coaching\', \'Program Development\', \'Public Policy\', \'Public Relations and Communications\', \'Public Safety\', \'Publishing\', \'Railroad Manufacture\', \'Ranching\', \'Real Estate\', \'Recreational Facilities and Services\', \'Religious Institutions\', \'Renewables & Environment\', \'Research\', \'Restaurants\', \'Retail\', \'Security and Investigations\', \'Semiconductors\', \'Shipbuilding\', \'Sporting Goods\', \'Sports\', \'Staffing and Recruiting\', \'Supermarkets\', \'Telecommunications\', \'Textiles\', \'Think Tanks\', \'Tobacco\', \'Translation and Localization\', \'Transportation/Trucking/Railroad\', \'Utilities\', \'Venture Capital & Private Equity\', \'Veterinary\', \'Warehousing\', \'Wholesale\', \'Wine and Spirits\', \'Wireless\', \'Writing and Editing\']\n\nseniority=[\'All Seniority Levels\', \'Manager\', \'Owner\', \'Partner\', \'CXO\', \'VP\', \'Director\', \'Senior\', \'Entry\', \'Students & Interns\', \'Volunteer\']\n\nfunctions=[\'All Functions\', \'Academics\', \'Accounting\', \'Administrative\', \'Business development\', \'Buyer\', \'Consultant\', \'Creative\', \'Engineering\', \'Entrepreneur\', \'Finance\', \'Human resources\', \'Information technology\', \'Legal\', \'Marketing\', \'Medical\', \'Operations\', \'Product\', \'Public relations\', \'Real estate\', \'Sales\', \'Support\']\n\n#THIS IS THE LOGIN PAGE\ndef index():\n    """\n    example action using the internationalization operator T and flash\n    rendered by views/default/index.html or views/generic.html\n    """\n    #login form\n    form = SQLFORM.factory(\n       Field(\'LinkedIn_User_Id\'),\n       Field(\'Password\',type=\'password\'))\n       \n    #checking if there is already a user logged in,i.e. creating a session\n    if session.username:\n        session.flash =\'Login Successful\'\n        redirect(URL(r=request,f=\'enter_info\')) \n       \n\n    session.username=request.vars.LinkedIn_User_Id\n    session.password=request.vars.Password\n    #if form is accepted call enterinfo function\n    if form.process().accepted:\n        session.flash =T(\'Login Successful\')\n        redirect(URL(r=request,f=\'enter_info\')) \n    return dict(form=form)   \n\ndef user():\n    """\n    exposes:\n    http://..../[app]/default/user/login\n    http://..../[app]/default/user/logout\n    http://..../[app]/default/user/register\n    http://..../[app]/default/user/profile\n    http://..../[app]/default/user/retrieve_password\n    http://..../[app]/default/user/change_password\n    use @auth.requires_login()\n        @auth.requires_membership(\'group name\')\n        @auth.requires_permission(\'read\',\'table name\',record_id)\n    to decorate functions that need access control\n    """\n    return dict(form=auth())\n\n\ndef download():\n    """\n    allows downloading of uploaded files\n    http://..../[app]/default/download/[filename]\n    """\n    return response.download(request,db)\n\n\ndef call():\n    """\n    exposes services. for example:\n    http://..../[app]/default/call/jsonrpc\n    decorate with @services.jsonrpc the functions to expose\n    supports xml, json, xmlrpc, jsonrpc, amfrpc, rss, csv\n    """\n    return service()\n\n\n@auth.requires_signature()\ndef data():\n    """\n    http://..../[app]/default/data/tables\n    http://..../[app]/default/data/create/[table]\n    http://..../[app]/default/data/read/[table]/[id]\n    http://..../[app]/default/data/update/[table]/[id]\n    http://..../[app]/default/data/delete/[table]/[id]\n    http://..../[app]/default/data/select/[table]\n    http://..../[app]/default/data/search/[table]\n    but URLs must be signed, i.e. linked with\n      A(\'table\',_href=URL(\'data/tables\',user_signature=True))\n    or with the signed load operator\n      LOAD(\'default\',\'data.load\',args=\'tables\',ajax=True,user_signature=True)\n    """\n    return dict(form=crud())\n\n  \ndef enter_info():\n    #form for entering information\n    form = SQLFORM.factory(\n       Field(\'First_Name\'),\n       Field(\'Last_Name\'),\n       Field(\'Keywords\'),\n       Field(\'Title\'),\n       Field(\'Company\'),\n       Field(\'School\'),\n       Field(\'File_Name\',requires=IS_NOT_EMPTY()),\n       Field(\'Country\',requires=IS_IN_SET(country),default=\'United States\'),\n       Field(\'Industry\',requires=IS_IN_SET(industries,multiple=\'multiple\'),default=\'All Industries\'),\n       Field(\'Seniority_Levels\',requires=IS_IN_SET(seniority,multiple=\'multiple\'),default=\'All Seniority Levels\'),\n       Field(\'Functions\',requires=IS_IN_SET(functions,multiple=\'multiple\'),default=\'All Functions\'))\n\n    #response.flash = \'Refresh Page After Each Query\'\n    #if form accepted redirect to search function\n    if form.process().accepted:\n        response.flash = \'Refresh Page After Each Query\'\n        redirect(URL(r=request,f=\'search\',vars=request.vars))\n    elif form.errors:\n        response.flash = \'form has errors\'\n    return dict(form=form)\n    \n    \n\ndef search():\n    import mechanize\n    import cookielib\n    import html2text\n    from bs4 import BeautifulSoup\n    # Browser    \n    br = mechanize.Browser()\n\n    # Cookie Jar\n    cj = cookielib.LWPCookieJar()\n    br.set_cookiejar(cj)\n\n    # Browser options\n    br.set_handle_equiv(True)\n    br.set_handle_gzip(True)\n    br.set_handle_redirect(True)\n    br.set_handle_referer(True)\n    br.set_handle_robots(False)\n\n    # Follows refresh 0 but not hangs on refresh > 0\n    br.set_handle_refresh(mechanize._http.HTTPRefreshProcessor(), max_time=1)\n\n    # User-Agent (this is cheating, ok?)\n    br.addheaders = [(\'User-agent\', \'Mozilla/5.0 (X11; U; Linux i686; en-US; rv:1.9.0.1) Gecko/2008071615 Fedora/3.0.1-1.fc9 Firefox/3.0.1\')]\n\n\n    # The site we will navigate into, handling it\'s session    \n    br.open(\'https://www.linkedin.com\')\n\n    # Select the first (index zero) form\n    br.select_form(nr=0)\n\n    # User credentials\n    #br.form[\'session_key\'] = \'mrigeshgaurav@gmail.com\'\n    #br.form[\'session_password\'] = \'modeln@1234\'\n    \n    #entering username and password user provided at login\n    br.form[\'session_key\'] = session.username\n    br.form[\'session_password\'] = session.password\n    \n    \n    # Login by submitting form br\n    br.submit()\n    \n    #opening the advanced search page straight away\n    br.open(\'http://www.linkedin.com/search?trk=advsrch\')\n    \n    #selecting the 1st form\n    br.select_form(nr=1)\n\n    #entering various fields and filters\n    if request.vars.Last_Name:\n        br["lname"]=request.vars.Last_Name\n\n    if request.vars.First_Name:\n        br["fname"]=request.vars.First_Name\n    \n    if request.vars.Keywords:\n        br["keywords"]=request.vars.Keywords\n\n    if request.vars.Company:\n        br["company"]=request.vars.Company\n\n    if request.vars.School:\n        br["school"]=request.vars.School\n\n    if request.vars.Title:\n        br["title"]=request.vars.Title\n        \n    if request.vars.Country:\n        br["countryCode"]=[countryid[country.index(request.vars.Country)]]\n    \n    if request.vars.Industry and request.vars.Industry!=\'All Industries\':\n        if isinstance(request.vars.Industry,list):\n            for i in request.vars.Industry:\n                br.find_control("facet_I").items[industries.index(i)-1].selected=True\n        else:\n            br.find_control("facet_I").items[industries.index(request.vars.Industry)-1].selected=True\n    try:        \n        if request.vars.Seniority_Levels and request.vars.Seniority_Levels!=\'All Seniority Levels\':\n            if isinstance(request.vars.Seniority_Levels,list):\n                for i in request.vars.Seniority_Levels:\n                    br.find_control("facet_SE").items[seniority.index(i)-1].selected=True\n            else:\n                br.find_control("facet_SE").items[seniority.index(request.vars.Seniority_Levels)-1].selected=True\n            \n        if request.vars.Functions and request.vars.Functions!=\'All Functions\':\n            if isinstance(request.vars.Functions,list):\n                for i in request.vars.Functions:\n                    br.find_control("facet_FA").items[functions.index(i)-1].selected=True\n            else:\n                br.find_control("facet_FA").items[functions.index(request.vars.Functions)-1].selected=True\n    except:\n        flag=1\n        \n    #submitting the form\n    br.submit()\n    \n    #lists for retreiving the required data\n    view_profile=[]\n    firstname=[]\n    titl=[]\n    location=[]\n    industry=[]\n    current=[]\n    middlename=[]\n    lastname=[]\n    company=[]\n    emailid=[]\n    \n    #flag to make sure we get entries on 1st page\n    flag=1\n    \n    #writing into file with given filename\n    global csv_response\n\n    csv_response = cStringIO.StringIO()\n    \n    spamWriter = csv.writer(csv_response, delimiter=\',\')\n    \n    #spamWriter = csv.writer(open(request.vars.File_Name+\'.csv\', \'wb\'), delimiter=\',\')\n    soup = BeautifulSoup(br.response().read())\n    spamWriter.writerow([\'FIRSTNAME\',\'MIDDLENAME\',\'LASTNAME\',\'TITLE\',\'CURRENT\',\'LOCATION\',\'INDUSTRY\',\'PROFLEURL\',\'COMPANYNAME\',\'EMAIL\'])\n    \n    #scans till there is a link to "next page"\n    while soup.find(\'a\',{"class" : "paginator-next"}) or flag==1:\n        flag=0\n        soup = BeautifulSoup(br.response().read())\n        view_profile=[]\n        firstname=[]\n        titl=[]\n        location=[]\n        industry=[]\n        current=[]\n        middlename=[]\n        lastname=[]\n        company=[]\n        emailid=[]\n        \n        #parsing for the html response to get information\n        for k in soup.find_all(\'dl\',{"class" : "vcard-basic"}):\n            if k.find(\'dd\',{"class" : "title"}):\n                    titl.append(k.find(\'dd\',{"class" : "title"}).get_text())\n            else:\n                    titl.append(\'NONE\')\n                            \n            if k.find(\'span\',{"class" : "location"}):\n                    location.append(k.find(\'span\',{"class" : "location"}).get_text())\n            else:\n                    location.append(\'NONE\')\n            if k.find(\'span\',{"class" : "industry"}):\n                    industry.append(k.find(\'span\',{"class" : "industry"}).get_text())\n            else:\n                    industry.append(\'NONE\')\n                \n        for k in soup.find_all(\'dl\',{"class" : "vcard-expanded"}):\n            temp1=[]\n            temp2=[]\n            if k.find(\'span\',{"class" : "current-details more-text"}):\n                    less=k.find(\'span\',{"class" : "current-details more-text"}).get_text()\n                    temp1=less[0:len(less)-4].encode(\'utf-8\').split(\' at \',1)\n                    if(len(temp1)>1):\n                        try:\n                            temp2=temp1[1].encode(\'utf-8\').split(\',\',1)\n                        except:\n                            temp2=[\'NONE\']\n                    else:\n                        temp2=[\'NONE\']\n                    company.append(temp2[0])\n                    current.append(less[0:len(less)-4])\n            elif k.find(\'span\',{"class" : "current-details"}):\n                    less=k.find(\'span\',{"class" : "current-details"}).get_text()\n                    current.append(less)\n                    temp1=less.encode(\'utf-8\').split(\' at \',1)\n                    if(len(temp1)>1):\n                        try:\n                            temp2=temp1[1].encode(\'utf-8\').split(\',\',1)\n                        except:\n                            temp2=[\'NONE\']\n                    else:\n                        temp2=[\'NONE\']\n                    company.append(temp2[0])\n            else:\n                    current.append(\'NONE\')\n                    company.append(\'NONE\')\n               \n        for l in soup.find_all(\'a\',{"title" : "View Profile"}):\n            temp=[]\n            view_profile.append(\'http://www.linkedin.com\'+l.get(\'href\'))\n            temp.append(l.get_text().encode(\'utf-8\').split(None,2))\n            if temp[0][0]:\n                firstname.append(temp[0][0].strip())\n            else:\n                firstname.append(\'None\')\n            if temp[0][1] and (len(temp[0])-1)==1:\n                lastname.append(temp[0][1].strip())\n                middlename.append(\'None\')\n            else:\n                lastname.append(temp[0][len(temp[0])-1].strip())\n                middlename.append(temp[0][1])\n\n        \n        for i in range(0,len(firstname)):\n            e=\'\'\n            w=\'\'\n            for row in db(db.email_info.Company_Name==company[i]).select():\n                if row.First_String==\'firstname\':\n                    e=e+firstname[i]\n                if row.First_String==\'f\':    \n                    e=e+firstname[i][0]\n                if row.First_String==\'lastname\':\n                    e=e+lastname[i]\n                if row.First_String==\'l\':\n                    e=e+lastname[i][0]\n                \n                e=e+row.Delimiter\n                 \n                if row.Second_String==\'firstname\':\n                    e=e+firstname[i]\n                if row.Second_String==\'f\':    \n                    e=e+firstname[i][0]\n                if row.Second_String==\'lastname\':\n                    e=e+lastname[i]\n                if row.Second_String==\'l\':\n                    e=e+lastname[i][0]\n                e=e+\'@\'\n                e=e+row.Domain_Name\n                w=string.lower(e)                                    \n                emailid.append(w)\n                \n            if e==\'\':\n                for r in db(db.email_info.id > 0).select():\n                    if company[i].startswith(r.Company_Name):\n                        First_String=r.First_String\n                        Delimiter=r.Delimiter\n                        Second_String=r.Second_String\n                        Domain_Name=r.Domain_Name\n                    \n                        if First_String==\'firstname\':\n                            e=e+firstname[i]\n                        if First_String==\'f\':    \n                            e=e+firstname[i][0]\n                        if First_String==\'lastname\':\n                            e=e+lastname[i]\n                        if First_String==\'l\':\n                            e=e+lastname[i][0]\n                \n                        e=e+Delimiter\n                 \n                        if Second_String==\'firstname\':\n                            e=e+firstname[i]\n                        if Second_String==\'f\':    \n                            e=e+firstname[i][0]\n                        if Second_String==\'lastname\':\n                            e=e+lastname[i]\n                        if Second_String==\'l\':\n                            e=e+lastname[i][0]\n                        e=e+\'@\'\n                        e=e+Domain_Name\n                        w=string.lower(e)                                    \n                        emailid.append(w)\n                        break\n                  \n                    if r.Company_Name.startswith(company[i]):\n                        First_String=r.First_String\n                        Delimiter=r.Delimiter\n                        Second_String=r.Second_String\n                        Domain_Name=r.Domain_Name\n                    \n                        if First_String==\'firstname\':\n                            e=e+firstname[i]\n                        if First_String==\'f\':    \n                            e=e+firstname[i][0]\n                        if First_String==\'lastname\':\n                            e=e+lastname[i]\n                        if First_String==\'l\':\n                            e=e+lastname[i][0]\n                \n                        e=e+Delimiter\n                 \n                        if Second_String==\'firstname\':\n                            e=e+firstname[i]\n                        if Second_String==\'f\':    \n                            e=e+firstname[i][0]\n                        if Second_String==\'lastname\':\n                            e=e+lastname[i]\n                        if Second_String==\'l\':\n                            e=e+lastname[i][0]\n                        e=e+\'@\'\n                        e=e+Domain_Name\n                        w=string.lower(e)                                    \n                        emailid.append(w)\n                        break    \n                        \n            if e==\'\':\n                emailid.append(\'NONE\')        \n\n        \n        for i in range(0,len(firstname)):\n            try:\n                spamWriter.writerow([firstname[i].encode(\'utf-8\').strip(),middlename[i].encode(\'utf-8\').strip(),lastname[i].encode(\'utf-8\').strip(),titl[i].encode(\'utf-8\').strip(),current[i].encode(\'utf-8\').strip(),location[i].encode(\'utf-8\').strip(),industry[i].encode(\'utf-8\').strip(),view_profile[i].encode(\'utf-8\').strip(),company[i].encode(\'utf-8\').strip(),emailid[i].encode(\'utf-8\').strip()])\n            except:\n                continue\n        if soup.find(\'a\',{"class" : "paginator-next"}):\n            br.open(\'http://www.linkedin.com\'+ soup.find(\'a\',{"class" : "paginator-next"}).get(\'href\'))\n        #soup = BeautifulSoup(br.response().read())\n        \n    response.headers[\'Content-Type\'] = \'text/csv\'\n    response.headers[\'Content-Disposition\'] = \'attachment; filename=%s.csv\' % request.vars.File_Name\n    return csv_response.getvalue()\n    \ndef email_info():\n     name=SQLFORM(db.email_info)\n     if(name.accepts(request.vars,session)):\n         #db.playlist.insert(playlist_id=request.vars.id)\n         session.flash=\'New Entry Made\'\n         redirect(URL(r=request,f=\'email_info\'))\n     return dict(name=name)\n     \ndef list_companies():\n    return dict(companies=db(db.email_info.id>0).select())\n          \ndef logout():\n    session.username=[]\n    session.password=[]\n    session.flash =T(\'Logout Successful\')\n    redirect(URL(r=request,f=\'index\'))\n    \ndef delete():\n    db(db.email_info.id==request.args(0)).delete()\n    session.flash=\'Company Info Deleted\'\n    redirect(URL(r=request,f=\'list_companies\'))\n    \ndef extract():  \n    subprocess.call("java -cp \\"C:\\\\Program Files\\\\salesforce.com\\\\Data Loader\\\\*\\" -Dsalesforce.config.dir=\\"C:\\\\Documents and Settings\\\\agrover\\\\Desktop\\\\econtacts\\\\config\\" com.salesforce.dataloader.process.ProcessRunner process.name=econtacts")\n    \n    #this script is used for adding company name to the contacts extracted from the salesforce.com\n    #1st give the name of the file which is taken as input\n    #then give name of the file where you want new data with appended field to be stored\n    #then give the name of the file where all accounts are stored i.e. where company names(account names) are hashed to accountids\n\n\n    #opening input file which needs to be edited\n    #infile=raw_input(\'Enter Input Filename for Editing (eg extracted.csv):\')\n    o=open(\'C:\\\\Documents and Settings\\\\agrover\\\\Desktop\\\\econtacts.csv\', \'rb\')\n    inp = csv.reader(o, delimiter=\',\')\n\n    #opening new file for writing data\n    #newin=raw_input(\'Enter Input Filename for Newfile (eg extracted.csv):\')\n    w=open(\'C:\\\\Documents and Settings\\\\agrover\\\\Desktop\\\\contacts.csv\',\'wb\')\n    wri=csv.writer(w,delimiter=\',\')\n\n    #opening file from where company names will be matched to the accountids\n    #in1=raw_input(\'Enter accounts filename (eg allaccounts.csv):\')\n    a = open(\'C:\\\\Documents and Settings\\\\agrover\\\\Desktop\\\\allaccount.csv\', \'rb\')\n    acc = csv.reader(a, delimiter=\',\')\n\n    #stores header line\n    headers=inp.next()\n    head1=acc.next()\n\n    keys=set()\n\n    accid=dict()\n    \n    #finding index for field ID in accounts file\n    id=head1.index(\'ID\')\n    #finding index for field NAME in accounts file\n    accountname=head1.index(\'NAME\')\n\n    #finding index of accountid in the input file\n    accountid=headers.index(\'ACCOUNTID\')\n\n    #creating a dictionary where accountids are mapped to accountnames(companynames)\n    #acc means accessing accounts file\n\n    for entry in acc:\n        #search in a set is order 1 where as search in list is order N...\n        keys.add(entry[id])\n        accid[entry[id]]=entry[accountname]\n\n    #writing new header line in the new file generated\n    headers.append(\'COMPANYNAME\')\n    wri.writerow(headers)\n\n    #inp means accessing input file\n\n    for entry in inp:\n        #for each entry in input file we check if accountid is present in the set generated from accounts file\n        #if we use accid.keys() instead of set keys it will take N^2 time hence using set\n    \n        if(entry[accountid] in keys):\n            entry.append(accid[entry[accountid]])\n            wri.writerow(entry)\n        else:\n            entry.append(\'None\')\n            wri.writerow(entry)\n\n\n    w.close()\n    o.close()\n    a.close()\n\n    cpy()\n    #redirect(URL(r=request,f=\'enter_info\'))\n    return cp_response.getvalue()\n\ndef cpy():\n    global cp_response\n    cp_response = cStringIO.StringIO()\n    writer = csv.writer(cp_response, delimiter=\',\')\n    #o=open(\'C:\\\\Documents and Settings\\\\agrover\\\\Desktop\\\\contacts.csv\', \'rb\')\n    reader = csv.reader(writer, delimiter=\',\')\n    for row in reader:\n        writer.writerow(row)\n        \n    response.headers[\'Content-Type\'] = \'text/csv\'\n    response.headers[\'Content-Disposition\'] = \'attachment; filename=allcontacts.csv\'\n    \n   \ndef upload():\n    global fname\n    global saveas\n    form = SQLFORM(db.files)\n    if form.process().accepted:\n       fname=form.vars.Upload_File\n       saveas=request.vars.Save_As\n       #response.flash = fname\n       temp()\n       return up_response.getvalue()\n    elif form.errors:\n       response.flash = \'form has errors\'\n         \n    return dict(form=form)\n    \ndef temp():\n    global up_response\n    up_response = cStringIO.StringIO()\n    writer = csv.writer(up_response, delimiter=\',\')\n    k=\'C:\\\\Documents and Settings\\\\agrover\\\\Desktop\\\\previous crawler\\\\web2py\\\\applications\\\\mycrawler\\\\uploads\\\\\' + fname\n    o=open(k, \'rb\')\n    reader = csv.reader(o, delimiter=\',\')\n    for row in reader:\n       writer.writerow(row)\n        \n    response.headers[\'Content-Type\'] = \'text/csv\'\n    response.headers[\'Content-Disposition\'] = \'attachment; filename=%s.csv\' % saveas\n    o.close()\n    db(db.files.id>0).delete()\n    \n#finish\n###########################################################################################################    \n    #redirect(URL(r=request,f=\'enter_info\'))       \n    #for link in soup.find_all(\'a\'):\n    #    if link.get(\'title\')==\'View Profile\':\n    #        #print(link.get(\'href\'))\n    #        #print link.get_text()\n    #        view_profile.append(\'http://www.linkedin.com\'+link.get(\'href\'))\n    #        name.append(link.get_text())\n#for l in soup.find_all("span", { "class" : "given-name" }):\n    #print l.get_text()\n\n        \n\n#    for l in soup.find_all(\'dd\',{"class" : "title"}):\n        #print l.get_text()\n#        titl.append(l.get_text())\n    \n#    for l in soup.find_all(\'span\',{"class" : "location"}):\n        #print l.get_text()\n#        location.append(l.get_text())\n\n#    for l in soup.find_all(\'span\',{"class" : "industry"}):\n        #print l.get_text()\n#        industry.append(l.get_text())\n        \n#    for l in soup.find_all(\'span\', {"class" : "current-details"}):\n#        k=l.get_text()\n#        if k[len(k)-4:len(k)]!=\'more\':\n#            current.append(k)\n        #elif(l.get["class"]==\'current-details more text\'):\n        #    current.append(l.get_text())\n    #for l in soup.find_all(\'span\',{"class" : "current-details"}):\n        #print l.get_text()\n        #current.append(l.get_text())\n\n    \n    #global filename,csv_response\n\n    #csv_response = cStringIO.StringIO()\n    \n    #spamWriter = csv.writer(csv_response, delimiter=\',\')\n    \n    #spamWriter.writerow([\'NAME\',\'JOB-TITLE\',\'COMPANY-NAME\',\'LOCATION\',\'INDUSTRY\',\'PROFLE-URL\'])\n   \n    #spamWriter = csv.writer(open(request.vars.File_Name+\'.csv\', \'wb\'), delimiter=\',\')\n    #spamWriter.writerow([\'NAME\',\'JOB-TITLE\',\'Current\',\'LOCATION\',\'INDUSTRY\',\'PROFLE-URL\'])\n    #for i in range(1,10):\n    #    spamWriter.writerow([name[i].encode(\'utf-8\'),titl[i],current[i],location[i],industry[i],view_profile[i]])\n        \n        \n    #,titl[i],current[i],location[i],industry[i],view_profile[i]\n    #response.headers[\'Content-Type\'] = \'text/csv\'\n    #response.headers[\'Content-Disposition\'] = \'attachment; filename=%s\' % request.vars.File_Name\n\n    \n    #return dict(view_profile=view_profile,name=name,location=location,industry=industry,titl=titl,current=current)\n\nresponse._vars=response._caller(extract)\n'
p7
sS'snapshot'
p8
(dp9
S'exception'
p10
(dp11
S'__hash__'
p12
S"<method-wrapper '__hash__' of exceptions.TypeError object>"
p13
sS'__setattr__'
p14
S"<method-wrapper '__setattr__' of exceptions.TypeError object>"
p15
sS'__reduce_ex__'
p16
S'<built-in method __reduce_ex__ of exceptions.TypeError object>'
p17
sS'__getslice__'
p18
S"<method-wrapper '__getslice__' of exceptions.TypeError object>"
p19
sS'__getitem__'
p20
S"<method-wrapper '__getitem__' of exceptions.TypeError object>"
p21
sS'__setstate__'
p22
S'<built-in method __setstate__ of exceptions.TypeError object>'
p23
sS'__reduce__'
p24
S'<built-in method __reduce__ of exceptions.TypeError object>'
p25
sS'__str__'
p26
S"<method-wrapper '__str__' of exceptions.TypeError object>"
p27
sS'__format__'
p28
S'<built-in method __format__ of exceptions.TypeError object>'
p29
sS'__getattribute__'
p30
S"<method-wrapper '__getattribute__' of exceptions.TypeError object>"
p31
sS'__class__'
p32
S"<type 'exceptions.TypeError'>"
p33
sS'__unicode__'
p34
S'<built-in method __unicode__ of exceptions.TypeError object>'
p35
sS'__delattr__'
p36
S"<method-wrapper '__delattr__' of exceptions.TypeError object>"
p37
sS'__subclasshook__'
p38
S'<built-in method __subclasshook__ of type object>'
p39
sS'__repr__'
p40
S"<method-wrapper '__repr__' of exceptions.TypeError object>"
p41
sS'args'
p42
S"('argument 1 must be an iterator',)"
p43
sS'__dict__'
p44
S'{}'
p45
sS'__sizeof__'
p46
S'<built-in method __sizeof__ of exceptions.TypeError object>'
p47
sS'__doc__'
p48
S"'Inappropriate argument type.'"
p49
sS'__init__'
p50
S"<method-wrapper '__init__' of exceptions.TypeError object>"
p51
sS'__new__'
p52
S'<built-in method __new__ of type object>'
p53
ssS'evalue'
p54
S'argument 1 must be an iterator'
p55
sS'request'
p56
ccopy_reg
_reconstructor
p57
(cgluon.html
BEAUTIFY
p58
c__builtin__
object
p59
NtRp60
(dp61
S'attributes'
p62
(dp63
sS'components'
p64
(lp65
g57
(cgluon.html
TABLE
p66
g59
NtRp67
(dp68
g62
(dp69
S'level'
p70
I5
ssS'parent'
p71
Nsg64
(lp72
g57
(cgluon.html
TR
p73
g59
NtRp74
(dp75
g62
(dp76
sg71
g67
sg64
(lp77
g57
(cgluon.html
TD
p78
g59
NtRp79
(dp80
g62
(dp81
S'_style'
p82
S'font-weight:bold;vertical-align:top'
p83
ssg71
g74
sg64
(lp84
S'ajax'
p85
asbag57
(g78
g59
NtRp86
(dp87
g62
(dp88
S'_valign'
p89
S'top'
p90
ssg71
g74
sg64
(lp91
S':'
asbag57
(g78
g59
NtRp92
(dp93
g62
(dp94
sg71
g74
sg64
(lp95
g57
(g58
g59
NtRp96
(dp97
g62
(dp98
g70
I5
ssg71
g92
sg64
(lp99
S'False'
p100
asbasbasbag57
(g73
g59
NtRp101
(dp102
g62
(dp103
sg71
g67
sg64
(lp104
g57
(g78
g59
NtRp105
(dp106
g62
(dp107
g82
g83
ssg71
g101
sg64
(lp108
S'application'
p109
asbag57
(g78
g59
NtRp110
(dp111
g62
(dp112
g89
g90
ssg71
g101
sg64
(lp113
S':'
asbag57
(g78
g59
NtRp114
(dp115
g62
(dp116
sg71
g101
sg64
(lp117
g57
(g58
g59
NtRp118
(dp119
g62
(dp120
g70
I5
ssg71
g114
sg64
(lp121
S'mycrawler'
p122
asbasbasbag57
(g73
g59
NtRp123
(dp124
g62
(dp125
sg71
g67
sg64
(lp126
g57
(g78
g59
NtRp127
(dp128
g62
(dp129
g82
g83
ssg71
g123
sg64
(lp130
g42
asbag57
(g78
g59
NtRp131
(dp132
g62
(dp133
g89
g90
ssg71
g123
sg64
(lp134
S':'
asbag57
(g78
g59
NtRp135
(dp136
g62
(dp137
sg71
g123
sg64
(lp138
g57
(g58
g59
NtRp139
(dp140
g62
(dp141
g70
I5
ssg71
g135
sg64
(lp142
g57
(g66
g59
NtRp143
(dp144
g62
(dp145
g70
I4
ssg71
Nsg64
(lp146
sbasbasbasbag57
(g73
g59
NtRp147
(dp148
g62
(dp149
sg71
g67
sg64
(lp150
g57
(g78
g59
NtRp151
(dp152
g62
(dp153
g82
g83
ssg71
g147
sg64
(lp154
S'body'
p155
asbag57
(g78
g59
NtRp156
(dp157
g62
(dp158
g89
g90
ssg71
g147
sg64
(lp159
S':'
asbag57
(g78
g59
NtRp160
(dp161
g62
(dp162
sg71
g147
sg64
(lp163
g57
(g58
g59
NtRp164
(dp165
g62
(dp166
g70
I5
ssg71
g160
sg64
(lp167
S'<cStringIO.StringO object at 0x01C070E0>'
p168
asbasbasbag57
(g73
g59
NtRp169
(dp170
g62
(dp171
sg71
g67
sg64
(lp172
g57
(g78
g59
NtRp173
(dp174
g62
(dp175
g82
g83
ssg71
g169
sg64
(lp176
S'client'
p177
asbag57
(g78
g59
NtRp178
(dp179
g62
(dp180
g89
g90
ssg71
g169
sg64
(lp181
S':'
asbag57
(g78
g59
NtRp182
(dp183
g62
(dp184
sg71
g169
sg64
(lp185
g57
(g58
g59
NtRp186
(dp187
g62
(dp188
g70
I5
ssg71
g182
sg64
(lp189
S'127.0.0.1'
p190
asbasbasbag57
(g73
g59
NtRp191
(dp192
g62
(dp193
sg71
g67
sg64
(lp194
g57
(g78
g59
NtRp195
(dp196
g62
(dp197
g82
g83
ssg71
g191
sg64
(lp198
S'controller'
p199
asbag57
(g78
g59
NtRp200
(dp201
g62
(dp202
g89
g90
ssg71
g191
sg64
(lp203
S':'
asbag57
(g78
g59
NtRp204
(dp205
g62
(dp206
sg71
g191
sg64
(lp207
g57
(g58
g59
NtRp208
(dp209
g62
(dp210
g70
I5
ssg71
g204
sg64
(lp211
S'default'
p212
asbasbasbag57
(g73
g59
NtRp213
(dp214
g62
(dp215
sg71
g67
sg64
(lp216
g57
(g78
g59
NtRp217
(dp218
g62
(dp219
g82
g83
ssg71
g213
sg64
(lp220
S'cookies'
p221
asbag57
(g78
g59
NtRp222
(dp223
g62
(dp224
g89
g90
ssg71
g213
sg64
(lp225
S':'
asbag57
(g78
g59
NtRp226
(dp227
g62
(dp228
sg71
g213
sg64
(lp229
g57
(g58
g59
NtRp230
(dp231
g62
(dp232
g70
I5
ssg71
g226
sg64
(lp233
g57
(g66
g59
NtRp234
(dp235
g62
(dp236
g70
I4
ssg71
Nsg64
(lp237
g57
(g73
g59
NtRp238
(dp239
g62
(dp240
sg71
g234
sg64
(lp241
g57
(g78
g59
NtRp242
(dp243
g62
(dp244
g82
g83
ssg71
g238
sg64
(lp245
S'session_id_admin'
p246
asbag57
(g78
g59
NtRp247
(dp248
g62
(dp249
g89
g90
ssg71
g238
sg64
(lp250
S':'
asbag57
(g78
g59
NtRp251
(dp252
g62
(dp253
sg71
g238
sg64
(lp254
g57
(g58
g59
NtRp255
(dp256
g62
(dp257
g70
I4
ssg71
g251
sg64
(lp258
g57
(g66
g59
NtRp259
(dp260
g62
(dp261
g70
I3
ssg71
Nsg64
(lp262
g57
(g73
g59
NtRp263
(dp264
g62
(dp265
sg71
g259
sg64
(lp266
g57
(g78
g59
NtRp267
(dp268
g62
(dp269
g82
g83
ssg71
g263
sg64
(lp270
S'comment'
p271
asbag57
(g78
g59
NtRp272
(dp273
g62
(dp274
g89
g90
ssg71
g263
sg64
(lp275
S':'
asbag57
(g78
g59
NtRp276
(dp277
g62
(dp278
sg71
g263
sg64
(lp279
g57
(g58
g59
NtRp280
(dp281
g62
(dp282
g70
I3
ssg71
g276
sg64
(lp283
S''
asbasbasbag57
(g73
g59
NtRp284
(dp285
g62
(dp286
sg71
g259
sg64
(lp287
g57
(g78
g59
NtRp288
(dp289
g62
(dp290
g82
g83
ssg71
g284
sg64
(lp291
S'domain'
p292
asbag57
(g78
g59
NtRp293
(dp294
g62
(dp295
g89
g90
ssg71
g284
sg64
(lp296
S':'
asbag57
(g78
g59
NtRp297
(dp298
g62
(dp299
sg71
g284
sg64
(lp300
g57
(g58
g59
NtRp301
(dp302
g62
(dp303
g70
I3
ssg71
g297
sg64
(lp304
S''
asbasbasbag57
(g73
g59
NtRp305
(dp306
g62
(dp307
sg71
g259
sg64
(lp308
g57
(g78
g59
NtRp309
(dp310
g62
(dp311
g82
g83
ssg71
g305
sg64
(lp312
S'expires'
p313
asbag57
(g78
g59
NtRp314
(dp315
g62
(dp316
g89
g90
ssg71
g305
sg64
(lp317
S':'
asbag57
(g78
g59
NtRp318
(dp319
g62
(dp320
sg71
g305
sg64
(lp321
g57
(g58
g59
NtRp322
(dp323
g62
(dp324
g70
I3
ssg71
g318
sg64
(lp325
S''
asbasbasbag57
(g73
g59
NtRp326
(dp327
g62
(dp328
sg71
g259
sg64
(lp329
g57
(g78
g59
NtRp330
(dp331
g62
(dp332
g82
g83
ssg71
g326
sg64
(lp333
S'httponly'
p334
asbag57
(g78
g59
NtRp335
(dp336
g62
(dp337
g89
g90
ssg71
g326
sg64
(lp338
S':'
asbag57
(g78
g59
NtRp339
(dp340
g62
(dp341
sg71
g326
sg64
(lp342
g57
(g58
g59
NtRp343
(dp344
g62
(dp345
g70
I3
ssg71
g339
sg64
(lp346
S''
asbasbasbag57
(g73
g59
NtRp347
(dp348
g62
(dp349
sg71
g259
sg64
(lp350
g57
(g78
g59
NtRp351
(dp352
g62
(dp353
g82
g83
ssg71
g347
sg64
(lp354
S'max-age'
p355
asbag57
(g78
g59
NtRp356
(dp357
g62
(dp358
g89
g90
ssg71
g347
sg64
(lp359
S':'
asbag57
(g78
g59
NtRp360
(dp361
g62
(dp362
sg71
g347
sg64
(lp363
g57
(g58
g59
NtRp364
(dp365
g62
(dp366
g70
I3
ssg71
g360
sg64
(lp367
S''
asbasbasbag57
(g73
g59
NtRp368
(dp369
g62
(dp370
sg71
g259
sg64
(lp371
g57
(g78
g59
NtRp372
(dp373
g62
(dp374
g82
g83
ssg71
g368
sg64
(lp375
S'path'
p376
asbag57
(g78
g59
NtRp377
(dp378
g62
(dp379
g89
g90
ssg71
g368
sg64
(lp380
S':'
asbag57
(g78
g59
NtRp381
(dp382
g62
(dp383
sg71
g368
sg64
(lp384
g57
(g58
g59
NtRp385
(dp386
g62
(dp387
g70
I3
ssg71
g381
sg64
(lp388
S''
asbasbasbag57
(g73
g59
NtRp389
(dp390
g62
(dp391
sg71
g259
sg64
(lp392
g57
(g78
g59
NtRp393
(dp394
g62
(dp395
g82
g83
ssg71
g389
sg64
(lp396
S'secure'
p397
asbag57
(g78
g59
NtRp398
(dp399
g62
(dp400
g89
g90
ssg71
g389
sg64
(lp401
S':'
asbag57
(g78
g59
NtRp402
(dp403
g62
(dp404
sg71
g389
sg64
(lp405
g57
(g58
g59
NtRp406
(dp407
g62
(dp408
g70
I3
ssg71
g402
sg64
(lp409
S''
asbasbasbag57
(g73
g59
NtRp410
(dp411
g62
(dp412
sg71
g259
sg64
(lp413
g57
(g78
g59
NtRp414
(dp415
g62
(dp416
g82
g83
ssg71
g410
sg64
(lp417
S'version'
p418
asbag57
(g78
g59
NtRp419
(dp420
g62
(dp421
g89
g90
ssg71
g410
sg64
(lp422
S':'
asbag57
(g78
g59
NtRp423
(dp424
g62
(dp425
sg71
g410
sg64
(lp426
g57
(g58
g59
NtRp427
(dp428
g62
(dp429
g70
I3
ssg71
g423
sg64
(lp430
S''
asbasbasbasbasbasbasbag57
(g73
g59
NtRp431
(dp432
g62
(dp433
sg71
g234
sg64
(lp434
g57
(g78
g59
NtRp435
(dp436
g62
(dp437
g82
g83
ssg71
g431
sg64
(lp438
S'session_id_mycrawler'
p439
asbag57
(g78
g59
NtRp440
(dp441
g62
(dp442
g89
g90
ssg71
g431
sg64
(lp443
S':'
asbag57
(g78
g59
NtRp444
(dp445
g62
(dp446
sg71
g431
sg64
(lp447
g57
(g58
g59
NtRp448
(dp449
g62
(dp450
g70
I4
ssg71
g444
sg64
(lp451
g57
(g66
g59
NtRp452
(dp453
g62
(dp454
g70
I3
ssg71
Nsg64
(lp455
g57
(g73
g59
NtRp456
(dp457
g62
(dp458
sg71
g452
sg64
(lp459
g57
(g78
g59
NtRp460
(dp461
g62
(dp462
g82
g83
ssg71
g456
sg64
(lp463
g271
asbag57
(g78
g59
NtRp464
(dp465
g62
(dp466
g89
g90
ssg71
g456
sg64
(lp467
S':'
asbag57
(g78
g59
NtRp468
(dp469
g62
(dp470
sg71
g456
sg64
(lp471
g57
(g58
g59
NtRp472
(dp473
g62
(dp474
g70
I3
ssg71
g468
sg64
(lp475
S''
asbasbasbag57
(g73
g59
NtRp476
(dp477
g62
(dp478
sg71
g452
sg64
(lp479
g57
(g78
g59
NtRp480
(dp481
g62
(dp482
g82
g83
ssg71
g476
sg64
(lp483
g292
asbag57
(g78
g59
NtRp484
(dp485
g62
(dp486
g89
g90
ssg71
g476
sg64
(lp487
S':'
asbag57
(g78
g59
NtRp488
(dp489
g62
(dp490
sg71
g476
sg64
(lp491
g57
(g58
g59
NtRp492
(dp493
g62
(dp494
g70
I3
ssg71
g488
sg64
(lp495
S''
asbasbasbag57
(g73
g59
NtRp496
(dp497
g62
(dp498
sg71
g452
sg64
(lp499
g57
(g78
g59
NtRp500
(dp501
g62
(dp502
g82
g83
ssg71
g496
sg64
(lp503
g313
asbag57
(g78
g59
NtRp504
(dp505
g62
(dp506
g89
g90
ssg71
g496
sg64
(lp507
S':'
asbag57
(g78
g59
NtRp508
(dp509
g62
(dp510
sg71
g496
sg64
(lp511
g57
(g58
g59
NtRp512
(dp513
g62
(dp514
g70
I3
ssg71
g508
sg64
(lp515
S''
asbasbasbag57
(g73
g59
NtRp516
(dp517
g62
(dp518
sg71
g452
sg64
(lp519
g57
(g78
g59
NtRp520
(dp521
g62
(dp522
g82
g83
ssg71
g516
sg64
(lp523
g334
asbag57
(g78
g59
NtRp524
(dp525
g62
(dp526
g89
g90
ssg71
g516
sg64
(lp527
S':'
asbag57
(g78
g59
NtRp528
(dp529
g62
(dp530
sg71
g516
sg64
(lp531
g57
(g58
g59
NtRp532
(dp533
g62
(dp534
g70
I3
ssg71
g528
sg64
(lp535
S''
asbasbasbag57
(g73
g59
NtRp536
(dp537
g62
(dp538
sg71
g452
sg64
(lp539
g57
(g78
g59
NtRp540
(dp541
g62
(dp542
g82
g83
ssg71
g536
sg64
(lp543
g355
asbag57
(g78
g59
NtRp544
(dp545
g62
(dp546
g89
g90
ssg71
g536
sg64
(lp547
S':'
asbag57
(g78
g59
NtRp548
(dp549
g62
(dp550
sg71
g536
sg64
(lp551
g57
(g58
g59
NtRp552
(dp553
g62
(dp554
g70
I3
ssg71
g548
sg64
(lp555
S''
asbasbasbag57
(g73
g59
NtRp556
(dp557
g62
(dp558
sg71
g452
sg64
(lp559
g57
(g78
g59
NtRp560
(dp561
g62
(dp562
g82
g83
ssg71
g556
sg64
(lp563
g376
asbag57
(g78
g59
NtRp564
(dp565
g62
(dp566
g89
g90
ssg71
g556
sg64
(lp567
S':'
asbag57
(g78
g59
NtRp568
(dp569
g62
(dp570
sg71
g556
sg64
(lp571
g57
(g58
g59
NtRp572
(dp573
g62
(dp574
g70
I3
ssg71
g568
sg64
(lp575
S''
asbasbasbag57
(g73
g59
NtRp576
(dp577
g62
(dp578
sg71
g452
sg64
(lp579
g57
(g78
g59
NtRp580
(dp581
g62
(dp582
g82
g83
ssg71
g576
sg64
(lp583
g397
asbag57
(g78
g59
NtRp584
(dp585
g62
(dp586
g89
g90
ssg71
g576
sg64
(lp587
S':'
asbag57
(g78
g59
NtRp588
(dp589
g62
(dp590
sg71
g576
sg64
(lp591
g57
(g58
g59
NtRp592
(dp593
g62
(dp594
g70
I3
ssg71
g588
sg64
(lp595
S''
asbasbasbag57
(g73
g59
NtRp596
(dp597
g62
(dp598
sg71
g452
sg64
(lp599
g57
(g78
g59
NtRp600
(dp601
g62
(dp602
g82
g83
ssg71
g596
sg64
(lp603
g418
asbag57
(g78
g59
NtRp604
(dp605
g62
(dp606
g89
g90
ssg71
g596
sg64
(lp607
S':'
asbag57
(g78
g59
NtRp608
(dp609
g62
(dp610
sg71
g596
sg64
(lp611
g57
(g58
g59
NtRp612
(dp613
g62
(dp614
g70
I3
ssg71
g608
sg64
(lp615
S''
asbasbasbasbasbasbasbag57
(g73
g59
NtRp616
(dp617
g62
(dp618
sg71
g234
sg64
(lp619
g57
(g78
g59
NtRp620
(dp621
g62
(dp622
g82
g83
ssg71
g616
sg64
(lp623
S'session_id_welcome'
p624
asbag57
(g78
g59
NtRp625
(dp626
g62
(dp627
g89
g90
ssg71
g616
sg64
(lp628
S':'
asbag57
(g78
g59
NtRp629
(dp630
g62
(dp631
sg71
g616
sg64
(lp632
g57
(g58
g59
NtRp633
(dp634
g62
(dp635
g70
I4
ssg71
g629
sg64
(lp636
g57
(g66
g59
NtRp637
(dp638
g62
(dp639
g70
I3
ssg71
Nsg64
(lp640
g57
(g73
g59
NtRp641
(dp642
g62
(dp643
sg71
g637
sg64
(lp644
g57
(g78
g59
NtRp645
(dp646
g62
(dp647
g82
g83
ssg71
g641
sg64
(lp648
g271
asbag57
(g78
g59
NtRp649
(dp650
g62
(dp651
g89
g90
ssg71
g641
sg64
(lp652
S':'
asbag57
(g78
g59
NtRp653
(dp654
g62
(dp655
sg71
g641
sg64
(lp656
g57
(g58
g59
NtRp657
(dp658
g62
(dp659
g70
I3
ssg71
g653
sg64
(lp660
S''
asbasbasbag57
(g73
g59
NtRp661
(dp662
g62
(dp663
sg71
g637
sg64
(lp664
g57
(g78
g59
NtRp665
(dp666
g62
(dp667
g82
g83
ssg71
g661
sg64
(lp668
g292
asbag57
(g78
g59
NtRp669
(dp670
g62
(dp671
g89
g90
ssg71
g661
sg64
(lp672
S':'
asbag57
(g78
g59
NtRp673
(dp674
g62
(dp675
sg71
g661
sg64
(lp676
g57
(g58
g59
NtRp677
(dp678
g62
(dp679
g70
I3
ssg71
g673
sg64
(lp680
S''
asbasbasbag57
(g73
g59
NtRp681
(dp682
g62
(dp683
sg71
g637
sg64
(lp684
g57
(g78
g59
NtRp685
(dp686
g62
(dp687
g82
g83
ssg71
g681
sg64
(lp688
g313
asbag57
(g78
g59
NtRp689
(dp690
g62
(dp691
g89
g90
ssg71
g681
sg64
(lp692
S':'
asbag57
(g78
g59
NtRp693
(dp694
g62
(dp695
sg71
g681
sg64
(lp696
g57
(g58
g59
NtRp697
(dp698
g62
(dp699
g70
I3
ssg71
g693
sg64
(lp700
S''
asbasbasbag57
(g73
g59
NtRp701
(dp702
g62
(dp703
sg71
g637
sg64
(lp704
g57
(g78
g59
NtRp705
(dp706
g62
(dp707
g82
g83
ssg71
g701
sg64
(lp708
g334
asbag57
(g78
g59
NtRp709
(dp710
g62
(dp711
g89
g90
ssg71
g701
sg64
(lp712
S':'
asbag57
(g78
g59
NtRp713
(dp714
g62
(dp715
sg71
g701
sg64
(lp716
g57
(g58
g59
NtRp717
(dp718
g62
(dp719
g70
I3
ssg71
g713
sg64
(lp720
S''
asbasbasbag57
(g73
g59
NtRp721
(dp722
g62
(dp723
sg71
g637
sg64
(lp724
g57
(g78
g59
NtRp725
(dp726
g62
(dp727
g82
g83
ssg71
g721
sg64
(lp728
g355
asbag57
(g78
g59
NtRp729
(dp730
g62
(dp731
g89
g90
ssg71
g721
sg64
(lp732
S':'
asbag57
(g78
g59
NtRp733
(dp734
g62
(dp735
sg71
g721
sg64
(lp736
g57
(g58
g59
NtRp737
(dp738
g62
(dp739
g70
I3
ssg71
g733
sg64
(lp740
S''
asbasbasbag57
(g73
g59
NtRp741
(dp742
g62
(dp743
sg71
g637
sg64
(lp744
g57
(g78
g59
NtRp745
(dp746
g62
(dp747
g82
g83
ssg71
g741
sg64
(lp748
g376
asbag57
(g78
g59
NtRp749
(dp750
g62
(dp751
g89
g90
ssg71
g741
sg64
(lp752
S':'
asbag57
(g78
g59
NtRp753
(dp754
g62
(dp755
sg71
g741
sg64
(lp756
g57
(g58
g59
NtRp757
(dp758
g62
(dp759
g70
I3
ssg71
g753
sg64
(lp760
S''
asbasbasbag57
(g73
g59
NtRp761
(dp762
g62
(dp763
sg71
g637
sg64
(lp764
g57
(g78
g59
NtRp765
(dp766
g62
(dp767
g82
g83
ssg71
g761
sg64
(lp768
g397
asbag57
(g78
g59
NtRp769
(dp770
g62
(dp771
g89
g90
ssg71
g761
sg64
(lp772
S':'
asbag57
(g78
g59
NtRp773
(dp774
g62
(dp775
sg71
g761
sg64
(lp776
g57
(g58
g59
NtRp777
(dp778
g62
(dp779
g70
I3
ssg71
g773
sg64
(lp780
S''
asbasbasbag57
(g73
g59
NtRp781
(dp782
g62
(dp783
sg71
g637
sg64
(lp784
g57
(g78
g59
NtRp785
(dp786
g62
(dp787
g82
g83
ssg71
g781
sg64
(lp788
g418
asbag57
(g78
g59
NtRp789
(dp790
g62
(dp791
g89
g90
ssg71
g781
sg64
(lp792
S':'
asbag57
(g78
g59
NtRp793
(dp794
g62
(dp795
sg71
g781
sg64
(lp796
g57
(g58
g59
NtRp797
(dp798
g62
(dp799
g70
I3
ssg71
g793
sg64
(lp800
S''
asbasbasbasbasbasbasbasbasbasbasbag57
(g73
g59
NtRp801
(dp802
g62
(dp803
sg71
g67
sg64
(lp804
g57
(g78
g59
NtRp805
(dp806
g62
(dp807
g82
g83
ssg71
g801
sg64
(lp808
S'env'
p809
asbag57
(g78
g59
NtRp810
(dp811
g62
(dp812
g89
g90
ssg71
g801
sg64
(lp813
S':'
asbag57
(g78
g59
NtRp814
(dp815
g62
(dp816
sg71
g801
sg64
(lp817
g57
(g58
g59
NtRp818
(dp819
g62
(dp820
g70
I5
ssg71
g814
sg64
(lp821
g57
(g66
g59
NtRp822
(dp823
g62
(dp824
g70
I4
ssg71
Nsg64
(lp825
g57
(g73
g59
NtRp826
(dp827
g62
(dp828
sg71
g822
sg64
(lp829
g57
(g78
g59
NtRp830
(dp831
g62
(dp832
g82
g83
ssg71
g826
sg64
(lp833
S'app_folders'
p834
asbag57
(g78
g59
NtRp835
(dp836
g62
(dp837
g89
g90
ssg71
g826
sg64
(lp838
S':'
asbag57
(g78
g59
NtRp839
(dp840
g62
(dp841
sg71
g826
sg64
(lp842
g57
(g58
g59
NtRp843
(dp844
g62
(dp845
g70
I4
ssg71
g839
sg64
(lp846
S"set(['C:\\\\Documents and Settings\\\\agrover\\\\Desktop\\\\previous crawler\\\\web2py\\\\applications\\\\admin\\\\', 'C:\\\\Documents and Settings\\\\agrover\\\\Desktop\\\\previous crawler\\\\web2py\\\\applications\\\\mycrawler\\\\', 'C:\\\\Documents and Settings\\\\agrover\\\\Desktop\\\\previous crawler\\\\web2py\\\\applications\\\\welcome\\\\'])"
p847
asbasbasbag57
(g73
g59
NtRp848
(dp849
g62
(dp850
sg71
g822
sg64
(lp851
g57
(g78
g59
NtRp852
(dp853
g62
(dp854
g82
g83
ssg71
g848
sg64
(lp855
S'applications_parent'
p856
asbag57
(g78
g59
NtRp857
(dp858
g62
(dp859
g89
g90
ssg71
g848
sg64
(lp860
S':'
asbag57
(g78
g59
NtRp861
(dp862
g62
(dp863
sg71
g848
sg64
(lp864
g57
(g58
g59
NtRp865
(dp866
g62
(dp867
g70
I4
ssg71
g861
sg64
(lp868
S'C:\\Documents and Settings\\agrover\\Desktop\\previous crawler\\web2py'
p869
asbasbasbag57
(g73
g59
NtRp870
(dp871
g62
(dp872
sg71
g822
sg64
(lp873
g57
(g78
g59
NtRp874
(dp875
g62
(dp876
g82
g83
ssg71
g870
sg64
(lp877
S'cmd_args'
p878
asbag57
(g78
g59
NtRp879
(dp880
g62
(dp881
g89
g90
ssg71
g870
sg64
(lp882
S':'
asbag57
(g78
g59
NtRp883
(dp884
g62
(dp885
sg71
g870
sg64
(lp886
g57
(g58
g59
NtRp887
(dp888
g62
(dp889
g70
I4
ssg71
g883
sg64
(lp890
g57
(g66
g59
NtRp891
(dp892
g62
(dp893
g70
I3
ssg71
Nsg64
(lp894
sbasbasbasbag57
(g73
g59
NtRp895
(dp896
g62
(dp897
sg71
g822
sg64
(lp898
g57
(g78
g59
NtRp899
(dp900
g62
(dp901
g82
g83
ssg71
g895
sg64
(lp902
S'cmd_options'
p903
asbag57
(g78
g59
NtRp904
(dp905
g62
(dp906
g89
g90
ssg71
g895
sg64
(lp907
S':'
asbag57
(g78
g59
NtRp908
(dp909
g62
(dp910
sg71
g895
sg64
(lp911
g57
(g58
g59
NtRp912
(dp913
g62
(dp914
g70
I4
ssg71
g908
sg64
(lp915
S"<Values at 0x16d63f0: {'verbose': False, 'ip': '127.0.0.1', 'shutdown_timeout': 5, 'taskbar': False, 'nocron': False, 'pid_filename': 'httpserver.pid', 'maxthreads': None, 'softcron': False, 'server_name': 'mniagrover', 'bpython': False, 'nogui': False, 'port': 8000, 'extcron': False, 'debuglevel': 30, 'test': None, 'folder': 'C:\\\\Documents and Settings\\\\agrover\\\\Desktop\\\\previous crawler\\\\web2py', 'config': '', 'import_models': False, 'winservice': '', 'shell': None, 'run': '', 'log_filename': 'httpserver.log', 'args': [''], 'socket_timeout': 5, 'ssl_ca_certificate': None, 'scheduler': None, 'profiler_filename': None, 'ssl_private_key': '', 'password': '<ask>', 'request_queue_size': 5, 'ssl_certificate': '', 'cronjob': False, 'numthreads': None, 'quiet': False, 'interfaces': None, 'minthreads': None, 'timeout': 10, 'plain': False, 'nobanner': False}>"
p916
asbasbasbag57
(g73
g59
NtRp917
(dp918
g62
(dp919
sg71
g822
sg64
(lp920
g57
(g78
g59
NtRp921
(dp922
g62
(dp923
g82
g83
ssg71
g917
sg64
(lp924
S'db_sessions'
p925
asbag57
(g78
g59
NtRp926
(dp927
g62
(dp928
g89
g90
ssg71
g917
sg64
(lp929
S':'
asbag57
(g78
g59
NtRp930
(dp931
g62
(dp932
sg71
g917
sg64
(lp933
g57
(g58
g59
NtRp934
(dp935
g62
(dp936
g70
I4
ssg71
g930
sg64
(lp937
S'set([])'
p938
asbasbasbag57
(g73
g59
NtRp939
(dp940
g62
(dp941
sg71
g822
sg64
(lp942
g57
(g78
g59
NtRp943
(dp944
g62
(dp945
g82
g83
ssg71
g939
sg64
(lp946
S'debugging'
p947
asbag57
(g78
g59
NtRp948
(dp949
g62
(dp950
g89
g90
ssg71
g939
sg64
(lp951
S':'
asbag57
(g78
g59
NtRp952
(dp953
g62
(dp954
sg71
g939
sg64
(lp955
g57
(g58
g59
NtRp956
(dp957
g62
(dp958
g70
I4
ssg71
g952
sg64
(lp959
g100
asbasbasbag57
(g73
g59
NtRp960
(dp961
g62
(dp962
sg71
g822
sg64
(lp963
g57
(g78
g59
NtRp964
(dp965
g62
(dp966
g82
g83
ssg71
g960
sg64
(lp967
S'gluon_parent'
p968
asbag57
(g78
g59
NtRp969
(dp970
g62
(dp971
g89
g90
ssg71
g960
sg64
(lp972
S':'
asbag57
(g78
g59
NtRp973
(dp974
g62
(dp975
sg71
g960
sg64
(lp976
g57
(g58
g59
NtRp977
(dp978
g62
(dp979
g70
I4
ssg71
g973
sg64
(lp980
S'C:\\Documents and Settings\\agrover\\Desktop\\previous crawler\\web2py'
p981
asbasbasbag57
(g73
g59
NtRp982
(dp983
g62
(dp984
sg71
g822
sg64
(lp985
g57
(g78
g59
NtRp986
(dp987
g62
(dp988
g82
g83
ssg71
g982
sg64
(lp989
S'http_accept'
p990
asbag57
(g78
g59
NtRp991
(dp992
g62
(dp993
g89
g90
ssg71
g982
sg64
(lp994
S':'
asbag57
(g78
g59
NtRp995
(dp996
g62
(dp997
sg71
g982
sg64
(lp998
g57
(g58
g59
NtRp999
(dp1000
g62
(dp1001
g70
I4
ssg71
g995
sg64
(lp1002
S'text/html,application/xhtml+xml,application/xml;q=0.9,*/*;q=0.8'
p1003
asbasbasbag57
(g73
g59
NtRp1004
(dp1005
g62
(dp1006
sg71
g822
sg64
(lp1007
g57
(g78
g59
NtRp1008
(dp1009
g62
(dp1010
g82
g83
ssg71
g1004
sg64
(lp1011
S'http_accept_encoding'
p1012
asbag57
(g78
g59
NtRp1013
(dp1014
g62
(dp1015
g89
g90
ssg71
g1004
sg64
(lp1016
S':'
asbag57
(g78
g59
NtRp1017
(dp1018
g62
(dp1019
sg71
g1004
sg64
(lp1020
g57
(g58
g59
NtRp1021
(dp1022
g62
(dp1023
g70
I4
ssg71
g1017
sg64
(lp1024
S'gzip, deflate'
p1025
asbasbasbag57
(g73
g59
NtRp1026
(dp1027
g62
(dp1028
sg71
g822
sg64
(lp1029
g57
(g78
g59
NtRp1030
(dp1031
g62
(dp1032
g82
g83
ssg71
g1026
sg64
(lp1033
S'http_accept_language'
p1034
asbag57
(g78
g59
NtRp1035
(dp1036
g62
(dp1037
g89
g90
ssg71
g1026
sg64
(lp1038
S':'
asbag57
(g78
g59
NtRp1039
(dp1040
g62
(dp1041
sg71
g1026
sg64
(lp1042
g57
(g58
g59
NtRp1043
(dp1044
g62
(dp1045
g70
I4
ssg71
g1039
sg64
(lp1046
S'en-us,en;q=0.5'
p1047
asbasbasbag57
(g73
g59
NtRp1048
(dp1049
g62
(dp1050
sg71
g822
sg64
(lp1051
g57
(g78
g59
NtRp1052
(dp1053
g62
(dp1054
g82
g83
ssg71
g1048
sg64
(lp1055
S'http_connection'
p1056
asbag57
(g78
g59
NtRp1057
(dp1058
g62
(dp1059
g89
g90
ssg71
g1048
sg64
(lp1060
S':'
asbag57
(g78
g59
NtRp1061
(dp1062
g62
(dp1063
sg71
g1048
sg64
(lp1064
g57
(g58
g59
NtRp1065
(dp1066
g62
(dp1067
g70
I4
ssg71
g1061
sg64
(lp1068
S'keep-alive'
p1069
asbasbasbag57
(g73
g59
NtRp1070
(dp1071
g62
(dp1072
sg71
g822
sg64
(lp1073
g57
(g78
g59
NtRp1074
(dp1075
g62
(dp1076
g82
g83
ssg71
g1070
sg64
(lp1077
S'http_cookie'
p1078
asbag57
(g78
g59
NtRp1079
(dp1080
g62
(dp1081
g89
g90
ssg71
g1070
sg64
(lp1082
S':'
asbag57
(g78
g59
NtRp1083
(dp1084
g62
(dp1085
sg71
g1070
sg64
(lp1086
g57
(g58
g59
NtRp1087
(dp1088
g62
(dp1089
g70
I4
ssg71
g1083
sg64
(lp1090
S'session_id_welcome=127.0.0.1-183c78c4-ffb3-4ecf-bad4-9010451b16fb; session_id_admin=127.0.0.1-c156fdf1-5f20-41e8-ad52-557b3d8889a0; session_id_mycrawler=127.0.0.1-e33c895d-efcf-4795-8169-7cf95d1f13b6'
p1091
asbasbasbag57
(g73
g59
NtRp1092
(dp1093
g62
(dp1094
sg71
g822
sg64
(lp1095
g57
(g78
g59
NtRp1096
(dp1097
g62
(dp1098
g82
g83
ssg71
g1092
sg64
(lp1099
S'http_host'
p1100
asbag57
(g78
g59
NtRp1101
(dp1102
g62
(dp1103
g89
g90
ssg71
g1092
sg64
(lp1104
S':'
asbag57
(g78
g59
NtRp1105
(dp1106
g62
(dp1107
sg71
g1092
sg64
(lp1108
g57
(g58
g59
NtRp1109
(dp1110
g62
(dp1111
g70
I4
ssg71
g1105
sg64
(lp1112
S'127.0.0.1:8000'
p1113
asbasbasbag57
(g73
g59
NtRp1114
(dp1115
g62
(dp1116
sg71
g822
sg64
(lp1117
g57
(g78
g59
NtRp1118
(dp1119
g62
(dp1120
g82
g83
ssg71
g1114
sg64
(lp1121
S'http_referer'
p1122
asbag57
(g78
g59
NtRp1123
(dp1124
g62
(dp1125
g89
g90
ssg71
g1114
sg64
(lp1126
S':'
asbag57
(g78
g59
NtRp1127
(dp1128
g62
(dp1129
sg71
g1114
sg64
(lp1130
g57
(g58
g59
NtRp1131
(dp1132
g62
(dp1133
g70
I4
ssg71
g1127
sg64
(lp1134
S'http://127.0.0.1:8000/mycrawler/default/enter_info'
p1135
asbasbasbag57
(g73
g59
NtRp1136
(dp1137
g62
(dp1138
sg71
g822
sg64
(lp1139
g57
(g78
g59
NtRp1140
(dp1141
g62
(dp1142
g82
g83
ssg71
g1136
sg64
(lp1143
S'http_user_agent'
p1144
asbag57
(g78
g59
NtRp1145
(dp1146
g62
(dp1147
g89
g90
ssg71
g1136
sg64
(lp1148
S':'
asbag57
(g78
g59
NtRp1149
(dp1150
g62
(dp1151
sg71
g1136
sg64
(lp1152
g57
(g58
g59
NtRp1153
(dp1154
g62
(dp1155
g70
I4
ssg71
g1149
sg64
(lp1156
S'Mozilla/5.0 (Windows NT 5.1; rv:13.0) Gecko/20100101 Firefox/13.0.1'
p1157
asbasbasbag57
(g73
g59
NtRp1158
(dp1159
g62
(dp1160
sg71
g822
sg64
(lp1161
g57
(g78
g59
NtRp1162
(dp1163
g62
(dp1164
g82
g83
ssg71
g1158
sg64
(lp1165
S'is_jython'
p1166
asbag57
(g78
g59
NtRp1167
(dp1168
g62
(dp1169
g89
g90
ssg71
g1158
sg64
(lp1170
S':'
asbag57
(g78
g59
NtRp1171
(dp1172
g62
(dp1173
sg71
g1158
sg64
(lp1174
g57
(g58
g59
NtRp1175
(dp1176
g62
(dp1177
g70
I4
ssg71
g1171
sg64
(lp1178
g100
asbasbasbag57
(g73
g59
NtRp1179
(dp1180
g62
(dp1181
sg71
g822
sg64
(lp1182
g57
(g78
g59
NtRp1183
(dp1184
g62
(dp1185
g82
g83
ssg71
g1179
sg64
(lp1186
S'is_pypy'
p1187
asbag57
(g78
g59
NtRp1188
(dp1189
g62
(dp1190
g89
g90
ssg71
g1179
sg64
(lp1191
S':'
asbag57
(g78
g59
NtRp1192
(dp1193
g62
(dp1194
sg71
g1179
sg64
(lp1195
g57
(g58
g59
NtRp1196
(dp1197
g62
(dp1198
g70
I4
ssg71
g1192
sg64
(lp1199
g100
asbasbasbag57
(g73
g59
NtRp1200
(dp1201
g62
(dp1202
sg71
g822
sg64
(lp1203
g57
(g78
g59
NtRp1204
(dp1205
g62
(dp1206
g82
g83
ssg71
g1200
sg64
(lp1207
S'path_info'
p1208
asbag57
(g78
g59
NtRp1209
(dp1210
g62
(dp1211
g89
g90
ssg71
g1200
sg64
(lp1212
S':'
asbag57
(g78
g59
NtRp1213
(dp1214
g62
(dp1215
sg71
g1200
sg64
(lp1216
g57
(g58
g59
NtRp1217
(dp1218
g62
(dp1219
g70
I4
ssg71
g1213
sg64
(lp1220
S'/mycrawler/default/extract'
p1221
asbasbasbag57
(g73
g59
NtRp1222
(dp1223
g62
(dp1224
sg71
g822
sg64
(lp1225
g57
(g78
g59
NtRp1226
(dp1227
g62
(dp1228
g82
g83
ssg71
g1222
sg64
(lp1229
S'query_string'
p1230
asbag57
(g78
g59
NtRp1231
(dp1232
g62
(dp1233
g89
g90
ssg71
g1222
sg64
(lp1234
S':'
asbag57
(g78
g59
NtRp1235
(dp1236
g62
(dp1237
sg71
g1222
sg64
(lp1238
g57
(g58
g59
NtRp1239
(dp1240
g62
(dp1241
g70
I4
ssg71
g1235
sg64
(lp1242
S''
asbasbasbag57
(g73
g59
NtRp1243
(dp1244
g62
(dp1245
sg71
g822
sg64
(lp1246
g57
(g78
g59
NtRp1247
(dp1248
g62
(dp1249
g82
g83
ssg71
g1243
sg64
(lp1250
S'remote_addr'
p1251
asbag57
(g78
g59
NtRp1252
(dp1253
g62
(dp1254
g89
g90
ssg71
g1243
sg64
(lp1255
S':'
asbag57
(g78
g59
NtRp1256
(dp1257
g62
(dp1258
sg71
g1243
sg64
(lp1259
g57
(g58
g59
NtRp1260
(dp1261
g62
(dp1262
g70
I4
ssg71
g1256
sg64
(lp1263
g190
asbasbasbag57
(g73
g59
NtRp1264
(dp1265
g62
(dp1266
sg71
g822
sg64
(lp1267
g57
(g78
g59
NtRp1268
(dp1269
g62
(dp1270
g82
g83
ssg71
g1264
sg64
(lp1271
S'remote_port'
p1272
asbag57
(g78
g59
NtRp1273
(dp1274
g62
(dp1275
g89
g90
ssg71
g1264
sg64
(lp1276
S':'
asbag57
(g78
g59
NtRp1277
(dp1278
g62
(dp1279
sg71
g1264
sg64
(lp1280
g57
(g58
g59
NtRp1281
(dp1282
g62
(dp1283
g70
I4
ssg71
g1277
sg64
(lp1284
S'1892'
p1285
asbasbasbag57
(g73
g59
NtRp1286
(dp1287
g62
(dp1288
sg71
g822
sg64
(lp1289
g57
(g78
g59
NtRp1290
(dp1291
g62
(dp1292
g82
g83
ssg71
g1286
sg64
(lp1293
S'request_method'
p1294
asbag57
(g78
g59
NtRp1295
(dp1296
g62
(dp1297
g89
g90
ssg71
g1286
sg64
(lp1298
S':'
asbag57
(g78
g59
NtRp1299
(dp1300
g62
(dp1301
sg71
g1286
sg64
(lp1302
g57
(g58
g59
NtRp1303
(dp1304
g62
(dp1305
g70
I4
ssg71
g1299
sg64
(lp1306
S'GET'
p1307
asbasbasbag57
(g73
g59
NtRp1308
(dp1309
g62
(dp1310
sg71
g822
sg64
(lp1311
g57
(g78
g59
NtRp1312
(dp1313
g62
(dp1314
g82
g83
ssg71
g1308
sg64
(lp1315
S'script_name'
p1316
asbag57
(g78
g59
NtRp1317
(dp1318
g62
(dp1319
g89
g90
ssg71
g1308
sg64
(lp1320
S':'
asbag57
(g78
g59
NtRp1321
(dp1322
g62
(dp1323
sg71
g1308
sg64
(lp1324
g57
(g58
g59
NtRp1325
(dp1326
g62
(dp1327
g70
I4
ssg71
g1321
sg64
(lp1328
S''
asbasbasbag57
(g73
g59
NtRp1329
(dp1330
g62
(dp1331
sg71
g822
sg64
(lp1332
g57
(g78
g59
NtRp1333
(dp1334
g62
(dp1335
g82
g83
ssg71
g1329
sg64
(lp1336
S'server_name'
p1337
asbag57
(g78
g59
NtRp1338
(dp1339
g62
(dp1340
g89
g90
ssg71
g1329
sg64
(lp1341
S':'
asbag57
(g78
g59
NtRp1342
(dp1343
g62
(dp1344
sg71
g1329
sg64
(lp1345
g57
(g58
g59
NtRp1346
(dp1347
g62
(dp1348
g70
I4
ssg71
g1342
sg64
(lp1349
S'mniagrover'
p1350
asbasbasbag57
(g73
g59
NtRp1351
(dp1352
g62
(dp1353
sg71
g822
sg64
(lp1354
g57
(g78
g59
NtRp1355
(dp1356
g62
(dp1357
g82
g83
ssg71
g1351
sg64
(lp1358
S'server_port'
p1359
asbag57
(g78
g59
NtRp1360
(dp1361
g62
(dp1362
g89
g90
ssg71
g1351
sg64
(lp1363
S':'
asbag57
(g78
g59
NtRp1364
(dp1365
g62
(dp1366
sg71
g1351
sg64
(lp1367
g57
(g58
g59
NtRp1368
(dp1369
g62
(dp1370
g70
I4
ssg71
g1364
sg64
(lp1371
S'8000'
p1372
asbasbasbag57
(g73
g59
NtRp1373
(dp1374
g62
(dp1375
sg71
g822
sg64
(lp1376
g57
(g78
g59
NtRp1377
(dp1378
g62
(dp1379
g82
g83
ssg71
g1373
sg64
(lp1380
S'server_protocol'
p1381
asbag57
(g78
g59
NtRp1382
(dp1383
g62
(dp1384
g89
g90
ssg71
g1373
sg64
(lp1385
S':'
asbag57
(g78
g59
NtRp1386
(dp1387
g62
(dp1388
sg71
g1373
sg64
(lp1389
g57
(g58
g59
NtRp1390
(dp1391
g62
(dp1392
g70
I4
ssg71
g1386
sg64
(lp1393
S'HTTP/1.1'
p1394
asbasbasbag57
(g73
g59
NtRp1395
(dp1396
g62
(dp1397
sg71
g822
sg64
(lp1398
g57
(g78
g59
NtRp1399
(dp1400
g62
(dp1401
g82
g83
ssg71
g1395
sg64
(lp1402
S'server_software'
p1403
asbag57
(g78
g59
NtRp1404
(dp1405
g62
(dp1406
g89
g90
ssg71
g1395
sg64
(lp1407
S':'
asbag57
(g78
g59
NtRp1408
(dp1409
g62
(dp1410
sg71
g1395
sg64
(lp1411
g57
(g58
g59
NtRp1412
(dp1413
g62
(dp1414
g70
I4
ssg71
g1408
sg64
(lp1415
S'Rocket 1.2.4'
p1416
asbasbasbag57
(g73
g59
NtRp1417
(dp1418
g62
(dp1419
sg71
g822
sg64
(lp1420
g57
(g78
g59
NtRp1421
(dp1422
g62
(dp1423
g82
g83
ssg71
g1417
sg64
(lp1424
S'web2py_crontype'
p1425
asbag57
(g78
g59
NtRp1426
(dp1427
g62
(dp1428
g89
g90
ssg71
g1417
sg64
(lp1429
S':'
asbag57
(g78
g59
NtRp1430
(dp1431
g62
(dp1432
sg71
g1417
sg64
(lp1433
g57
(g58
g59
NtRp1434
(dp1435
g62
(dp1436
g70
I4
ssg71
g1430
sg64
(lp1437
S'hard'
p1438
asbasbasbag57
(g73
g59
NtRp1439
(dp1440
g62
(dp1441
sg71
g822
sg64
(lp1442
g57
(g78
g59
NtRp1443
(dp1444
g62
(dp1445
g82
g83
ssg71
g1439
sg64
(lp1446
S'web2py_path'
p1447
asbag57
(g78
g59
NtRp1448
(dp1449
g62
(dp1450
g89
g90
ssg71
g1439
sg64
(lp1451
S':'
asbag57
(g78
g59
NtRp1452
(dp1453
g62
(dp1454
sg71
g1439
sg64
(lp1455
g57
(g58
g59
NtRp1456
(dp1457
g62
(dp1458
g70
I4
ssg71
g1452
sg64
(lp1459
g869
asbasbasbag57
(g73
g59
NtRp1460
(dp1461
g62
(dp1462
sg71
g822
sg64
(lp1463
g57
(g78
g59
NtRp1464
(dp1465
g62
(dp1466
g82
g83
ssg71
g1460
sg64
(lp1467
S'web2py_version'
p1468
asbag57
(g78
g59
NtRp1469
(dp1470
g62
(dp1471
g89
g90
ssg71
g1460
sg64
(lp1472
S':'
asbag57
(g78
g59
NtRp1473
(dp1474
g62
(dp1475
sg71
g1460
sg64
(lp1476
g57
(g58
g59
NtRp1477
(dp1478
g62
(dp1479
g70
I4
ssg71
g1473
sg64
(lp1480
g57
(g66
g59
NtRp1481
(dp1482
g62
(dp1483
g70
I3
ssg71
Nsg64
(lp1484
g57
(g73
g59
NtRp1485
(dp1486
g62
(dp1487
sg71
g1481
sg64
(lp1488
g57
(g78
g59
NtRp1489
(dp1490
g62
(dp1491
sg71
g1485
sg64
(lp1492
g57
(g58
g59
NtRp1493
(dp1494
g62
(dp1495
g70
I3
ssg71
g1489
sg64
(lp1496
S'1'
asbasbasbag57
(g73
g59
NtRp1497
(dp1498
g62
(dp1499
sg71
g1481
sg64
(lp1500
g57
(g78
g59
NtRp1501
(dp1502
g62
(dp1503
sg71
g1497
sg64
(lp1504
g57
(g58
g59
NtRp1505
(dp1506
g62
(dp1507
g70
I3
ssg71
g1501
sg64
(lp1508
S'99'
p1509
asbasbasbag57
(g73
g59
NtRp1510
(dp1511
g62
(dp1512
sg71
g1481
sg64
(lp1513
g57
(g78
g59
NtRp1514
(dp1515
g62
(dp1516
sg71
g1510
sg64
(lp1517
g57
(g58
g59
NtRp1518
(dp1519
g62
(dp1520
g70
I3
ssg71
g1514
sg64
(lp1521
S'7'
asbasbasbag57
(g73
g59
NtRp1522
(dp1523
g62
(dp1524
sg71
g1481
sg64
(lp1525
g57
(g78
g59
NtRp1526
(dp1527
g62
(dp1528
sg71
g1522
sg64
(lp1529
g57
(g58
g59
NtRp1530
(dp1531
g62
(dp1532
g70
I3
ssg71
g1526
sg64
(lp1533
S'datetime.datetime(2012, 3, 4, 22, 12, 8)'
p1534
asbasbasbag57
(g73
g59
NtRp1535
(dp1536
g62
(dp1537
sg71
g1481
sg64
(lp1538
g57
(g78
g59
NtRp1539
(dp1540
g62
(dp1541
sg71
g1535
sg64
(lp1542
g57
(g58
g59
NtRp1543
(dp1544
g62
(dp1545
g70
I3
ssg71
g1539
sg64
(lp1546
S'stable'
p1547
asbasbasbasbasbasbasbag57
(g73
g59
NtRp1548
(dp1549
g62
(dp1550
sg71
g822
sg64
(lp1551
g57
(g78
g59
NtRp1552
(dp1553
g62
(dp1554
g82
g83
ssg71
g1548
sg64
(lp1555
S'wsgi_errors'
p1556
asbag57
(g78
g59
NtRp1557
(dp1558
g62
(dp1559
g89
g90
ssg71
g1548
sg64
(lp1560
S':'
asbag57
(g78
g59
NtRp1561
(dp1562
g62
(dp1563
sg71
g1548
sg64
(lp1564
g57
(g58
g59
NtRp1565
(dp1566
g62
(dp1567
g70
I4
ssg71
g1561
sg64
(lp1568
S"<open file '<stderr>', mode 'w' at 0x00A550D0>"
p1569
asbasbasbag57
(g73
g59
NtRp1570
(dp1571
g62
(dp1572
sg71
g822
sg64
(lp1573
g57
(g78
g59
NtRp1574
(dp1575
g62
(dp1576
g82
g83
ssg71
g1570
sg64
(lp1577
S'wsgi_file_wrapper'
p1578
asbag57
(g78
g59
NtRp1579
(dp1580
g62
(dp1581
g89
g90
ssg71
g1570
sg64
(lp1582
S':'
asbag57
(g78
g59
NtRp1583
(dp1584
g62
(dp1585
sg71
g1570
sg64
(lp1586
g57
(g58
g59
NtRp1587
(dp1588
g62
(dp1589
g70
I4
ssg71
g1583
sg64
(lp1590
S'<class wsgiref.util.FileWrapper at 0x015E8AB0>'
p1591
asbasbasbag57
(g73
g59
NtRp1592
(dp1593
g62
(dp1594
sg71
g822
sg64
(lp1595
g57
(g78
g59
NtRp1596
(dp1597
g62
(dp1598
g82
g83
ssg71
g1592
sg64
(lp1599
S'wsgi_input'
p1600
asbag57
(g78
g59
NtRp1601
(dp1602
g62
(dp1603
g89
g90
ssg71
g1592
sg64
(lp1604
S':'
asbag57
(g78
g59
NtRp1605
(dp1606
g62
(dp1607
sg71
g1592
sg64
(lp1608
g57
(g58
g59
NtRp1609
(dp1610
g62
(dp1611
g70
I4
ssg71
g1605
sg64
(lp1612
S'<socket._fileobject object at 0x049EA370>'
p1613
asbasbasbag57
(g73
g59
NtRp1614
(dp1615
g62
(dp1616
sg71
g822
sg64
(lp1617
g57
(g78
g59
NtRp1618
(dp1619
g62
(dp1620
g82
g83
ssg71
g1614
sg64
(lp1621
S'wsgi_multiprocess'
p1622
asbag57
(g78
g59
NtRp1623
(dp1624
g62
(dp1625
g89
g90
ssg71
g1614
sg64
(lp1626
S':'
asbag57
(g78
g59
NtRp1627
(dp1628
g62
(dp1629
sg71
g1614
sg64
(lp1630
g57
(g58
g59
NtRp1631
(dp1632
g62
(dp1633
g70
I4
ssg71
g1627
sg64
(lp1634
g100
asbasbasbag57
(g73
g59
NtRp1635
(dp1636
g62
(dp1637
sg71
g822
sg64
(lp1638
g57
(g78
g59
NtRp1639
(dp1640
g62
(dp1641
g82
g83
ssg71
g1635
sg64
(lp1642
S'wsgi_multithread'
p1643
asbag57
(g78
g59
NtRp1644
(dp1645
g62
(dp1646
g89
g90
ssg71
g1635
sg64
(lp1647
S':'
asbag57
(g78
g59
NtRp1648
(dp1649
g62
(dp1650
sg71
g1635
sg64
(lp1651
g57
(g58
g59
NtRp1652
(dp1653
g62
(dp1654
g70
I4
ssg71
g1648
sg64
(lp1655
S'True'
p1656
asbasbasbag57
(g73
g59
NtRp1657
(dp1658
g62
(dp1659
sg71
g822
sg64
(lp1660
g57
(g78
g59
NtRp1661
(dp1662
g62
(dp1663
g82
g83
ssg71
g1657
sg64
(lp1664
S'wsgi_run_once'
p1665
asbag57
(g78
g59
NtRp1666
(dp1667
g62
(dp1668
g89
g90
ssg71
g1657
sg64
(lp1669
S':'
asbag57
(g78
g59
NtRp1670
(dp1671
g62
(dp1672
sg71
g1657
sg64
(lp1673
g57
(g58
g59
NtRp1674
(dp1675
g62
(dp1676
g70
I4
ssg71
g1670
sg64
(lp1677
g100
asbasbasbag57
(g73
g59
NtRp1678
(dp1679
g62
(dp1680
sg71
g822
sg64
(lp1681
g57
(g78
g59
NtRp1682
(dp1683
g62
(dp1684
g82
g83
ssg71
g1678
sg64
(lp1685
S'wsgi_url_scheme'
p1686
asbag57
(g78
g59
NtRp1687
(dp1688
g62
(dp1689
g89
g90
ssg71
g1678
sg64
(lp1690
S':'
asbag57
(g78
g59
NtRp1691
(dp1692
g62
(dp1693
sg71
g1678
sg64
(lp1694
g57
(g58
g59
NtRp1695
(dp1696
g62
(dp1697
g70
I4
ssg71
g1691
sg64
(lp1698
S'http'
p1699
asbasbasbag57
(g73
g59
NtRp1700
(dp1701
g62
(dp1702
sg71
g822
sg64
(lp1703
g57
(g78
g59
NtRp1704
(dp1705
g62
(dp1706
g82
g83
ssg71
g1700
sg64
(lp1707
S'wsgi_version'
p1708
asbag57
(g78
g59
NtRp1709
(dp1710
g62
(dp1711
g89
g90
ssg71
g1700
sg64
(lp1712
S':'
asbag57
(g78
g59
NtRp1713
(dp1714
g62
(dp1715
sg71
g1700
sg64
(lp1716
g57
(g58
g59
NtRp1717
(dp1718
g62
(dp1719
g70
I4
ssg71
g1713
sg64
(lp1720
g57
(g66
g59
NtRp1721
(dp1722
g62
(dp1723
g70
I3
ssg71
Nsg64
(lp1724
g57
(g73
g59
NtRp1725
(dp1726
g62
(dp1727
sg71
g1721
sg64
(lp1728
g57
(g78
g59
NtRp1729
(dp1730
g62
(dp1731
sg71
g1725
sg64
(lp1732
g57
(g58
g59
NtRp1733
(dp1734
g62
(dp1735
g70
I3
ssg71
g1729
sg64
(lp1736
S'1'
asbasbasbag57
(g73
g59
NtRp1737
(dp1738
g62
(dp1739
sg71
g1721
sg64
(lp1740
g57
(g78
g59
NtRp1741
(dp1742
g62
(dp1743
sg71
g1737
sg64
(lp1744
g57
(g58
g59
NtRp1745
(dp1746
g62
(dp1747
g70
I3
ssg71
g1741
sg64
(lp1748
S'0'
asbasbasbasbasbasbasbasbasbasbasbag57
(g73
g59
NtRp1749
(dp1750
g62
(dp1751
sg71
g67
sg64
(lp1752
g57
(g78
g59
NtRp1753
(dp1754
g62
(dp1755
g82
g83
ssg71
g1749
sg64
(lp1756
S'extension'
p1757
asbag57
(g78
g59
NtRp1758
(dp1759
g62
(dp1760
g89
g90
ssg71
g1749
sg64
(lp1761
S':'
asbag57
(g78
g59
NtRp1762
(dp1763
g62
(dp1764
sg71
g1749
sg64
(lp1765
g57
(g58
g59
NtRp1766
(dp1767
g62
(dp1768
g70
I5
ssg71
g1762
sg64
(lp1769
S'html'
p1770
asbasbasbag57
(g73
g59
NtRp1771
(dp1772
g62
(dp1773
sg71
g67
sg64
(lp1774
g57
(g78
g59
NtRp1775
(dp1776
g62
(dp1777
g82
g83
ssg71
g1771
sg64
(lp1778
S'folder'
p1779
asbag57
(g78
g59
NtRp1780
(dp1781
g62
(dp1782
g89
g90
ssg71
g1771
sg64
(lp1783
S':'
asbag57
(g78
g59
NtRp1784
(dp1785
g62
(dp1786
sg71
g1771
sg64
(lp1787
g57
(g58
g59
NtRp1788
(dp1789
g62
(dp1790
g70
I5
ssg71
g1784
sg64
(lp1791
S'C:\\Documents and Settings\\agrover\\Desktop\\previous crawler\\web2py\\applications\\mycrawler\\'
p1792
asbasbasbag57
(g73
g59
NtRp1793
(dp1794
g62
(dp1795
sg71
g67
sg64
(lp1796
g57
(g78
g59
NtRp1797
(dp1798
g62
(dp1799
g82
g83
ssg71
g1793
sg64
(lp1800
S'function'
p1801
asbag57
(g78
g59
NtRp1802
(dp1803
g62
(dp1804
g89
g90
ssg71
g1793
sg64
(lp1805
S':'
asbag57
(g78
g59
NtRp1806
(dp1807
g62
(dp1808
sg71
g1793
sg64
(lp1809
g57
(g58
g59
NtRp1810
(dp1811
g62
(dp1812
g70
I5
ssg71
g1806
sg64
(lp1813
S'extract'
p1814
asbasbasbag57
(g73
g59
NtRp1815
(dp1816
g62
(dp1817
sg71
g67
sg64
(lp1818
g57
(g78
g59
NtRp1819
(dp1820
g62
(dp1821
g82
g83
ssg71
g1815
sg64
(lp1822
S'get_vars'
p1823
asbag57
(g78
g59
NtRp1824
(dp1825
g62
(dp1826
g89
g90
ssg71
g1815
sg64
(lp1827
S':'
asbag57
(g78
g59
NtRp1828
(dp1829
g62
(dp1830
sg71
g1815
sg64
(lp1831
g57
(g58
g59
NtRp1832
(dp1833
g62
(dp1834
g70
I5
ssg71
g1828
sg64
(lp1835
g57
(g66
g59
NtRp1836
(dp1837
g62
(dp1838
g70
I4
ssg71
Nsg64
(lp1839
sbasbasbasbag57
(g73
g59
NtRp1840
(dp1841
g62
(dp1842
sg71
g67
sg64
(lp1843
g57
(g78
g59
NtRp1844
(dp1845
g62
(dp1846
g82
g83
ssg71
g1840
sg64
(lp1847
S'global_settings'
p1848
asbag57
(g78
g59
NtRp1849
(dp1850
g62
(dp1851
g89
g90
ssg71
g1840
sg64
(lp1852
S':'
asbag57
(g78
g59
NtRp1853
(dp1854
g62
(dp1855
sg71
g1840
sg64
(lp1856
g57
(g58
g59
NtRp1857
(dp1858
g62
(dp1859
g70
I5
ssg71
g1853
sg64
(lp1860
g57
(g66
g59
NtRp1861
(dp1862
g62
(dp1863
g70
I4
ssg71
Nsg64
(lp1864
g57
(g73
g59
NtRp1865
(dp1866
g62
(dp1867
sg71
g1861
sg64
(lp1868
g57
(g78
g59
NtRp1869
(dp1870
g62
(dp1871
g82
g83
ssg71
g1865
sg64
(lp1872
g834
asbag57
(g78
g59
NtRp1873
(dp1874
g62
(dp1875
g89
g90
ssg71
g1865
sg64
(lp1876
S':'
asbag57
(g78
g59
NtRp1877
(dp1878
g62
(dp1879
sg71
g1865
sg64
(lp1880
g57
(g58
g59
NtRp1881
(dp1882
g62
(dp1883
g70
I4
ssg71
g1877
sg64
(lp1884
S"set(['C:\\\\Documents and Settings\\\\agrover\\\\Desktop\\\\previous crawler\\\\web2py\\\\applications\\\\admin\\\\', 'C:\\\\Documents and Settings\\\\agrover\\\\Desktop\\\\previous crawler\\\\web2py\\\\applications\\\\mycrawler\\\\', 'C:\\\\Documents and Settings\\\\agrover\\\\Desktop\\\\previous crawler\\\\web2py\\\\applications\\\\welcome\\\\'])"
p1885
asbasbasbag57
(g73
g59
NtRp1886
(dp1887
g62
(dp1888
sg71
g1861
sg64
(lp1889
g57
(g78
g59
NtRp1890
(dp1891
g62
(dp1892
g82
g83
ssg71
g1886
sg64
(lp1893
g856
asbag57
(g78
g59
NtRp1894
(dp1895
g62
(dp1896
g89
g90
ssg71
g1886
sg64
(lp1897
S':'
asbag57
(g78
g59
NtRp1898
(dp1899
g62
(dp1900
sg71
g1886
sg64
(lp1901
g57
(g58
g59
NtRp1902
(dp1903
g62
(dp1904
g70
I4
ssg71
g1898
sg64
(lp1905
g869
asbasbasbag57
(g73
g59
NtRp1906
(dp1907
g62
(dp1908
sg71
g1861
sg64
(lp1909
g57
(g78
g59
NtRp1910
(dp1911
g62
(dp1912
g82
g83
ssg71
g1906
sg64
(lp1913
g878
asbag57
(g78
g59
NtRp1914
(dp1915
g62
(dp1916
g89
g90
ssg71
g1906
sg64
(lp1917
S':'
asbag57
(g78
g59
NtRp1918
(dp1919
g62
(dp1920
sg71
g1906
sg64
(lp1921
g57
(g58
g59
NtRp1922
(dp1923
g62
(dp1924
g70
I4
ssg71
g1918
sg64
(lp1925
g57
(g66
g59
NtRp1926
(dp1927
g62
(dp1928
g70
I3
ssg71
Nsg64
(lp1929
sbasbasbasbag57
(g73
g59
NtRp1930
(dp1931
g62
(dp1932
sg71
g1861
sg64
(lp1933
g57
(g78
g59
NtRp1934
(dp1935
g62
(dp1936
g82
g83
ssg71
g1930
sg64
(lp1937
g903
asbag57
(g78
g59
NtRp1938
(dp1939
g62
(dp1940
g89
g90
ssg71
g1930
sg64
(lp1941
S':'
asbag57
(g78
g59
NtRp1942
(dp1943
g62
(dp1944
sg71
g1930
sg64
(lp1945
g57
(g58
g59
NtRp1946
(dp1947
g62
(dp1948
g70
I4
ssg71
g1942
sg64
(lp1949
S"<Values at 0x16d63f0: {'verbose': False, 'ip': '127.0.0.1', 'shutdown_timeout': 5, 'taskbar': False, 'nocron': False, 'pid_filename': 'httpserver.pid', 'maxthreads': None, 'softcron': False, 'server_name': 'mniagrover', 'bpython': False, 'nogui': False, 'port': 8000, 'extcron': False, 'debuglevel': 30, 'test': None, 'folder': 'C:\\\\Documents and Settings\\\\agrover\\\\Desktop\\\\previous crawler\\\\web2py', 'config': '', 'import_models': False, 'winservice': '', 'shell': None, 'run': '', 'log_filename': 'httpserver.log', 'args': [''], 'socket_timeout': 5, 'ssl_ca_certificate': None, 'scheduler': None, 'profiler_filename': None, 'ssl_private_key': '', 'password': '<ask>', 'request_queue_size': 5, 'ssl_certificate': '', 'cronjob': False, 'numthreads': None, 'quiet': False, 'interfaces': None, 'minthreads': None, 'timeout': 10, 'plain': False, 'nobanner': False}>"
p1950
asbasbasbag57
(g73
g59
NtRp1951
(dp1952
g62
(dp1953
sg71
g1861
sg64
(lp1954
g57
(g78
g59
NtRp1955
(dp1956
g62
(dp1957
g82
g83
ssg71
g1951
sg64
(lp1958
g925
asbag57
(g78
g59
NtRp1959
(dp1960
g62
(dp1961
g89
g90
ssg71
g1951
sg64
(lp1962
S':'
asbag57
(g78
g59
NtRp1963
(dp1964
g62
(dp1965
sg71
g1951
sg64
(lp1966
g57
(g58
g59
NtRp1967
(dp1968
g62
(dp1969
g70
I4
ssg71
g1963
sg64
(lp1970
S'set([])'
p1971
asbasbasbag57
(g73
g59
NtRp1972
(dp1973
g62
(dp1974
sg71
g1861
sg64
(lp1975
g57
(g78
g59
NtRp1976
(dp1977
g62
(dp1978
g82
g83
ssg71
g1972
sg64
(lp1979
g947
asbag57
(g78
g59
NtRp1980
(dp1981
g62
(dp1982
g89
g90
ssg71
g1972
sg64
(lp1983
S':'
asbag57
(g78
g59
NtRp1984
(dp1985
g62
(dp1986
sg71
g1972
sg64
(lp1987
g57
(g58
g59
NtRp1988
(dp1989
g62
(dp1990
g70
I4
ssg71
g1984
sg64
(lp1991
g100
asbasbasbag57
(g73
g59
NtRp1992
(dp1993
g62
(dp1994
sg71
g1861
sg64
(lp1995
g57
(g78
g59
NtRp1996
(dp1997
g62
(dp1998
g82
g83
ssg71
g1992
sg64
(lp1999
g968
asbag57
(g78
g59
NtRp2000
(dp2001
g62
(dp2002
g89
g90
ssg71
g1992
sg64
(lp2003
S':'
asbag57
(g78
g59
NtRp2004
(dp2005
g62
(dp2006
sg71
g1992
sg64
(lp2007
g57
(g58
g59
NtRp2008
(dp2009
g62
(dp2010
g70
I4
ssg71
g2004
sg64
(lp2011
g981
asbasbasbag57
(g73
g59
NtRp2012
(dp2013
g62
(dp2014
sg71
g1861
sg64
(lp2015
g57
(g78
g59
NtRp2016
(dp2017
g62
(dp2018
g82
g83
ssg71
g2012
sg64
(lp2019
g1166
asbag57
(g78
g59
NtRp2020
(dp2021
g62
(dp2022
g89
g90
ssg71
g2012
sg64
(lp2023
S':'
asbag57
(g78
g59
NtRp2024
(dp2025
g62
(dp2026
sg71
g2012
sg64
(lp2027
g57
(g58
g59
NtRp2028
(dp2029
g62
(dp2030
g70
I4
ssg71
g2024
sg64
(lp2031
g100
asbasbasbag57
(g73
g59
NtRp2032
(dp2033
g62
(dp2034
sg71
g1861
sg64
(lp2035
g57
(g78
g59
NtRp2036
(dp2037
g62
(dp2038
g82
g83
ssg71
g2032
sg64
(lp2039
g1187
asbag57
(g78
g59
NtRp2040
(dp2041
g62
(dp2042
g89
g90
ssg71
g2032
sg64
(lp2043
S':'
asbag57
(g78
g59
NtRp2044
(dp2045
g62
(dp2046
sg71
g2032
sg64
(lp2047
g57
(g58
g59
NtRp2048
(dp2049
g62
(dp2050
g70
I4
ssg71
g2044
sg64
(lp2051
g100
asbasbasbag57
(g73
g59
NtRp2052
(dp2053
g62
(dp2054
sg71
g1861
sg64
(lp2055
g57
(g78
g59
NtRp2056
(dp2057
g62
(dp2058
g82
g83
ssg71
g2052
sg64
(lp2059
g1425
asbag57
(g78
g59
NtRp2060
(dp2061
g62
(dp2062
g89
g90
ssg71
g2052
sg64
(lp2063
S':'
asbag57
(g78
g59
NtRp2064
(dp2065
g62
(dp2066
sg71
g2052
sg64
(lp2067
g57
(g58
g59
NtRp2068
(dp2069
g62
(dp2070
g70
I4
ssg71
g2064
sg64
(lp2071
g1438
asbasbasbag57
(g73
g59
NtRp2072
(dp2073
g62
(dp2074
sg71
g1861
sg64
(lp2075
g57
(g78
g59
NtRp2076
(dp2077
g62
(dp2078
g82
g83
ssg71
g2072
sg64
(lp2079
g1468
asbag57
(g78
g59
NtRp2080
(dp2081
g62
(dp2082
g89
g90
ssg71
g2072
sg64
(lp2083
S':'
asbag57
(g78
g59
NtRp2084
(dp2085
g62
(dp2086
sg71
g2072
sg64
(lp2087
g57
(g58
g59
NtRp2088
(dp2089
g62
(dp2090
g70
I4
ssg71
g2084
sg64
(lp2091
g57
(g66
g59
NtRp2092
(dp2093
g62
(dp2094
g70
I3
ssg71
Nsg64
(lp2095
g57
(g73
g59
NtRp2096
(dp2097
g62
(dp2098
sg71
g2092
sg64
(lp2099
g57
(g78
g59
NtRp2100
(dp2101
g62
(dp2102
sg71
g2096
sg64
(lp2103
g57
(g58
g59
NtRp2104
(dp2105
g62
(dp2106
g70
I3
ssg71
g2100
sg64
(lp2107
S'1'
asbasbasbag57
(g73
g59
NtRp2108
(dp2109
g62
(dp2110
sg71
g2092
sg64
(lp2111
g57
(g78
g59
NtRp2112
(dp2113
g62
(dp2114
sg71
g2108
sg64
(lp2115
g57
(g58
g59
NtRp2116
(dp2117
g62
(dp2118
g70
I3
ssg71
g2112
sg64
(lp2119
S'99'
p2120
asbasbasbag57
(g73
g59
NtRp2121
(dp2122
g62
(dp2123
sg71
g2092
sg64
(lp2124
g57
(g78
g59
NtRp2125
(dp2126
g62
(dp2127
sg71
g2121
sg64
(lp2128
g57
(g58
g59
NtRp2129
(dp2130
g62
(dp2131
g70
I3
ssg71
g2125
sg64
(lp2132
S'7'
asbasbasbag57
(g73
g59
NtRp2133
(dp2134
g62
(dp2135
sg71
g2092
sg64
(lp2136
g57
(g78
g59
NtRp2137
(dp2138
g62
(dp2139
sg71
g2133
sg64
(lp2140
g57
(g58
g59
NtRp2141
(dp2142
g62
(dp2143
g70
I3
ssg71
g2137
sg64
(lp2144
S'datetime.datetime(2012, 3, 4, 22, 12, 8)'
p2145
asbasbasbag57
(g73
g59
NtRp2146
(dp2147
g62
(dp2148
sg71
g2092
sg64
(lp2149
g57
(g78
g59
NtRp2150
(dp2151
g62
(dp2152
sg71
g2146
sg64
(lp2153
g57
(g58
g59
NtRp2154
(dp2155
g62
(dp2156
g70
I3
ssg71
g2150
sg64
(lp2157
g1547
asbasbasbasbasbasbasbasbasbasbasbag57
(g73
g59
NtRp2158
(dp2159
g62
(dp2160
sg71
g67
sg64
(lp2161
g57
(g78
g59
NtRp2162
(dp2163
g62
(dp2164
g82
g83
ssg71
g2158
sg64
(lp2165
S'is_https'
p2166
asbag57
(g78
g59
NtRp2167
(dp2168
g62
(dp2169
g89
g90
ssg71
g2158
sg64
(lp2170
S':'
asbag57
(g78
g59
NtRp2171
(dp2172
g62
(dp2173
sg71
g2158
sg64
(lp2174
g57
(g58
g59
NtRp2175
(dp2176
g62
(dp2177
g70
I5
ssg71
g2171
sg64
(lp2178
g100
asbasbasbag57
(g73
g59
NtRp2179
(dp2180
g62
(dp2181
sg71
g67
sg64
(lp2182
g57
(g78
g59
NtRp2183
(dp2184
g62
(dp2185
g82
g83
ssg71
g2179
sg64
(lp2186
S'is_local'
p2187
asbag57
(g78
g59
NtRp2188
(dp2189
g62
(dp2190
g89
g90
ssg71
g2179
sg64
(lp2191
S':'
asbag57
(g78
g59
NtRp2192
(dp2193
g62
(dp2194
sg71
g2179
sg64
(lp2195
g57
(g58
g59
NtRp2196
(dp2197
g62
(dp2198
g70
I5
ssg71
g2192
sg64
(lp2199
g1656
asbasbasbag57
(g73
g59
NtRp2200
(dp2201
g62
(dp2202
sg71
g67
sg64
(lp2203
g57
(g78
g59
NtRp2204
(dp2205
g62
(dp2206
g82
g83
ssg71
g2200
sg64
(lp2207
S'is_restful'
p2208
asbag57
(g78
g59
NtRp2209
(dp2210
g62
(dp2211
g89
g90
ssg71
g2200
sg64
(lp2212
S':'
asbag57
(g78
g59
NtRp2213
(dp2214
g62
(dp2215
sg71
g2200
sg64
(lp2216
g57
(g58
g59
NtRp2217
(dp2218
g62
(dp2219
g70
I5
ssg71
g2213
sg64
(lp2220
g100
asbasbasbag57
(g73
g59
NtRp2221
(dp2222
g62
(dp2223
sg71
g67
sg64
(lp2224
g57
(g78
g59
NtRp2225
(dp2226
g62
(dp2227
g82
g83
ssg71
g2221
sg64
(lp2228
S'now'
p2229
asbag57
(g78
g59
NtRp2230
(dp2231
g62
(dp2232
g89
g90
ssg71
g2221
sg64
(lp2233
S':'
asbag57
(g78
g59
NtRp2234
(dp2235
g62
(dp2236
sg71
g2221
sg64
(lp2237
g57
(g58
g59
NtRp2238
(dp2239
g62
(dp2240
g70
I5
ssg71
g2234
sg64
(lp2241
S'datetime.datetime(2012, 7, 6, 11, 41, 5, 875000)'
p2242
asbasbasbag57
(g73
g59
NtRp2243
(dp2244
g62
(dp2245
sg71
g67
sg64
(lp2246
g57
(g78
g59
NtRp2247
(dp2248
g62
(dp2249
g82
g83
ssg71
g2243
sg64
(lp2250
S'post_vars'
p2251
asbag57
(g78
g59
NtRp2252
(dp2253
g62
(dp2254
g89
g90
ssg71
g2243
sg64
(lp2255
S':'
asbag57
(g78
g59
NtRp2256
(dp2257
g62
(dp2258
sg71
g2243
sg64
(lp2259
g57
(g58
g59
NtRp2260
(dp2261
g62
(dp2262
g70
I5
ssg71
g2256
sg64
(lp2263
g57
(g66
g59
NtRp2264
(dp2265
g62
(dp2266
g70
I4
ssg71
Nsg64
(lp2267
sbasbasbasbag57
(g73
g59
NtRp2268
(dp2269
g62
(dp2270
sg71
g67
sg64
(lp2271
g57
(g78
g59
NtRp2272
(dp2273
g62
(dp2274
g82
g83
ssg71
g2268
sg64
(lp2275
S'url'
p2276
asbag57
(g78
g59
NtRp2277
(dp2278
g62
(dp2279
g89
g90
ssg71
g2268
sg64
(lp2280
S':'
asbag57
(g78
g59
NtRp2281
(dp2282
g62
(dp2283
sg71
g2268
sg64
(lp2284
g57
(g58
g59
NtRp2285
(dp2286
g62
(dp2287
g70
I5
ssg71
g2281
sg64
(lp2288
S'/mycrawler/default/extract'
p2289
asbasbasbag57
(g73
g59
NtRp2290
(dp2291
g62
(dp2292
sg71
g67
sg64
(lp2293
g57
(g78
g59
NtRp2294
(dp2295
g62
(dp2296
g82
g83
ssg71
g2290
sg64
(lp2297
S'utcnow'
p2298
asbag57
(g78
g59
NtRp2299
(dp2300
g62
(dp2301
g89
g90
ssg71
g2290
sg64
(lp2302
S':'
asbag57
(g78
g59
NtRp2303
(dp2304
g62
(dp2305
sg71
g2290
sg64
(lp2306
g57
(g58
g59
NtRp2307
(dp2308
g62
(dp2309
g70
I5
ssg71
g2303
sg64
(lp2310
S'datetime.datetime(2012, 7, 6, 18, 41, 5, 875000)'
p2311
asbasbasbag57
(g73
g59
NtRp2312
(dp2313
g62
(dp2314
sg71
g67
sg64
(lp2315
g57
(g78
g59
NtRp2316
(dp2317
g62
(dp2318
g82
g83
ssg71
g2312
sg64
(lp2319
S'uuid'
p2320
asbag57
(g78
g59
NtRp2321
(dp2322
g62
(dp2323
g89
g90
ssg71
g2312
sg64
(lp2324
S':'
asbag57
(g78
g59
NtRp2325
(dp2326
g62
(dp2327
sg71
g2312
sg64
(lp2328
g57
(g58
g59
NtRp2329
(dp2330
g62
(dp2331
g70
I5
ssg71
g2325
sg64
(lp2332
S'mycrawler/127.0.0.1.2012-07-06.11-41-05.e283e4f1-84f5-4491-80d5-d99c30cd7fa6'
p2333
asbasbasbag57
(g73
g59
NtRp2334
(dp2335
g62
(dp2336
sg71
g67
sg64
(lp2337
g57
(g78
g59
NtRp2338
(dp2339
g62
(dp2340
g82
g83
ssg71
g2334
sg64
(lp2341
S'vars'
p2342
asbag57
(g78
g59
NtRp2343
(dp2344
g62
(dp2345
g89
g90
ssg71
g2334
sg64
(lp2346
S':'
asbag57
(g78
g59
NtRp2347
(dp2348
g62
(dp2349
sg71
g2334
sg64
(lp2350
g57
(g58
g59
NtRp2351
(dp2352
g62
(dp2353
g70
I5
ssg71
g2347
sg64
(lp2354
g57
(g66
g59
NtRp2355
(dp2356
g62
(dp2357
g70
I4
ssg71
Nsg64
(lp2358
sbasbasbasbag57
(g73
g59
NtRp2359
(dp2360
g62
(dp2361
sg71
g67
sg64
(lp2362
g57
(g78
g59
NtRp2363
(dp2364
g62
(dp2365
g82
g83
ssg71
g2359
sg64
(lp2366
S'wsgi'
p2367
asbag57
(g78
g59
NtRp2368
(dp2369
g62
(dp2370
g89
g90
ssg71
g2359
sg64
(lp2371
S':'
asbag57
(g78
g59
NtRp2372
(dp2373
g62
(dp2374
sg71
g2359
sg64
(lp2375
g57
(g58
g59
NtRp2376
(dp2377
g62
(dp2378
g70
I5
ssg71
g2372
sg64
(lp2379
g57
(g66
g59
NtRp2380
(dp2381
g62
(dp2382
g70
I4
ssg71
Nsg64
(lp2383
g57
(g73
g59
NtRp2384
(dp2385
g62
(dp2386
sg71
g2380
sg64
(lp2387
g57
(g78
g59
NtRp2388
(dp2389
g62
(dp2390
g82
g83
ssg71
g2384
sg64
(lp2391
S'environ'
p2392
asbag57
(g78
g59
NtRp2393
(dp2394
g62
(dp2395
g89
g90
ssg71
g2384
sg64
(lp2396
S':'
asbag57
(g78
g59
NtRp2397
(dp2398
g62
(dp2399
sg71
g2384
sg64
(lp2400
g57
(g58
g59
NtRp2401
(dp2402
g62
(dp2403
g70
I4
ssg71
g2397
sg64
(lp2404
g57
(g66
g59
NtRp2405
(dp2406
g62
(dp2407
g70
I3
ssg71
Nsg64
(lp2408
g57
(g73
g59
NtRp2409
(dp2410
g62
(dp2411
sg71
g2405
sg64
(lp2412
g57
(g78
g59
NtRp2413
(dp2414
g62
(dp2415
g82
g83
ssg71
g2409
sg64
(lp2416
S'HTTP_ACCEPT'
p2417
asbag57
(g78
g59
NtRp2418
(dp2419
g62
(dp2420
g89
g90
ssg71
g2409
sg64
(lp2421
S':'
asbag57
(g78
g59
NtRp2422
(dp2423
g62
(dp2424
sg71
g2409
sg64
(lp2425
g57
(g58
g59
NtRp2426
(dp2427
g62
(dp2428
g70
I3
ssg71
g2422
sg64
(lp2429
g1003
asbasbasbag57
(g73
g59
NtRp2430
(dp2431
g62
(dp2432
sg71
g2405
sg64
(lp2433
g57
(g78
g59
NtRp2434
(dp2435
g62
(dp2436
g82
g83
ssg71
g2430
sg64
(lp2437
S'HTTP_ACCEPT_ENCODING'
p2438
asbag57
(g78
g59
NtRp2439
(dp2440
g62
(dp2441
g89
g90
ssg71
g2430
sg64
(lp2442
S':'
asbag57
(g78
g59
NtRp2443
(dp2444
g62
(dp2445
sg71
g2430
sg64
(lp2446
g57
(g58
g59
NtRp2447
(dp2448
g62
(dp2449
g70
I3
ssg71
g2443
sg64
(lp2450
g1025
asbasbasbag57
(g73
g59
NtRp2451
(dp2452
g62
(dp2453
sg71
g2405
sg64
(lp2454
g57
(g78
g59
NtRp2455
(dp2456
g62
(dp2457
g82
g83
ssg71
g2451
sg64
(lp2458
S'HTTP_ACCEPT_LANGUAGE'
p2459
asbag57
(g78
g59
NtRp2460
(dp2461
g62
(dp2462
g89
g90
ssg71
g2451
sg64
(lp2463
S':'
asbag57
(g78
g59
NtRp2464
(dp2465
g62
(dp2466
sg71
g2451
sg64
(lp2467
g57
(g58
g59
NtRp2468
(dp2469
g62
(dp2470
g70
I3
ssg71
g2464
sg64
(lp2471
g1047
asbasbasbag57
(g73
g59
NtRp2472
(dp2473
g62
(dp2474
sg71
g2405
sg64
(lp2475
g57
(g78
g59
NtRp2476
(dp2477
g62
(dp2478
g82
g83
ssg71
g2472
sg64
(lp2479
S'HTTP_CONNECTION'
p2480
asbag57
(g78
g59
NtRp2481
(dp2482
g62
(dp2483
g89
g90
ssg71
g2472
sg64
(lp2484
S':'
asbag57
(g78
g59
NtRp2485
(dp2486
g62
(dp2487
sg71
g2472
sg64
(lp2488
g57
(g58
g59
NtRp2489
(dp2490
g62
(dp2491
g70
I3
ssg71
g2485
sg64
(lp2492
g1069
asbasbasbag57
(g73
g59
NtRp2493
(dp2494
g62
(dp2495
sg71
g2405
sg64
(lp2496
g57
(g78
g59
NtRp2497
(dp2498
g62
(dp2499
g82
g83
ssg71
g2493
sg64
(lp2500
S'HTTP_COOKIE'
p2501
asbag57
(g78
g59
NtRp2502
(dp2503
g62
(dp2504
g89
g90
ssg71
g2493
sg64
(lp2505
S':'
asbag57
(g78
g59
NtRp2506
(dp2507
g62
(dp2508
sg71
g2493
sg64
(lp2509
g57
(g58
g59
NtRp2510
(dp2511
g62
(dp2512
g70
I3
ssg71
g2506
sg64
(lp2513
g1091
asbasbasbag57
(g73
g59
NtRp2514
(dp2515
g62
(dp2516
sg71
g2405
sg64
(lp2517
g57
(g78
g59
NtRp2518
(dp2519
g62
(dp2520
g82
g83
ssg71
g2514
sg64
(lp2521
S'HTTP_HOST'
p2522
asbag57
(g78
g59
NtRp2523
(dp2524
g62
(dp2525
g89
g90
ssg71
g2514
sg64
(lp2526
S':'
asbag57
(g78
g59
NtRp2527
(dp2528
g62
(dp2529
sg71
g2514
sg64
(lp2530
g57
(g58
g59
NtRp2531
(dp2532
g62
(dp2533
g70
I3
ssg71
g2527
sg64
(lp2534
g1113
asbasbasbag57
(g73
g59
NtRp2535
(dp2536
g62
(dp2537
sg71
g2405
sg64
(lp2538
g57
(g78
g59
NtRp2539
(dp2540
g62
(dp2541
g82
g83
ssg71
g2535
sg64
(lp2542
S'HTTP_REFERER'
p2543
asbag57
(g78
g59
NtRp2544
(dp2545
g62
(dp2546
g89
g90
ssg71
g2535
sg64
(lp2547
S':'
asbag57
(g78
g59
NtRp2548
(dp2549
g62
(dp2550
sg71
g2535
sg64
(lp2551
g57
(g58
g59
NtRp2552
(dp2553
g62
(dp2554
g70
I3
ssg71
g2548
sg64
(lp2555
g1135
asbasbasbag57
(g73
g59
NtRp2556
(dp2557
g62
(dp2558
sg71
g2405
sg64
(lp2559
g57
(g78
g59
NtRp2560
(dp2561
g62
(dp2562
g82
g83
ssg71
g2556
sg64
(lp2563
S'HTTP_USER_AGENT'
p2564
asbag57
(g78
g59
NtRp2565
(dp2566
g62
(dp2567
g89
g90
ssg71
g2556
sg64
(lp2568
S':'
asbag57
(g78
g59
NtRp2569
(dp2570
g62
(dp2571
sg71
g2556
sg64
(lp2572
g57
(g58
g59
NtRp2573
(dp2574
g62
(dp2575
g70
I3
ssg71
g2569
sg64
(lp2576
g1157
asbasbasbag57
(g73
g59
NtRp2577
(dp2578
g62
(dp2579
sg71
g2405
sg64
(lp2580
g57
(g78
g59
NtRp2581
(dp2582
g62
(dp2583
g82
g83
ssg71
g2577
sg64
(lp2584
S'PATH_INFO'
p2585
asbag57
(g78
g59
NtRp2586
(dp2587
g62
(dp2588
g89
g90
ssg71
g2577
sg64
(lp2589
S':'
asbag57
(g78
g59
NtRp2590
(dp2591
g62
(dp2592
sg71
g2577
sg64
(lp2593
g57
(g58
g59
NtRp2594
(dp2595
g62
(dp2596
g70
I3
ssg71
g2590
sg64
(lp2597
g1221
asbasbasbag57
(g73
g59
NtRp2598
(dp2599
g62
(dp2600
sg71
g2405
sg64
(lp2601
g57
(g78
g59
NtRp2602
(dp2603
g62
(dp2604
g82
g83
ssg71
g2598
sg64
(lp2605
S'QUERY_STRING'
p2606
asbag57
(g78
g59
NtRp2607
(dp2608
g62
(dp2609
g89
g90
ssg71
g2598
sg64
(lp2610
S':'
asbag57
(g78
g59
NtRp2611
(dp2612
g62
(dp2613
sg71
g2598
sg64
(lp2614
g57
(g58
g59
NtRp2615
(dp2616
g62
(dp2617
g70
I3
ssg71
g2611
sg64
(lp2618
S''
asbasbasbag57
(g73
g59
NtRp2619
(dp2620
g62
(dp2621
sg71
g2405
sg64
(lp2622
g57
(g78
g59
NtRp2623
(dp2624
g62
(dp2625
g82
g83
ssg71
g2619
sg64
(lp2626
S'REMOTE_ADDR'
p2627
asbag57
(g78
g59
NtRp2628
(dp2629
g62
(dp2630
g89
g90
ssg71
g2619
sg64
(lp2631
S':'
asbag57
(g78
g59
NtRp2632
(dp2633
g62
(dp2634
sg71
g2619
sg64
(lp2635
g57
(g58
g59
NtRp2636
(dp2637
g62
(dp2638
g70
I3
ssg71
g2632
sg64
(lp2639
g190
asbasbasbag57
(g73
g59
NtRp2640
(dp2641
g62
(dp2642
sg71
g2405
sg64
(lp2643
g57
(g78
g59
NtRp2644
(dp2645
g62
(dp2646
g82
g83
ssg71
g2640
sg64
(lp2647
S'REMOTE_PORT'
p2648
asbag57
(g78
g59
NtRp2649
(dp2650
g62
(dp2651
g89
g90
ssg71
g2640
sg64
(lp2652
S':'
asbag57
(g78
g59
NtRp2653
(dp2654
g62
(dp2655
sg71
g2640
sg64
(lp2656
g57
(g58
g59
NtRp2657
(dp2658
g62
(dp2659
g70
I3
ssg71
g2653
sg64
(lp2660
g1285
asbasbasbag57
(g73
g59
NtRp2661
(dp2662
g62
(dp2663
sg71
g2405
sg64
(lp2664
g57
(g78
g59
NtRp2665
(dp2666
g62
(dp2667
g82
g83
ssg71
g2661
sg64
(lp2668
S'REQUEST_METHOD'
p2669
asbag57
(g78
g59
NtRp2670
(dp2671
g62
(dp2672
g89
g90
ssg71
g2661
sg64
(lp2673
S':'
asbag57
(g78
g59
NtRp2674
(dp2675
g62
(dp2676
sg71
g2661
sg64
(lp2677
g57
(g58
g59
NtRp2678
(dp2679
g62
(dp2680
g70
I3
ssg71
g2674
sg64
(lp2681
g1307
asbasbasbag57
(g73
g59
NtRp2682
(dp2683
g62
(dp2684
sg71
g2405
sg64
(lp2685
g57
(g78
g59
NtRp2686
(dp2687
g62
(dp2688
g82
g83
ssg71
g2682
sg64
(lp2689
S'SCRIPT_NAME'
p2690
asbag57
(g78
g59
NtRp2691
(dp2692
g62
(dp2693
g89
g90
ssg71
g2682
sg64
(lp2694
S':'
asbag57
(g78
g59
NtRp2695
(dp2696
g62
(dp2697
sg71
g2682
sg64
(lp2698
g57
(g58
g59
NtRp2699
(dp2700
g62
(dp2701
g70
I3
ssg71
g2695
sg64
(lp2702
S''
asbasbasbag57
(g73
g59
NtRp2703
(dp2704
g62
(dp2705
sg71
g2405
sg64
(lp2706
g57
(g78
g59
NtRp2707
(dp2708
g62
(dp2709
g82
g83
ssg71
g2703
sg64
(lp2710
S'SERVER_NAME'
p2711
asbag57
(g78
g59
NtRp2712
(dp2713
g62
(dp2714
g89
g90
ssg71
g2703
sg64
(lp2715
S':'
asbag57
(g78
g59
NtRp2716
(dp2717
g62
(dp2718
sg71
g2703
sg64
(lp2719
g57
(g58
g59
NtRp2720
(dp2721
g62
(dp2722
g70
I3
ssg71
g2716
sg64
(lp2723
g1350
asbasbasbag57
(g73
g59
NtRp2724
(dp2725
g62
(dp2726
sg71
g2405
sg64
(lp2727
g57
(g78
g59
NtRp2728
(dp2729
g62
(dp2730
g82
g83
ssg71
g2724
sg64
(lp2731
S'SERVER_PORT'
p2732
asbag57
(g78
g59
NtRp2733
(dp2734
g62
(dp2735
g89
g90
ssg71
g2724
sg64
(lp2736
S':'
asbag57
(g78
g59
NtRp2737
(dp2738
g62
(dp2739
sg71
g2724
sg64
(lp2740
g57
(g58
g59
NtRp2741
(dp2742
g62
(dp2743
g70
I3
ssg71
g2737
sg64
(lp2744
g1372
asbasbasbag57
(g73
g59
NtRp2745
(dp2746
g62
(dp2747
sg71
g2405
sg64
(lp2748
g57
(g78
g59
NtRp2749
(dp2750
g62
(dp2751
g82
g83
ssg71
g2745
sg64
(lp2752
S'SERVER_PROTOCOL'
p2753
asbag57
(g78
g59
NtRp2754
(dp2755
g62
(dp2756
g89
g90
ssg71
g2745
sg64
(lp2757
S':'
asbag57
(g78
g59
NtRp2758
(dp2759
g62
(dp2760
sg71
g2745
sg64
(lp2761
g57
(g58
g59
NtRp2762
(dp2763
g62
(dp2764
g70
I3
ssg71
g2758
sg64
(lp2765
g1394
asbasbasbag57
(g73
g59
NtRp2766
(dp2767
g62
(dp2768
sg71
g2405
sg64
(lp2769
g57
(g78
g59
NtRp2770
(dp2771
g62
(dp2772
g82
g83
ssg71
g2766
sg64
(lp2773
S'SERVER_SOFTWARE'
p2774
asbag57
(g78
g59
NtRp2775
(dp2776
g62
(dp2777
g89
g90
ssg71
g2766
sg64
(lp2778
S':'
asbag57
(g78
g59
NtRp2779
(dp2780
g62
(dp2781
sg71
g2766
sg64
(lp2782
g57
(g58
g59
NtRp2783
(dp2784
g62
(dp2785
g70
I3
ssg71
g2779
sg64
(lp2786
g1416
asbasbasbag57
(g73
g59
NtRp2787
(dp2788
g62
(dp2789
sg71
g2405
sg64
(lp2790
g57
(g78
g59
NtRp2791
(dp2792
g62
(dp2793
g82
g83
ssg71
g2787
sg64
(lp2794
S'wsgi.errors'
p2795
asbag57
(g78
g59
NtRp2796
(dp2797
g62
(dp2798
g89
g90
ssg71
g2787
sg64
(lp2799
S':'
asbag57
(g78
g59
NtRp2800
(dp2801
g62
(dp2802
sg71
g2787
sg64
(lp2803
g57
(g58
g59
NtRp2804
(dp2805
g62
(dp2806
g70
I3
ssg71
g2800
sg64
(lp2807
S"<open file '<stderr>', mode 'w' at 0x00A550D0>"
p2808
asbasbasbag57
(g73
g59
NtRp2809
(dp2810
g62
(dp2811
sg71
g2405
sg64
(lp2812
g57
(g78
g59
NtRp2813
(dp2814
g62
(dp2815
g82
g83
ssg71
g2809
sg64
(lp2816
S'wsgi.file_wrapper'
p2817
asbag57
(g78
g59
NtRp2818
(dp2819
g62
(dp2820
g89
g90
ssg71
g2809
sg64
(lp2821
S':'
asbag57
(g78
g59
NtRp2822
(dp2823
g62
(dp2824
sg71
g2809
sg64
(lp2825
g57
(g58
g59
NtRp2826
(dp2827
g62
(dp2828
g70
I3
ssg71
g2822
sg64
(lp2829
S'<class wsgiref.util.FileWrapper at 0x015E8AB0>'
p2830
asbasbasbag57
(g73
g59
NtRp2831
(dp2832
g62
(dp2833
sg71
g2405
sg64
(lp2834
g57
(g78
g59
NtRp2835
(dp2836
g62
(dp2837
g82
g83
ssg71
g2831
sg64
(lp2838
S'wsgi.input'
p2839
asbag57
(g78
g59
NtRp2840
(dp2841
g62
(dp2842
g89
g90
ssg71
g2831
sg64
(lp2843
S':'
asbag57
(g78
g59
NtRp2844
(dp2845
g62
(dp2846
sg71
g2831
sg64
(lp2847
g57
(g58
g59
NtRp2848
(dp2849
g62
(dp2850
g70
I3
ssg71
g2844
sg64
(lp2851
S'<cStringIO.StringO object at 0x01C070E0>'
p2852
asbasbasbag57
(g73
g59
NtRp2853
(dp2854
g62
(dp2855
sg71
g2405
sg64
(lp2856
g57
(g78
g59
NtRp2857
(dp2858
g62
(dp2859
g82
g83
ssg71
g2853
sg64
(lp2860
S'wsgi.multiprocess'
p2861
asbag57
(g78
g59
NtRp2862
(dp2863
g62
(dp2864
g89
g90
ssg71
g2853
sg64
(lp2865
S':'
asbag57
(g78
g59
NtRp2866
(dp2867
g62
(dp2868
sg71
g2853
sg64
(lp2869
g57
(g58
g59
NtRp2870
(dp2871
g62
(dp2872
g70
I3
ssg71
g2866
sg64
(lp2873
g100
asbasbasbag57
(g73
g59
NtRp2874
(dp2875
g62
(dp2876
sg71
g2405
sg64
(lp2877
g57
(g78
g59
NtRp2878
(dp2879
g62
(dp2880
g82
g83
ssg71
g2874
sg64
(lp2881
S'wsgi.multithread'
p2882
asbag57
(g78
g59
NtRp2883
(dp2884
g62
(dp2885
g89
g90
ssg71
g2874
sg64
(lp2886
S':'
asbag57
(g78
g59
NtRp2887
(dp2888
g62
(dp2889
sg71
g2874
sg64
(lp2890
g57
(g58
g59
NtRp2891
(dp2892
g62
(dp2893
g70
I3
ssg71
g2887
sg64
(lp2894
g1656
asbasbasbag57
(g73
g59
NtRp2895
(dp2896
g62
(dp2897
sg71
g2405
sg64
(lp2898
g57
(g78
g59
NtRp2899
(dp2900
g62
(dp2901
g82
g83
ssg71
g2895
sg64
(lp2902
S'wsgi.run_once'
p2903
asbag57
(g78
g59
NtRp2904
(dp2905
g62
(dp2906
g89
g90
ssg71
g2895
sg64
(lp2907
S':'
asbag57
(g78
g59
NtRp2908
(dp2909
g62
(dp2910
sg71
g2895
sg64
(lp2911
g57
(g58
g59
NtRp2912
(dp2913
g62
(dp2914
g70
I3
ssg71
g2908
sg64
(lp2915
g100
asbasbasbag57
(g73
g59
NtRp2916
(dp2917
g62
(dp2918
sg71
g2405
sg64
(lp2919
g57
(g78
g59
NtRp2920
(dp2921
g62
(dp2922
g82
g83
ssg71
g2916
sg64
(lp2923
S'wsgi.url_scheme'
p2924
asbag57
(g78
g59
NtRp2925
(dp2926
g62
(dp2927
g89
g90
ssg71
g2916
sg64
(lp2928
S':'
asbag57
(g78
g59
NtRp2929
(dp2930
g62
(dp2931
sg71
g2916
sg64
(lp2932
g57
(g58
g59
NtRp2933
(dp2934
g62
(dp2935
g70
I3
ssg71
g2929
sg64
(lp2936
g1699
asbasbasbag57
(g73
g59
NtRp2937
(dp2938
g62
(dp2939
sg71
g2405
sg64
(lp2940
g57
(g78
g59
NtRp2941
(dp2942
g62
(dp2943
g82
g83
ssg71
g2937
sg64
(lp2944
S'wsgi.version'
p2945
asbag57
(g78
g59
NtRp2946
(dp2947
g62
(dp2948
g89
g90
ssg71
g2937
sg64
(lp2949
S':'
asbag57
(g78
g59
NtRp2950
(dp2951
g62
(dp2952
sg71
g2937
sg64
(lp2953
g57
(g58
g59
NtRp2954
(dp2955
g62
(dp2956
g70
I3
ssg71
g2950
sg64
(lp2957
S'1'
asbasbasbasbasbasbasbasbasbasbasbasbasbsS'frames'
p2958
(lp2959
(dp2960
S'file'
p2961
S'C:\\Documents and Settings\\agrover\\Desktop\\previous crawler\\web2py\\gluon\\restricted.py'
p2962
sS'dump'
p2963
(dp2964
S'environment'
p2965
S"{'A': <class 'gluon.html.A'>, 'Auth': <class 'gluon.tools.Auth'>, 'B': <class 'gluon.html.B'>, 'BEAUTIFY': <class 'gluon.html.BEAUTIFY'>, 'BODY': <class 'gluon.html.BODY'>, 'BR': <class 'gluon.html.BR'>, 'BUTTON': <class 'gluon.html.BUTTON'>, 'CAT': <class 'gluon.html.CAT'>, 'CENTER': <class 'gluon.html.CENTER'>, 'CLEANUP': <class 'gluon.validators.CLEANUP'>, ...}"
p2966
sS'ccode'
p2967
S'<code object <module> at 01A77770, file "C:\\Docu...tions\\mycrawler\\controllers/default.py", line 11>'
p2968
ssS'lnum'
p2969
I205
sS'lines'
p2970
(dp2971
I200
S'    try:'
p2972
sI201
S'        if type(code) == types.CodeType:'
p2973
sI202
S'            ccode = code'
p2974
sI203
S'        else:'
p2975
sI204
S'            ccode = compile2(code,layer)'
p2976
sI205
S'        exec ccode in environment'
p2977
sI206
S'    except HTTP:'
p2978
sI207
S'        raise'
p2979
sI208
S'    except RestrictedError:'
p2980
sI209
S'        # do not encapsulate (obfuscate) the original RestrictedError'
p2981
ssS'call'
p2982
S"(code='# -*- coding: utf-8 -*-\\n# this file is released ...rrent)\\n\\nresponse._vars=response._caller(extract)\\n', environment={'A': <class 'gluon.html.A'>, 'Auth': <class 'gluon.tools.Auth'>, 'B': <class 'gluon.html.B'>, 'BEAUTIFY': <class 'gluon.html.BEAUTIFY'>, 'BODY': <class 'gluon.html.BODY'>, 'BR': <class 'gluon.html.BR'>, 'BUTTON': <class 'gluon.html.BUTTON'>, 'CAT': <class 'gluon.html.CAT'>, 'CENTER': <class 'gluon.html.CENTER'>, 'CLEANUP': <class 'gluon.validators.CLEANUP'>, ...}, layer=r'C:\\Documents and Settings\\agrover\\Desktop\\previo...2py\\applications\\mycrawler\\controllers/default.py')"
p2983
sS'func'
p2984
S'restricted'
p2985
sa(dp2986
g2961
S'C:\\Documents and Settings\\agrover\\Desktop\\previous crawler\\web2py\\applications\\mycrawler\\controllers\\default.py'
p2987
sg2963
(dp2988
sg2969
I639
sg2970
(dp2989
I628
S'    #for i in range(1,10):'
p2990
sI629
S"    #    spamWriter.writerow([name[i].encode('utf-8'),titl[i],current[i],location[i],industry[i],view_profile[i]])"
p2991
sI630
S''
sI631
S''
sI632
S'    #,titl[i],current[i],location[i],industry[i],view_profile[i]'
p2992
sI633
S"    #response.headers['Content-Type'] = 'text/csv'"
p2993
sI634
S"    #response.headers['Content-Disposition'] = 'attachment; filename=%s' % request.vars.File_Name"
p2994
sI635
S''
sI636
S''
sI637
S'    #return dict(view_profile=view_profile,name=name,location=location,industry=industry,titl=titl,current=current)'
p2995
ssg2982
S'()'
p2996
sg2984
S'<module>'
p2997
sa(dp2998
g2961
S'C:\\Documents and Settings\\agrover\\Desktop\\previous crawler\\web2py\\gluon\\globals.py'
p2999
sg2963
(dp3000
S'self'
p3001
S'undefined'
p3002
sS'f'
S'<function extract>'
p3003
ssg2969
I173
sg2970
(dp3004
I168
S'        self.menu = []             # used by the default view layout'
p3005
sI169
S'        self.files = []            # used by web2py_ajax.html'
p3006
sI170
S'        self.generic_patterns = [] # patterns to allow generic views'
p3007
sI171
S"        self.delimiters = ('{{','}}')"
p3008
sI172
S'        self._vars = None'
p3009
sI173
S'        self._caller = lambda f: f()'
p3010
sI174
S'        self._view_environment = None'
p3011
sI175
S'        self._custom_commit = None'
p3012
sI176
S'        self._custom_rollback = None'
p3013
sI177
S''
ssg2982
S'(f=<function extract>)'
p3014
sg2984
S'<lambda>'
p3015
sa(dp3016
g2961
S'C:\\Documents and Settings\\agrover\\Desktop\\previous crawler\\web2py\\applications\\mycrawler\\controllers\\default.py'
p3017
sg2963
(dp3018
S'global cpy'
p3019
S'<function cpy>'
p3020
ssg2969
I534
sg2970
(dp3021
I529
S''
sI530
S'    w.close()'
p3022
sI531
S'    o.close()'
p3023
sI532
S'    a.close()'
p3024
sI533
S''
sI534
S'    cpy()'
p3025
sI535
S"    #redirect(URL(r=request,f='enter_info'))"
p3026
sI536
S'    return cp_response.getvalue()'
p3027
sI537
S''
sI538
S'def cpy():'
p3028
ssg2982
S'()'
p3029
sg2984
S'extract'
p3030
sa(dp3031
g2961
S'C:\\Documents and Settings\\agrover\\Desktop\\previous crawler\\web2py\\applications\\mycrawler\\controllers\\default.py'
p3032
sg2963
(dp3033
S'writer'
p3034
S'<_csv.writer object>'
p3035
sS'delimiter'
p3036
g3002
sS'global csv'
p3037
S"<module 'csv' from 'C:\\Python27\\lib\\csv.pyc'>"
p3038
sS'csv.reader'
p3039
S'<built-in function reader>'
p3040
sS'reader'
p3041
g3002
ssg2969
I543
sg2970
(dp3042
I544
S'    for row in reader:'
p3043
sI545
S'        writer.writerow(row)'
p3044
sI546
S''
sI547
S"    response.headers['Content-Type'] = 'text/csv'"
p3045
sI538
S'def cpy():'
p3046
sI539
S'    global cp_response'
p3047
sI540
S'    cp_response = cStringIO.StringIO()'
p3048
sI541
S"    writer = csv.writer(cp_response, delimiter=',')"
p3049
sI542
S"    #o=open('C:\\\\Documents and Settings\\\\agrover\\\\Desktop\\\\contacts.csv', 'rb')"
p3050
sI543
S"    reader = csv.reader(writer, delimiter=',')"
p3051
ssg2982
S'()'
p3052
sg2984
S'cpy'
p3053
sasS'pyver'
p3054
S'Python 2.7.3: C:\\Python27\\python.exe'
p3055
sS'session'
p3056
g57
(g58
g59
NtRp3057
(dp3058
g62
(dp3059
sg64
(lp3060
g57
(g66
g59
NtRp3061
(dp3062
g62
(dp3063
g70
I5
ssg71
Nsg64
(lp3064
g57
(g73
g59
NtRp3065
(dp3066
g62
(dp3067
sg71
g3061
sg64
(lp3068
g57
(g78
g59
NtRp3069
(dp3070
g62
(dp3071
g82
g83
ssg71
g3065
sg64
(lp3072
S'password'
p3073
asbag57
(g78
g59
NtRp3074
(dp3075
g62
(dp3076
g89
g90
ssg71
g3065
sg64
(lp3077
S':'
asbag57
(g78
g59
NtRp3078
(dp3079
g62
(dp3080
sg71
g3065
sg64
(lp3081
g57
(g58
g59
NtRp3082
(dp3083
g62
(dp3084
g70
I5
ssg71
g3078
sg64
(lp3085
S'modeln@1234'
p3086
asbasbasbag57
(g73
g59
NtRp3087
(dp3088
g62
(dp3089
sg71
g3061
sg64
(lp3090
g57
(g78
g59
NtRp3091
(dp3092
g62
(dp3093
g82
g83
ssg71
g3087
sg64
(lp3094
S'username'
p3095
asbag57
(g78
g59
NtRp3096
(dp3097
g62
(dp3098
g89
g90
ssg71
g3087
sg64
(lp3099
S':'
asbag57
(g78
g59
NtRp3100
(dp3101
g62
(dp3102
sg71
g3087
sg64
(lp3103
g57
(g58
g59
NtRp3104
(dp3105
g62
(dp3106
g70
I5
ssg71
g3100
sg64
(lp3107
S'mrigeshgaurav@gmail.com'
p3108
asbasbasbasbasbsS'etype'
p3109
S"<type 'exceptions.TypeError'>"
p3110
sS'date'
p3111
S'Fri Jul 06 11:47:48 2012'
p3112
sS'response'
p3113
g57
(g58
g59
NtRp3114
(dp3115
g62
(dp3116
sg64
(lp3117
g57
(g66
g59
NtRp3118
(dp3119
g62
(dp3120
g70
I5
ssg71
Nsg64
(lp3121
g57
(g73
g59
NtRp3122
(dp3123
g62
(dp3124
sg71
g3118
sg64
(lp3125
g57
(g78
g59
NtRp3126
(dp3127
g62
(dp3128
g82
g83
ssg71
g3122
sg64
(lp3129
g155
asbag57
(g78
g59
NtRp3130
(dp3131
g62
(dp3132
g89
g90
ssg71
g3122
sg64
(lp3133
S':'
asbag57
(g78
g59
NtRp3134
(dp3135
g62
(dp3136
sg71
g3122
sg64
(lp3137
g57
(g58
g59
NtRp3138
(dp3139
g62
(dp3140
g70
I5
ssg71
g3134
sg64
(lp3141
S'<cStringIO.StringO object at 0x0198C640>'
p3142
asbasbasbag57
(g73
g59
NtRp3143
(dp3144
g62
(dp3145
sg71
g3118
sg64
(lp3146
g57
(g78
g59
NtRp3147
(dp3148
g62
(dp3149
g82
g83
ssg71
g3143
sg64
(lp3150
g221
asbag57
(g78
g59
NtRp3151
(dp3152
g62
(dp3153
g89
g90
ssg71
g3143
sg64
(lp3154
S':'
asbag57
(g78
g59
NtRp3155
(dp3156
g62
(dp3157
sg71
g3143
sg64
(lp3158
g57
(g58
g59
NtRp3159
(dp3160
g62
(dp3161
g70
I5
ssg71
g3155
sg64
(lp3162
g57
(g66
g59
NtRp3163
(dp3164
g62
(dp3165
g70
I4
ssg71
Nsg64
(lp3166
g57
(g73
g59
NtRp3167
(dp3168
g62
(dp3169
sg71
g3163
sg64
(lp3170
g57
(g78
g59
NtRp3171
(dp3172
g62
(dp3173
g82
g83
ssg71
g3167
sg64
(lp3174
S'session_id_mycrawler'
p3175
asbag57
(g78
g59
NtRp3176
(dp3177
g62
(dp3178
g89
g90
ssg71
g3167
sg64
(lp3179
S':'
asbag57
(g78
g59
NtRp3180
(dp3181
g62
(dp3182
sg71
g3167
sg64
(lp3183
g57
(g58
g59
NtRp3184
(dp3185
g62
(dp3186
g70
I4
ssg71
g3180
sg64
(lp3187
g57
(g66
g59
NtRp3188
(dp3189
g62
(dp3190
g70
I3
ssg71
Nsg64
(lp3191
g57
(g73
g59
NtRp3192
(dp3193
g62
(dp3194
sg71
g3188
sg64
(lp3195
g57
(g78
g59
NtRp3196
(dp3197
g62
(dp3198
g82
g83
ssg71
g3192
sg64
(lp3199
g271
asbag57
(g78
g59
NtRp3200
(dp3201
g62
(dp3202
g89
g90
ssg71
g3192
sg64
(lp3203
S':'
asbag57
(g78
g59
NtRp3204
(dp3205
g62
(dp3206
sg71
g3192
sg64
(lp3207
g57
(g58
g59
NtRp3208
(dp3209
g62
(dp3210
g70
I3
ssg71
g3204
sg64
(lp3211
S''
asbasbasbag57
(g73
g59
NtRp3212
(dp3213
g62
(dp3214
sg71
g3188
sg64
(lp3215
g57
(g78
g59
NtRp3216
(dp3217
g62
(dp3218
g82
g83
ssg71
g3212
sg64
(lp3219
g292
asbag57
(g78
g59
NtRp3220
(dp3221
g62
(dp3222
g89
g90
ssg71
g3212
sg64
(lp3223
S':'
asbag57
(g78
g59
NtRp3224
(dp3225
g62
(dp3226
sg71
g3212
sg64
(lp3227
g57
(g58
g59
NtRp3228
(dp3229
g62
(dp3230
g70
I3
ssg71
g3224
sg64
(lp3231
S''
asbasbasbag57
(g73
g59
NtRp3232
(dp3233
g62
(dp3234
sg71
g3188
sg64
(lp3235
g57
(g78
g59
NtRp3236
(dp3237
g62
(dp3238
g82
g83
ssg71
g3232
sg64
(lp3239
g313
asbag57
(g78
g59
NtRp3240
(dp3241
g62
(dp3242
g89
g90
ssg71
g3232
sg64
(lp3243
S':'
asbag57
(g78
g59
NtRp3244
(dp3245
g62
(dp3246
sg71
g3232
sg64
(lp3247
g57
(g58
g59
NtRp3248
(dp3249
g62
(dp3250
g70
I3
ssg71
g3244
sg64
(lp3251
S''
asbasbasbag57
(g73
g59
NtRp3252
(dp3253
g62
(dp3254
sg71
g3188
sg64
(lp3255
g57
(g78
g59
NtRp3256
(dp3257
g62
(dp3258
g82
g83
ssg71
g3252
sg64
(lp3259
g334
asbag57
(g78
g59
NtRp3260
(dp3261
g62
(dp3262
g89
g90
ssg71
g3252
sg64
(lp3263
S':'
asbag57
(g78
g59
NtRp3264
(dp3265
g62
(dp3266
sg71
g3252
sg64
(lp3267
g57
(g58
g59
NtRp3268
(dp3269
g62
(dp3270
g70
I3
ssg71
g3264
sg64
(lp3271
S''
asbasbasbag57
(g73
g59
NtRp3272
(dp3273
g62
(dp3274
sg71
g3188
sg64
(lp3275
g57
(g78
g59
NtRp3276
(dp3277
g62
(dp3278
g82
g83
ssg71
g3272
sg64
(lp3279
g355
asbag57
(g78
g59
NtRp3280
(dp3281
g62
(dp3282
g89
g90
ssg71
g3272
sg64
(lp3283
S':'
asbag57
(g78
g59
NtRp3284
(dp3285
g62
(dp3286
sg71
g3272
sg64
(lp3287
g57
(g58
g59
NtRp3288
(dp3289
g62
(dp3290
g70
I3
ssg71
g3284
sg64
(lp3291
S''
asbasbasbag57
(g73
g59
NtRp3292
(dp3293
g62
(dp3294
sg71
g3188
sg64
(lp3295
g57
(g78
g59
NtRp3296
(dp3297
g62
(dp3298
g82
g83
ssg71
g3292
sg64
(lp3299
g376
asbag57
(g78
g59
NtRp3300
(dp3301
g62
(dp3302
g89
g90
ssg71
g3292
sg64
(lp3303
S':'
asbag57
(g78
g59
NtRp3304
(dp3305
g62
(dp3306
sg71
g3292
sg64
(lp3307
g57
(g58
g59
NtRp3308
(dp3309
g62
(dp3310
g70
I3
ssg71
g3304
sg64
(lp3311
S'/'
asbasbasbag57
(g73
g59
NtRp3312
(dp3313
g62
(dp3314
sg71
g3188
sg64
(lp3315
g57
(g78
g59
NtRp3316
(dp3317
g62
(dp3318
g82
g83
ssg71
g3312
sg64
(lp3319
g397
asbag57
(g78
g59
NtRp3320
(dp3321
g62
(dp3322
g89
g90
ssg71
g3312
sg64
(lp3323
S':'
asbag57
(g78
g59
NtRp3324
(dp3325
g62
(dp3326
sg71
g3312
sg64
(lp3327
g57
(g58
g59
NtRp3328
(dp3329
g62
(dp3330
g70
I3
ssg71
g3324
sg64
(lp3331
S''
asbasbasbag57
(g73
g59
NtRp3332
(dp3333
g62
(dp3334
sg71
g3188
sg64
(lp3335
g57
(g78
g59
NtRp3336
(dp3337
g62
(dp3338
g82
g83
ssg71
g3332
sg64
(lp3339
g418
asbag57
(g78
g59
NtRp3340
(dp3341
g62
(dp3342
g89
g90
ssg71
g3332
sg64
(lp3343
S':'
asbag57
(g78
g59
NtRp3344
(dp3345
g62
(dp3346
sg71
g3332
sg64
(lp3347
g57
(g58
g59
NtRp3348
(dp3349
g62
(dp3350
g70
I3
ssg71
g3344
sg64
(lp3351
S''
asbasbasbasbasbasbasbasbasbasbasbag57
(g73
g59
NtRp3352
(dp3353
g62
(dp3354
sg71
g3118
sg64
(lp3355
g57
(g78
g59
NtRp3356
(dp3357
g62
(dp3358
g82
g83
ssg71
g3352
sg64
(lp3359
S'delimiters'
p3360
asbag57
(g78
g59
NtRp3361
(dp3362
g62
(dp3363
g89
g90
ssg71
g3352
sg64
(lp3364
S':'
asbag57
(g78
g59
NtRp3365
(dp3366
g62
(dp3367
sg71
g3352
sg64
(lp3368
g57
(g58
g59
NtRp3369
(dp3370
g62
(dp3371
g70
I5
ssg71
g3365
sg64
(lp3372
g57
(g66
g59
NtRp3373
(dp3374
g62
(dp3375
g70
I4
ssg71
Nsg64
(lp3376
g57
(g73
g59
NtRp3377
(dp3378
g62
(dp3379
sg71
g3373
sg64
(lp3380
g57
(g78
g59
NtRp3381
(dp3382
g62
(dp3383
sg71
g3377
sg64
(lp3384
g57
(g58
g59
NtRp3385
(dp3386
g62
(dp3387
g70
I4
ssg71
g3381
sg64
(lp3388
S'{{'
p3389
asbasbasbag57
(g73
g59
NtRp3390
(dp3391
g62
(dp3392
sg71
g3373
sg64
(lp3393
g57
(g78
g59
NtRp3394
(dp3395
g62
(dp3396
sg71
g3390
sg64
(lp3397
g57
(g58
g59
NtRp3398
(dp3399
g62
(dp3400
g70
I4
ssg71
g3394
sg64
(lp3401
S'}}'
p3402
asbasbasbasbasbasbasbag57
(g73
g59
NtRp3403
(dp3404
g62
(dp3405
sg71
g3118
sg64
(lp3406
g57
(g78
g59
NtRp3407
(dp3408
g62
(dp3409
g82
g83
ssg71
g3403
sg64
(lp3410
S'files'
p3411
asbag57
(g78
g59
NtRp3412
(dp3413
g62
(dp3414
g89
g90
ssg71
g3403
sg64
(lp3415
S':'
asbag57
(g78
g59
NtRp3416
(dp3417
g62
(dp3418
sg71
g3403
sg64
(lp3419
g57
(g58
g59
NtRp3420
(dp3421
g62
(dp3422
g70
I5
ssg71
g3416
sg64
(lp3423
g57
(g66
g59
NtRp3424
(dp3425
g62
(dp3426
g70
I4
ssg71
Nsg64
(lp3427
sbasbasbasbag57
(g73
g59
NtRp3428
(dp3429
g62
(dp3430
sg71
g3118
sg64
(lp3431
g57
(g78
g59
NtRp3432
(dp3433
g62
(dp3434
g82
g83
ssg71
g3428
sg64
(lp3435
S'flash'
p3436
asbag57
(g78
g59
NtRp3437
(dp3438
g62
(dp3439
g89
g90
ssg71
g3428
sg64
(lp3440
S':'
asbag57
(g78
g59
NtRp3441
(dp3442
g62
(dp3443
sg71
g3428
sg64
(lp3444
g57
(g58
g59
NtRp3445
(dp3446
g62
(dp3447
g70
I5
ssg71
g3441
sg64
(lp3448
S''
asbasbasbag57
(g73
g59
NtRp3449
(dp3450
g62
(dp3451
sg71
g3118
sg64
(lp3452
g57
(g78
g59
NtRp3453
(dp3454
g62
(dp3455
g82
g83
ssg71
g3449
sg64
(lp3456
S'generic_patterns'
p3457
asbag57
(g78
g59
NtRp3458
(dp3459
g62
(dp3460
g89
g90
ssg71
g3449
sg64
(lp3461
S':'
asbag57
(g78
g59
NtRp3462
(dp3463
g62
(dp3464
sg71
g3449
sg64
(lp3465
g57
(g58
g59
NtRp3466
(dp3467
g62
(dp3468
g70
I5
ssg71
g3462
sg64
(lp3469
g57
(g66
g59
NtRp3470
(dp3471
g62
(dp3472
g70
I4
ssg71
Nsg64
(lp3473
g57
(g73
g59
NtRp3474
(dp3475
g62
(dp3476
sg71
g3470
sg64
(lp3477
g57
(g78
g59
NtRp3478
(dp3479
g62
(dp3480
sg71
g3474
sg64
(lp3481
g57
(g58
g59
NtRp3482
(dp3483
g62
(dp3484
g70
I4
ssg71
g3478
sg64
(lp3485
S'*'
asbasbasbasbasbasbasbag57
(g73
g59
NtRp3486
(dp3487
g62
(dp3488
sg71
g3118
sg64
(lp3489
g57
(g78
g59
NtRp3490
(dp3491
g62
(dp3492
g82
g83
ssg71
g3486
sg64
(lp3493
S'headers'
p3494
asbag57
(g78
g59
NtRp3495
(dp3496
g62
(dp3497
g89
g90
ssg71
g3486
sg64
(lp3498
S':'
asbag57
(g78
g59
NtRp3499
(dp3500
g62
(dp3501
sg71
g3486
sg64
(lp3502
g57
(g58
g59
NtRp3503
(dp3504
g62
(dp3505
g70
I5
ssg71
g3499
sg64
(lp3506
g57
(g66
g59
NtRp3507
(dp3508
g62
(dp3509
g70
I4
ssg71
Nsg64
(lp3510
g57
(g73
g59
NtRp3511
(dp3512
g62
(dp3513
sg71
g3507
sg64
(lp3514
g57
(g78
g59
NtRp3515
(dp3516
g62
(dp3517
g82
g83
ssg71
g3511
sg64
(lp3518
S'Cache-Control'
p3519
asbag57
(g78
g59
NtRp3520
(dp3521
g62
(dp3522
g89
g90
ssg71
g3511
sg64
(lp3523
S':'
asbag57
(g78
g59
NtRp3524
(dp3525
g62
(dp3526
sg71
g3511
sg64
(lp3527
g57
(g58
g59
NtRp3528
(dp3529
g62
(dp3530
g70
I4
ssg71
g3524
sg64
(lp3531
S'no-store, no-cache, must-revalidate, post-check=0, pre-check=0'
p3532
asbasbasbag57
(g73
g59
NtRp3533
(dp3534
g62
(dp3535
sg71
g3507
sg64
(lp3536
g57
(g78
g59
NtRp3537
(dp3538
g62
(dp3539
g82
g83
ssg71
g3533
sg64
(lp3540
S'Content-Type'
p3541
asbag57
(g78
g59
NtRp3542
(dp3543
g62
(dp3544
g89
g90
ssg71
g3533
sg64
(lp3545
S':'
asbag57
(g78
g59
NtRp3546
(dp3547
g62
(dp3548
sg71
g3533
sg64
(lp3549
g57
(g58
g59
NtRp3550
(dp3551
g62
(dp3552
g70
I4
ssg71
g3546
sg64
(lp3553
S'text/html; charset=utf-8'
p3554
asbasbasbag57
(g73
g59
NtRp3555
(dp3556
g62
(dp3557
sg71
g3507
sg64
(lp3558
g57
(g78
g59
NtRp3559
(dp3560
g62
(dp3561
g82
g83
ssg71
g3555
sg64
(lp3562
S'Expires'
p3563
asbag57
(g78
g59
NtRp3564
(dp3565
g62
(dp3566
g89
g90
ssg71
g3555
sg64
(lp3567
S':'
asbag57
(g78
g59
NtRp3568
(dp3569
g62
(dp3570
sg71
g3555
sg64
(lp3571
g57
(g58
g59
NtRp3572
(dp3573
g62
(dp3574
g70
I4
ssg71
g3568
sg64
(lp3575
S'Fri, 06 Jul 2012 18:41:05 GMT'
p3576
asbasbasbag57
(g73
g59
NtRp3577
(dp3578
g62
(dp3579
sg71
g3507
sg64
(lp3580
g57
(g78
g59
NtRp3581
(dp3582
g62
(dp3583
g82
g83
ssg71
g3577
sg64
(lp3584
S'Pragma'
p3585
asbag57
(g78
g59
NtRp3586
(dp3587
g62
(dp3588
g89
g90
ssg71
g3577
sg64
(lp3589
S':'
asbag57
(g78
g59
NtRp3590
(dp3591
g62
(dp3592
sg71
g3577
sg64
(lp3593
g57
(g58
g59
NtRp3594
(dp3595
g62
(dp3596
g70
I4
ssg71
g3590
sg64
(lp3597
S'no-cache'
p3598
asbasbasbag57
(g73
g59
NtRp3599
(dp3600
g62
(dp3601
sg71
g3507
sg64
(lp3602
g57
(g78
g59
NtRp3603
(dp3604
g62
(dp3605
g82
g83
ssg71
g3599
sg64
(lp3606
S'X-Powered-By'
p3607
asbag57
(g78
g59
NtRp3608
(dp3609
g62
(dp3610
g89
g90
ssg71
g3599
sg64
(lp3611
S':'
asbag57
(g78
g59
NtRp3612
(dp3613
g62
(dp3614
sg71
g3599
sg64
(lp3615
g57
(g58
g59
NtRp3616
(dp3617
g62
(dp3618
g70
I4
ssg71
g3612
sg64
(lp3619
S'web2py'
p3620
asbasbasbasbasbasbasbag57
(g73
g59
NtRp3621
(dp3622
g62
(dp3623
sg71
g3118
sg64
(lp3624
g57
(g78
g59
NtRp3625
(dp3626
g62
(dp3627
g82
g83
ssg71
g3621
sg64
(lp3628
S'menu'
p3629
asbag57
(g78
g59
NtRp3630
(dp3631
g62
(dp3632
g89
g90
ssg71
g3621
sg64
(lp3633
S':'
asbag57
(g78
g59
NtRp3634
(dp3635
g62
(dp3636
sg71
g3621
sg64
(lp3637
g57
(g58
g59
NtRp3638
(dp3639
g62
(dp3640
g70
I5
ssg71
g3634
sg64
(lp3641
g57
(g66
g59
NtRp3642
(dp3643
g62
(dp3644
g70
I4
ssg71
Nsg64
(lp3645
g57
(g73
g59
NtRp3646
(dp3647
g62
(dp3648
sg71
g3642
sg64
(lp3649
g57
(g78
g59
NtRp3650
(dp3651
g62
(dp3652
sg71
g3646
sg64
(lp3653
g57
(g58
g59
NtRp3654
(dp3655
g62
(dp3656
g70
I4
ssg71
g3650
sg64
(lp3657
g57
(g66
g59
NtRp3658
(dp3659
g62
(dp3660
g70
I3
ssg71
Nsg64
(lp3661
g57
(g73
g59
NtRp3662
(dp3663
g62
(dp3664
sg71
g3658
sg64
(lp3665
g57
(g78
g59
NtRp3666
(dp3667
g62
(dp3668
sg71
g3662
sg64
(lp3669
g57
(g58
g59
NtRp3670
(dp3671
g62
(dp3672
g70
I3
ssg71
g3666
sg64
(lp3673
cgluon.languages
lazyT_unpickle
p3674
(S't\x04\x00\x00\x00Home'
tRp3675
asbasbasbag57
(g73
g59
NtRp3676
(dp3677
g62
(dp3678
sg71
g3658
sg64
(lp3679
g57
(g78
g59
NtRp3680
(dp3681
g62
(dp3682
sg71
g3676
sg64
(lp3683
g57
(g58
g59
NtRp3684
(dp3685
g62
(dp3686
g70
I3
ssg71
g3680
sg64
(lp3687
g100
asbasbasbag57
(g73
g59
NtRp3688
(dp3689
g62
(dp3690
sg71
g3658
sg64
(lp3691
g57
(g78
g59
NtRp3692
(dp3693
g62
(dp3694
sg71
g3688
sg64
(lp3695
g57
(g58
g59
NtRp3696
(dp3697
g62
(dp3698
g70
I3
ssg71
g3692
sg64
(lp3699
S'/mycrawler/default/index'
p3700
asbasbasbag57
(g73
g59
NtRp3701
(dp3702
g62
(dp3703
sg71
g3658
sg64
(lp3704
g57
(g78
g59
NtRp3705
(dp3706
g62
(dp3707
sg71
g3701
sg64
(lp3708
g57
(g58
g59
NtRp3709
(dp3710
g62
(dp3711
g70
I3
ssg71
g3705
sg64
(lp3712
g57
(g66
g59
NtRp3713
(dp3714
g62
(dp3715
g70
I2
ssg71
Nsg64
(lp3716
sbasbasbasbasbasbasbasbag57
(g73
g59
NtRp3717
(dp3718
g62
(dp3719
sg71
g3642
sg64
(lp3720
g57
(g78
g59
NtRp3721
(dp3722
g62
(dp3723
sg71
g3717
sg64
(lp3724
g57
(g58
g59
NtRp3725
(dp3726
g62
(dp3727
g70
I4
ssg71
g3721
sg64
(lp3728
g57
(g66
g59
NtRp3729
(dp3730
g62
(dp3731
g70
I3
ssg71
Nsg64
(lp3732
g57
(g73
g59
NtRp3733
(dp3734
g62
(dp3735
sg71
g3729
sg64
(lp3736
g57
(g78
g59
NtRp3737
(dp3738
g62
(dp3739
sg71
g3733
sg64
(lp3740
g57
(g58
g59
NtRp3741
(dp3742
g62
(dp3743
g70
I3
ssg71
g3737
sg64
(lp3744
g57
(cgluon.html
SPAN
p3745
g59
NtRp3746
(dp3747
g62
(dp3748
g82
S'color:yellow'
p3749
ssg71
Nsg64
(lp3750
g3620
asbasbasbasbag57
(g73
g59
NtRp3751
(dp3752
g62
(dp3753
sg71
g3729
sg64
(lp3754
g57
(g78
g59
NtRp3755
(dp3756
g62
(dp3757
sg71
g3751
sg64
(lp3758
g57
(g58
g59
NtRp3759
(dp3760
g62
(dp3761
g70
I3
ssg71
g3755
sg64
(lp3762
g100
asbasbasbag57
(g73
g59
NtRp3763
(dp3764
g62
(dp3765
sg71
g3729
sg64
(lp3766
g57
(g78
g59
NtRp3767
(dp3768
g62
(dp3769
sg71
g3763
sg64
(lp3770
g57
(g58
g59
NtRp3771
(dp3772
g62
(dp3773
g70
I3
ssg71
g3767
sg64
(lp3774
S'None'
p3775
asbasbasbag57
(g73
g59
NtRp3776
(dp3777
g62
(dp3778
sg71
g3729
sg64
(lp3779
g57
(g78
g59
NtRp3780
(dp3781
g62
(dp3782
sg71
g3776
sg64
(lp3783
g57
(g58
g59
NtRp3784
(dp3785
g62
(dp3786
g70
I3
ssg71
g3780
sg64
(lp3787
g57
(g66
g59
NtRp3788
(dp3789
g62
(dp3790
g70
I2
ssg71
Nsg64
(lp3791
g57
(g73
g59
NtRp3792
(dp3793
g62
(dp3794
sg71
g3788
sg64
(lp3795
g57
(g78
g59
NtRp3796
(dp3797
g62
(dp3798
sg71
g3792
sg64
(lp3799
g57
(g58
g59
NtRp3800
(dp3801
g62
(dp3802
g70
I2
ssg71
g3796
sg64
(lp3803
g57
(g66
g59
NtRp3804
(dp3805
g62
(dp3806
g70
I1
ssg71
Nsg64
(lp3807
g57
(g73
g59
NtRp3808
(dp3809
g62
(dp3810
sg71
g3804
sg64
(lp3811
g57
(g78
g59
NtRp3812
(dp3813
g62
(dp3814
sg71
g3808
sg64
(lp3815
g57
(g58
g59
NtRp3816
(dp3817
g62
(dp3818
g70
I1
ssg71
g3812
sg64
(lp3819
g3674
(S's\x08\x00\x00\x00My Sites'
tRp3820
asbasbasbag57
(g73
g59
NtRp3821
(dp3822
g62
(dp3823
sg71
g3804
sg64
(lp3824
g57
(g78
g59
NtRp3825
(dp3826
g62
(dp3827
sg71
g3821
sg64
(lp3828
g57
(g58
g59
NtRp3829
(dp3830
g62
(dp3831
g70
I1
ssg71
g3825
sg64
(lp3832
I00
asbasbasbag57
(g73
g59
NtRp3833
(dp3834
g62
(dp3835
sg71
g3804
sg64
(lp3836
g57
(g78
g59
NtRp3837
(dp3838
g62
(dp3839
sg71
g3833
sg64
(lp3840
g57
(g58
g59
NtRp3841
(dp3842
g62
(dp3843
g70
I1
ssg71
g3837
sg64
(lp3844
S'/admin/default/site'
p3845
asbasbasbasbasbasbasbag57
(g73
g59
NtRp3846
(dp3847
g62
(dp3848
sg71
g3788
sg64
(lp3849
g57
(g78
g59
NtRp3850
(dp3851
g62
(dp3852
sg71
g3846
sg64
(lp3853
g57
(g58
g59
NtRp3854
(dp3855
g62
(dp3856
g70
I2
ssg71
g3850
sg64
(lp3857
g57
(g66
g59
NtRp3858
(dp3859
g62
(dp3860
g70
I1
ssg71
Nsg64
(lp3861
g57
(g73
g59
NtRp3862
(dp3863
g62
(dp3864
sg71
g3858
sg64
(lp3865
g57
(g78
g59
NtRp3866
(dp3867
g62
(dp3868
sg71
g3862
sg64
(lp3869
g57
(g58
g59
NtRp3870
(dp3871
g62
(dp3872
g70
I1
ssg71
g3866
sg64
(lp3873
g3674
(S's\x08\x00\x00\x00This App'
tRp3874
asbasbasbag57
(g73
g59
NtRp3875
(dp3876
g62
(dp3877
sg71
g3858
sg64
(lp3878
g57
(g78
g59
NtRp3879
(dp3880
g62
(dp3881
sg71
g3875
sg64
(lp3882
g57
(g58
g59
NtRp3883
(dp3884
g62
(dp3885
g70
I1
ssg71
g3879
sg64
(lp3886
I00
asbasbasbag57
(g73
g59
NtRp3887
(dp3888
g62
(dp3889
sg71
g3858
sg64
(lp3890
g57
(g78
g59
NtRp3891
(dp3892
g62
(dp3893
sg71
g3887
sg64
(lp3894
g57
(g58
g59
NtRp3895
(dp3896
g62
(dp3897
g70
I1
ssg71
g3891
sg64
(lp3898
S'/admin/default/design/mycrawler'
p3899
asbasbasbag57
(g73
g59
NtRp3900
(dp3901
g62
(dp3902
sg71
g3858
sg64
(lp3903
g57
(g78
g59
NtRp3904
(dp3905
g62
(dp3906
sg71
g3900
sg64
(lp3907
g57
(g58
g59
NtRp3908
(dp3909
g62
(dp3910
g70
I1
ssg71
g3904
sg64
(lp3911
(lp3912
(g3674
(S't\n\x00\x00\x00Controller'
tRp3913
I00
S'/admin/default/edit/mycrawler/controllers/default.py'
tp3914
a(g3674
(S't\x04\x00\x00\x00View'
tRp3915
I00
S'/admin/default/edit/mycrawler/views/default/extract.html'
tp3916
a(g3674
(S't\x06\x00\x00\x00Layout'
tRp3917
I00
S'/admin/default/edit/mycrawler/views/layout.html'
tp3918
a(g3674
(S't\n\x00\x00\x00Stylesheet'
tRp3919
I00
S'/admin/default/edit/mycrawler/static/css/web2py.css'
tp3920
a(g3674
(S's\x08\x00\x00\x00DB Model'
tRp3921
I00
S'/admin/default/edit/mycrawler/models/db.py'
tp3922
a(g3674
(S's\n\x00\x00\x00Menu Model'
tRp3923
I00
S'/admin/default/edit/mycrawler/models/menu.py'
tp3924
a(g3674
(S't\x08\x00\x00\x00Database'
tRp3925
I00
S'/mycrawler/appadmin/index'
tp3926
a(g3674
(S't\x06\x00\x00\x00Errors'
tRp3927
I00
S'/admin/default/errors/mycrawler'
tp3928
a(g3674
(S't\x05\x00\x00\x00About'
tRp3929
I00
S'/admin/default/about/mycrawler'
tp3930
aasbasbasbasbasbasbasbag57
(g73
g59
NtRp3931
(dp3932
g62
(dp3933
sg71
g3788
sg64
(lp3934
g57
(g78
g59
NtRp3935
(dp3936
g62
(dp3937
sg71
g3931
sg64
(lp3938
g57
(g58
g59
NtRp3939
(dp3940
g62
(dp3941
g70
I2
ssg71
g3935
sg64
(lp3942
g57
(g66
g59
NtRp3943
(dp3944
g62
(dp3945
g70
I1
ssg71
Nsg64
(lp3946
g57
(g73
g59
NtRp3947
(dp3948
g62
(dp3949
sg71
g3943
sg64
(lp3950
g57
(g78
g59
NtRp3951
(dp3952
g62
(dp3953
sg71
g3947
sg64
(lp3954
g57
(g58
g59
NtRp3955
(dp3956
g62
(dp3957
g70
I1
ssg71
g3951
sg64
(lp3958
S'web2py.com'
p3959
asbasbasbag57
(g73
g59
NtRp3960
(dp3961
g62
(dp3962
sg71
g3943
sg64
(lp3963
g57
(g78
g59
NtRp3964
(dp3965
g62
(dp3966
sg71
g3960
sg64
(lp3967
g57
(g58
g59
NtRp3968
(dp3969
g62
(dp3970
g70
I1
ssg71
g3964
sg64
(lp3971
I00
asbasbasbag57
(g73
g59
NtRp3972
(dp3973
g62
(dp3974
sg71
g3943
sg64
(lp3975
g57
(g78
g59
NtRp3976
(dp3977
g62
(dp3978
sg71
g3972
sg64
(lp3979
g57
(g58
g59
NtRp3980
(dp3981
g62
(dp3982
g70
I1
ssg71
g3976
sg64
(lp3983
S'http://www.web2py.com'
p3984
asbasbasbag57
(g73
g59
NtRp3985
(dp3986
g62
(dp3987
sg71
g3943
sg64
(lp3988
g57
(g78
g59
NtRp3989
(dp3990
g62
(dp3991
sg71
g3985
sg64
(lp3992
g57
(g58
g59
NtRp3993
(dp3994
g62
(dp3995
g70
I1
ssg71
g3989
sg64
(lp3996
(lp3997
(g3674
(S't\x08\x00\x00\x00Download'
tRp3998
I00
S'http://www.web2py.com/examples/default/download'
p3999
tp4000
a(g3674
(S't\x07\x00\x00\x00Support'
tRp4001
I00
S'http://www.web2py.com/examples/default/support'
p4002
tp4003
a(g3674
(S't\x04\x00\x00\x00Demo'
tRp4004
I00
S'http://web2py.com/demo_admin'
p4005
tp4006
a(g3674
(S's\x0e\x00\x00\x00Quick Examples'
tRp4007
I00
S'http://web2py.com/examples/default/examples'
p4008
tp4009
a(g3674
(S't\x03\x00\x00\x00FAQ'
tRp4010
I00
S'http://web2py.com/AlterEgo'
p4011
tp4012
a(g3674
(S't\x06\x00\x00\x00Videos'
tRp4013
I00
S'http://www.web2py.com/examples/default/videos/'
p4014
tp4015
a(g3674
(S's\x11\x00\x00\x00Free Applications'
tRp4016
I00
S'http://web2py.com/appliances'
p4017
tp4018
a(g3674
(S't\x07\x00\x00\x00Plugins'
tRp4019
I00
S'http://web2py.com/plugins'
p4020
tp4021
a(g3674
(S't\x07\x00\x00\x00Layouts'
tRp4022
I00
S'http://web2py.com/layouts'
p4023
tp4024
a(g3674
(S't\x07\x00\x00\x00Recipes'
tRp4025
I00
S'http://web2pyslices.com/'
p4026
tp4027
a(g3674
(S't\x08\x00\x00\x00Semantic'
tRp4028
I00
S'http://web2py.com/semantic'
p4029
tp4030
aasbasbasbasbasbasbasbag57
(g73
g59
NtRp4031
(dp4032
g62
(dp4033
sg71
g3788
sg64
(lp4034
g57
(g78
g59
NtRp4035
(dp4036
g62
(dp4037
sg71
g4031
sg64
(lp4038
g57
(g58
g59
NtRp4039
(dp4040
g62
(dp4041
g70
I2
ssg71
g4035
sg64
(lp4042
g57
(g66
g59
NtRp4043
(dp4044
g62
(dp4045
g70
I1
ssg71
Nsg64
(lp4046
g57
(g73
g59
NtRp4047
(dp4048
g62
(dp4049
sg71
g4043
sg64
(lp4050
g57
(g78
g59
NtRp4051
(dp4052
g62
(dp4053
sg71
g4047
sg64
(lp4054
g57
(g58
g59
NtRp4055
(dp4056
g62
(dp4057
g70
I1
ssg71
g4051
sg64
(lp4058
g3674
(S't\r\x00\x00\x00Documentation'
tRp4059
asbasbasbag57
(g73
g59
NtRp4060
(dp4061
g62
(dp4062
sg71
g4043
sg64
(lp4063
g57
(g78
g59
NtRp4064
(dp4065
g62
(dp4066
sg71
g4060
sg64
(lp4067
g57
(g58
g59
NtRp4068
(dp4069
g62
(dp4070
g70
I1
ssg71
g4064
sg64
(lp4071
I00
asbasbasbag57
(g73
g59
NtRp4072
(dp4073
g62
(dp4074
sg71
g4043
sg64
(lp4075
g57
(g78
g59
NtRp4076
(dp4077
g62
(dp4078
sg71
g4072
sg64
(lp4079
g57
(g58
g59
NtRp4080
(dp4081
g62
(dp4082
g70
I1
ssg71
g4076
sg64
(lp4083
S'http://www.web2py.com/book'
p4084
asbasbasbag57
(g73
g59
NtRp4085
(dp4086
g62
(dp4087
sg71
g4043
sg64
(lp4088
g57
(g78
g59
NtRp4089
(dp4090
g62
(dp4091
sg71
g4085
sg64
(lp4092
g57
(g58
g59
NtRp4093
(dp4094
g62
(dp4095
g70
I1
ssg71
g4089
sg64
(lp4096
(lp4097
(g3674
(S't\x07\x00\x00\x00Preface'
tRp4098
I00
S'http://www.web2py.com/book/default/chapter/00'
p4099
tp4100
a(g3674
(S't\x0c\x00\x00\x00Introduction'
tRp4101
I00
S'http://www.web2py.com/book/default/chapter/01'
p4102
tp4103
a(g3674
(S't\x06\x00\x00\x00Python'
tRp4104
I00
S'http://www.web2py.com/book/default/chapter/02'
p4105
tp4106
a(g3674
(S't\x08\x00\x00\x00Overview'
tRp4107
I00
S'http://www.web2py.com/book/default/chapter/03'
p4108
tp4109
a(g3674
(S's\x08\x00\x00\x00The Core'
tRp4110
I00
S'http://www.web2py.com/book/default/chapter/04'
p4111
tp4112
a(g3674
(S's\t\x00\x00\x00The Views'
tRp4113
I00
S'http://www.web2py.com/book/default/chapter/05'
p4114
tp4115
a(g3674
(S't\x08\x00\x00\x00Database'
tRp4116
I00
S'http://www.web2py.com/book/default/chapter/06'
p4117
tp4118
a(g3674
(S's\x14\x00\x00\x00Forms and Validators'
tRp4119
I00
S'http://www.web2py.com/book/default/chapter/07'
p4120
tp4121
a(g3674
(S's\r\x00\x00\x00Email and SMS'
tRp4122
I00
S'http://www.web2py.com/book/default/chapter/08'
p4123
tp4124
a(g3674
(S's\x0e\x00\x00\x00Access Control'
tRp4125
I00
S'http://www.web2py.com/book/default/chapter/09'
p4126
tp4127
a(g3674
(S't\x08\x00\x00\x00Services'
tRp4128
I00
S'http://www.web2py.com/book/default/chapter/10'
p4129
tp4130
a(g3674
(S's\x0c\x00\x00\x00Ajax Recipes'
tRp4131
I00
S'http://www.web2py.com/book/default/chapter/11'
p4132
tp4133
a(g3674
(S's\x16\x00\x00\x00Components and Plugins'
tRp4134
I00
S'http://www.web2py.com/book/default/chapter/12'
p4135
tp4136
a(g3674
(S's\x12\x00\x00\x00Deployment Recipes'
tRp4137
I00
S'http://www.web2py.com/book/default/chapter/13'
p4138
tp4139
a(g3674
(S's\r\x00\x00\x00Other Recipes'
tRp4140
I00
S'http://www.web2py.com/book/default/chapter/14'
p4141
tp4142
a(g3674
(S's\r\x00\x00\x00Buy this book'
tRp4143
I00
S'http://stores.lulu.com/web2py'
p4144
tp4145
aasbasbasbasbasbasbasbag57
(g73
g59
NtRp4146
(dp4147
g62
(dp4148
sg71
g3788
sg64
(lp4149
g57
(g78
g59
NtRp4150
(dp4151
g62
(dp4152
sg71
g4146
sg64
(lp4153
g57
(g58
g59
NtRp4154
(dp4155
g62
(dp4156
g70
I2
ssg71
g4150
sg64
(lp4157
g57
(g66
g59
NtRp4158
(dp4159
g62
(dp4160
g70
I1
ssg71
Nsg64
(lp4161
g57
(g73
g59
NtRp4162
(dp4163
g62
(dp4164
sg71
g4158
sg64
(lp4165
g57
(g78
g59
NtRp4166
(dp4167
g62
(dp4168
sg71
g4162
sg64
(lp4169
g57
(g58
g59
NtRp4170
(dp4171
g62
(dp4172
g70
I1
ssg71
g4166
sg64
(lp4173
g3674
(S't\t\x00\x00\x00Community'
tRp4174
asbasbasbag57
(g73
g59
NtRp4175
(dp4176
g62
(dp4177
sg71
g4158
sg64
(lp4178
g57
(g78
g59
NtRp4179
(dp4180
g62
(dp4181
sg71
g4175
sg64
(lp4182
g57
(g58
g59
NtRp4183
(dp4184
g62
(dp4185
g70
I1
ssg71
g4179
sg64
(lp4186
I00
asbasbasbag57
(g73
g59
NtRp4187
(dp4188
g62
(dp4189
sg71
g4158
sg64
(lp4190
g57
(g78
g59
NtRp4191
(dp4192
g62
(dp4193
sg71
g4187
sg64
(lp4194
g57
(g58
g59
NtRp4195
(dp4196
g62
(dp4197
g70
I1
ssg71
g4191
sg64
(lp4198
Nasbasbasbag57
(g73
g59
NtRp4199
(dp4200
g62
(dp4201
sg71
g4158
sg64
(lp4202
g57
(g78
g59
NtRp4203
(dp4204
g62
(dp4205
sg71
g4199
sg64
(lp4206
g57
(g58
g59
NtRp4207
(dp4208
g62
(dp4209
g70
I1
ssg71
g4203
sg64
(lp4210
(lp4211
(g3674
(S't\x06\x00\x00\x00Groups'
tRp4212
I00
S'http://www.web2py.com/examples/default/usergroups'
p4213
tp4214
a(g3674
(S't\x07\x00\x00\x00Twitter'
tRp4215
I00
S'http://twitter.com/web2py'
p4216
tp4217
a(g3674
(S's\t\x00\x00\x00Live Chat'
tRp4218
I00
S'http://webchat.freenode.net/?channels=web2py'
p4219
tp4220
aasbasbasbasbasbasbasbag57
(g73
g59
NtRp4221
(dp4222
g62
(dp4223
sg71
g3788
sg64
(lp4224
g57
(g78
g59
NtRp4225
(dp4226
g62
(dp4227
sg71
g4221
sg64
(lp4228
g57
(g58
g59
NtRp4229
(dp4230
g62
(dp4231
g70
I2
ssg71
g4225
sg64
(lp4232
g57
(g66
g59
NtRp4233
(dp4234
g62
(dp4235
g70
I1
ssg71
Nsg64
(lp4236
g57
(g73
g59
NtRp4237
(dp4238
g62
(dp4239
sg71
g4233
sg64
(lp4240
g57
(g78
g59
NtRp4241
(dp4242
g62
(dp4243
sg71
g4237
sg64
(lp4244
g57
(g58
g59
NtRp4245
(dp4246
g62
(dp4247
g70
I1
ssg71
g4241
sg64
(lp4248
g3674
(S't\x07\x00\x00\x00Plugins'
tRp4249
asbasbasbag57
(g73
g59
NtRp4250
(dp4251
g62
(dp4252
sg71
g4233
sg64
(lp4253
g57
(g78
g59
NtRp4254
(dp4255
g62
(dp4256
sg71
g4250
sg64
(lp4257
g57
(g58
g59
NtRp4258
(dp4259
g62
(dp4260
g70
I1
ssg71
g4254
sg64
(lp4261
I00
asbasbasbag57
(g73
g59
NtRp4262
(dp4263
g62
(dp4264
sg71
g4233
sg64
(lp4265
g57
(g78
g59
NtRp4266
(dp4267
g62
(dp4268
sg71
g4262
sg64
(lp4269
g57
(g58
g59
NtRp4270
(dp4271
g62
(dp4272
g70
I1
ssg71
g4266
sg64
(lp4273
Nasbasbasbag57
(g73
g59
NtRp4274
(dp4275
g62
(dp4276
sg71
g4233
sg64
(lp4277
g57
(g78
g59
NtRp4278
(dp4279
g62
(dp4280
sg71
g4274
sg64
(lp4281
g57
(g58
g59
NtRp4282
(dp4283
g62
(dp4284
g70
I1
ssg71
g4278
sg64
(lp4285
(lp4286
(S'plugin_wiki'
p4287
I00
S'http://web2py.com/examples/default/download'
p4288
tp4289
a(g3674
(S's\r\x00\x00\x00Other Plugins'
tRp4290
I00
g4020
tp4291
a(g3674
(S's\x0e\x00\x00\x00Layout Plugins'
tRp4292
I00
g4023
tp4293
aasbasbasbasbasbasbasbasbasbasbasbasbasbasbasbasbasbasbasbag57
(g73
g59
NtRp4294
(dp4295
g62
(dp4296
sg71
g3118
sg64
(lp4297
g57
(g78
g59
NtRp4298
(dp4299
g62
(dp4300
g82
g83
ssg71
g4294
sg64
(lp4301
S'meta'
p4302
asbag57
(g78
g59
NtRp4303
(dp4304
g62
(dp4305
g89
g90
ssg71
g4294
sg64
(lp4306
S':'
asbag57
(g78
g59
NtRp4307
(dp4308
g62
(dp4309
sg71
g4294
sg64
(lp4310
g57
(g58
g59
NtRp4311
(dp4312
g62
(dp4313
g70
I5
ssg71
g4307
sg64
(lp4314
g57
(g66
g59
NtRp4315
(dp4316
g62
(dp4317
g70
I4
ssg71
Nsg64
(lp4318
g57
(g73
g59
NtRp4319
(dp4320
g62
(dp4321
sg71
g4315
sg64
(lp4322
g57
(g78
g59
NtRp4323
(dp4324
g62
(dp4325
g82
g83
ssg71
g4319
sg64
(lp4326
S'author'
p4327
asbag57
(g78
g59
NtRp4328
(dp4329
g62
(dp4330
g89
g90
ssg71
g4319
sg64
(lp4331
S':'
asbag57
(g78
g59
NtRp4332
(dp4333
g62
(dp4334
sg71
g4319
sg64
(lp4335
g57
(g58
g59
NtRp4336
(dp4337
g62
(dp4338
g70
I4
ssg71
g4332
sg64
(lp4339
S'Your Name <you@example.com>'
p4340
asbasbasbag57
(g73
g59
NtRp4341
(dp4342
g62
(dp4343
sg71
g4315
sg64
(lp4344
g57
(g78
g59
NtRp4345
(dp4346
g62
(dp4347
g82
g83
ssg71
g4341
sg64
(lp4348
S'copyright'
p4349
asbag57
(g78
g59
NtRp4350
(dp4351
g62
(dp4352
g89
g90
ssg71
g4341
sg64
(lp4353
S':'
asbag57
(g78
g59
NtRp4354
(dp4355
g62
(dp4356
sg71
g4341
sg64
(lp4357
g57
(g58
g59
NtRp4358
(dp4359
g62
(dp4360
g70
I4
ssg71
g4354
sg64
(lp4361
S'Copyright 2011'
p4362
asbasbasbag57
(g73
g59
NtRp4363
(dp4364
g62
(dp4365
sg71
g4315
sg64
(lp4366
g57
(g78
g59
NtRp4367
(dp4368
g62
(dp4369
g82
g83
ssg71
g4363
sg64
(lp4370
S'description'
p4371
asbag57
(g78
g59
NtRp4372
(dp4373
g62
(dp4374
g89
g90
ssg71
g4363
sg64
(lp4375
S':'
asbag57
(g78
g59
NtRp4376
(dp4377
g62
(dp4378
sg71
g4363
sg64
(lp4379
g57
(g58
g59
NtRp4380
(dp4381
g62
(dp4382
g70
I4
ssg71
g4376
sg64
(lp4383
S'a cool new app'
p4384
asbasbasbag57
(g73
g59
NtRp4385
(dp4386
g62
(dp4387
sg71
g4315
sg64
(lp4388
g57
(g78
g59
NtRp4389
(dp4390
g62
(dp4391
g82
g83
ssg71
g4385
sg64
(lp4392
S'generator'
p4393
asbag57
(g78
g59
NtRp4394
(dp4395
g62
(dp4396
g89
g90
ssg71
g4385
sg64
(lp4397
S':'
asbag57
(g78
g59
NtRp4398
(dp4399
g62
(dp4400
sg71
g4385
sg64
(lp4401
g57
(g58
g59
NtRp4402
(dp4403
g62
(dp4404
g70
I4
ssg71
g4398
sg64
(lp4405
S'Web2py Web Framework'
p4406
asbasbasbag57
(g73
g59
NtRp4407
(dp4408
g62
(dp4409
sg71
g4315
sg64
(lp4410
g57
(g78
g59
NtRp4411
(dp4412
g62
(dp4413
g82
g83
ssg71
g4407
sg64
(lp4414
S'keywords'
p4415
asbag57
(g78
g59
NtRp4416
(dp4417
g62
(dp4418
g89
g90
ssg71
g4407
sg64
(lp4419
S':'
asbag57
(g78
g59
NtRp4420
(dp4421
g62
(dp4422
sg71
g4407
sg64
(lp4423
g57
(g58
g59
NtRp4424
(dp4425
g62
(dp4426
g70
I4
ssg71
g4420
sg64
(lp4427
S'web2py, python, framework'
p4428
asbasbasbasbasbasbasbag57
(g73
g59
NtRp4429
(dp4430
g62
(dp4431
sg71
g3118
sg64
(lp4432
g57
(g78
g59
NtRp4433
(dp4434
g62
(dp4435
g82
g83
ssg71
g4429
sg64
(lp4436
S'postprocessing'
p4437
asbag57
(g78
g59
NtRp4438
(dp4439
g62
(dp4440
g89
g90
ssg71
g4429
sg64
(lp4441
S':'
asbag57
(g78
g59
NtRp4442
(dp4443
g62
(dp4444
sg71
g4429
sg64
(lp4445
g57
(g58
g59
NtRp4446
(dp4447
g62
(dp4448
g70
I5
ssg71
g4442
sg64
(lp4449
g57
(g66
g59
NtRp4450
(dp4451
g62
(dp4452
g70
I4
ssg71
Nsg64
(lp4453
sbasbasbasbag57
(g73
g59
NtRp4454
(dp4455
g62
(dp4456
sg71
g3118
sg64
(lp4457
g57
(g78
g59
NtRp4458
(dp4459
g62
(dp4460
g82
g83
ssg71
g4454
sg64
(lp4461
S'session_file'
p4462
asbag57
(g78
g59
NtRp4463
(dp4464
g62
(dp4465
g89
g90
ssg71
g4454
sg64
(lp4466
S':'
asbag57
(g78
g59
NtRp4467
(dp4468
g62
(dp4469
sg71
g4454
sg64
(lp4470
g57
(g58
g59
NtRp4471
(dp4472
g62
(dp4473
g70
I5
ssg71
g4467
sg64
(lp4474
S"<open file 'C:\\Documents and Settings\\agrover\\Desktop\\previous crawler\\web2py\\applications\\mycrawler\\sessions\\127.0.0.1-e33c895d-efcf-4795-8169-7cf95d1f13b6', mode 'rb+' at 0x013D54F0>"
p4475
asbasbasbag57
(g73
g59
NtRp4476
(dp4477
g62
(dp4478
sg71
g3118
sg64
(lp4479
g57
(g78
g59
NtRp4480
(dp4481
g62
(dp4482
g82
g83
ssg71
g4476
sg64
(lp4483
S'session_filename'
p4484
asbag57
(g78
g59
NtRp4485
(dp4486
g62
(dp4487
g89
g90
ssg71
g4476
sg64
(lp4488
S':'
asbag57
(g78
g59
NtRp4489
(dp4490
g62
(dp4491
sg71
g4476
sg64
(lp4492
g57
(g58
g59
NtRp4493
(dp4494
g62
(dp4495
g70
I5
ssg71
g4489
sg64
(lp4496
S'C:\\Documents and Settings\\agrover\\Desktop\\previous crawler\\web2py\\applications\\mycrawler\\sessions\\127.0.0.1-e33c895d-efcf-4795-8169-7cf95d1f13b6'
p4497
asbasbasbag57
(g73
g59
NtRp4498
(dp4499
g62
(dp4500
sg71
g3118
sg64
(lp4501
g57
(g78
g59
NtRp4502
(dp4503
g62
(dp4504
g82
g83
ssg71
g4498
sg64
(lp4505
S'session_id'
p4506
asbag57
(g78
g59
NtRp4507
(dp4508
g62
(dp4509
g89
g90
ssg71
g4498
sg64
(lp4510
S':'
asbag57
(g78
g59
NtRp4511
(dp4512
g62
(dp4513
sg71
g4498
sg64
(lp4514
g57
(g58
g59
NtRp4515
(dp4516
g62
(dp4517
g70
I5
ssg71
g4511
sg64
(lp4518
S'127.0.0.1-e33c895d-efcf-4795-8169-7cf95d1f13b6'
p4519
asbasbasbag57
(g73
g59
NtRp4520
(dp4521
g62
(dp4522
sg71
g3118
sg64
(lp4523
g57
(g78
g59
NtRp4524
(dp4525
g62
(dp4526
g82
g83
ssg71
g4520
sg64
(lp4527
S'session_id_name'
p4528
asbag57
(g78
g59
NtRp4529
(dp4530
g62
(dp4531
g89
g90
ssg71
g4520
sg64
(lp4532
S':'
asbag57
(g78
g59
NtRp4533
(dp4534
g62
(dp4535
sg71
g4520
sg64
(lp4536
g57
(g58
g59
NtRp4537
(dp4538
g62
(dp4539
g70
I5
ssg71
g4533
sg64
(lp4540
g3175
asbasbasbag57
(g73
g59
NtRp4541
(dp4542
g62
(dp4543
sg71
g3118
sg64
(lp4544
g57
(g78
g59
NtRp4545
(dp4546
g62
(dp4547
g82
g83
ssg71
g4541
sg64
(lp4548
S'session_locked'
p4549
asbag57
(g78
g59
NtRp4550
(dp4551
g62
(dp4552
g89
g90
ssg71
g4541
sg64
(lp4553
S':'
asbag57
(g78
g59
NtRp4554
(dp4555
g62
(dp4556
sg71
g4541
sg64
(lp4557
g57
(g58
g59
NtRp4558
(dp4559
g62
(dp4560
g70
I5
ssg71
g4554
sg64
(lp4561
g1656
asbasbasbag57
(g73
g59
NtRp4562
(dp4563
g62
(dp4564
sg71
g3118
sg64
(lp4565
g57
(g78
g59
NtRp4566
(dp4567
g62
(dp4568
g82
g83
ssg71
g4562
sg64
(lp4569
S'session_new'
p4570
asbag57
(g78
g59
NtRp4571
(dp4572
g62
(dp4573
g89
g90
ssg71
g4562
sg64
(lp4574
S':'
asbag57
(g78
g59
NtRp4575
(dp4576
g62
(dp4577
sg71
g4562
sg64
(lp4578
g57
(g58
g59
NtRp4579
(dp4580
g62
(dp4581
g70
I5
ssg71
g4575
sg64
(lp4582
g100
asbasbasbag57
(g73
g59
NtRp4583
(dp4584
g62
(dp4585
sg71
g3118
sg64
(lp4586
g57
(g78
g59
NtRp4587
(dp4588
g62
(dp4589
g82
g83
ssg71
g4583
sg64
(lp4590
S'status'
p4591
asbag57
(g78
g59
NtRp4592
(dp4593
g62
(dp4594
g89
g90
ssg71
g4583
sg64
(lp4595
S':'
asbag57
(g78
g59
NtRp4596
(dp4597
g62
(dp4598
sg71
g4583
sg64
(lp4599
g57
(g58
g59
NtRp4600
(dp4601
g62
(dp4602
g70
I5
ssg71
g4596
sg64
(lp4603
S'200'
p4604
asbasbasbag57
(g73
g59
NtRp4605
(dp4606
g62
(dp4607
sg71
g3118
sg64
(lp4608
g57
(g78
g59
NtRp4609
(dp4610
g62
(dp4611
g82
g83
ssg71
g4605
sg64
(lp4612
S'subtitle'
p4613
asbag57
(g78
g59
NtRp4614
(dp4615
g62
(dp4616
g89
g90
ssg71
g4605
sg64
(lp4617
S':'
asbag57
(g78
g59
NtRp4618
(dp4619
g62
(dp4620
sg71
g4605
sg64
(lp4621
g57
(g58
g59
NtRp4622
(dp4623
g62
(dp4624
g70
I5
ssg71
g4618
sg64
(lp4625
g3674
(S's\r\x00\x00\x00customize me!'
tRp4626
asbasbasbag57
(g73
g59
NtRp4627
(dp4628
g62
(dp4629
sg71
g3118
sg64
(lp4630
g57
(g78
g59
NtRp4631
(dp4632
g62
(dp4633
g82
g83
ssg71
g4627
sg64
(lp4634
S'title'
p4635
asbag57
(g78
g59
NtRp4636
(dp4637
g62
(dp4638
g89
g90
ssg71
g4627
sg64
(lp4639
S':'
asbag57
(g78
g59
NtRp4640
(dp4641
g62
(dp4642
sg71
g4627
sg64
(lp4643
g57
(g58
g59
NtRp4644
(dp4645
g62
(dp4646
g70
I5
ssg71
g4640
sg64
(lp4647
S'Mycrawler'
p4648
asbasbasbag57
(g73
g59
NtRp4649
(dp4650
g62
(dp4651
sg71
g3118
sg64
(lp4652
g57
(g78
g59
NtRp4653
(dp4654
g62
(dp4655
g82
g83
ssg71
g4649
sg64
(lp4656
g2320
asbag57
(g78
g59
NtRp4657
(dp4658
g62
(dp4659
g89
g90
ssg71
g4649
sg64
(lp4660
S':'
asbag57
(g78
g59
NtRp4661
(dp4662
g62
(dp4663
sg71
g4649
sg64
(lp4664
g57
(g58
g59
NtRp4665
(dp4666
g62
(dp4667
g70
I5
ssg71
g4661
sg64
(lp4668
g2333
asbasbasbag57
(g73
g59
NtRp4669
(dp4670
g62
(dp4671
sg71
g3118
sg64
(lp4672
g57
(g78
g59
NtRp4673
(dp4674
g62
(dp4675
g82
g83
ssg71
g4669
sg64
(lp4676
S'view'
p4677
asbag57
(g78
g59
NtRp4678
(dp4679
g62
(dp4680
g89
g90
ssg71
g4669
sg64
(lp4681
S':'
asbag57
(g78
g59
NtRp4682
(dp4683
g62
(dp4684
sg71
g4669
sg64
(lp4685
g57
(g58
g59
NtRp4686
(dp4687
g62
(dp4688
g70
I5
ssg71
g4682
sg64
(lp4689
S'default/extract.html'
p4690
asbasbasbasbasbsS'locals'
p4691
(dp4692
S'writer'
p4693
S'<_csv.writer object>'
p4694
sssS'traceback'
p4695
S'Traceback (most recent call last):\n  File "C:\\Documents and Settings\\agrover\\Desktop\\previous crawler\\web2py\\gluon\\restricted.py", line 205, in restricted\n    exec ccode in environment\n  File "C:\\Documents and Settings\\agrover\\Desktop\\previous crawler\\web2py\\applications\\mycrawler\\controllers/default.py", line 639, in <module>\n  File "C:\\Documents and Settings\\agrover\\Desktop\\previous crawler\\web2py\\gluon\\globals.py", line 173, in <lambda>\n    self._caller = lambda f: f()\n  File "C:\\Documents and Settings\\agrover\\Desktop\\previous crawler\\web2py\\applications\\mycrawler\\controllers/default.py", line 534, in extract\n    cpy()\n  File "C:\\Documents and Settings\\agrover\\Desktop\\previous crawler\\web2py\\applications\\mycrawler\\controllers/default.py", line 543, in cpy\n    reader = csv.reader(writer, delimiter=\',\')\nTypeError: argument 1 must be an iterator\n'
p4696
s.