(dp1
S'output'
p2
S"<type 'exceptions.IOError'> [Errno 13] Permission denied: '34.csv'"
p3
sS'layer'
p4
S'C:\\Documents and Settings\\agrover\\Desktop\\previous crawler\\web2py\\applications\\mycrawler\\controllers/default.py'
p5
sS'code'
p6
S'# -*- coding: utf-8 -*-\n# this file is released under public domain and you can use without limitations\n\n#########################################################################\n## This is a samples controller\n## - index is the default action of any application\n## - user is required for authentication and authorization\n## - download is for downloading files uploaded in the db (does streaming)\n## - call exposes all registered services (none by default)\n#########################################################################\nimport cStringIO\nimport csv\nimport re\ncountry=[\'United States\', \'Afghanistan\', \'Aland Islands\', \'Albania\', \'Algeria\', \'American Samoa\', \'Andorra\', \'Angola\', \'Anguilla\', \'Antarctica\', \'Antigua and Barbuda\', \'Argentina\', \'Armenia\', \'Aruba\', \'Australia\', \'Austria\', \'Azerbaijan\', \'Bahamas\', \'Bahrain\', \'Bangladesh\', \'Barbados\', \'Belarus\', \'Belgium\', \'Belize\', \'Benin\', \'Bermuda\', \'Bhutan\', \'Bolivia\', \'Bosnia and Herzegovina\', \'Botswana\', \'Brazil\', \'British Indian Ocean Territory\', \'Brunei Darussalam\', \'Bulgaria\', \'Burkina Faso\', \'Burundi\', \'Cambodia\', \'Cameroon\', \'Canada\', \'Cape Verde\', \'Caribbean Nations\', \'Cayman Islands\', \'Central African Republic\', \'Chad\', \'Chile\', \'China\', \'Christmas Island\', \'Cocos (Keeling) Islands\', \'Colombia\', \'Comoros\', \'Congo\', \'Cook Islands\', \'Costa Rica\', "Cote D\'Ivoire (Ivory Coast)", \'Croatia\', \'Cuba\', \'Cyprus\', \'Czech Republic\', \'Democratic Republic of the Congo\', \'Denmark\', \'Djibouti\', \'Dominica\', \'Dominican Republic\', \'East Timor\', \'Ecuador\', \'Egypt\', \'El Salvador\', \'Equatorial Guinea\', \'Eritrea\', \'Estonia\', \'Ethiopia\', \'Falkland Islands (Malvinas)\', \'Faroe Islands\', \'Federated States of Micronesia\', \'Fiji\', \'Finland\', \'France\', \'French Guiana\', \'French Polynesia\', \'French Southern Territories\', \'Gabon\', \'Gambia\', \'Georgia\', \'Germany\', \'Ghana\', \'Gibraltar\', \'Greece\', \'Greenland\', \'Grenada\', \'Guadeloupe\', \'Guam\', \'Guatemala\', \'Guernsey\', \'Guinea\', \'Guinea-Bissau\', \'Guyana\', \'Haiti\', \'Honduras\', \'Hong Kong\', \'Hungary\', \'Iceland\', \'India\', \'Indonesia\', \'Iran\', \'Iraq\', \'Ireland\', \'Isle of Man\', \'Israel\', \'Italy\', \'Jamaica\', \'Japan\', \'Jersey\', \'Jordan\', \'Kazakhstan\', \'Kenya\', \'Kiribati\', \'Korea\', \'Korea (North)\', \'Kuwait\', \'Kyrgyzstan\', \'Laos\', \'Latvia\', \'Lebanon\', \'Lesotho\', \'Liberia\', \'Libya\', \'Liechtenstein\', \'Lithuania\', \'Luxembourg\', \'Macao\', \'Macedonia\', \'Madagascar\', \'Malawi\', \'Malaysia\', \'Maldives\', \'Mali\', \'Malta\', \'Marshall Islands\', \'Martinique\', \'Mauritania\', \'Mauritius\', \'Mayotte\', \'Mexico\', \'Moldova\', \'Monaco\', \'Mongolia\', \'Montenegro\', \'Montserrat\', \'Morocco\', \'Mozambique\', \'Myanmar\', \'Namibia\', \'Nauru\', \'Nepal\', \'Netherlands\', \'Netherlands Antilles\', \'New Caledonia\', \'New Zealand\', \'Nicaragua\', \'Niger\', \'Nigeria\', \'Niue\', \'Norfolk Island\', \'Northern Mariana Islands\', \'Norway\', \'Oman\', \'Pakistan\', \'Palau\', \'Palestinian Territory\', \'Panama\', \'Papua New Guinea\', \'Paraguay\', \'Peru\', \'Philippines\', \'Pitcairn\', \'Poland\', \'Portugal\', \'Puerto Rico\', \'Qatar\', \'Reunion\', \'Romania\', \'Russian Federation\', \'Rwanda\', \'Saint Helena\', \'Saint Kitts and Nevis\', \'Saint Lucia\', \'Saint Pierre and Miquelon\', \'Saint Vincent and the Grenadines\', \'Samoa\', \'San Marino\', \'Sao Tome and Principe\', \'Saudi Arabia\', \'Senegal\', \'Serbia\', \'Seychelles\', \'Sierra Leone\', \'Singapore\', \'Slovak Republic\', \'Slovenia\', \'Solomon Islands\', \'Somalia\', \'South Africa\', \'Spain\', \'Sri Lanka\', \'Sudan\', \'Suriname\', \'Svalbard and Jan Mayen\', \'Swaziland\', \'Sweden\', \'Switzerland\', \'Syria\', \'Taiwan\', \'Tajikistan\', \'Tanzania\', \'Thailand\', \'Timor-Leste\', \'Togo\', \'Tokelau\', \'Tonga\', \'Trinidad and Tobago\', \'Tunisia\', \'Turkey\', \'Turkmenistan\', \'Turks and Caicos Islands\', \'Tuvalu\', \'Uganda\', \'Ukraine\', \'United Arab Emirates\', \'United Kingdom\', \'Uruguay\', \'Uzbekistan\', \'Vanuatu\', \'Vatican City State (Holy See)\', \'Venezuela\', \'Vietnam\', \'Virgin Islands (British)\', \'Virgin Islands (U.S.)\', \'Wallis and Futuna\', \'Western Sahara\', \'Yemen\', \'Zambia\', \'Zimbabwe\', \'Other\']\n    \ncountryid=[\'us\', \'af\', \'ax\', \'al\', \'dz\', \'as\', \'ad\', \'ao\', \'ai\', \'aq\', \'ag\', \'ar\', \'am\', \'aw\', \'au\', \'at\', \'az\', \'bs\', \'bh\', \'bd\', \'bb\', \'by\', \'be\', \'bz\', \'bj\', \'bm\', \'bt\', \'bo\', \'ba\', \'bw\', \'br\', \'io\', \'bn\', \'bg\', \'bf\', \'bi\', \'kh\', \'cm\', \'ca\', \'cv\', \'cb\', \'ky\', \'cf\', \'td\', \'cl\', \'cn\', \'cx\', \'cc\', \'co\', \'km\', \'cg\', \'ck\', \'cr\', \'ci\', \'hr\', \'cu\', \'cy\', \'cz\', \'cd\', \'dk\', \'dj\', \'dm\', \'do\', \'tp\', \'ec\', \'eg\', \'sv\', \'gq\', \'er\', \'ee\', \'et\', \'fk\', \'fo\', \'fm\', \'fj\', \'fi\', \'fr\', \'gf\', \'pf\', \'tf\', \'ga\', \'gm\', \'ge\', \'de\', \'gh\', \'gi\', \'gr\', \'gl\', \'gd\', \'gp\', \'gu\', \'gt\', \'gg\', \'gn\', \'gw\', \'gy\', \'ht\', \'hn\', \'hk\', \'hu\', \'is\', \'in\', \'id\', \'ir\', \'iq\', \'ie\', \'im\', \'il\', \'it\', \'jm\', \'jp\', \'je\', \'jo\', \'kz\', \'ke\', \'ki\', \'kr\', \'kp\', \'kw\', \'kg\', \'la\', \'lv\', \'lb\', \'ls\', \'lr\', \'ly\', \'li\', \'lt\', \'lu\', \'mo\', \'mk\', \'mg\', \'mw\', \'my\', \'mv\', \'ml\', \'mt\', \'mh\', \'mq\', \'mr\', \'mu\', \'yt\', \'mx\', \'md\', \'mc\', \'mn\', \'me\', \'ms\', \'ma\', \'mz\', \'mm\', \'na\', \'nr\', \'np\', \'nl\', \'an\', \'nc\', \'nz\', \'ni\', \'ne\', \'ng\', \'nu\', \'nf\', \'mp\', \'no\', \'om\', \'pk\', \'pw\', \'ps\', \'pa\', \'pg\', \'py\', \'pe\', \'ph\', \'pn\', \'pl\', \'pt\', \'pr\', \'qa\', \'re\', \'ro\', \'ru\', \'rw\', \'sh\', \'kn\', \'lc\', \'pm\', \'vc\', \'ws\', \'sm\', \'st\', \'sa\', \'sn\', \'rs\', \'sc\', \'sl\', \'sg\', \'sk\', \'si\', \'sb\', \'so\', \'za\', \'es\', \'lk\', \'sd\', \'sr\', \'sj\', \'sz\', \'se\', \'ch\', \'sy\', \'tw\', \'tj\', \'tz\', \'th\', \'tl\', \'tg\', \'tk\', \'to\', \'tt\', \'tn\', \'tr\', \'tm\', \'tc\', \'tv\', \'ug\', \'ua\', \'ae\', \'gb\', \'uy\', \'uz\', \'vu\', \'va\', \'ve\', \'vn\', \'vg\', \'vi\', \'wf\', \'eh\', \'ye\', \'zm\', \'zw\', \'oo\']\n\nindustries=[\'All Industries\',\'Accounting\', \'Airlines/Aviation\', \'Alternative Dispute Resolution\', \'Alternative Medicine\', \'Animation\', \'Apparel & Fashion\', \'Architecture & Planning\', \'Arts and Crafts\', \'Automotive\', \'Aviation & Aerospace\', \'Banking\', \'Biotechnology\', \'Broadcast Media\', \'Building Materials\', \'Business Supplies and Equipment\', \'Capital Markets\', \'Chemicals\', \'Civic & Social Organization\', \'Civil Engineering\', \'Commercial Real Estate\', \'Computer & Network Security\', \'Computer Games\', \'Computer Hardware\', \'Computer Networking\', \'Computer Software\', \'Construction\', \'Consumer Electronics\', \'Consumer Goods\', \'Consumer Services\', \'Cosmetics\', \'Dairy\', \'Defense & Space\', \'Design\', \'Education Management\', \'E-Learning\', \'Electrical/Electronic Manufacturing\', \'Entertainment\', \'Environmental Services\', \'Events Services\', \'Executive Office\', \'Facilities Services\', \'Farming\', \'Financial Services\', \'Fine Art\', \'Fishery\', \'Food & Beverages\', \'Food Production\', \'Fund-Raising\', \'Furniture\', \'Gambling & Casinos\', \'Glass, Ceramics & Concrete\', \'Government Administration\', \'Government Relations\', \'Graphic Design\', \'Health, Wellness and Fitness\', \'Higher Education\', \'Hospital & Health Care\', \'Hospitality\', \'Human Resources\', \'Import and Export\', \'Individual & Family Services\', \'Industrial Automation\', \'Information Services\', \'Information Technology and Services\', \'Insurance\', \'International Affairs\', \'International Trade and Development\', \'Internet\', \'Investment Banking\', \'Investment Management\', \'Judiciary\', \'Law Enforcement\', \'Law Practice\', \'Legal Services\', \'Legislative Office\', \'Leisure, Travel & Tourism\', \'Libraries\', \'Logistics and Supply Chain\', \'Luxury Goods & Jewelry\', \'Machinery\', \'Management Consulting\', \'Maritime\', \'Marketing and Advertising\', \'Market Research\', \'Mechanical or Industrial Engineering\', \'Media Production\', \'Medical Devices\', \'Medical Practice\', \'Mental Health Care\', \'Military\', \'Mining & Metals\', \'Motion Pictures and Film\', \'Museums and Institutions\', \'Music\', \'Nanotechnology\', \'Newspapers\', \'Nonprofit Organization Management\', \'Oil & Energy\', \'Online Media\', \'Outsourcing/Offshoring\', \'Package/Freight Delivery\', \'Packaging and Containers\', \'Paper & Forest Products\', \'Performing Arts\', \'Pharmaceuticals\', \'Philanthropy\', \'Photography\', \'Plastics\', \'Political Organization\', \'Primary/Secondary Education\', \'Printing\', \'Professional Training & Coaching\', \'Program Development\', \'Public Policy\', \'Public Relations and Communications\', \'Public Safety\', \'Publishing\', \'Railroad Manufacture\', \'Ranching\', \'Real Estate\', \'Recreational Facilities and Services\', \'Religious Institutions\', \'Renewables & Environment\', \'Research\', \'Restaurants\', \'Retail\', \'Security and Investigations\', \'Semiconductors\', \'Shipbuilding\', \'Sporting Goods\', \'Sports\', \'Staffing and Recruiting\', \'Supermarkets\', \'Telecommunications\', \'Textiles\', \'Think Tanks\', \'Tobacco\', \'Translation and Localization\', \'Transportation/Trucking/Railroad\', \'Utilities\', \'Venture Capital & Private Equity\', \'Veterinary\', \'Warehousing\', \'Wholesale\', \'Wine and Spirits\', \'Wireless\', \'Writing and Editing\']\n\nseniority=[\'All Seniority Levels\', \'Manager\', \'Owner\', \'Partner\', \'CXO\', \'VP\', \'Director\', \'Senior\', \'Entry\', \'Students & Interns\', \'Volunteer\']\n\nfunctions=[\'All Functions\', \'Academics\', \'Accounting\', \'Administrative\', \'Business development\', \'Buyer\', \'Consultant\', \'Creative\', \'Engineering\', \'Entrepreneur\', \'Finance\', \'Human resources\', \'Information technology\', \'Legal\', \'Marketing\', \'Medical\', \'Operations\', \'Product\', \'Public relations\', \'Real estate\', \'Sales\', \'Support\']\n\nusername=\'\'\npassword=\'\'\n\ndef index():\n    """\n    example action using the internationalization operator T and flash\n    rendered by views/default/index.html or views/generic.html\n    """\n    #response.flash = "Welcome to web2py!"\n    #return dict(message=T(\'Hello World\'))\n    \n    form = SQLFORM.factory(\n       Field(\'Linked_In_User_Id\'),\n       Field(\'Password\',type=\'password\'))\n       \n    global username\n    username=request.vars.Linked_In_User_Id\n    global password\n    password=request.vars.Password\n    if form.process().accepted:\n        response.flash =\'form accepted\'\n        redirect(URL(r=request,f=\'enter_info\')) \n    return dict(form=form)   \n\ndef user():\n    """\n    exposes:\n    http://..../[app]/default/user/login\n    http://..../[app]/default/user/logout\n    http://..../[app]/default/user/register\n    http://..../[app]/default/user/profile\n    http://..../[app]/default/user/retrieve_password\n    http://..../[app]/default/user/change_password\n    use @auth.requires_login()\n        @auth.requires_membership(\'group name\')\n        @auth.requires_permission(\'read\',\'table name\',record_id)\n    to decorate functions that need access control\n    """\n    return dict(form=auth())\n\n\ndef download():\n    """\n    allows downloading of uploaded files\n    http://..../[app]/default/download/[filename]\n    """\n    return response.download(request,db)\n\n\ndef call():\n    """\n    exposes services. for example:\n    http://..../[app]/default/call/jsonrpc\n    decorate with @services.jsonrpc the functions to expose\n    supports xml, json, xmlrpc, jsonrpc, amfrpc, rss, csv\n    """\n    return service()\n\n\n@auth.requires_signature()\ndef data():\n    """\n    http://..../[app]/default/data/tables\n    http://..../[app]/default/data/create/[table]\n    http://..../[app]/default/data/read/[table]/[id]\n    http://..../[app]/default/data/update/[table]/[id]\n    http://..../[app]/default/data/delete/[table]/[id]\n    http://..../[app]/default/data/select/[table]\n    http://..../[app]/default/data/search/[table]\n    but URLs must be signed, i.e. linked with\n      A(\'table\',_href=URL(\'data/tables\',user_signature=True))\n    or with the signed load operator\n      LOAD(\'default\',\'data.load\',args=\'tables\',ajax=True,user_signature=True)\n    """\n    return dict(form=crud())\n\n#def enter_info():\n\n#     form = SQLFORM.factory(\n#         Field(\'First_Name\'),\n#         Field(\'Last_Name\'),\n#         Field(\'Keywords\'),\n#         Field(\'Title\'),\n#         Field(\'Company\'),\n#         Field(\'School\'))\n         #Field(\'Submit\',\'submit\'))\n#    if form.process().accepted:\n#        response.flash = \'form accepted\'\n#    elif form.errors:\n#        response.flash = \'form has errors\'\n    \n    #form=FORM(\'First Name:\',INPUT(_name=\'fname\',_id=\'fname\'),\n     #         \'Last Name:\',INPUT(_name=\'lname\',_id=\'lname\'),\n      #        \'Keywords:\',INPUT(_name=\'keywords\',_id=\'keywords\'),\n       #       \'Title:\',INPUT(_name=\'title\',_id=\'title\'),\n       #       \'Company:\',INPUT(_name=\'company\',_id=\'company\'),\n       #       \'School:\',INPUT(_name=\'school\',_id=\'school\'),\n              \n        #      INPUT(_type=\'submit\',_value=\'Submit\',_id=\'submit\'))\n    #if form.accepts(request,session):\n    #    response.flash = \'form accepted\'\n    #    redirect(URL(r=request,f=\'search\',vars=request.vars))\n#    return dict(form=form\n    \ndef enter_info():\n    \n    form = SQLFORM.factory(\n       Field(\'First_Name\'),\n       Field(\'Last_Name\'),\n       Field(\'Keywords\'),\n       Field(\'Title\'),\n       Field(\'Company\'),\n       Field(\'School\'),\n       Field(\'File_Name\',requires=IS_NOT_EMPTY()),\n       Field(\'Country\',requires=IS_IN_SET(country),default=\'India\'),\n       Field(\'Industry\',requires=IS_IN_SET(industries,multiple=\'multiple\'),default=\'All Industries\'),\n       Field(\'Seniority_Levels\',requires=IS_IN_SET(seniority,multiple=\'multiple\'),default=\'All Seniority Levels\'),\n       Field(\'Functions\',requires=IS_IN_SET(functions,multiple=\'multiple\'),default=\'All Functions\'))\n    \n    if form.process().accepted:\n        response.flash = \'form accepted\'\n        redirect(URL(r=request,f=\'search\',vars=request.vars))\n    elif form.errors:\n        response.flash = \'form has errors\'\n    return dict(form=form)\n    \n\ndef search():\n    \n    import mechanize\n    import cookielib\n    import html2text\n    from bs4 import BeautifulSoup\n    \n    # Browser    \n    br = mechanize.Browser()\n\n    # Cookie Jar\n    cj = cookielib.LWPCookieJar()\n    br.set_cookiejar(cj)\n\n    # Browser options\n    br.set_handle_equiv(True)\n    br.set_handle_gzip(True)\n    br.set_handle_redirect(True)\n    br.set_handle_referer(True)\n    br.set_handle_robots(False)\n\n    # Follows refresh 0 but not hangs on refresh > 0\n    br.set_handle_refresh(mechanize._http.HTTPRefreshProcessor(), max_time=1)\n\n    # User-Agent (this is cheating, ok?)\n    br.addheaders = [(\'User-agent\', \'Mozilla/5.0 (X11; U; Linux i686; en-US; rv:1.9.0.1) Gecko/2008071615 Fedora/3.0.1-1.fc9 Firefox/3.0.1\')]\n\n\n    # The site we will navigate into, handling it\'s session    \n    br.open(\'https://www.linkedin.com\')\n\n    # Select the first (index zero) form\n    br.select_form(nr=0)\n\n    # User credentials\n    br.form[\'session_key\'] = \'mrigeshgaurav@gmail.com\'\n    br.form[\'session_password\'] = \'modeln@1234\'\n    response.flash=username\n    \n    #br.form[\'session_key\'] = username\n    #br.form[\'session_password\'] = password\n    \n    \n    # Login by submitting form br\n    br.submit()\n    \n    #opening the advanced search page straight away\n    br.open(\'http://www.linkedin.com/search?trk=advsrch\')\n    #selecting the 1st form\n    br.select_form(nr=1)\n\n    #entering various fields and filters\n    if request.vars.Last_Name:\n        br["lname"]=request.vars.Last_Name\n\n    if request.vars.First_Name:\n        br["fname"]=request.vars.First_Name\n    \n    if request.vars.Keywords:\n        br["keywords"]=request.vars.Keywords\n\n    if request.vars.Company:\n        br["company"]=request.vars.Company\n\n    if request.vars.School:\n        br["school"]=request.vars.School\n\n    if request.vars.Title:\n        br["title"]=request.vars.Title\n        \n    if request.vars.Country:\n        br["countryCode"]=[countryid[country.index(request.vars.Country)]]\n    \n    if request.vars.Industry and request.vars.Industry!=\'All Industries\':\n        if isinstance(request.vars.Industry,list):\n            for i in request.vars.Industry:\n                br.find_control("facet_I").items[industries.index(i)-1].selected=True\n        else:\n            br.find_control("facet_I").items[industries.index(request.vars.Industry)-1].selected=True\n            \n    if request.vars.Seniority_Levels and request.vars.Seniority_Levels!=\'All Seniority Levels\':\n        if isinstance(request.vars.Seniority_Levels,list):\n            for i in request.vars.Seniority_Levels:\n                br.find_control("facet_SE").items[seniority.index(i)-1].selected=True\n        else:\n            br.find_control("facet_SE").items[seniority.index(request.vars.Seniority_Levels)-1].selected=True\n            \n    if request.vars.Functions and request.vars.Functions!=\'All Functions\':\n        if isinstance(request.vars.Functions,list):\n            for i in request.vars.Functions:\n                br.find_control("facet_FA").items[functions.index(i)-1].selected=True\n        else:\n            br.find_control("facet_FA").items[functions.index(request.vars.Functions)-1].selected=True\n    \n    #submitting the form\n    br.submit()\n    \n    #lists for retreiving the required data\n    view_profile=[]\n    name=[]\n    titl=[]\n    location=[]\n    industry=[]\n    current=[]\n    \n    #flag to make sure we get entries on 1st page\n    flag=1\n    \n    #writing into file with given filename\n    spamWriter = csv.writer(open(request.vars.File_Name+\'.csv\', \'wb\'), delimiter=\',\')\n    soup = BeautifulSoup(br.response().read())\n    spamWriter.writerow([\'NAME\',\'JOB-TITLE\',\'Current\',\'LOCATION\',\'INDUSTRY\',\'PROFLE-URL\'])\n    \n    #scans till there is a link to "next page"\n    while soup.find(\'a\',{"class" : "paginator-next"}) or flag==1:\n        flag=0\n        soup = BeautifulSoup(br.response().read())\n        view_profile=[]\n        name.append(username)\n        titl=[]\n        location=[]\n        industry=[]\n        current=[]\n        \n        #parsing for the html response to get information\n        for k in soup.find_all(\'dl\',{"class" : "vcard-basic"}):\n            if k.find(\'dd\',{"class" : "title"}):\n                    titl.append(k.find(\'dd\',{"class" : "title"}).get_text())\n            else:\n                    titl.append(\'NONE\')\n                            \n            if k.find(\'span\',{"class" : "location"}):\n                    location.append(k.find(\'span\',{"class" : "location"}).get_text())\n            else:\n                    location.append(\'NONE\')\n            if k.find(\'span\',{"class" : "industry"}):\n                    industry.append(k.find(\'span\',{"class" : "industry"}).get_text())\n            else:\n                    industry.append(\'NONE\')\n                \n        for k in soup.find_all(\'dl\',{"class" : "vcard-expanded"}):\n            if k.find(\'span\',{"class" : "current-details more-text"}):\n                    current.append(k.find(\'span\',{"class" : "current-details more-text"}).get_text())\n            elif k.find(\'span\',{"class" : "current-details"}):\n                    current.append(k.find(\'span\',{"class" : "current-details"}).get_text())\n            else:\n                    current.append(\'NONE\')\n                \n        for l in soup.find_all(\'a\',{"title" : "View Profile"}):\n            view_profile.append(\'http://www.linkedin.com\'+l.get(\'href\'))\n            name.append(l.get_text().encode(\'utf-8\'))\n        \n        for i in range(0,len(name)):\n            try:\n                spamWriter.writerow([name[i][1:len(name[i])-1].encode(\'utf-8\'),titl[i].encode(\'utf-8\'),current[i].encode(\'utf-8\'),location[i][1:len(location[i])-1].encode(\'utf-8\'),industry[i][1:len(industry[i])-1].encode(\'utf-8\'),view_profile[i].encode(\'utf-8\')])\n            except:\n                continue\n        if soup.find(\'a\',{"class" : "paginator-next"}):\n            br.open(\'http://www.linkedin.com\'+ soup.find(\'a\',{"class" : "paginator-next"}).get(\'href\'))\n        #soup = BeautifulSoup(br.response().read())\n     \n    redirect(URL(r=request,f=\'enter_info\'))       \n\n    #for link in soup.find_all(\'a\'):\n    #    if link.get(\'title\')==\'View Profile\':\n    #        #print(link.get(\'href\'))\n    #        #print link.get_text()\n    #        view_profile.append(\'http://www.linkedin.com\'+link.get(\'href\'))\n    #        name.append(link.get_text())\n#for l in soup.find_all("span", { "class" : "given-name" }):\n    #print l.get_text()\n\n        \n\n#    for l in soup.find_all(\'dd\',{"class" : "title"}):\n        #print l.get_text()\n#        titl.append(l.get_text())\n    \n#    for l in soup.find_all(\'span\',{"class" : "location"}):\n        #print l.get_text()\n#        location.append(l.get_text())\n\n#    for l in soup.find_all(\'span\',{"class" : "industry"}):\n        #print l.get_text()\n#        industry.append(l.get_text())\n        \n#    for l in soup.find_all(\'span\', {"class" : "current-details"}):\n#        k=l.get_text()\n#        if k[len(k)-4:len(k)]!=\'more\':\n#            current.append(k)\n        #elif(l.get["class"]==\'current-details more text\'):\n        #    current.append(l.get_text())\n    #for l in soup.find_all(\'span\',{"class" : "current-details"}):\n        #print l.get_text()\n        #current.append(l.get_text())\n\n    \n    #global filename,csv_response\n\n    #csv_response = cStringIO.StringIO()\n    \n    #spamWriter = csv.writer(csv_response, delimiter=\',\')\n    \n    #spamWriter.writerow([\'NAME\',\'JOB-TITLE\',\'COMPANY-NAME\',\'LOCATION\',\'INDUSTRY\',\'PROFLE-URL\'])\n   \n    #spamWriter = csv.writer(open(request.vars.File_Name+\'.csv\', \'wb\'), delimiter=\',\')\n    #spamWriter.writerow([\'NAME\',\'JOB-TITLE\',\'Current\',\'LOCATION\',\'INDUSTRY\',\'PROFLE-URL\'])\n    #for i in range(1,10):\n    #    spamWriter.writerow([name[i].encode(\'utf-8\'),titl[i],current[i],location[i],industry[i],view_profile[i]])\n        \n        \n    #,titl[i],current[i],location[i],industry[i],view_profile[i]\n    #response.headers[\'Content-Type\'] = \'text/csv\'\n    #response.headers[\'Content-Disposition\'] = \'attachment; filename=%s\' % request.vars.File_Name\n\n    #print view_profile\n    #print name\n    #print location\n    #print industry\n    #print titl\n    \n    return dict(view_profile=view_profile,name=name,location=location,industry=industry,titl=titl,current=current)\n\nresponse._vars=response._caller(search)\n'
p7
sS'snapshot'
p8
(dp9
S'exception'
p10
(dp11
S'__getslice__'
p12
S"<method-wrapper '__getslice__' of exceptions.IOError object>"
p13
sS'__str__'
p14
S"<method-wrapper '__str__' of exceptions.IOError object>"
p15
sS'__reduce__'
p16
S'<built-in method __reduce__ of exceptions.IOError object>'
p17
sS'__dict__'
p18
S'{}'
p19
sS'__sizeof__'
p20
S'<built-in method __sizeof__ of exceptions.IOError object>'
p21
sS'__init__'
p22
S"<method-wrapper '__init__' of exceptions.IOError object>"
p23
sS'__setattr__'
p24
S"<method-wrapper '__setattr__' of exceptions.IOError object>"
p25
sS'__reduce_ex__'
p26
S'<built-in method __reduce_ex__ of exceptions.IOError object>'
p27
sS'__new__'
p28
S'<built-in method __new__ of type object>'
p29
sS'errno'
p30
S'13'
p31
sS'__format__'
p32
S'<built-in method __format__ of exceptions.IOError object>'
p33
sS'__class__'
p34
S"<type 'exceptions.IOError'>"
p35
sS'filename'
p36
S"'34.csv'"
p37
sS'__doc__'
p38
S"'I/O operation failed.'"
p39
sS'__getitem__'
p40
S"<method-wrapper '__getitem__' of exceptions.IOError object>"
p41
sS'__setstate__'
p42
S'<built-in method __setstate__ of exceptions.IOError object>'
p43
sS'__getattribute__'
p44
S"<method-wrapper '__getattribute__' of exceptions.IOError object>"
p45
sS'args'
p46
S"(13, 'Permission denied')"
p47
sS'__subclasshook__'
p48
S'<built-in method __subclasshook__ of type object>'
p49
sS'__unicode__'
p50
S'<built-in method __unicode__ of exceptions.IOError object>'
p51
sS'strerror'
p52
S"'Permission denied'"
p53
sS'__delattr__'
p54
S"<method-wrapper '__delattr__' of exceptions.IOError object>"
p55
sS'__repr__'
p56
S"<method-wrapper '__repr__' of exceptions.IOError object>"
p57
sS'__hash__'
p58
S"<method-wrapper '__hash__' of exceptions.IOError object>"
p59
ssS'evalue'
p60
S"[Errno 13] Permission denied: '34.csv'"
p61
sS'request'
p62
ccopy_reg
_reconstructor
p63
(cgluon.html
BEAUTIFY
p64
c__builtin__
object
p65
NtRp66
(dp67
S'attributes'
p68
(dp69
sS'components'
p70
(lp71
g63
(cgluon.html
TABLE
p72
g65
NtRp73
(dp74
g68
(dp75
S'level'
p76
I5
ssS'parent'
p77
Nsg70
(lp78
g63
(cgluon.html
TR
p79
g65
NtRp80
(dp81
g68
(dp82
sg77
g73
sg70
(lp83
g63
(cgluon.html
TD
p84
g65
NtRp85
(dp86
g68
(dp87
S'_style'
p88
S'font-weight:bold;vertical-align:top'
p89
ssg77
g80
sg70
(lp90
S'ajax'
p91
asbag63
(g84
g65
NtRp92
(dp93
g68
(dp94
S'_valign'
p95
S'top'
p96
ssg77
g80
sg70
(lp97
S':'
asbag63
(g84
g65
NtRp98
(dp99
g68
(dp100
sg77
g80
sg70
(lp101
g63
(g64
g65
NtRp102
(dp103
g68
(dp104
g76
I5
ssg77
g98
sg70
(lp105
S'False'
p106
asbasbasbag63
(g79
g65
NtRp107
(dp108
g68
(dp109
sg77
g73
sg70
(lp110
g63
(g84
g65
NtRp111
(dp112
g68
(dp113
g88
g89
ssg77
g107
sg70
(lp114
S'application'
p115
asbag63
(g84
g65
NtRp116
(dp117
g68
(dp118
g95
g96
ssg77
g107
sg70
(lp119
S':'
asbag63
(g84
g65
NtRp120
(dp121
g68
(dp122
sg77
g107
sg70
(lp123
g63
(g64
g65
NtRp124
(dp125
g68
(dp126
g76
I5
ssg77
g120
sg70
(lp127
S'mycrawler'
p128
asbasbasbag63
(g79
g65
NtRp129
(dp130
g68
(dp131
sg77
g73
sg70
(lp132
g63
(g84
g65
NtRp133
(dp134
g68
(dp135
g88
g89
ssg77
g129
sg70
(lp136
g46
asbag63
(g84
g65
NtRp137
(dp138
g68
(dp139
g95
g96
ssg77
g129
sg70
(lp140
S':'
asbag63
(g84
g65
NtRp141
(dp142
g68
(dp143
sg77
g129
sg70
(lp144
g63
(g64
g65
NtRp145
(dp146
g68
(dp147
g76
I5
ssg77
g141
sg70
(lp148
g63
(g72
g65
NtRp149
(dp150
g68
(dp151
g76
I4
ssg77
Nsg70
(lp152
sbasbasbasbag63
(g79
g65
NtRp153
(dp154
g68
(dp155
sg77
g73
sg70
(lp156
g63
(g84
g65
NtRp157
(dp158
g68
(dp159
g88
g89
ssg77
g153
sg70
(lp160
S'body'
p161
asbag63
(g84
g65
NtRp162
(dp163
g68
(dp164
g95
g96
ssg77
g153
sg70
(lp165
S':'
asbag63
(g84
g65
NtRp166
(dp167
g68
(dp168
sg77
g153
sg70
(lp169
g63
(g64
g65
NtRp170
(dp171
g68
(dp172
g76
I5
ssg77
g166
sg70
(lp173
S'<cStringIO.StringO object at 0x05C4DC20>'
p174
asbasbasbag63
(g79
g65
NtRp175
(dp176
g68
(dp177
sg77
g73
sg70
(lp178
g63
(g84
g65
NtRp179
(dp180
g68
(dp181
g88
g89
ssg77
g175
sg70
(lp182
S'client'
p183
asbag63
(g84
g65
NtRp184
(dp185
g68
(dp186
g95
g96
ssg77
g175
sg70
(lp187
S':'
asbag63
(g84
g65
NtRp188
(dp189
g68
(dp190
sg77
g175
sg70
(lp191
g63
(g64
g65
NtRp192
(dp193
g68
(dp194
g76
I5
ssg77
g188
sg70
(lp195
S'127.0.0.1'
p196
asbasbasbag63
(g79
g65
NtRp197
(dp198
g68
(dp199
sg77
g73
sg70
(lp200
g63
(g84
g65
NtRp201
(dp202
g68
(dp203
g88
g89
ssg77
g197
sg70
(lp204
S'controller'
p205
asbag63
(g84
g65
NtRp206
(dp207
g68
(dp208
g95
g96
ssg77
g197
sg70
(lp209
S':'
asbag63
(g84
g65
NtRp210
(dp211
g68
(dp212
sg77
g197
sg70
(lp213
g63
(g64
g65
NtRp214
(dp215
g68
(dp216
g76
I5
ssg77
g210
sg70
(lp217
S'default'
p218
asbasbasbag63
(g79
g65
NtRp219
(dp220
g68
(dp221
sg77
g73
sg70
(lp222
g63
(g84
g65
NtRp223
(dp224
g68
(dp225
g88
g89
ssg77
g219
sg70
(lp226
S'cookies'
p227
asbag63
(g84
g65
NtRp228
(dp229
g68
(dp230
g95
g96
ssg77
g219
sg70
(lp231
S':'
asbag63
(g84
g65
NtRp232
(dp233
g68
(dp234
sg77
g219
sg70
(lp235
g63
(g64
g65
NtRp236
(dp237
g68
(dp238
g76
I5
ssg77
g232
sg70
(lp239
g63
(g72
g65
NtRp240
(dp241
g68
(dp242
g76
I4
ssg77
Nsg70
(lp243
g63
(g79
g65
NtRp244
(dp245
g68
(dp246
sg77
g240
sg70
(lp247
g63
(g84
g65
NtRp248
(dp249
g68
(dp250
g88
g89
ssg77
g244
sg70
(lp251
S'session_id_admin'
p252
asbag63
(g84
g65
NtRp253
(dp254
g68
(dp255
g95
g96
ssg77
g244
sg70
(lp256
S':'
asbag63
(g84
g65
NtRp257
(dp258
g68
(dp259
sg77
g244
sg70
(lp260
g63
(g64
g65
NtRp261
(dp262
g68
(dp263
g76
I4
ssg77
g257
sg70
(lp264
g63
(g72
g65
NtRp265
(dp266
g68
(dp267
g76
I3
ssg77
Nsg70
(lp268
g63
(g79
g65
NtRp269
(dp270
g68
(dp271
sg77
g265
sg70
(lp272
g63
(g84
g65
NtRp273
(dp274
g68
(dp275
g88
g89
ssg77
g269
sg70
(lp276
S'comment'
p277
asbag63
(g84
g65
NtRp278
(dp279
g68
(dp280
g95
g96
ssg77
g269
sg70
(lp281
S':'
asbag63
(g84
g65
NtRp282
(dp283
g68
(dp284
sg77
g269
sg70
(lp285
g63
(g64
g65
NtRp286
(dp287
g68
(dp288
g76
I3
ssg77
g282
sg70
(lp289
S''
asbasbasbag63
(g79
g65
NtRp290
(dp291
g68
(dp292
sg77
g265
sg70
(lp293
g63
(g84
g65
NtRp294
(dp295
g68
(dp296
g88
g89
ssg77
g290
sg70
(lp297
S'domain'
p298
asbag63
(g84
g65
NtRp299
(dp300
g68
(dp301
g95
g96
ssg77
g290
sg70
(lp302
S':'
asbag63
(g84
g65
NtRp303
(dp304
g68
(dp305
sg77
g290
sg70
(lp306
g63
(g64
g65
NtRp307
(dp308
g68
(dp309
g76
I3
ssg77
g303
sg70
(lp310
S''
asbasbasbag63
(g79
g65
NtRp311
(dp312
g68
(dp313
sg77
g265
sg70
(lp314
g63
(g84
g65
NtRp315
(dp316
g68
(dp317
g88
g89
ssg77
g311
sg70
(lp318
S'expires'
p319
asbag63
(g84
g65
NtRp320
(dp321
g68
(dp322
g95
g96
ssg77
g311
sg70
(lp323
S':'
asbag63
(g84
g65
NtRp324
(dp325
g68
(dp326
sg77
g311
sg70
(lp327
g63
(g64
g65
NtRp328
(dp329
g68
(dp330
g76
I3
ssg77
g324
sg70
(lp331
S''
asbasbasbag63
(g79
g65
NtRp332
(dp333
g68
(dp334
sg77
g265
sg70
(lp335
g63
(g84
g65
NtRp336
(dp337
g68
(dp338
g88
g89
ssg77
g332
sg70
(lp339
S'httponly'
p340
asbag63
(g84
g65
NtRp341
(dp342
g68
(dp343
g95
g96
ssg77
g332
sg70
(lp344
S':'
asbag63
(g84
g65
NtRp345
(dp346
g68
(dp347
sg77
g332
sg70
(lp348
g63
(g64
g65
NtRp349
(dp350
g68
(dp351
g76
I3
ssg77
g345
sg70
(lp352
S''
asbasbasbag63
(g79
g65
NtRp353
(dp354
g68
(dp355
sg77
g265
sg70
(lp356
g63
(g84
g65
NtRp357
(dp358
g68
(dp359
g88
g89
ssg77
g353
sg70
(lp360
S'max-age'
p361
asbag63
(g84
g65
NtRp362
(dp363
g68
(dp364
g95
g96
ssg77
g353
sg70
(lp365
S':'
asbag63
(g84
g65
NtRp366
(dp367
g68
(dp368
sg77
g353
sg70
(lp369
g63
(g64
g65
NtRp370
(dp371
g68
(dp372
g76
I3
ssg77
g366
sg70
(lp373
S''
asbasbasbag63
(g79
g65
NtRp374
(dp375
g68
(dp376
sg77
g265
sg70
(lp377
g63
(g84
g65
NtRp378
(dp379
g68
(dp380
g88
g89
ssg77
g374
sg70
(lp381
S'path'
p382
asbag63
(g84
g65
NtRp383
(dp384
g68
(dp385
g95
g96
ssg77
g374
sg70
(lp386
S':'
asbag63
(g84
g65
NtRp387
(dp388
g68
(dp389
sg77
g374
sg70
(lp390
g63
(g64
g65
NtRp391
(dp392
g68
(dp393
g76
I3
ssg77
g387
sg70
(lp394
S''
asbasbasbag63
(g79
g65
NtRp395
(dp396
g68
(dp397
sg77
g265
sg70
(lp398
g63
(g84
g65
NtRp399
(dp400
g68
(dp401
g88
g89
ssg77
g395
sg70
(lp402
S'secure'
p403
asbag63
(g84
g65
NtRp404
(dp405
g68
(dp406
g95
g96
ssg77
g395
sg70
(lp407
S':'
asbag63
(g84
g65
NtRp408
(dp409
g68
(dp410
sg77
g395
sg70
(lp411
g63
(g64
g65
NtRp412
(dp413
g68
(dp414
g76
I3
ssg77
g408
sg70
(lp415
S''
asbasbasbag63
(g79
g65
NtRp416
(dp417
g68
(dp418
sg77
g265
sg70
(lp419
g63
(g84
g65
NtRp420
(dp421
g68
(dp422
g88
g89
ssg77
g416
sg70
(lp423
S'version'
p424
asbag63
(g84
g65
NtRp425
(dp426
g68
(dp427
g95
g96
ssg77
g416
sg70
(lp428
S':'
asbag63
(g84
g65
NtRp429
(dp430
g68
(dp431
sg77
g416
sg70
(lp432
g63
(g64
g65
NtRp433
(dp434
g68
(dp435
g76
I3
ssg77
g429
sg70
(lp436
S''
asbasbasbasbasbasbasbag63
(g79
g65
NtRp437
(dp438
g68
(dp439
sg77
g240
sg70
(lp440
g63
(g84
g65
NtRp441
(dp442
g68
(dp443
g88
g89
ssg77
g437
sg70
(lp444
S'session_id_crawler'
p445
asbag63
(g84
g65
NtRp446
(dp447
g68
(dp448
g95
g96
ssg77
g437
sg70
(lp449
S':'
asbag63
(g84
g65
NtRp450
(dp451
g68
(dp452
sg77
g437
sg70
(lp453
g63
(g64
g65
NtRp454
(dp455
g68
(dp456
g76
I4
ssg77
g450
sg70
(lp457
g63
(g72
g65
NtRp458
(dp459
g68
(dp460
g76
I3
ssg77
Nsg70
(lp461
g63
(g79
g65
NtRp462
(dp463
g68
(dp464
sg77
g458
sg70
(lp465
g63
(g84
g65
NtRp466
(dp467
g68
(dp468
g88
g89
ssg77
g462
sg70
(lp469
g277
asbag63
(g84
g65
NtRp470
(dp471
g68
(dp472
g95
g96
ssg77
g462
sg70
(lp473
S':'
asbag63
(g84
g65
NtRp474
(dp475
g68
(dp476
sg77
g462
sg70
(lp477
g63
(g64
g65
NtRp478
(dp479
g68
(dp480
g76
I3
ssg77
g474
sg70
(lp481
S''
asbasbasbag63
(g79
g65
NtRp482
(dp483
g68
(dp484
sg77
g458
sg70
(lp485
g63
(g84
g65
NtRp486
(dp487
g68
(dp488
g88
g89
ssg77
g482
sg70
(lp489
g298
asbag63
(g84
g65
NtRp490
(dp491
g68
(dp492
g95
g96
ssg77
g482
sg70
(lp493
S':'
asbag63
(g84
g65
NtRp494
(dp495
g68
(dp496
sg77
g482
sg70
(lp497
g63
(g64
g65
NtRp498
(dp499
g68
(dp500
g76
I3
ssg77
g494
sg70
(lp501
S''
asbasbasbag63
(g79
g65
NtRp502
(dp503
g68
(dp504
sg77
g458
sg70
(lp505
g63
(g84
g65
NtRp506
(dp507
g68
(dp508
g88
g89
ssg77
g502
sg70
(lp509
g319
asbag63
(g84
g65
NtRp510
(dp511
g68
(dp512
g95
g96
ssg77
g502
sg70
(lp513
S':'
asbag63
(g84
g65
NtRp514
(dp515
g68
(dp516
sg77
g502
sg70
(lp517
g63
(g64
g65
NtRp518
(dp519
g68
(dp520
g76
I3
ssg77
g514
sg70
(lp521
S''
asbasbasbag63
(g79
g65
NtRp522
(dp523
g68
(dp524
sg77
g458
sg70
(lp525
g63
(g84
g65
NtRp526
(dp527
g68
(dp528
g88
g89
ssg77
g522
sg70
(lp529
g340
asbag63
(g84
g65
NtRp530
(dp531
g68
(dp532
g95
g96
ssg77
g522
sg70
(lp533
S':'
asbag63
(g84
g65
NtRp534
(dp535
g68
(dp536
sg77
g522
sg70
(lp537
g63
(g64
g65
NtRp538
(dp539
g68
(dp540
g76
I3
ssg77
g534
sg70
(lp541
S''
asbasbasbag63
(g79
g65
NtRp542
(dp543
g68
(dp544
sg77
g458
sg70
(lp545
g63
(g84
g65
NtRp546
(dp547
g68
(dp548
g88
g89
ssg77
g542
sg70
(lp549
g361
asbag63
(g84
g65
NtRp550
(dp551
g68
(dp552
g95
g96
ssg77
g542
sg70
(lp553
S':'
asbag63
(g84
g65
NtRp554
(dp555
g68
(dp556
sg77
g542
sg70
(lp557
g63
(g64
g65
NtRp558
(dp559
g68
(dp560
g76
I3
ssg77
g554
sg70
(lp561
S''
asbasbasbag63
(g79
g65
NtRp562
(dp563
g68
(dp564
sg77
g458
sg70
(lp565
g63
(g84
g65
NtRp566
(dp567
g68
(dp568
g88
g89
ssg77
g562
sg70
(lp569
g382
asbag63
(g84
g65
NtRp570
(dp571
g68
(dp572
g95
g96
ssg77
g562
sg70
(lp573
S':'
asbag63
(g84
g65
NtRp574
(dp575
g68
(dp576
sg77
g562
sg70
(lp577
g63
(g64
g65
NtRp578
(dp579
g68
(dp580
g76
I3
ssg77
g574
sg70
(lp581
S''
asbasbasbag63
(g79
g65
NtRp582
(dp583
g68
(dp584
sg77
g458
sg70
(lp585
g63
(g84
g65
NtRp586
(dp587
g68
(dp588
g88
g89
ssg77
g582
sg70
(lp589
g403
asbag63
(g84
g65
NtRp590
(dp591
g68
(dp592
g95
g96
ssg77
g582
sg70
(lp593
S':'
asbag63
(g84
g65
NtRp594
(dp595
g68
(dp596
sg77
g582
sg70
(lp597
g63
(g64
g65
NtRp598
(dp599
g68
(dp600
g76
I3
ssg77
g594
sg70
(lp601
S''
asbasbasbag63
(g79
g65
NtRp602
(dp603
g68
(dp604
sg77
g458
sg70
(lp605
g63
(g84
g65
NtRp606
(dp607
g68
(dp608
g88
g89
ssg77
g602
sg70
(lp609
g424
asbag63
(g84
g65
NtRp610
(dp611
g68
(dp612
g95
g96
ssg77
g602
sg70
(lp613
S':'
asbag63
(g84
g65
NtRp614
(dp615
g68
(dp616
sg77
g602
sg70
(lp617
g63
(g64
g65
NtRp618
(dp619
g68
(dp620
g76
I3
ssg77
g614
sg70
(lp621
S''
asbasbasbasbasbasbasbag63
(g79
g65
NtRp622
(dp623
g68
(dp624
sg77
g240
sg70
(lp625
g63
(g84
g65
NtRp626
(dp627
g68
(dp628
g88
g89
ssg77
g622
sg70
(lp629
S'session_id_mycrawler'
p630
asbag63
(g84
g65
NtRp631
(dp632
g68
(dp633
g95
g96
ssg77
g622
sg70
(lp634
S':'
asbag63
(g84
g65
NtRp635
(dp636
g68
(dp637
sg77
g622
sg70
(lp638
g63
(g64
g65
NtRp639
(dp640
g68
(dp641
g76
I4
ssg77
g635
sg70
(lp642
g63
(g72
g65
NtRp643
(dp644
g68
(dp645
g76
I3
ssg77
Nsg70
(lp646
g63
(g79
g65
NtRp647
(dp648
g68
(dp649
sg77
g643
sg70
(lp650
g63
(g84
g65
NtRp651
(dp652
g68
(dp653
g88
g89
ssg77
g647
sg70
(lp654
g277
asbag63
(g84
g65
NtRp655
(dp656
g68
(dp657
g95
g96
ssg77
g647
sg70
(lp658
S':'
asbag63
(g84
g65
NtRp659
(dp660
g68
(dp661
sg77
g647
sg70
(lp662
g63
(g64
g65
NtRp663
(dp664
g68
(dp665
g76
I3
ssg77
g659
sg70
(lp666
S''
asbasbasbag63
(g79
g65
NtRp667
(dp668
g68
(dp669
sg77
g643
sg70
(lp670
g63
(g84
g65
NtRp671
(dp672
g68
(dp673
g88
g89
ssg77
g667
sg70
(lp674
g298
asbag63
(g84
g65
NtRp675
(dp676
g68
(dp677
g95
g96
ssg77
g667
sg70
(lp678
S':'
asbag63
(g84
g65
NtRp679
(dp680
g68
(dp681
sg77
g667
sg70
(lp682
g63
(g64
g65
NtRp683
(dp684
g68
(dp685
g76
I3
ssg77
g679
sg70
(lp686
S''
asbasbasbag63
(g79
g65
NtRp687
(dp688
g68
(dp689
sg77
g643
sg70
(lp690
g63
(g84
g65
NtRp691
(dp692
g68
(dp693
g88
g89
ssg77
g687
sg70
(lp694
g319
asbag63
(g84
g65
NtRp695
(dp696
g68
(dp697
g95
g96
ssg77
g687
sg70
(lp698
S':'
asbag63
(g84
g65
NtRp699
(dp700
g68
(dp701
sg77
g687
sg70
(lp702
g63
(g64
g65
NtRp703
(dp704
g68
(dp705
g76
I3
ssg77
g699
sg70
(lp706
S''
asbasbasbag63
(g79
g65
NtRp707
(dp708
g68
(dp709
sg77
g643
sg70
(lp710
g63
(g84
g65
NtRp711
(dp712
g68
(dp713
g88
g89
ssg77
g707
sg70
(lp714
g340
asbag63
(g84
g65
NtRp715
(dp716
g68
(dp717
g95
g96
ssg77
g707
sg70
(lp718
S':'
asbag63
(g84
g65
NtRp719
(dp720
g68
(dp721
sg77
g707
sg70
(lp722
g63
(g64
g65
NtRp723
(dp724
g68
(dp725
g76
I3
ssg77
g719
sg70
(lp726
S''
asbasbasbag63
(g79
g65
NtRp727
(dp728
g68
(dp729
sg77
g643
sg70
(lp730
g63
(g84
g65
NtRp731
(dp732
g68
(dp733
g88
g89
ssg77
g727
sg70
(lp734
g361
asbag63
(g84
g65
NtRp735
(dp736
g68
(dp737
g95
g96
ssg77
g727
sg70
(lp738
S':'
asbag63
(g84
g65
NtRp739
(dp740
g68
(dp741
sg77
g727
sg70
(lp742
g63
(g64
g65
NtRp743
(dp744
g68
(dp745
g76
I3
ssg77
g739
sg70
(lp746
S''
asbasbasbag63
(g79
g65
NtRp747
(dp748
g68
(dp749
sg77
g643
sg70
(lp750
g63
(g84
g65
NtRp751
(dp752
g68
(dp753
g88
g89
ssg77
g747
sg70
(lp754
g382
asbag63
(g84
g65
NtRp755
(dp756
g68
(dp757
g95
g96
ssg77
g747
sg70
(lp758
S':'
asbag63
(g84
g65
NtRp759
(dp760
g68
(dp761
sg77
g747
sg70
(lp762
g63
(g64
g65
NtRp763
(dp764
g68
(dp765
g76
I3
ssg77
g759
sg70
(lp766
S''
asbasbasbag63
(g79
g65
NtRp767
(dp768
g68
(dp769
sg77
g643
sg70
(lp770
g63
(g84
g65
NtRp771
(dp772
g68
(dp773
g88
g89
ssg77
g767
sg70
(lp774
g403
asbag63
(g84
g65
NtRp775
(dp776
g68
(dp777
g95
g96
ssg77
g767
sg70
(lp778
S':'
asbag63
(g84
g65
NtRp779
(dp780
g68
(dp781
sg77
g767
sg70
(lp782
g63
(g64
g65
NtRp783
(dp784
g68
(dp785
g76
I3
ssg77
g779
sg70
(lp786
S''
asbasbasbag63
(g79
g65
NtRp787
(dp788
g68
(dp789
sg77
g643
sg70
(lp790
g63
(g84
g65
NtRp791
(dp792
g68
(dp793
g88
g89
ssg77
g787
sg70
(lp794
g424
asbag63
(g84
g65
NtRp795
(dp796
g68
(dp797
g95
g96
ssg77
g787
sg70
(lp798
S':'
asbag63
(g84
g65
NtRp799
(dp800
g68
(dp801
sg77
g787
sg70
(lp802
g63
(g64
g65
NtRp803
(dp804
g68
(dp805
g76
I3
ssg77
g799
sg70
(lp806
S''
asbasbasbasbasbasbasbag63
(g79
g65
NtRp807
(dp808
g68
(dp809
sg77
g240
sg70
(lp810
g63
(g84
g65
NtRp811
(dp812
g68
(dp813
g88
g89
ssg77
g807
sg70
(lp814
S'session_id_mycrawler_2'
p815
asbag63
(g84
g65
NtRp816
(dp817
g68
(dp818
g95
g96
ssg77
g807
sg70
(lp819
S':'
asbag63
(g84
g65
NtRp820
(dp821
g68
(dp822
sg77
g807
sg70
(lp823
g63
(g64
g65
NtRp824
(dp825
g68
(dp826
g76
I4
ssg77
g820
sg70
(lp827
g63
(g72
g65
NtRp828
(dp829
g68
(dp830
g76
I3
ssg77
Nsg70
(lp831
g63
(g79
g65
NtRp832
(dp833
g68
(dp834
sg77
g828
sg70
(lp835
g63
(g84
g65
NtRp836
(dp837
g68
(dp838
g88
g89
ssg77
g832
sg70
(lp839
g277
asbag63
(g84
g65
NtRp840
(dp841
g68
(dp842
g95
g96
ssg77
g832
sg70
(lp843
S':'
asbag63
(g84
g65
NtRp844
(dp845
g68
(dp846
sg77
g832
sg70
(lp847
g63
(g64
g65
NtRp848
(dp849
g68
(dp850
g76
I3
ssg77
g844
sg70
(lp851
S''
asbasbasbag63
(g79
g65
NtRp852
(dp853
g68
(dp854
sg77
g828
sg70
(lp855
g63
(g84
g65
NtRp856
(dp857
g68
(dp858
g88
g89
ssg77
g852
sg70
(lp859
g298
asbag63
(g84
g65
NtRp860
(dp861
g68
(dp862
g95
g96
ssg77
g852
sg70
(lp863
S':'
asbag63
(g84
g65
NtRp864
(dp865
g68
(dp866
sg77
g852
sg70
(lp867
g63
(g64
g65
NtRp868
(dp869
g68
(dp870
g76
I3
ssg77
g864
sg70
(lp871
S''
asbasbasbag63
(g79
g65
NtRp872
(dp873
g68
(dp874
sg77
g828
sg70
(lp875
g63
(g84
g65
NtRp876
(dp877
g68
(dp878
g88
g89
ssg77
g872
sg70
(lp879
g319
asbag63
(g84
g65
NtRp880
(dp881
g68
(dp882
g95
g96
ssg77
g872
sg70
(lp883
S':'
asbag63
(g84
g65
NtRp884
(dp885
g68
(dp886
sg77
g872
sg70
(lp887
g63
(g64
g65
NtRp888
(dp889
g68
(dp890
g76
I3
ssg77
g884
sg70
(lp891
S''
asbasbasbag63
(g79
g65
NtRp892
(dp893
g68
(dp894
sg77
g828
sg70
(lp895
g63
(g84
g65
NtRp896
(dp897
g68
(dp898
g88
g89
ssg77
g892
sg70
(lp899
g340
asbag63
(g84
g65
NtRp900
(dp901
g68
(dp902
g95
g96
ssg77
g892
sg70
(lp903
S':'
asbag63
(g84
g65
NtRp904
(dp905
g68
(dp906
sg77
g892
sg70
(lp907
g63
(g64
g65
NtRp908
(dp909
g68
(dp910
g76
I3
ssg77
g904
sg70
(lp911
S''
asbasbasbag63
(g79
g65
NtRp912
(dp913
g68
(dp914
sg77
g828
sg70
(lp915
g63
(g84
g65
NtRp916
(dp917
g68
(dp918
g88
g89
ssg77
g912
sg70
(lp919
g361
asbag63
(g84
g65
NtRp920
(dp921
g68
(dp922
g95
g96
ssg77
g912
sg70
(lp923
S':'
asbag63
(g84
g65
NtRp924
(dp925
g68
(dp926
sg77
g912
sg70
(lp927
g63
(g64
g65
NtRp928
(dp929
g68
(dp930
g76
I3
ssg77
g924
sg70
(lp931
S''
asbasbasbag63
(g79
g65
NtRp932
(dp933
g68
(dp934
sg77
g828
sg70
(lp935
g63
(g84
g65
NtRp936
(dp937
g68
(dp938
g88
g89
ssg77
g932
sg70
(lp939
g382
asbag63
(g84
g65
NtRp940
(dp941
g68
(dp942
g95
g96
ssg77
g932
sg70
(lp943
S':'
asbag63
(g84
g65
NtRp944
(dp945
g68
(dp946
sg77
g932
sg70
(lp947
g63
(g64
g65
NtRp948
(dp949
g68
(dp950
g76
I3
ssg77
g944
sg70
(lp951
S''
asbasbasbag63
(g79
g65
NtRp952
(dp953
g68
(dp954
sg77
g828
sg70
(lp955
g63
(g84
g65
NtRp956
(dp957
g68
(dp958
g88
g89
ssg77
g952
sg70
(lp959
g403
asbag63
(g84
g65
NtRp960
(dp961
g68
(dp962
g95
g96
ssg77
g952
sg70
(lp963
S':'
asbag63
(g84
g65
NtRp964
(dp965
g68
(dp966
sg77
g952
sg70
(lp967
g63
(g64
g65
NtRp968
(dp969
g68
(dp970
g76
I3
ssg77
g964
sg70
(lp971
S''
asbasbasbag63
(g79
g65
NtRp972
(dp973
g68
(dp974
sg77
g828
sg70
(lp975
g63
(g84
g65
NtRp976
(dp977
g68
(dp978
g88
g89
ssg77
g972
sg70
(lp979
g424
asbag63
(g84
g65
NtRp980
(dp981
g68
(dp982
g95
g96
ssg77
g972
sg70
(lp983
S':'
asbag63
(g84
g65
NtRp984
(dp985
g68
(dp986
sg77
g972
sg70
(lp987
g63
(g64
g65
NtRp988
(dp989
g68
(dp990
g76
I3
ssg77
g984
sg70
(lp991
S''
asbasbasbasbasbasbasbag63
(g79
g65
NtRp992
(dp993
g68
(dp994
sg77
g240
sg70
(lp995
g63
(g84
g65
NtRp996
(dp997
g68
(dp998
g88
g89
ssg77
g992
sg70
(lp999
S'session_id_welcome'
p1000
asbag63
(g84
g65
NtRp1001
(dp1002
g68
(dp1003
g95
g96
ssg77
g992
sg70
(lp1004
S':'
asbag63
(g84
g65
NtRp1005
(dp1006
g68
(dp1007
sg77
g992
sg70
(lp1008
g63
(g64
g65
NtRp1009
(dp1010
g68
(dp1011
g76
I4
ssg77
g1005
sg70
(lp1012
g63
(g72
g65
NtRp1013
(dp1014
g68
(dp1015
g76
I3
ssg77
Nsg70
(lp1016
g63
(g79
g65
NtRp1017
(dp1018
g68
(dp1019
sg77
g1013
sg70
(lp1020
g63
(g84
g65
NtRp1021
(dp1022
g68
(dp1023
g88
g89
ssg77
g1017
sg70
(lp1024
g277
asbag63
(g84
g65
NtRp1025
(dp1026
g68
(dp1027
g95
g96
ssg77
g1017
sg70
(lp1028
S':'
asbag63
(g84
g65
NtRp1029
(dp1030
g68
(dp1031
sg77
g1017
sg70
(lp1032
g63
(g64
g65
NtRp1033
(dp1034
g68
(dp1035
g76
I3
ssg77
g1029
sg70
(lp1036
S''
asbasbasbag63
(g79
g65
NtRp1037
(dp1038
g68
(dp1039
sg77
g1013
sg70
(lp1040
g63
(g84
g65
NtRp1041
(dp1042
g68
(dp1043
g88
g89
ssg77
g1037
sg70
(lp1044
g298
asbag63
(g84
g65
NtRp1045
(dp1046
g68
(dp1047
g95
g96
ssg77
g1037
sg70
(lp1048
S':'
asbag63
(g84
g65
NtRp1049
(dp1050
g68
(dp1051
sg77
g1037
sg70
(lp1052
g63
(g64
g65
NtRp1053
(dp1054
g68
(dp1055
g76
I3
ssg77
g1049
sg70
(lp1056
S''
asbasbasbag63
(g79
g65
NtRp1057
(dp1058
g68
(dp1059
sg77
g1013
sg70
(lp1060
g63
(g84
g65
NtRp1061
(dp1062
g68
(dp1063
g88
g89
ssg77
g1057
sg70
(lp1064
g319
asbag63
(g84
g65
NtRp1065
(dp1066
g68
(dp1067
g95
g96
ssg77
g1057
sg70
(lp1068
S':'
asbag63
(g84
g65
NtRp1069
(dp1070
g68
(dp1071
sg77
g1057
sg70
(lp1072
g63
(g64
g65
NtRp1073
(dp1074
g68
(dp1075
g76
I3
ssg77
g1069
sg70
(lp1076
S''
asbasbasbag63
(g79
g65
NtRp1077
(dp1078
g68
(dp1079
sg77
g1013
sg70
(lp1080
g63
(g84
g65
NtRp1081
(dp1082
g68
(dp1083
g88
g89
ssg77
g1077
sg70
(lp1084
g340
asbag63
(g84
g65
NtRp1085
(dp1086
g68
(dp1087
g95
g96
ssg77
g1077
sg70
(lp1088
S':'
asbag63
(g84
g65
NtRp1089
(dp1090
g68
(dp1091
sg77
g1077
sg70
(lp1092
g63
(g64
g65
NtRp1093
(dp1094
g68
(dp1095
g76
I3
ssg77
g1089
sg70
(lp1096
S''
asbasbasbag63
(g79
g65
NtRp1097
(dp1098
g68
(dp1099
sg77
g1013
sg70
(lp1100
g63
(g84
g65
NtRp1101
(dp1102
g68
(dp1103
g88
g89
ssg77
g1097
sg70
(lp1104
g361
asbag63
(g84
g65
NtRp1105
(dp1106
g68
(dp1107
g95
g96
ssg77
g1097
sg70
(lp1108
S':'
asbag63
(g84
g65
NtRp1109
(dp1110
g68
(dp1111
sg77
g1097
sg70
(lp1112
g63
(g64
g65
NtRp1113
(dp1114
g68
(dp1115
g76
I3
ssg77
g1109
sg70
(lp1116
S''
asbasbasbag63
(g79
g65
NtRp1117
(dp1118
g68
(dp1119
sg77
g1013
sg70
(lp1120
g63
(g84
g65
NtRp1121
(dp1122
g68
(dp1123
g88
g89
ssg77
g1117
sg70
(lp1124
g382
asbag63
(g84
g65
NtRp1125
(dp1126
g68
(dp1127
g95
g96
ssg77
g1117
sg70
(lp1128
S':'
asbag63
(g84
g65
NtRp1129
(dp1130
g68
(dp1131
sg77
g1117
sg70
(lp1132
g63
(g64
g65
NtRp1133
(dp1134
g68
(dp1135
g76
I3
ssg77
g1129
sg70
(lp1136
S''
asbasbasbag63
(g79
g65
NtRp1137
(dp1138
g68
(dp1139
sg77
g1013
sg70
(lp1140
g63
(g84
g65
NtRp1141
(dp1142
g68
(dp1143
g88
g89
ssg77
g1137
sg70
(lp1144
g403
asbag63
(g84
g65
NtRp1145
(dp1146
g68
(dp1147
g95
g96
ssg77
g1137
sg70
(lp1148
S':'
asbag63
(g84
g65
NtRp1149
(dp1150
g68
(dp1151
sg77
g1137
sg70
(lp1152
g63
(g64
g65
NtRp1153
(dp1154
g68
(dp1155
g76
I3
ssg77
g1149
sg70
(lp1156
S''
asbasbasbag63
(g79
g65
NtRp1157
(dp1158
g68
(dp1159
sg77
g1013
sg70
(lp1160
g63
(g84
g65
NtRp1161
(dp1162
g68
(dp1163
g88
g89
ssg77
g1157
sg70
(lp1164
g424
asbag63
(g84
g65
NtRp1165
(dp1166
g68
(dp1167
g95
g96
ssg77
g1157
sg70
(lp1168
S':'
asbag63
(g84
g65
NtRp1169
(dp1170
g68
(dp1171
sg77
g1157
sg70
(lp1172
g63
(g64
g65
NtRp1173
(dp1174
g68
(dp1175
g76
I3
ssg77
g1169
sg70
(lp1176
S''
asbasbasbasbasbasbasbasbasbasbasbag63
(g79
g65
NtRp1177
(dp1178
g68
(dp1179
sg77
g73
sg70
(lp1180
g63
(g84
g65
NtRp1181
(dp1182
g68
(dp1183
g88
g89
ssg77
g1177
sg70
(lp1184
S'env'
p1185
asbag63
(g84
g65
NtRp1186
(dp1187
g68
(dp1188
g95
g96
ssg77
g1177
sg70
(lp1189
S':'
asbag63
(g84
g65
NtRp1190
(dp1191
g68
(dp1192
sg77
g1177
sg70
(lp1193
g63
(g64
g65
NtRp1194
(dp1195
g68
(dp1196
g76
I5
ssg77
g1190
sg70
(lp1197
g63
(g72
g65
NtRp1198
(dp1199
g68
(dp1200
g76
I4
ssg77
Nsg70
(lp1201
g63
(g79
g65
NtRp1202
(dp1203
g68
(dp1204
sg77
g1198
sg70
(lp1205
g63
(g84
g65
NtRp1206
(dp1207
g68
(dp1208
g88
g89
ssg77
g1202
sg70
(lp1209
S'app_folders'
p1210
asbag63
(g84
g65
NtRp1211
(dp1212
g68
(dp1213
g95
g96
ssg77
g1202
sg70
(lp1214
S':'
asbag63
(g84
g65
NtRp1215
(dp1216
g68
(dp1217
sg77
g1202
sg70
(lp1218
g63
(g64
g65
NtRp1219
(dp1220
g68
(dp1221
g76
I4
ssg77
g1215
sg70
(lp1222
S"set(['C:\\\\Documents and Settings\\\\agrover\\\\Desktop\\\\previous crawler\\\\web2py\\\\applications\\\\admin\\\\', 'C:\\\\Documents and Settings\\\\agrover\\\\Desktop\\\\previous crawler\\\\web2py\\\\applications\\\\mycrawler\\\\', 'C:\\\\Documents and Settings\\\\agrover\\\\Desktop\\\\previous crawler\\\\web2py\\\\applications\\\\welcome\\\\', 'C:\\\\Documents and Settings\\\\agrover\\\\Desktop\\\\previous crawler\\\\web2py\\\\applications\\\\final\\\\'])"
p1223
asbasbasbag63
(g79
g65
NtRp1224
(dp1225
g68
(dp1226
sg77
g1198
sg70
(lp1227
g63
(g84
g65
NtRp1228
(dp1229
g68
(dp1230
g88
g89
ssg77
g1224
sg70
(lp1231
S'applications_parent'
p1232
asbag63
(g84
g65
NtRp1233
(dp1234
g68
(dp1235
g95
g96
ssg77
g1224
sg70
(lp1236
S':'
asbag63
(g84
g65
NtRp1237
(dp1238
g68
(dp1239
sg77
g1224
sg70
(lp1240
g63
(g64
g65
NtRp1241
(dp1242
g68
(dp1243
g76
I4
ssg77
g1237
sg70
(lp1244
S'C:\\Documents and Settings\\agrover\\Desktop\\previous crawler\\web2py'
p1245
asbasbasbag63
(g79
g65
NtRp1246
(dp1247
g68
(dp1248
sg77
g1198
sg70
(lp1249
g63
(g84
g65
NtRp1250
(dp1251
g68
(dp1252
g88
g89
ssg77
g1246
sg70
(lp1253
S'cmd_args'
p1254
asbag63
(g84
g65
NtRp1255
(dp1256
g68
(dp1257
g95
g96
ssg77
g1246
sg70
(lp1258
S':'
asbag63
(g84
g65
NtRp1259
(dp1260
g68
(dp1261
sg77
g1246
sg70
(lp1262
g63
(g64
g65
NtRp1263
(dp1264
g68
(dp1265
g76
I4
ssg77
g1259
sg70
(lp1266
g63
(g72
g65
NtRp1267
(dp1268
g68
(dp1269
g76
I3
ssg77
Nsg70
(lp1270
sbasbasbasbag63
(g79
g65
NtRp1271
(dp1272
g68
(dp1273
sg77
g1198
sg70
(lp1274
g63
(g84
g65
NtRp1275
(dp1276
g68
(dp1277
g88
g89
ssg77
g1271
sg70
(lp1278
S'cmd_options'
p1279
asbag63
(g84
g65
NtRp1280
(dp1281
g68
(dp1282
g95
g96
ssg77
g1271
sg70
(lp1283
S':'
asbag63
(g84
g65
NtRp1284
(dp1285
g68
(dp1286
sg77
g1271
sg70
(lp1287
g63
(g64
g65
NtRp1288
(dp1289
g68
(dp1290
g76
I4
ssg77
g1284
sg70
(lp1291
S"<Values at 0x16d63f0: {'verbose': False, 'ip': '127.0.0.1', 'shutdown_timeout': 5, 'taskbar': False, 'nocron': False, 'pid_filename': 'httpserver.pid', 'maxthreads': None, 'softcron': False, 'server_name': 'mniagrover', 'bpython': False, 'nogui': False, 'port': 8000, 'extcron': False, 'debuglevel': 30, 'test': None, 'folder': 'C:\\\\Documents and Settings\\\\agrover\\\\Desktop\\\\previous crawler\\\\web2py', 'config': '', 'import_models': False, 'winservice': '', 'shell': None, 'run': '', 'log_filename': 'httpserver.log', 'args': [''], 'socket_timeout': 5, 'ssl_ca_certificate': None, 'scheduler': None, 'profiler_filename': None, 'ssl_private_key': '', 'password': '<ask>', 'request_queue_size': 5, 'ssl_certificate': '', 'cronjob': False, 'numthreads': None, 'quiet': False, 'interfaces': None, 'minthreads': None, 'timeout': 10, 'plain': False, 'nobanner': False}>"
p1292
asbasbasbag63
(g79
g65
NtRp1293
(dp1294
g68
(dp1295
sg77
g1198
sg70
(lp1296
g63
(g84
g65
NtRp1297
(dp1298
g68
(dp1299
g88
g89
ssg77
g1293
sg70
(lp1300
S'db_sessions'
p1301
asbag63
(g84
g65
NtRp1302
(dp1303
g68
(dp1304
g95
g96
ssg77
g1293
sg70
(lp1305
S':'
asbag63
(g84
g65
NtRp1306
(dp1307
g68
(dp1308
sg77
g1293
sg70
(lp1309
g63
(g64
g65
NtRp1310
(dp1311
g68
(dp1312
g76
I4
ssg77
g1306
sg70
(lp1313
S'set([])'
p1314
asbasbasbag63
(g79
g65
NtRp1315
(dp1316
g68
(dp1317
sg77
g1198
sg70
(lp1318
g63
(g84
g65
NtRp1319
(dp1320
g68
(dp1321
g88
g89
ssg77
g1315
sg70
(lp1322
S'debugging'
p1323
asbag63
(g84
g65
NtRp1324
(dp1325
g68
(dp1326
g95
g96
ssg77
g1315
sg70
(lp1327
S':'
asbag63
(g84
g65
NtRp1328
(dp1329
g68
(dp1330
sg77
g1315
sg70
(lp1331
g63
(g64
g65
NtRp1332
(dp1333
g68
(dp1334
g76
I4
ssg77
g1328
sg70
(lp1335
g106
asbasbasbag63
(g79
g65
NtRp1336
(dp1337
g68
(dp1338
sg77
g1198
sg70
(lp1339
g63
(g84
g65
NtRp1340
(dp1341
g68
(dp1342
g88
g89
ssg77
g1336
sg70
(lp1343
S'gluon_parent'
p1344
asbag63
(g84
g65
NtRp1345
(dp1346
g68
(dp1347
g95
g96
ssg77
g1336
sg70
(lp1348
S':'
asbag63
(g84
g65
NtRp1349
(dp1350
g68
(dp1351
sg77
g1336
sg70
(lp1352
g63
(g64
g65
NtRp1353
(dp1354
g68
(dp1355
g76
I4
ssg77
g1349
sg70
(lp1356
S'C:\\Documents and Settings\\agrover\\Desktop\\previous crawler\\web2py'
p1357
asbasbasbag63
(g79
g65
NtRp1358
(dp1359
g68
(dp1360
sg77
g1198
sg70
(lp1361
g63
(g84
g65
NtRp1362
(dp1363
g68
(dp1364
g88
g89
ssg77
g1358
sg70
(lp1365
S'http_accept'
p1366
asbag63
(g84
g65
NtRp1367
(dp1368
g68
(dp1369
g95
g96
ssg77
g1358
sg70
(lp1370
S':'
asbag63
(g84
g65
NtRp1371
(dp1372
g68
(dp1373
sg77
g1358
sg70
(lp1374
g63
(g64
g65
NtRp1375
(dp1376
g68
(dp1377
g76
I4
ssg77
g1371
sg70
(lp1378
S'text/html,application/xhtml+xml,application/xml;q=0.9,*/*;q=0.8'
p1379
asbasbasbag63
(g79
g65
NtRp1380
(dp1381
g68
(dp1382
sg77
g1198
sg70
(lp1383
g63
(g84
g65
NtRp1384
(dp1385
g68
(dp1386
g88
g89
ssg77
g1380
sg70
(lp1387
S'http_accept_encoding'
p1388
asbag63
(g84
g65
NtRp1389
(dp1390
g68
(dp1391
g95
g96
ssg77
g1380
sg70
(lp1392
S':'
asbag63
(g84
g65
NtRp1393
(dp1394
g68
(dp1395
sg77
g1380
sg70
(lp1396
g63
(g64
g65
NtRp1397
(dp1398
g68
(dp1399
g76
I4
ssg77
g1393
sg70
(lp1400
S'gzip, deflate'
p1401
asbasbasbag63
(g79
g65
NtRp1402
(dp1403
g68
(dp1404
sg77
g1198
sg70
(lp1405
g63
(g84
g65
NtRp1406
(dp1407
g68
(dp1408
g88
g89
ssg77
g1402
sg70
(lp1409
S'http_accept_language'
p1410
asbag63
(g84
g65
NtRp1411
(dp1412
g68
(dp1413
g95
g96
ssg77
g1402
sg70
(lp1414
S':'
asbag63
(g84
g65
NtRp1415
(dp1416
g68
(dp1417
sg77
g1402
sg70
(lp1418
g63
(g64
g65
NtRp1419
(dp1420
g68
(dp1421
g76
I4
ssg77
g1415
sg70
(lp1422
S'en-us,en;q=0.5'
p1423
asbasbasbag63
(g79
g65
NtRp1424
(dp1425
g68
(dp1426
sg77
g1198
sg70
(lp1427
g63
(g84
g65
NtRp1428
(dp1429
g68
(dp1430
g88
g89
ssg77
g1424
sg70
(lp1431
S'http_connection'
p1432
asbag63
(g84
g65
NtRp1433
(dp1434
g68
(dp1435
g95
g96
ssg77
g1424
sg70
(lp1436
S':'
asbag63
(g84
g65
NtRp1437
(dp1438
g68
(dp1439
sg77
g1424
sg70
(lp1440
g63
(g64
g65
NtRp1441
(dp1442
g68
(dp1443
g76
I4
ssg77
g1437
sg70
(lp1444
S'keep-alive'
p1445
asbasbasbag63
(g79
g65
NtRp1446
(dp1447
g68
(dp1448
sg77
g1198
sg70
(lp1449
g63
(g84
g65
NtRp1450
(dp1451
g68
(dp1452
g88
g89
ssg77
g1446
sg70
(lp1453
S'http_cookie'
p1454
asbag63
(g84
g65
NtRp1455
(dp1456
g68
(dp1457
g95
g96
ssg77
g1446
sg70
(lp1458
S':'
asbag63
(g84
g65
NtRp1459
(dp1460
g68
(dp1461
sg77
g1446
sg70
(lp1462
g63
(g64
g65
NtRp1463
(dp1464
g68
(dp1465
g76
I4
ssg77
g1459
sg70
(lp1466
S'session_id_mycrawler=127.0.0.1-32a946d8-ad2c-43d8-be0f-c8249d02766a; session_id_welcome=127.0.0.1-73caaae4-ee5b-4ac4-b73c-0ff18efdb3ae; session_id_mycrawler_2=127.0.0.1-98a9ea69-51ec-42be-9710-06bc291f7746; session_id_admin=127.0.0.1-009fc510-0f0d-40b6-8d37-931711bfe1b4; session_id_crawler=127.0.0.1-b1c96db0-4cef-48f5-a53b-5d185261332f'
p1467
asbasbasbag63
(g79
g65
NtRp1468
(dp1469
g68
(dp1470
sg77
g1198
sg70
(lp1471
g63
(g84
g65
NtRp1472
(dp1473
g68
(dp1474
g88
g89
ssg77
g1468
sg70
(lp1475
S'http_host'
p1476
asbag63
(g84
g65
NtRp1477
(dp1478
g68
(dp1479
g95
g96
ssg77
g1468
sg70
(lp1480
S':'
asbag63
(g84
g65
NtRp1481
(dp1482
g68
(dp1483
sg77
g1468
sg70
(lp1484
g63
(g64
g65
NtRp1485
(dp1486
g68
(dp1487
g76
I4
ssg77
g1481
sg70
(lp1488
S'127.0.0.1:8000'
p1489
asbasbasbag63
(g79
g65
NtRp1490
(dp1491
g68
(dp1492
sg77
g1198
sg70
(lp1493
g63
(g84
g65
NtRp1494
(dp1495
g68
(dp1496
g88
g89
ssg77
g1490
sg70
(lp1497
S'http_referer'
p1498
asbag63
(g84
g65
NtRp1499
(dp1500
g68
(dp1501
g95
g96
ssg77
g1490
sg70
(lp1502
S':'
asbag63
(g84
g65
NtRp1503
(dp1504
g68
(dp1505
sg77
g1490
sg70
(lp1506
g63
(g64
g65
NtRp1507
(dp1508
g68
(dp1509
g76
I4
ssg77
g1503
sg70
(lp1510
S'http://127.0.0.1:8000/mycrawler/default/enter_info'
p1511
asbasbasbag63
(g79
g65
NtRp1512
(dp1513
g68
(dp1514
sg77
g1198
sg70
(lp1515
g63
(g84
g65
NtRp1516
(dp1517
g68
(dp1518
g88
g89
ssg77
g1512
sg70
(lp1519
S'http_user_agent'
p1520
asbag63
(g84
g65
NtRp1521
(dp1522
g68
(dp1523
g95
g96
ssg77
g1512
sg70
(lp1524
S':'
asbag63
(g84
g65
NtRp1525
(dp1526
g68
(dp1527
sg77
g1512
sg70
(lp1528
g63
(g64
g65
NtRp1529
(dp1530
g68
(dp1531
g76
I4
ssg77
g1525
sg70
(lp1532
S'Mozilla/5.0 (Windows NT 5.1; rv:12.0) Gecko/20100101 Firefox/12.0'
p1533
asbasbasbag63
(g79
g65
NtRp1534
(dp1535
g68
(dp1536
sg77
g1198
sg70
(lp1537
g63
(g84
g65
NtRp1538
(dp1539
g68
(dp1540
g88
g89
ssg77
g1534
sg70
(lp1541
S'is_jython'
p1542
asbag63
(g84
g65
NtRp1543
(dp1544
g68
(dp1545
g95
g96
ssg77
g1534
sg70
(lp1546
S':'
asbag63
(g84
g65
NtRp1547
(dp1548
g68
(dp1549
sg77
g1534
sg70
(lp1550
g63
(g64
g65
NtRp1551
(dp1552
g68
(dp1553
g76
I4
ssg77
g1547
sg70
(lp1554
g106
asbasbasbag63
(g79
g65
NtRp1555
(dp1556
g68
(dp1557
sg77
g1198
sg70
(lp1558
g63
(g84
g65
NtRp1559
(dp1560
g68
(dp1561
g88
g89
ssg77
g1555
sg70
(lp1562
S'is_pypy'
p1563
asbag63
(g84
g65
NtRp1564
(dp1565
g68
(dp1566
g95
g96
ssg77
g1555
sg70
(lp1567
S':'
asbag63
(g84
g65
NtRp1568
(dp1569
g68
(dp1570
sg77
g1555
sg70
(lp1571
g63
(g64
g65
NtRp1572
(dp1573
g68
(dp1574
g76
I4
ssg77
g1568
sg70
(lp1575
g106
asbasbasbag63
(g79
g65
NtRp1576
(dp1577
g68
(dp1578
sg77
g1198
sg70
(lp1579
g63
(g84
g65
NtRp1580
(dp1581
g68
(dp1582
g88
g89
ssg77
g1576
sg70
(lp1583
S'path_info'
p1584
asbag63
(g84
g65
NtRp1585
(dp1586
g68
(dp1587
g95
g96
ssg77
g1576
sg70
(lp1588
S':'
asbag63
(g84
g65
NtRp1589
(dp1590
g68
(dp1591
sg77
g1576
sg70
(lp1592
g63
(g64
g65
NtRp1593
(dp1594
g68
(dp1595
g76
I4
ssg77
g1589
sg70
(lp1596
S'/mycrawler/default/search'
p1597
asbasbasbag63
(g79
g65
NtRp1598
(dp1599
g68
(dp1600
sg77
g1198
sg70
(lp1601
g63
(g84
g65
NtRp1602
(dp1603
g68
(dp1604
g88
g89
ssg77
g1598
sg70
(lp1605
S'query_string'
p1606
asbag63
(g84
g65
NtRp1607
(dp1608
g68
(dp1609
g95
g96
ssg77
g1598
sg70
(lp1610
S':'
asbag63
(g84
g65
NtRp1611
(dp1612
g68
(dp1613
sg77
g1598
sg70
(lp1614
g63
(g64
g65
NtRp1615
(dp1616
g68
(dp1617
g76
I4
ssg77
g1611
sg70
(lp1618
S'Company=&Country=India&File_Name=34&First_Name=&Functions=All+Functions&Industry=Accounting&Industry=Airlines%2FAviation&Keywords=&Last_Name=pai&School=&Seniority_Levels=Manager&Seniority_Levels=Owner&Title=&_formkey=41234138-50c6-4044-a326-969c5fe1afd1&_formname=no_table%2Fcreate'
p1619
asbasbasbag63
(g79
g65
NtRp1620
(dp1621
g68
(dp1622
sg77
g1198
sg70
(lp1623
g63
(g84
g65
NtRp1624
(dp1625
g68
(dp1626
g88
g89
ssg77
g1620
sg70
(lp1627
S'remote_addr'
p1628
asbag63
(g84
g65
NtRp1629
(dp1630
g68
(dp1631
g95
g96
ssg77
g1620
sg70
(lp1632
S':'
asbag63
(g84
g65
NtRp1633
(dp1634
g68
(dp1635
sg77
g1620
sg70
(lp1636
g63
(g64
g65
NtRp1637
(dp1638
g68
(dp1639
g76
I4
ssg77
g1633
sg70
(lp1640
g196
asbasbasbag63
(g79
g65
NtRp1641
(dp1642
g68
(dp1643
sg77
g1198
sg70
(lp1644
g63
(g84
g65
NtRp1645
(dp1646
g68
(dp1647
g88
g89
ssg77
g1641
sg70
(lp1648
S'remote_port'
p1649
asbag63
(g84
g65
NtRp1650
(dp1651
g68
(dp1652
g95
g96
ssg77
g1641
sg70
(lp1653
S':'
asbag63
(g84
g65
NtRp1654
(dp1655
g68
(dp1656
sg77
g1641
sg70
(lp1657
g63
(g64
g65
NtRp1658
(dp1659
g68
(dp1660
g76
I4
ssg77
g1654
sg70
(lp1661
S'2519'
p1662
asbasbasbag63
(g79
g65
NtRp1663
(dp1664
g68
(dp1665
sg77
g1198
sg70
(lp1666
g63
(g84
g65
NtRp1667
(dp1668
g68
(dp1669
g88
g89
ssg77
g1663
sg70
(lp1670
S'request_method'
p1671
asbag63
(g84
g65
NtRp1672
(dp1673
g68
(dp1674
g95
g96
ssg77
g1663
sg70
(lp1675
S':'
asbag63
(g84
g65
NtRp1676
(dp1677
g68
(dp1678
sg77
g1663
sg70
(lp1679
g63
(g64
g65
NtRp1680
(dp1681
g68
(dp1682
g76
I4
ssg77
g1676
sg70
(lp1683
S'GET'
p1684
asbasbasbag63
(g79
g65
NtRp1685
(dp1686
g68
(dp1687
sg77
g1198
sg70
(lp1688
g63
(g84
g65
NtRp1689
(dp1690
g68
(dp1691
g88
g89
ssg77
g1685
sg70
(lp1692
S'script_name'
p1693
asbag63
(g84
g65
NtRp1694
(dp1695
g68
(dp1696
g95
g96
ssg77
g1685
sg70
(lp1697
S':'
asbag63
(g84
g65
NtRp1698
(dp1699
g68
(dp1700
sg77
g1685
sg70
(lp1701
g63
(g64
g65
NtRp1702
(dp1703
g68
(dp1704
g76
I4
ssg77
g1698
sg70
(lp1705
S''
asbasbasbag63
(g79
g65
NtRp1706
(dp1707
g68
(dp1708
sg77
g1198
sg70
(lp1709
g63
(g84
g65
NtRp1710
(dp1711
g68
(dp1712
g88
g89
ssg77
g1706
sg70
(lp1713
S'server_name'
p1714
asbag63
(g84
g65
NtRp1715
(dp1716
g68
(dp1717
g95
g96
ssg77
g1706
sg70
(lp1718
S':'
asbag63
(g84
g65
NtRp1719
(dp1720
g68
(dp1721
sg77
g1706
sg70
(lp1722
g63
(g64
g65
NtRp1723
(dp1724
g68
(dp1725
g76
I4
ssg77
g1719
sg70
(lp1726
S'mniagrover'
p1727
asbasbasbag63
(g79
g65
NtRp1728
(dp1729
g68
(dp1730
sg77
g1198
sg70
(lp1731
g63
(g84
g65
NtRp1732
(dp1733
g68
(dp1734
g88
g89
ssg77
g1728
sg70
(lp1735
S'server_port'
p1736
asbag63
(g84
g65
NtRp1737
(dp1738
g68
(dp1739
g95
g96
ssg77
g1728
sg70
(lp1740
S':'
asbag63
(g84
g65
NtRp1741
(dp1742
g68
(dp1743
sg77
g1728
sg70
(lp1744
g63
(g64
g65
NtRp1745
(dp1746
g68
(dp1747
g76
I4
ssg77
g1741
sg70
(lp1748
S'8000'
p1749
asbasbasbag63
(g79
g65
NtRp1750
(dp1751
g68
(dp1752
sg77
g1198
sg70
(lp1753
g63
(g84
g65
NtRp1754
(dp1755
g68
(dp1756
g88
g89
ssg77
g1750
sg70
(lp1757
S'server_protocol'
p1758
asbag63
(g84
g65
NtRp1759
(dp1760
g68
(dp1761
g95
g96
ssg77
g1750
sg70
(lp1762
S':'
asbag63
(g84
g65
NtRp1763
(dp1764
g68
(dp1765
sg77
g1750
sg70
(lp1766
g63
(g64
g65
NtRp1767
(dp1768
g68
(dp1769
g76
I4
ssg77
g1763
sg70
(lp1770
S'HTTP/1.1'
p1771
asbasbasbag63
(g79
g65
NtRp1772
(dp1773
g68
(dp1774
sg77
g1198
sg70
(lp1775
g63
(g84
g65
NtRp1776
(dp1777
g68
(dp1778
g88
g89
ssg77
g1772
sg70
(lp1779
S'server_software'
p1780
asbag63
(g84
g65
NtRp1781
(dp1782
g68
(dp1783
g95
g96
ssg77
g1772
sg70
(lp1784
S':'
asbag63
(g84
g65
NtRp1785
(dp1786
g68
(dp1787
sg77
g1772
sg70
(lp1788
g63
(g64
g65
NtRp1789
(dp1790
g68
(dp1791
g76
I4
ssg77
g1785
sg70
(lp1792
S'Rocket 1.2.4'
p1793
asbasbasbag63
(g79
g65
NtRp1794
(dp1795
g68
(dp1796
sg77
g1198
sg70
(lp1797
g63
(g84
g65
NtRp1798
(dp1799
g68
(dp1800
g88
g89
ssg77
g1794
sg70
(lp1801
S'web2py_crontype'
p1802
asbag63
(g84
g65
NtRp1803
(dp1804
g68
(dp1805
g95
g96
ssg77
g1794
sg70
(lp1806
S':'
asbag63
(g84
g65
NtRp1807
(dp1808
g68
(dp1809
sg77
g1794
sg70
(lp1810
g63
(g64
g65
NtRp1811
(dp1812
g68
(dp1813
g76
I4
ssg77
g1807
sg70
(lp1814
S'hard'
p1815
asbasbasbag63
(g79
g65
NtRp1816
(dp1817
g68
(dp1818
sg77
g1198
sg70
(lp1819
g63
(g84
g65
NtRp1820
(dp1821
g68
(dp1822
g88
g89
ssg77
g1816
sg70
(lp1823
S'web2py_path'
p1824
asbag63
(g84
g65
NtRp1825
(dp1826
g68
(dp1827
g95
g96
ssg77
g1816
sg70
(lp1828
S':'
asbag63
(g84
g65
NtRp1829
(dp1830
g68
(dp1831
sg77
g1816
sg70
(lp1832
g63
(g64
g65
NtRp1833
(dp1834
g68
(dp1835
g76
I4
ssg77
g1829
sg70
(lp1836
g1245
asbasbasbag63
(g79
g65
NtRp1837
(dp1838
g68
(dp1839
sg77
g1198
sg70
(lp1840
g63
(g84
g65
NtRp1841
(dp1842
g68
(dp1843
g88
g89
ssg77
g1837
sg70
(lp1844
S'web2py_version'
p1845
asbag63
(g84
g65
NtRp1846
(dp1847
g68
(dp1848
g95
g96
ssg77
g1837
sg70
(lp1849
S':'
asbag63
(g84
g65
NtRp1850
(dp1851
g68
(dp1852
sg77
g1837
sg70
(lp1853
g63
(g64
g65
NtRp1854
(dp1855
g68
(dp1856
g76
I4
ssg77
g1850
sg70
(lp1857
g63
(g72
g65
NtRp1858
(dp1859
g68
(dp1860
g76
I3
ssg77
Nsg70
(lp1861
g63
(g79
g65
NtRp1862
(dp1863
g68
(dp1864
sg77
g1858
sg70
(lp1865
g63
(g84
g65
NtRp1866
(dp1867
g68
(dp1868
sg77
g1862
sg70
(lp1869
g63
(g64
g65
NtRp1870
(dp1871
g68
(dp1872
g76
I3
ssg77
g1866
sg70
(lp1873
S'1'
asbasbasbag63
(g79
g65
NtRp1874
(dp1875
g68
(dp1876
sg77
g1858
sg70
(lp1877
g63
(g84
g65
NtRp1878
(dp1879
g68
(dp1880
sg77
g1874
sg70
(lp1881
g63
(g64
g65
NtRp1882
(dp1883
g68
(dp1884
g76
I3
ssg77
g1878
sg70
(lp1885
S'99'
p1886
asbasbasbag63
(g79
g65
NtRp1887
(dp1888
g68
(dp1889
sg77
g1858
sg70
(lp1890
g63
(g84
g65
NtRp1891
(dp1892
g68
(dp1893
sg77
g1887
sg70
(lp1894
g63
(g64
g65
NtRp1895
(dp1896
g68
(dp1897
g76
I3
ssg77
g1891
sg70
(lp1898
S'7'
asbasbasbag63
(g79
g65
NtRp1899
(dp1900
g68
(dp1901
sg77
g1858
sg70
(lp1902
g63
(g84
g65
NtRp1903
(dp1904
g68
(dp1905
sg77
g1899
sg70
(lp1906
g63
(g64
g65
NtRp1907
(dp1908
g68
(dp1909
g76
I3
ssg77
g1903
sg70
(lp1910
S'datetime.datetime(2012, 3, 4, 22, 12, 8)'
p1911
asbasbasbag63
(g79
g65
NtRp1912
(dp1913
g68
(dp1914
sg77
g1858
sg70
(lp1915
g63
(g84
g65
NtRp1916
(dp1917
g68
(dp1918
sg77
g1912
sg70
(lp1919
g63
(g64
g65
NtRp1920
(dp1921
g68
(dp1922
g76
I3
ssg77
g1916
sg70
(lp1923
S'stable'
p1924
asbasbasbasbasbasbasbag63
(g79
g65
NtRp1925
(dp1926
g68
(dp1927
sg77
g1198
sg70
(lp1928
g63
(g84
g65
NtRp1929
(dp1930
g68
(dp1931
g88
g89
ssg77
g1925
sg70
(lp1932
S'wsgi_errors'
p1933
asbag63
(g84
g65
NtRp1934
(dp1935
g68
(dp1936
g95
g96
ssg77
g1925
sg70
(lp1937
S':'
asbag63
(g84
g65
NtRp1938
(dp1939
g68
(dp1940
sg77
g1925
sg70
(lp1941
g63
(g64
g65
NtRp1942
(dp1943
g68
(dp1944
g76
I4
ssg77
g1938
sg70
(lp1945
S"<open file '<stderr>', mode 'w' at 0x00A550D0>"
p1946
asbasbasbag63
(g79
g65
NtRp1947
(dp1948
g68
(dp1949
sg77
g1198
sg70
(lp1950
g63
(g84
g65
NtRp1951
(dp1952
g68
(dp1953
g88
g89
ssg77
g1947
sg70
(lp1954
S'wsgi_file_wrapper'
p1955
asbag63
(g84
g65
NtRp1956
(dp1957
g68
(dp1958
g95
g96
ssg77
g1947
sg70
(lp1959
S':'
asbag63
(g84
g65
NtRp1960
(dp1961
g68
(dp1962
sg77
g1947
sg70
(lp1963
g63
(g64
g65
NtRp1964
(dp1965
g68
(dp1966
g76
I4
ssg77
g1960
sg70
(lp1967
S'<class wsgiref.util.FileWrapper at 0x015E8AB0>'
p1968
asbasbasbag63
(g79
g65
NtRp1969
(dp1970
g68
(dp1971
sg77
g1198
sg70
(lp1972
g63
(g84
g65
NtRp1973
(dp1974
g68
(dp1975
g88
g89
ssg77
g1969
sg70
(lp1976
S'wsgi_input'
p1977
asbag63
(g84
g65
NtRp1978
(dp1979
g68
(dp1980
g95
g96
ssg77
g1969
sg70
(lp1981
S':'
asbag63
(g84
g65
NtRp1982
(dp1983
g68
(dp1984
sg77
g1969
sg70
(lp1985
g63
(g64
g65
NtRp1986
(dp1987
g68
(dp1988
g76
I4
ssg77
g1982
sg70
(lp1989
S'<socket._fileobject object at 0x052239B0>'
p1990
asbasbasbag63
(g79
g65
NtRp1991
(dp1992
g68
(dp1993
sg77
g1198
sg70
(lp1994
g63
(g84
g65
NtRp1995
(dp1996
g68
(dp1997
g88
g89
ssg77
g1991
sg70
(lp1998
S'wsgi_multiprocess'
p1999
asbag63
(g84
g65
NtRp2000
(dp2001
g68
(dp2002
g95
g96
ssg77
g1991
sg70
(lp2003
S':'
asbag63
(g84
g65
NtRp2004
(dp2005
g68
(dp2006
sg77
g1991
sg70
(lp2007
g63
(g64
g65
NtRp2008
(dp2009
g68
(dp2010
g76
I4
ssg77
g2004
sg70
(lp2011
g106
asbasbasbag63
(g79
g65
NtRp2012
(dp2013
g68
(dp2014
sg77
g1198
sg70
(lp2015
g63
(g84
g65
NtRp2016
(dp2017
g68
(dp2018
g88
g89
ssg77
g2012
sg70
(lp2019
S'wsgi_multithread'
p2020
asbag63
(g84
g65
NtRp2021
(dp2022
g68
(dp2023
g95
g96
ssg77
g2012
sg70
(lp2024
S':'
asbag63
(g84
g65
NtRp2025
(dp2026
g68
(dp2027
sg77
g2012
sg70
(lp2028
g63
(g64
g65
NtRp2029
(dp2030
g68
(dp2031
g76
I4
ssg77
g2025
sg70
(lp2032
S'True'
p2033
asbasbasbag63
(g79
g65
NtRp2034
(dp2035
g68
(dp2036
sg77
g1198
sg70
(lp2037
g63
(g84
g65
NtRp2038
(dp2039
g68
(dp2040
g88
g89
ssg77
g2034
sg70
(lp2041
S'wsgi_run_once'
p2042
asbag63
(g84
g65
NtRp2043
(dp2044
g68
(dp2045
g95
g96
ssg77
g2034
sg70
(lp2046
S':'
asbag63
(g84
g65
NtRp2047
(dp2048
g68
(dp2049
sg77
g2034
sg70
(lp2050
g63
(g64
g65
NtRp2051
(dp2052
g68
(dp2053
g76
I4
ssg77
g2047
sg70
(lp2054
g106
asbasbasbag63
(g79
g65
NtRp2055
(dp2056
g68
(dp2057
sg77
g1198
sg70
(lp2058
g63
(g84
g65
NtRp2059
(dp2060
g68
(dp2061
g88
g89
ssg77
g2055
sg70
(lp2062
S'wsgi_url_scheme'
p2063
asbag63
(g84
g65
NtRp2064
(dp2065
g68
(dp2066
g95
g96
ssg77
g2055
sg70
(lp2067
S':'
asbag63
(g84
g65
NtRp2068
(dp2069
g68
(dp2070
sg77
g2055
sg70
(lp2071
g63
(g64
g65
NtRp2072
(dp2073
g68
(dp2074
g76
I4
ssg77
g2068
sg70
(lp2075
S'http'
p2076
asbasbasbag63
(g79
g65
NtRp2077
(dp2078
g68
(dp2079
sg77
g1198
sg70
(lp2080
g63
(g84
g65
NtRp2081
(dp2082
g68
(dp2083
g88
g89
ssg77
g2077
sg70
(lp2084
S'wsgi_version'
p2085
asbag63
(g84
g65
NtRp2086
(dp2087
g68
(dp2088
g95
g96
ssg77
g2077
sg70
(lp2089
S':'
asbag63
(g84
g65
NtRp2090
(dp2091
g68
(dp2092
sg77
g2077
sg70
(lp2093
g63
(g64
g65
NtRp2094
(dp2095
g68
(dp2096
g76
I4
ssg77
g2090
sg70
(lp2097
g63
(g72
g65
NtRp2098
(dp2099
g68
(dp2100
g76
I3
ssg77
Nsg70
(lp2101
g63
(g79
g65
NtRp2102
(dp2103
g68
(dp2104
sg77
g2098
sg70
(lp2105
g63
(g84
g65
NtRp2106
(dp2107
g68
(dp2108
sg77
g2102
sg70
(lp2109
g63
(g64
g65
NtRp2110
(dp2111
g68
(dp2112
g76
I3
ssg77
g2106
sg70
(lp2113
S'1'
asbasbasbag63
(g79
g65
NtRp2114
(dp2115
g68
(dp2116
sg77
g2098
sg70
(lp2117
g63
(g84
g65
NtRp2118
(dp2119
g68
(dp2120
sg77
g2114
sg70
(lp2121
g63
(g64
g65
NtRp2122
(dp2123
g68
(dp2124
g76
I3
ssg77
g2118
sg70
(lp2125
S'0'
asbasbasbasbasbasbasbasbasbasbasbag63
(g79
g65
NtRp2126
(dp2127
g68
(dp2128
sg77
g73
sg70
(lp2129
g63
(g84
g65
NtRp2130
(dp2131
g68
(dp2132
g88
g89
ssg77
g2126
sg70
(lp2133
S'extension'
p2134
asbag63
(g84
g65
NtRp2135
(dp2136
g68
(dp2137
g95
g96
ssg77
g2126
sg70
(lp2138
S':'
asbag63
(g84
g65
NtRp2139
(dp2140
g68
(dp2141
sg77
g2126
sg70
(lp2142
g63
(g64
g65
NtRp2143
(dp2144
g68
(dp2145
g76
I5
ssg77
g2139
sg70
(lp2146
S'html'
p2147
asbasbasbag63
(g79
g65
NtRp2148
(dp2149
g68
(dp2150
sg77
g73
sg70
(lp2151
g63
(g84
g65
NtRp2152
(dp2153
g68
(dp2154
g88
g89
ssg77
g2148
sg70
(lp2155
S'folder'
p2156
asbag63
(g84
g65
NtRp2157
(dp2158
g68
(dp2159
g95
g96
ssg77
g2148
sg70
(lp2160
S':'
asbag63
(g84
g65
NtRp2161
(dp2162
g68
(dp2163
sg77
g2148
sg70
(lp2164
g63
(g64
g65
NtRp2165
(dp2166
g68
(dp2167
g76
I5
ssg77
g2161
sg70
(lp2168
S'C:\\Documents and Settings\\agrover\\Desktop\\previous crawler\\web2py\\applications\\mycrawler\\'
p2169
asbasbasbag63
(g79
g65
NtRp2170
(dp2171
g68
(dp2172
sg77
g73
sg70
(lp2173
g63
(g84
g65
NtRp2174
(dp2175
g68
(dp2176
g88
g89
ssg77
g2170
sg70
(lp2177
S'function'
p2178
asbag63
(g84
g65
NtRp2179
(dp2180
g68
(dp2181
g95
g96
ssg77
g2170
sg70
(lp2182
S':'
asbag63
(g84
g65
NtRp2183
(dp2184
g68
(dp2185
sg77
g2170
sg70
(lp2186
g63
(g64
g65
NtRp2187
(dp2188
g68
(dp2189
g76
I5
ssg77
g2183
sg70
(lp2190
S'search'
p2191
asbasbasbag63
(g79
g65
NtRp2192
(dp2193
g68
(dp2194
sg77
g73
sg70
(lp2195
g63
(g84
g65
NtRp2196
(dp2197
g68
(dp2198
g88
g89
ssg77
g2192
sg70
(lp2199
S'get_vars'
p2200
asbag63
(g84
g65
NtRp2201
(dp2202
g68
(dp2203
g95
g96
ssg77
g2192
sg70
(lp2204
S':'
asbag63
(g84
g65
NtRp2205
(dp2206
g68
(dp2207
sg77
g2192
sg70
(lp2208
g63
(g64
g65
NtRp2209
(dp2210
g68
(dp2211
g76
I5
ssg77
g2205
sg70
(lp2212
g63
(g72
g65
NtRp2213
(dp2214
g68
(dp2215
g76
I4
ssg77
Nsg70
(lp2216
g63
(g79
g65
NtRp2217
(dp2218
g68
(dp2219
sg77
g2213
sg70
(lp2220
g63
(g84
g65
NtRp2221
(dp2222
g68
(dp2223
g88
g89
ssg77
g2217
sg70
(lp2224
S'Company'
p2225
asbag63
(g84
g65
NtRp2226
(dp2227
g68
(dp2228
g95
g96
ssg77
g2217
sg70
(lp2229
S':'
asbag63
(g84
g65
NtRp2230
(dp2231
g68
(dp2232
sg77
g2217
sg70
(lp2233
g63
(g64
g65
NtRp2234
(dp2235
g68
(dp2236
g76
I4
ssg77
g2230
sg70
(lp2237
S''
asbasbasbag63
(g79
g65
NtRp2238
(dp2239
g68
(dp2240
sg77
g2213
sg70
(lp2241
g63
(g84
g65
NtRp2242
(dp2243
g68
(dp2244
g88
g89
ssg77
g2238
sg70
(lp2245
S'Country'
p2246
asbag63
(g84
g65
NtRp2247
(dp2248
g68
(dp2249
g95
g96
ssg77
g2238
sg70
(lp2250
S':'
asbag63
(g84
g65
NtRp2251
(dp2252
g68
(dp2253
sg77
g2238
sg70
(lp2254
g63
(g64
g65
NtRp2255
(dp2256
g68
(dp2257
g76
I4
ssg77
g2251
sg70
(lp2258
S'India'
p2259
asbasbasbag63
(g79
g65
NtRp2260
(dp2261
g68
(dp2262
sg77
g2213
sg70
(lp2263
g63
(g84
g65
NtRp2264
(dp2265
g68
(dp2266
g88
g89
ssg77
g2260
sg70
(lp2267
S'File_Name'
p2268
asbag63
(g84
g65
NtRp2269
(dp2270
g68
(dp2271
g95
g96
ssg77
g2260
sg70
(lp2272
S':'
asbag63
(g84
g65
NtRp2273
(dp2274
g68
(dp2275
sg77
g2260
sg70
(lp2276
g63
(g64
g65
NtRp2277
(dp2278
g68
(dp2279
g76
I4
ssg77
g2273
sg70
(lp2280
S'34'
p2281
asbasbasbag63
(g79
g65
NtRp2282
(dp2283
g68
(dp2284
sg77
g2213
sg70
(lp2285
g63
(g84
g65
NtRp2286
(dp2287
g68
(dp2288
g88
g89
ssg77
g2282
sg70
(lp2289
S'First_Name'
p2290
asbag63
(g84
g65
NtRp2291
(dp2292
g68
(dp2293
g95
g96
ssg77
g2282
sg70
(lp2294
S':'
asbag63
(g84
g65
NtRp2295
(dp2296
g68
(dp2297
sg77
g2282
sg70
(lp2298
g63
(g64
g65
NtRp2299
(dp2300
g68
(dp2301
g76
I4
ssg77
g2295
sg70
(lp2302
S''
asbasbasbag63
(g79
g65
NtRp2303
(dp2304
g68
(dp2305
sg77
g2213
sg70
(lp2306
g63
(g84
g65
NtRp2307
(dp2308
g68
(dp2309
g88
g89
ssg77
g2303
sg70
(lp2310
S'Functions'
p2311
asbag63
(g84
g65
NtRp2312
(dp2313
g68
(dp2314
g95
g96
ssg77
g2303
sg70
(lp2315
S':'
asbag63
(g84
g65
NtRp2316
(dp2317
g68
(dp2318
sg77
g2303
sg70
(lp2319
g63
(g64
g65
NtRp2320
(dp2321
g68
(dp2322
g76
I4
ssg77
g2316
sg70
(lp2323
S'All Functions'
p2324
asbasbasbag63
(g79
g65
NtRp2325
(dp2326
g68
(dp2327
sg77
g2213
sg70
(lp2328
g63
(g84
g65
NtRp2329
(dp2330
g68
(dp2331
g88
g89
ssg77
g2325
sg70
(lp2332
S'Industry'
p2333
asbag63
(g84
g65
NtRp2334
(dp2335
g68
(dp2336
g95
g96
ssg77
g2325
sg70
(lp2337
S':'
asbag63
(g84
g65
NtRp2338
(dp2339
g68
(dp2340
sg77
g2325
sg70
(lp2341
g63
(g64
g65
NtRp2342
(dp2343
g68
(dp2344
g76
I4
ssg77
g2338
sg70
(lp2345
g63
(g72
g65
NtRp2346
(dp2347
g68
(dp2348
g76
I3
ssg77
Nsg70
(lp2349
g63
(g79
g65
NtRp2350
(dp2351
g68
(dp2352
sg77
g2346
sg70
(lp2353
g63
(g84
g65
NtRp2354
(dp2355
g68
(dp2356
sg77
g2350
sg70
(lp2357
g63
(g64
g65
NtRp2358
(dp2359
g68
(dp2360
g76
I3
ssg77
g2354
sg70
(lp2361
S'Accounting'
p2362
asbasbasbag63
(g79
g65
NtRp2363
(dp2364
g68
(dp2365
sg77
g2346
sg70
(lp2366
g63
(g84
g65
NtRp2367
(dp2368
g68
(dp2369
sg77
g2363
sg70
(lp2370
g63
(g64
g65
NtRp2371
(dp2372
g68
(dp2373
g76
I3
ssg77
g2367
sg70
(lp2374
S'Airlines/Aviation'
p2375
asbasbasbasbasbasbasbag63
(g79
g65
NtRp2376
(dp2377
g68
(dp2378
sg77
g2213
sg70
(lp2379
g63
(g84
g65
NtRp2380
(dp2381
g68
(dp2382
g88
g89
ssg77
g2376
sg70
(lp2383
S'Keywords'
p2384
asbag63
(g84
g65
NtRp2385
(dp2386
g68
(dp2387
g95
g96
ssg77
g2376
sg70
(lp2388
S':'
asbag63
(g84
g65
NtRp2389
(dp2390
g68
(dp2391
sg77
g2376
sg70
(lp2392
g63
(g64
g65
NtRp2393
(dp2394
g68
(dp2395
g76
I4
ssg77
g2389
sg70
(lp2396
S''
asbasbasbag63
(g79
g65
NtRp2397
(dp2398
g68
(dp2399
sg77
g2213
sg70
(lp2400
g63
(g84
g65
NtRp2401
(dp2402
g68
(dp2403
g88
g89
ssg77
g2397
sg70
(lp2404
S'Last_Name'
p2405
asbag63
(g84
g65
NtRp2406
(dp2407
g68
(dp2408
g95
g96
ssg77
g2397
sg70
(lp2409
S':'
asbag63
(g84
g65
NtRp2410
(dp2411
g68
(dp2412
sg77
g2397
sg70
(lp2413
g63
(g64
g65
NtRp2414
(dp2415
g68
(dp2416
g76
I4
ssg77
g2410
sg70
(lp2417
S'pai'
p2418
asbasbasbag63
(g79
g65
NtRp2419
(dp2420
g68
(dp2421
sg77
g2213
sg70
(lp2422
g63
(g84
g65
NtRp2423
(dp2424
g68
(dp2425
g88
g89
ssg77
g2419
sg70
(lp2426
S'School'
p2427
asbag63
(g84
g65
NtRp2428
(dp2429
g68
(dp2430
g95
g96
ssg77
g2419
sg70
(lp2431
S':'
asbag63
(g84
g65
NtRp2432
(dp2433
g68
(dp2434
sg77
g2419
sg70
(lp2435
g63
(g64
g65
NtRp2436
(dp2437
g68
(dp2438
g76
I4
ssg77
g2432
sg70
(lp2439
S''
asbasbasbag63
(g79
g65
NtRp2440
(dp2441
g68
(dp2442
sg77
g2213
sg70
(lp2443
g63
(g84
g65
NtRp2444
(dp2445
g68
(dp2446
g88
g89
ssg77
g2440
sg70
(lp2447
S'Seniority_Levels'
p2448
asbag63
(g84
g65
NtRp2449
(dp2450
g68
(dp2451
g95
g96
ssg77
g2440
sg70
(lp2452
S':'
asbag63
(g84
g65
NtRp2453
(dp2454
g68
(dp2455
sg77
g2440
sg70
(lp2456
g63
(g64
g65
NtRp2457
(dp2458
g68
(dp2459
g76
I4
ssg77
g2453
sg70
(lp2460
g63
(g72
g65
NtRp2461
(dp2462
g68
(dp2463
g76
I3
ssg77
Nsg70
(lp2464
g63
(g79
g65
NtRp2465
(dp2466
g68
(dp2467
sg77
g2461
sg70
(lp2468
g63
(g84
g65
NtRp2469
(dp2470
g68
(dp2471
sg77
g2465
sg70
(lp2472
g63
(g64
g65
NtRp2473
(dp2474
g68
(dp2475
g76
I3
ssg77
g2469
sg70
(lp2476
S'Manager'
p2477
asbasbasbag63
(g79
g65
NtRp2478
(dp2479
g68
(dp2480
sg77
g2461
sg70
(lp2481
g63
(g84
g65
NtRp2482
(dp2483
g68
(dp2484
sg77
g2478
sg70
(lp2485
g63
(g64
g65
NtRp2486
(dp2487
g68
(dp2488
g76
I3
ssg77
g2482
sg70
(lp2489
S'Owner'
p2490
asbasbasbasbasbasbasbag63
(g79
g65
NtRp2491
(dp2492
g68
(dp2493
sg77
g2213
sg70
(lp2494
g63
(g84
g65
NtRp2495
(dp2496
g68
(dp2497
g88
g89
ssg77
g2491
sg70
(lp2498
S'Title'
p2499
asbag63
(g84
g65
NtRp2500
(dp2501
g68
(dp2502
g95
g96
ssg77
g2491
sg70
(lp2503
S':'
asbag63
(g84
g65
NtRp2504
(dp2505
g68
(dp2506
sg77
g2491
sg70
(lp2507
g63
(g64
g65
NtRp2508
(dp2509
g68
(dp2510
g76
I4
ssg77
g2504
sg70
(lp2511
S''
asbasbasbasbasbasbasbag63
(g79
g65
NtRp2512
(dp2513
g68
(dp2514
sg77
g73
sg70
(lp2515
g63
(g84
g65
NtRp2516
(dp2517
g68
(dp2518
g88
g89
ssg77
g2512
sg70
(lp2519
S'global_settings'
p2520
asbag63
(g84
g65
NtRp2521
(dp2522
g68
(dp2523
g95
g96
ssg77
g2512
sg70
(lp2524
S':'
asbag63
(g84
g65
NtRp2525
(dp2526
g68
(dp2527
sg77
g2512
sg70
(lp2528
g63
(g64
g65
NtRp2529
(dp2530
g68
(dp2531
g76
I5
ssg77
g2525
sg70
(lp2532
g63
(g72
g65
NtRp2533
(dp2534
g68
(dp2535
g76
I4
ssg77
Nsg70
(lp2536
g63
(g79
g65
NtRp2537
(dp2538
g68
(dp2539
sg77
g2533
sg70
(lp2540
g63
(g84
g65
NtRp2541
(dp2542
g68
(dp2543
g88
g89
ssg77
g2537
sg70
(lp2544
g1210
asbag63
(g84
g65
NtRp2545
(dp2546
g68
(dp2547
g95
g96
ssg77
g2537
sg70
(lp2548
S':'
asbag63
(g84
g65
NtRp2549
(dp2550
g68
(dp2551
sg77
g2537
sg70
(lp2552
g63
(g64
g65
NtRp2553
(dp2554
g68
(dp2555
g76
I4
ssg77
g2549
sg70
(lp2556
S"set(['C:\\\\Documents and Settings\\\\agrover\\\\Desktop\\\\previous crawler\\\\web2py\\\\applications\\\\admin\\\\', 'C:\\\\Documents and Settings\\\\agrover\\\\Desktop\\\\previous crawler\\\\web2py\\\\applications\\\\mycrawler\\\\', 'C:\\\\Documents and Settings\\\\agrover\\\\Desktop\\\\previous crawler\\\\web2py\\\\applications\\\\welcome\\\\', 'C:\\\\Documents and Settings\\\\agrover\\\\Desktop\\\\previous crawler\\\\web2py\\\\applications\\\\final\\\\'])"
p2557
asbasbasbag63
(g79
g65
NtRp2558
(dp2559
g68
(dp2560
sg77
g2533
sg70
(lp2561
g63
(g84
g65
NtRp2562
(dp2563
g68
(dp2564
g88
g89
ssg77
g2558
sg70
(lp2565
g1232
asbag63
(g84
g65
NtRp2566
(dp2567
g68
(dp2568
g95
g96
ssg77
g2558
sg70
(lp2569
S':'
asbag63
(g84
g65
NtRp2570
(dp2571
g68
(dp2572
sg77
g2558
sg70
(lp2573
g63
(g64
g65
NtRp2574
(dp2575
g68
(dp2576
g76
I4
ssg77
g2570
sg70
(lp2577
g1245
asbasbasbag63
(g79
g65
NtRp2578
(dp2579
g68
(dp2580
sg77
g2533
sg70
(lp2581
g63
(g84
g65
NtRp2582
(dp2583
g68
(dp2584
g88
g89
ssg77
g2578
sg70
(lp2585
g1254
asbag63
(g84
g65
NtRp2586
(dp2587
g68
(dp2588
g95
g96
ssg77
g2578
sg70
(lp2589
S':'
asbag63
(g84
g65
NtRp2590
(dp2591
g68
(dp2592
sg77
g2578
sg70
(lp2593
g63
(g64
g65
NtRp2594
(dp2595
g68
(dp2596
g76
I4
ssg77
g2590
sg70
(lp2597
g63
(g72
g65
NtRp2598
(dp2599
g68
(dp2600
g76
I3
ssg77
Nsg70
(lp2601
sbasbasbasbag63
(g79
g65
NtRp2602
(dp2603
g68
(dp2604
sg77
g2533
sg70
(lp2605
g63
(g84
g65
NtRp2606
(dp2607
g68
(dp2608
g88
g89
ssg77
g2602
sg70
(lp2609
g1279
asbag63
(g84
g65
NtRp2610
(dp2611
g68
(dp2612
g95
g96
ssg77
g2602
sg70
(lp2613
S':'
asbag63
(g84
g65
NtRp2614
(dp2615
g68
(dp2616
sg77
g2602
sg70
(lp2617
g63
(g64
g65
NtRp2618
(dp2619
g68
(dp2620
g76
I4
ssg77
g2614
sg70
(lp2621
S"<Values at 0x16d63f0: {'verbose': False, 'ip': '127.0.0.1', 'shutdown_timeout': 5, 'taskbar': False, 'nocron': False, 'pid_filename': 'httpserver.pid', 'maxthreads': None, 'softcron': False, 'server_name': 'mniagrover', 'bpython': False, 'nogui': False, 'port': 8000, 'extcron': False, 'debuglevel': 30, 'test': None, 'folder': 'C:\\\\Documents and Settings\\\\agrover\\\\Desktop\\\\previous crawler\\\\web2py', 'config': '', 'import_models': False, 'winservice': '', 'shell': None, 'run': '', 'log_filename': 'httpserver.log', 'args': [''], 'socket_timeout': 5, 'ssl_ca_certificate': None, 'scheduler': None, 'profiler_filename': None, 'ssl_private_key': '', 'password': '<ask>', 'request_queue_size': 5, 'ssl_certificate': '', 'cronjob': False, 'numthreads': None, 'quiet': False, 'interfaces': None, 'minthreads': None, 'timeout': 10, 'plain': False, 'nobanner': False}>"
p2622
asbasbasbag63
(g79
g65
NtRp2623
(dp2624
g68
(dp2625
sg77
g2533
sg70
(lp2626
g63
(g84
g65
NtRp2627
(dp2628
g68
(dp2629
g88
g89
ssg77
g2623
sg70
(lp2630
g1301
asbag63
(g84
g65
NtRp2631
(dp2632
g68
(dp2633
g95
g96
ssg77
g2623
sg70
(lp2634
S':'
asbag63
(g84
g65
NtRp2635
(dp2636
g68
(dp2637
sg77
g2623
sg70
(lp2638
g63
(g64
g65
NtRp2639
(dp2640
g68
(dp2641
g76
I4
ssg77
g2635
sg70
(lp2642
S'set([])'
p2643
asbasbasbag63
(g79
g65
NtRp2644
(dp2645
g68
(dp2646
sg77
g2533
sg70
(lp2647
g63
(g84
g65
NtRp2648
(dp2649
g68
(dp2650
g88
g89
ssg77
g2644
sg70
(lp2651
g1323
asbag63
(g84
g65
NtRp2652
(dp2653
g68
(dp2654
g95
g96
ssg77
g2644
sg70
(lp2655
S':'
asbag63
(g84
g65
NtRp2656
(dp2657
g68
(dp2658
sg77
g2644
sg70
(lp2659
g63
(g64
g65
NtRp2660
(dp2661
g68
(dp2662
g76
I4
ssg77
g2656
sg70
(lp2663
g106
asbasbasbag63
(g79
g65
NtRp2664
(dp2665
g68
(dp2666
sg77
g2533
sg70
(lp2667
g63
(g84
g65
NtRp2668
(dp2669
g68
(dp2670
g88
g89
ssg77
g2664
sg70
(lp2671
g1344
asbag63
(g84
g65
NtRp2672
(dp2673
g68
(dp2674
g95
g96
ssg77
g2664
sg70
(lp2675
S':'
asbag63
(g84
g65
NtRp2676
(dp2677
g68
(dp2678
sg77
g2664
sg70
(lp2679
g63
(g64
g65
NtRp2680
(dp2681
g68
(dp2682
g76
I4
ssg77
g2676
sg70
(lp2683
g1357
asbasbasbag63
(g79
g65
NtRp2684
(dp2685
g68
(dp2686
sg77
g2533
sg70
(lp2687
g63
(g84
g65
NtRp2688
(dp2689
g68
(dp2690
g88
g89
ssg77
g2684
sg70
(lp2691
g1542
asbag63
(g84
g65
NtRp2692
(dp2693
g68
(dp2694
g95
g96
ssg77
g2684
sg70
(lp2695
S':'
asbag63
(g84
g65
NtRp2696
(dp2697
g68
(dp2698
sg77
g2684
sg70
(lp2699
g63
(g64
g65
NtRp2700
(dp2701
g68
(dp2702
g76
I4
ssg77
g2696
sg70
(lp2703
g106
asbasbasbag63
(g79
g65
NtRp2704
(dp2705
g68
(dp2706
sg77
g2533
sg70
(lp2707
g63
(g84
g65
NtRp2708
(dp2709
g68
(dp2710
g88
g89
ssg77
g2704
sg70
(lp2711
g1563
asbag63
(g84
g65
NtRp2712
(dp2713
g68
(dp2714
g95
g96
ssg77
g2704
sg70
(lp2715
S':'
asbag63
(g84
g65
NtRp2716
(dp2717
g68
(dp2718
sg77
g2704
sg70
(lp2719
g63
(g64
g65
NtRp2720
(dp2721
g68
(dp2722
g76
I4
ssg77
g2716
sg70
(lp2723
g106
asbasbasbag63
(g79
g65
NtRp2724
(dp2725
g68
(dp2726
sg77
g2533
sg70
(lp2727
g63
(g84
g65
NtRp2728
(dp2729
g68
(dp2730
g88
g89
ssg77
g2724
sg70
(lp2731
g1802
asbag63
(g84
g65
NtRp2732
(dp2733
g68
(dp2734
g95
g96
ssg77
g2724
sg70
(lp2735
S':'
asbag63
(g84
g65
NtRp2736
(dp2737
g68
(dp2738
sg77
g2724
sg70
(lp2739
g63
(g64
g65
NtRp2740
(dp2741
g68
(dp2742
g76
I4
ssg77
g2736
sg70
(lp2743
g1815
asbasbasbag63
(g79
g65
NtRp2744
(dp2745
g68
(dp2746
sg77
g2533
sg70
(lp2747
g63
(g84
g65
NtRp2748
(dp2749
g68
(dp2750
g88
g89
ssg77
g2744
sg70
(lp2751
g1845
asbag63
(g84
g65
NtRp2752
(dp2753
g68
(dp2754
g95
g96
ssg77
g2744
sg70
(lp2755
S':'
asbag63
(g84
g65
NtRp2756
(dp2757
g68
(dp2758
sg77
g2744
sg70
(lp2759
g63
(g64
g65
NtRp2760
(dp2761
g68
(dp2762
g76
I4
ssg77
g2756
sg70
(lp2763
g63
(g72
g65
NtRp2764
(dp2765
g68
(dp2766
g76
I3
ssg77
Nsg70
(lp2767
g63
(g79
g65
NtRp2768
(dp2769
g68
(dp2770
sg77
g2764
sg70
(lp2771
g63
(g84
g65
NtRp2772
(dp2773
g68
(dp2774
sg77
g2768
sg70
(lp2775
g63
(g64
g65
NtRp2776
(dp2777
g68
(dp2778
g76
I3
ssg77
g2772
sg70
(lp2779
S'1'
asbasbasbag63
(g79
g65
NtRp2780
(dp2781
g68
(dp2782
sg77
g2764
sg70
(lp2783
g63
(g84
g65
NtRp2784
(dp2785
g68
(dp2786
sg77
g2780
sg70
(lp2787
g63
(g64
g65
NtRp2788
(dp2789
g68
(dp2790
g76
I3
ssg77
g2784
sg70
(lp2791
S'99'
p2792
asbasbasbag63
(g79
g65
NtRp2793
(dp2794
g68
(dp2795
sg77
g2764
sg70
(lp2796
g63
(g84
g65
NtRp2797
(dp2798
g68
(dp2799
sg77
g2793
sg70
(lp2800
g63
(g64
g65
NtRp2801
(dp2802
g68
(dp2803
g76
I3
ssg77
g2797
sg70
(lp2804
S'7'
asbasbasbag63
(g79
g65
NtRp2805
(dp2806
g68
(dp2807
sg77
g2764
sg70
(lp2808
g63
(g84
g65
NtRp2809
(dp2810
g68
(dp2811
sg77
g2805
sg70
(lp2812
g63
(g64
g65
NtRp2813
(dp2814
g68
(dp2815
g76
I3
ssg77
g2809
sg70
(lp2816
S'datetime.datetime(2012, 3, 4, 22, 12, 8)'
p2817
asbasbasbag63
(g79
g65
NtRp2818
(dp2819
g68
(dp2820
sg77
g2764
sg70
(lp2821
g63
(g84
g65
NtRp2822
(dp2823
g68
(dp2824
sg77
g2818
sg70
(lp2825
g63
(g64
g65
NtRp2826
(dp2827
g68
(dp2828
g76
I3
ssg77
g2822
sg70
(lp2829
g1924
asbasbasbasbasbasbasbasbasbasbasbag63
(g79
g65
NtRp2830
(dp2831
g68
(dp2832
sg77
g73
sg70
(lp2833
g63
(g84
g65
NtRp2834
(dp2835
g68
(dp2836
g88
g89
ssg77
g2830
sg70
(lp2837
S'is_https'
p2838
asbag63
(g84
g65
NtRp2839
(dp2840
g68
(dp2841
g95
g96
ssg77
g2830
sg70
(lp2842
S':'
asbag63
(g84
g65
NtRp2843
(dp2844
g68
(dp2845
sg77
g2830
sg70
(lp2846
g63
(g64
g65
NtRp2847
(dp2848
g68
(dp2849
g76
I5
ssg77
g2843
sg70
(lp2850
g106
asbasbasbag63
(g79
g65
NtRp2851
(dp2852
g68
(dp2853
sg77
g73
sg70
(lp2854
g63
(g84
g65
NtRp2855
(dp2856
g68
(dp2857
g88
g89
ssg77
g2851
sg70
(lp2858
S'is_local'
p2859
asbag63
(g84
g65
NtRp2860
(dp2861
g68
(dp2862
g95
g96
ssg77
g2851
sg70
(lp2863
S':'
asbag63
(g84
g65
NtRp2864
(dp2865
g68
(dp2866
sg77
g2851
sg70
(lp2867
g63
(g64
g65
NtRp2868
(dp2869
g68
(dp2870
g76
I5
ssg77
g2864
sg70
(lp2871
g2033
asbasbasbag63
(g79
g65
NtRp2872
(dp2873
g68
(dp2874
sg77
g73
sg70
(lp2875
g63
(g84
g65
NtRp2876
(dp2877
g68
(dp2878
g88
g89
ssg77
g2872
sg70
(lp2879
S'is_restful'
p2880
asbag63
(g84
g65
NtRp2881
(dp2882
g68
(dp2883
g95
g96
ssg77
g2872
sg70
(lp2884
S':'
asbag63
(g84
g65
NtRp2885
(dp2886
g68
(dp2887
sg77
g2872
sg70
(lp2888
g63
(g64
g65
NtRp2889
(dp2890
g68
(dp2891
g76
I5
ssg77
g2885
sg70
(lp2892
g106
asbasbasbag63
(g79
g65
NtRp2893
(dp2894
g68
(dp2895
sg77
g73
sg70
(lp2896
g63
(g84
g65
NtRp2897
(dp2898
g68
(dp2899
g88
g89
ssg77
g2893
sg70
(lp2900
S'now'
p2901
asbag63
(g84
g65
NtRp2902
(dp2903
g68
(dp2904
g95
g96
ssg77
g2893
sg70
(lp2905
S':'
asbag63
(g84
g65
NtRp2906
(dp2907
g68
(dp2908
sg77
g2893
sg70
(lp2909
g63
(g64
g65
NtRp2910
(dp2911
g68
(dp2912
g76
I5
ssg77
g2906
sg70
(lp2913
S'datetime.datetime(2012, 6, 11, 16, 31, 56, 406000)'
p2914
asbasbasbag63
(g79
g65
NtRp2915
(dp2916
g68
(dp2917
sg77
g73
sg70
(lp2918
g63
(g84
g65
NtRp2919
(dp2920
g68
(dp2921
g88
g89
ssg77
g2915
sg70
(lp2922
S'post_vars'
p2923
asbag63
(g84
g65
NtRp2924
(dp2925
g68
(dp2926
g95
g96
ssg77
g2915
sg70
(lp2927
S':'
asbag63
(g84
g65
NtRp2928
(dp2929
g68
(dp2930
sg77
g2915
sg70
(lp2931
g63
(g64
g65
NtRp2932
(dp2933
g68
(dp2934
g76
I5
ssg77
g2928
sg70
(lp2935
g63
(g72
g65
NtRp2936
(dp2937
g68
(dp2938
g76
I4
ssg77
Nsg70
(lp2939
sbasbasbasbag63
(g79
g65
NtRp2940
(dp2941
g68
(dp2942
sg77
g73
sg70
(lp2943
g63
(g84
g65
NtRp2944
(dp2945
g68
(dp2946
g88
g89
ssg77
g2940
sg70
(lp2947
S'url'
p2948
asbag63
(g84
g65
NtRp2949
(dp2950
g68
(dp2951
g95
g96
ssg77
g2940
sg70
(lp2952
S':'
asbag63
(g84
g65
NtRp2953
(dp2954
g68
(dp2955
sg77
g2940
sg70
(lp2956
g63
(g64
g65
NtRp2957
(dp2958
g68
(dp2959
g76
I5
ssg77
g2953
sg70
(lp2960
S'/mycrawler/default/search'
p2961
asbasbasbag63
(g79
g65
NtRp2962
(dp2963
g68
(dp2964
sg77
g73
sg70
(lp2965
g63
(g84
g65
NtRp2966
(dp2967
g68
(dp2968
g88
g89
ssg77
g2962
sg70
(lp2969
S'utcnow'
p2970
asbag63
(g84
g65
NtRp2971
(dp2972
g68
(dp2973
g95
g96
ssg77
g2962
sg70
(lp2974
S':'
asbag63
(g84
g65
NtRp2975
(dp2976
g68
(dp2977
sg77
g2962
sg70
(lp2978
g63
(g64
g65
NtRp2979
(dp2980
g68
(dp2981
g76
I5
ssg77
g2975
sg70
(lp2982
S'datetime.datetime(2012, 6, 11, 23, 31, 56, 406000)'
p2983
asbasbasbag63
(g79
g65
NtRp2984
(dp2985
g68
(dp2986
sg77
g73
sg70
(lp2987
g63
(g84
g65
NtRp2988
(dp2989
g68
(dp2990
g88
g89
ssg77
g2984
sg70
(lp2991
S'uuid'
p2992
asbag63
(g84
g65
NtRp2993
(dp2994
g68
(dp2995
g95
g96
ssg77
g2984
sg70
(lp2996
S':'
asbag63
(g84
g65
NtRp2997
(dp2998
g68
(dp2999
sg77
g2984
sg70
(lp3000
g63
(g64
g65
NtRp3001
(dp3002
g68
(dp3003
g76
I5
ssg77
g2997
sg70
(lp3004
S'mycrawler/127.0.0.1.2012-06-11.16-31-56.aa97b318-7534-4e61-898c-6e2d519520bc'
p3005
asbasbasbag63
(g79
g65
NtRp3006
(dp3007
g68
(dp3008
sg77
g73
sg70
(lp3009
g63
(g84
g65
NtRp3010
(dp3011
g68
(dp3012
g88
g89
ssg77
g3006
sg70
(lp3013
S'vars'
p3014
asbag63
(g84
g65
NtRp3015
(dp3016
g68
(dp3017
g95
g96
ssg77
g3006
sg70
(lp3018
S':'
asbag63
(g84
g65
NtRp3019
(dp3020
g68
(dp3021
sg77
g3006
sg70
(lp3022
g63
(g64
g65
NtRp3023
(dp3024
g68
(dp3025
g76
I5
ssg77
g3019
sg70
(lp3026
g63
(g72
g65
NtRp3027
(dp3028
g68
(dp3029
g76
I4
ssg77
Nsg70
(lp3030
g63
(g79
g65
NtRp3031
(dp3032
g68
(dp3033
sg77
g3027
sg70
(lp3034
g63
(g84
g65
NtRp3035
(dp3036
g68
(dp3037
g88
g89
ssg77
g3031
sg70
(lp3038
g2225
asbag63
(g84
g65
NtRp3039
(dp3040
g68
(dp3041
g95
g96
ssg77
g3031
sg70
(lp3042
S':'
asbag63
(g84
g65
NtRp3043
(dp3044
g68
(dp3045
sg77
g3031
sg70
(lp3046
g63
(g64
g65
NtRp3047
(dp3048
g68
(dp3049
g76
I4
ssg77
g3043
sg70
(lp3050
S''
asbasbasbag63
(g79
g65
NtRp3051
(dp3052
g68
(dp3053
sg77
g3027
sg70
(lp3054
g63
(g84
g65
NtRp3055
(dp3056
g68
(dp3057
g88
g89
ssg77
g3051
sg70
(lp3058
g2246
asbag63
(g84
g65
NtRp3059
(dp3060
g68
(dp3061
g95
g96
ssg77
g3051
sg70
(lp3062
S':'
asbag63
(g84
g65
NtRp3063
(dp3064
g68
(dp3065
sg77
g3051
sg70
(lp3066
g63
(g64
g65
NtRp3067
(dp3068
g68
(dp3069
g76
I4
ssg77
g3063
sg70
(lp3070
g2259
asbasbasbag63
(g79
g65
NtRp3071
(dp3072
g68
(dp3073
sg77
g3027
sg70
(lp3074
g63
(g84
g65
NtRp3075
(dp3076
g68
(dp3077
g88
g89
ssg77
g3071
sg70
(lp3078
g2268
asbag63
(g84
g65
NtRp3079
(dp3080
g68
(dp3081
g95
g96
ssg77
g3071
sg70
(lp3082
S':'
asbag63
(g84
g65
NtRp3083
(dp3084
g68
(dp3085
sg77
g3071
sg70
(lp3086
g63
(g64
g65
NtRp3087
(dp3088
g68
(dp3089
g76
I4
ssg77
g3083
sg70
(lp3090
g2281
asbasbasbag63
(g79
g65
NtRp3091
(dp3092
g68
(dp3093
sg77
g3027
sg70
(lp3094
g63
(g84
g65
NtRp3095
(dp3096
g68
(dp3097
g88
g89
ssg77
g3091
sg70
(lp3098
g2290
asbag63
(g84
g65
NtRp3099
(dp3100
g68
(dp3101
g95
g96
ssg77
g3091
sg70
(lp3102
S':'
asbag63
(g84
g65
NtRp3103
(dp3104
g68
(dp3105
sg77
g3091
sg70
(lp3106
g63
(g64
g65
NtRp3107
(dp3108
g68
(dp3109
g76
I4
ssg77
g3103
sg70
(lp3110
S''
asbasbasbag63
(g79
g65
NtRp3111
(dp3112
g68
(dp3113
sg77
g3027
sg70
(lp3114
g63
(g84
g65
NtRp3115
(dp3116
g68
(dp3117
g88
g89
ssg77
g3111
sg70
(lp3118
g2311
asbag63
(g84
g65
NtRp3119
(dp3120
g68
(dp3121
g95
g96
ssg77
g3111
sg70
(lp3122
S':'
asbag63
(g84
g65
NtRp3123
(dp3124
g68
(dp3125
sg77
g3111
sg70
(lp3126
g63
(g64
g65
NtRp3127
(dp3128
g68
(dp3129
g76
I4
ssg77
g3123
sg70
(lp3130
g2324
asbasbasbag63
(g79
g65
NtRp3131
(dp3132
g68
(dp3133
sg77
g3027
sg70
(lp3134
g63
(g84
g65
NtRp3135
(dp3136
g68
(dp3137
g88
g89
ssg77
g3131
sg70
(lp3138
g2333
asbag63
(g84
g65
NtRp3139
(dp3140
g68
(dp3141
g95
g96
ssg77
g3131
sg70
(lp3142
S':'
asbag63
(g84
g65
NtRp3143
(dp3144
g68
(dp3145
sg77
g3131
sg70
(lp3146
g63
(g64
g65
NtRp3147
(dp3148
g68
(dp3149
g76
I4
ssg77
g3143
sg70
(lp3150
g63
(g72
g65
NtRp3151
(dp3152
g68
(dp3153
g76
I3
ssg77
Nsg70
(lp3154
g63
(g79
g65
NtRp3155
(dp3156
g68
(dp3157
sg77
g3151
sg70
(lp3158
g63
(g84
g65
NtRp3159
(dp3160
g68
(dp3161
sg77
g3155
sg70
(lp3162
g63
(g64
g65
NtRp3163
(dp3164
g68
(dp3165
g76
I3
ssg77
g3159
sg70
(lp3166
g2362
asbasbasbag63
(g79
g65
NtRp3167
(dp3168
g68
(dp3169
sg77
g3151
sg70
(lp3170
g63
(g84
g65
NtRp3171
(dp3172
g68
(dp3173
sg77
g3167
sg70
(lp3174
g63
(g64
g65
NtRp3175
(dp3176
g68
(dp3177
g76
I3
ssg77
g3171
sg70
(lp3178
g2375
asbasbasbasbasbasbasbag63
(g79
g65
NtRp3179
(dp3180
g68
(dp3181
sg77
g3027
sg70
(lp3182
g63
(g84
g65
NtRp3183
(dp3184
g68
(dp3185
g88
g89
ssg77
g3179
sg70
(lp3186
g2384
asbag63
(g84
g65
NtRp3187
(dp3188
g68
(dp3189
g95
g96
ssg77
g3179
sg70
(lp3190
S':'
asbag63
(g84
g65
NtRp3191
(dp3192
g68
(dp3193
sg77
g3179
sg70
(lp3194
g63
(g64
g65
NtRp3195
(dp3196
g68
(dp3197
g76
I4
ssg77
g3191
sg70
(lp3198
S''
asbasbasbag63
(g79
g65
NtRp3199
(dp3200
g68
(dp3201
sg77
g3027
sg70
(lp3202
g63
(g84
g65
NtRp3203
(dp3204
g68
(dp3205
g88
g89
ssg77
g3199
sg70
(lp3206
g2405
asbag63
(g84
g65
NtRp3207
(dp3208
g68
(dp3209
g95
g96
ssg77
g3199
sg70
(lp3210
S':'
asbag63
(g84
g65
NtRp3211
(dp3212
g68
(dp3213
sg77
g3199
sg70
(lp3214
g63
(g64
g65
NtRp3215
(dp3216
g68
(dp3217
g76
I4
ssg77
g3211
sg70
(lp3218
g2418
asbasbasbag63
(g79
g65
NtRp3219
(dp3220
g68
(dp3221
sg77
g3027
sg70
(lp3222
g63
(g84
g65
NtRp3223
(dp3224
g68
(dp3225
g88
g89
ssg77
g3219
sg70
(lp3226
g2427
asbag63
(g84
g65
NtRp3227
(dp3228
g68
(dp3229
g95
g96
ssg77
g3219
sg70
(lp3230
S':'
asbag63
(g84
g65
NtRp3231
(dp3232
g68
(dp3233
sg77
g3219
sg70
(lp3234
g63
(g64
g65
NtRp3235
(dp3236
g68
(dp3237
g76
I4
ssg77
g3231
sg70
(lp3238
S''
asbasbasbag63
(g79
g65
NtRp3239
(dp3240
g68
(dp3241
sg77
g3027
sg70
(lp3242
g63
(g84
g65
NtRp3243
(dp3244
g68
(dp3245
g88
g89
ssg77
g3239
sg70
(lp3246
g2448
asbag63
(g84
g65
NtRp3247
(dp3248
g68
(dp3249
g95
g96
ssg77
g3239
sg70
(lp3250
S':'
asbag63
(g84
g65
NtRp3251
(dp3252
g68
(dp3253
sg77
g3239
sg70
(lp3254
g63
(g64
g65
NtRp3255
(dp3256
g68
(dp3257
g76
I4
ssg77
g3251
sg70
(lp3258
g63
(g72
g65
NtRp3259
(dp3260
g68
(dp3261
g76
I3
ssg77
Nsg70
(lp3262
g63
(g79
g65
NtRp3263
(dp3264
g68
(dp3265
sg77
g3259
sg70
(lp3266
g63
(g84
g65
NtRp3267
(dp3268
g68
(dp3269
sg77
g3263
sg70
(lp3270
g63
(g64
g65
NtRp3271
(dp3272
g68
(dp3273
g76
I3
ssg77
g3267
sg70
(lp3274
g2477
asbasbasbag63
(g79
g65
NtRp3275
(dp3276
g68
(dp3277
sg77
g3259
sg70
(lp3278
g63
(g84
g65
NtRp3279
(dp3280
g68
(dp3281
sg77
g3275
sg70
(lp3282
g63
(g64
g65
NtRp3283
(dp3284
g68
(dp3285
g76
I3
ssg77
g3279
sg70
(lp3286
g2490
asbasbasbasbasbasbasbag63
(g79
g65
NtRp3287
(dp3288
g68
(dp3289
sg77
g3027
sg70
(lp3290
g63
(g84
g65
NtRp3291
(dp3292
g68
(dp3293
g88
g89
ssg77
g3287
sg70
(lp3294
g2499
asbag63
(g84
g65
NtRp3295
(dp3296
g68
(dp3297
g95
g96
ssg77
g3287
sg70
(lp3298
S':'
asbag63
(g84
g65
NtRp3299
(dp3300
g68
(dp3301
sg77
g3287
sg70
(lp3302
g63
(g64
g65
NtRp3303
(dp3304
g68
(dp3305
g76
I4
ssg77
g3299
sg70
(lp3306
S''
asbasbasbasbasbasbasbag63
(g79
g65
NtRp3307
(dp3308
g68
(dp3309
sg77
g73
sg70
(lp3310
g63
(g84
g65
NtRp3311
(dp3312
g68
(dp3313
g88
g89
ssg77
g3307
sg70
(lp3314
S'wsgi'
p3315
asbag63
(g84
g65
NtRp3316
(dp3317
g68
(dp3318
g95
g96
ssg77
g3307
sg70
(lp3319
S':'
asbag63
(g84
g65
NtRp3320
(dp3321
g68
(dp3322
sg77
g3307
sg70
(lp3323
g63
(g64
g65
NtRp3324
(dp3325
g68
(dp3326
g76
I5
ssg77
g3320
sg70
(lp3327
g63
(g72
g65
NtRp3328
(dp3329
g68
(dp3330
g76
I4
ssg77
Nsg70
(lp3331
g63
(g79
g65
NtRp3332
(dp3333
g68
(dp3334
sg77
g3328
sg70
(lp3335
g63
(g84
g65
NtRp3336
(dp3337
g68
(dp3338
g88
g89
ssg77
g3332
sg70
(lp3339
S'environ'
p3340
asbag63
(g84
g65
NtRp3341
(dp3342
g68
(dp3343
g95
g96
ssg77
g3332
sg70
(lp3344
S':'
asbag63
(g84
g65
NtRp3345
(dp3346
g68
(dp3347
sg77
g3332
sg70
(lp3348
g63
(g64
g65
NtRp3349
(dp3350
g68
(dp3351
g76
I4
ssg77
g3345
sg70
(lp3352
g63
(g72
g65
NtRp3353
(dp3354
g68
(dp3355
g76
I3
ssg77
Nsg70
(lp3356
g63
(g79
g65
NtRp3357
(dp3358
g68
(dp3359
sg77
g3353
sg70
(lp3360
g63
(g84
g65
NtRp3361
(dp3362
g68
(dp3363
g88
g89
ssg77
g3357
sg70
(lp3364
S'HTTP_ACCEPT'
p3365
asbag63
(g84
g65
NtRp3366
(dp3367
g68
(dp3368
g95
g96
ssg77
g3357
sg70
(lp3369
S':'
asbag63
(g84
g65
NtRp3370
(dp3371
g68
(dp3372
sg77
g3357
sg70
(lp3373
g63
(g64
g65
NtRp3374
(dp3375
g68
(dp3376
g76
I3
ssg77
g3370
sg70
(lp3377
g1379
asbasbasbag63
(g79
g65
NtRp3378
(dp3379
g68
(dp3380
sg77
g3353
sg70
(lp3381
g63
(g84
g65
NtRp3382
(dp3383
g68
(dp3384
g88
g89
ssg77
g3378
sg70
(lp3385
S'HTTP_ACCEPT_ENCODING'
p3386
asbag63
(g84
g65
NtRp3387
(dp3388
g68
(dp3389
g95
g96
ssg77
g3378
sg70
(lp3390
S':'
asbag63
(g84
g65
NtRp3391
(dp3392
g68
(dp3393
sg77
g3378
sg70
(lp3394
g63
(g64
g65
NtRp3395
(dp3396
g68
(dp3397
g76
I3
ssg77
g3391
sg70
(lp3398
g1401
asbasbasbag63
(g79
g65
NtRp3399
(dp3400
g68
(dp3401
sg77
g3353
sg70
(lp3402
g63
(g84
g65
NtRp3403
(dp3404
g68
(dp3405
g88
g89
ssg77
g3399
sg70
(lp3406
S'HTTP_ACCEPT_LANGUAGE'
p3407
asbag63
(g84
g65
NtRp3408
(dp3409
g68
(dp3410
g95
g96
ssg77
g3399
sg70
(lp3411
S':'
asbag63
(g84
g65
NtRp3412
(dp3413
g68
(dp3414
sg77
g3399
sg70
(lp3415
g63
(g64
g65
NtRp3416
(dp3417
g68
(dp3418
g76
I3
ssg77
g3412
sg70
(lp3419
g1423
asbasbasbag63
(g79
g65
NtRp3420
(dp3421
g68
(dp3422
sg77
g3353
sg70
(lp3423
g63
(g84
g65
NtRp3424
(dp3425
g68
(dp3426
g88
g89
ssg77
g3420
sg70
(lp3427
S'HTTP_CONNECTION'
p3428
asbag63
(g84
g65
NtRp3429
(dp3430
g68
(dp3431
g95
g96
ssg77
g3420
sg70
(lp3432
S':'
asbag63
(g84
g65
NtRp3433
(dp3434
g68
(dp3435
sg77
g3420
sg70
(lp3436
g63
(g64
g65
NtRp3437
(dp3438
g68
(dp3439
g76
I3
ssg77
g3433
sg70
(lp3440
g1445
asbasbasbag63
(g79
g65
NtRp3441
(dp3442
g68
(dp3443
sg77
g3353
sg70
(lp3444
g63
(g84
g65
NtRp3445
(dp3446
g68
(dp3447
g88
g89
ssg77
g3441
sg70
(lp3448
S'HTTP_COOKIE'
p3449
asbag63
(g84
g65
NtRp3450
(dp3451
g68
(dp3452
g95
g96
ssg77
g3441
sg70
(lp3453
S':'
asbag63
(g84
g65
NtRp3454
(dp3455
g68
(dp3456
sg77
g3441
sg70
(lp3457
g63
(g64
g65
NtRp3458
(dp3459
g68
(dp3460
g76
I3
ssg77
g3454
sg70
(lp3461
g1467
asbasbasbag63
(g79
g65
NtRp3462
(dp3463
g68
(dp3464
sg77
g3353
sg70
(lp3465
g63
(g84
g65
NtRp3466
(dp3467
g68
(dp3468
g88
g89
ssg77
g3462
sg70
(lp3469
S'HTTP_HOST'
p3470
asbag63
(g84
g65
NtRp3471
(dp3472
g68
(dp3473
g95
g96
ssg77
g3462
sg70
(lp3474
S':'
asbag63
(g84
g65
NtRp3475
(dp3476
g68
(dp3477
sg77
g3462
sg70
(lp3478
g63
(g64
g65
NtRp3479
(dp3480
g68
(dp3481
g76
I3
ssg77
g3475
sg70
(lp3482
g1489
asbasbasbag63
(g79
g65
NtRp3483
(dp3484
g68
(dp3485
sg77
g3353
sg70
(lp3486
g63
(g84
g65
NtRp3487
(dp3488
g68
(dp3489
g88
g89
ssg77
g3483
sg70
(lp3490
S'HTTP_REFERER'
p3491
asbag63
(g84
g65
NtRp3492
(dp3493
g68
(dp3494
g95
g96
ssg77
g3483
sg70
(lp3495
S':'
asbag63
(g84
g65
NtRp3496
(dp3497
g68
(dp3498
sg77
g3483
sg70
(lp3499
g63
(g64
g65
NtRp3500
(dp3501
g68
(dp3502
g76
I3
ssg77
g3496
sg70
(lp3503
g1511
asbasbasbag63
(g79
g65
NtRp3504
(dp3505
g68
(dp3506
sg77
g3353
sg70
(lp3507
g63
(g84
g65
NtRp3508
(dp3509
g68
(dp3510
g88
g89
ssg77
g3504
sg70
(lp3511
S'HTTP_USER_AGENT'
p3512
asbag63
(g84
g65
NtRp3513
(dp3514
g68
(dp3515
g95
g96
ssg77
g3504
sg70
(lp3516
S':'
asbag63
(g84
g65
NtRp3517
(dp3518
g68
(dp3519
sg77
g3504
sg70
(lp3520
g63
(g64
g65
NtRp3521
(dp3522
g68
(dp3523
g76
I3
ssg77
g3517
sg70
(lp3524
g1533
asbasbasbag63
(g79
g65
NtRp3525
(dp3526
g68
(dp3527
sg77
g3353
sg70
(lp3528
g63
(g84
g65
NtRp3529
(dp3530
g68
(dp3531
g88
g89
ssg77
g3525
sg70
(lp3532
S'PATH_INFO'
p3533
asbag63
(g84
g65
NtRp3534
(dp3535
g68
(dp3536
g95
g96
ssg77
g3525
sg70
(lp3537
S':'
asbag63
(g84
g65
NtRp3538
(dp3539
g68
(dp3540
sg77
g3525
sg70
(lp3541
g63
(g64
g65
NtRp3542
(dp3543
g68
(dp3544
g76
I3
ssg77
g3538
sg70
(lp3545
g1597
asbasbasbag63
(g79
g65
NtRp3546
(dp3547
g68
(dp3548
sg77
g3353
sg70
(lp3549
g63
(g84
g65
NtRp3550
(dp3551
g68
(dp3552
g88
g89
ssg77
g3546
sg70
(lp3553
S'QUERY_STRING'
p3554
asbag63
(g84
g65
NtRp3555
(dp3556
g68
(dp3557
g95
g96
ssg77
g3546
sg70
(lp3558
S':'
asbag63
(g84
g65
NtRp3559
(dp3560
g68
(dp3561
sg77
g3546
sg70
(lp3562
g63
(g64
g65
NtRp3563
(dp3564
g68
(dp3565
g76
I3
ssg77
g3559
sg70
(lp3566
g1619
asbasbasbag63
(g79
g65
NtRp3567
(dp3568
g68
(dp3569
sg77
g3353
sg70
(lp3570
g63
(g84
g65
NtRp3571
(dp3572
g68
(dp3573
g88
g89
ssg77
g3567
sg70
(lp3574
S'REMOTE_ADDR'
p3575
asbag63
(g84
g65
NtRp3576
(dp3577
g68
(dp3578
g95
g96
ssg77
g3567
sg70
(lp3579
S':'
asbag63
(g84
g65
NtRp3580
(dp3581
g68
(dp3582
sg77
g3567
sg70
(lp3583
g63
(g64
g65
NtRp3584
(dp3585
g68
(dp3586
g76
I3
ssg77
g3580
sg70
(lp3587
g196
asbasbasbag63
(g79
g65
NtRp3588
(dp3589
g68
(dp3590
sg77
g3353
sg70
(lp3591
g63
(g84
g65
NtRp3592
(dp3593
g68
(dp3594
g88
g89
ssg77
g3588
sg70
(lp3595
S'REMOTE_PORT'
p3596
asbag63
(g84
g65
NtRp3597
(dp3598
g68
(dp3599
g95
g96
ssg77
g3588
sg70
(lp3600
S':'
asbag63
(g84
g65
NtRp3601
(dp3602
g68
(dp3603
sg77
g3588
sg70
(lp3604
g63
(g64
g65
NtRp3605
(dp3606
g68
(dp3607
g76
I3
ssg77
g3601
sg70
(lp3608
g1662
asbasbasbag63
(g79
g65
NtRp3609
(dp3610
g68
(dp3611
sg77
g3353
sg70
(lp3612
g63
(g84
g65
NtRp3613
(dp3614
g68
(dp3615
g88
g89
ssg77
g3609
sg70
(lp3616
S'REQUEST_METHOD'
p3617
asbag63
(g84
g65
NtRp3618
(dp3619
g68
(dp3620
g95
g96
ssg77
g3609
sg70
(lp3621
S':'
asbag63
(g84
g65
NtRp3622
(dp3623
g68
(dp3624
sg77
g3609
sg70
(lp3625
g63
(g64
g65
NtRp3626
(dp3627
g68
(dp3628
g76
I3
ssg77
g3622
sg70
(lp3629
g1684
asbasbasbag63
(g79
g65
NtRp3630
(dp3631
g68
(dp3632
sg77
g3353
sg70
(lp3633
g63
(g84
g65
NtRp3634
(dp3635
g68
(dp3636
g88
g89
ssg77
g3630
sg70
(lp3637
S'SCRIPT_NAME'
p3638
asbag63
(g84
g65
NtRp3639
(dp3640
g68
(dp3641
g95
g96
ssg77
g3630
sg70
(lp3642
S':'
asbag63
(g84
g65
NtRp3643
(dp3644
g68
(dp3645
sg77
g3630
sg70
(lp3646
g63
(g64
g65
NtRp3647
(dp3648
g68
(dp3649
g76
I3
ssg77
g3643
sg70
(lp3650
S''
asbasbasbag63
(g79
g65
NtRp3651
(dp3652
g68
(dp3653
sg77
g3353
sg70
(lp3654
g63
(g84
g65
NtRp3655
(dp3656
g68
(dp3657
g88
g89
ssg77
g3651
sg70
(lp3658
S'SERVER_NAME'
p3659
asbag63
(g84
g65
NtRp3660
(dp3661
g68
(dp3662
g95
g96
ssg77
g3651
sg70
(lp3663
S':'
asbag63
(g84
g65
NtRp3664
(dp3665
g68
(dp3666
sg77
g3651
sg70
(lp3667
g63
(g64
g65
NtRp3668
(dp3669
g68
(dp3670
g76
I3
ssg77
g3664
sg70
(lp3671
g1727
asbasbasbag63
(g79
g65
NtRp3672
(dp3673
g68
(dp3674
sg77
g3353
sg70
(lp3675
g63
(g84
g65
NtRp3676
(dp3677
g68
(dp3678
g88
g89
ssg77
g3672
sg70
(lp3679
S'SERVER_PORT'
p3680
asbag63
(g84
g65
NtRp3681
(dp3682
g68
(dp3683
g95
g96
ssg77
g3672
sg70
(lp3684
S':'
asbag63
(g84
g65
NtRp3685
(dp3686
g68
(dp3687
sg77
g3672
sg70
(lp3688
g63
(g64
g65
NtRp3689
(dp3690
g68
(dp3691
g76
I3
ssg77
g3685
sg70
(lp3692
g1749
asbasbasbag63
(g79
g65
NtRp3693
(dp3694
g68
(dp3695
sg77
g3353
sg70
(lp3696
g63
(g84
g65
NtRp3697
(dp3698
g68
(dp3699
g88
g89
ssg77
g3693
sg70
(lp3700
S'SERVER_PROTOCOL'
p3701
asbag63
(g84
g65
NtRp3702
(dp3703
g68
(dp3704
g95
g96
ssg77
g3693
sg70
(lp3705
S':'
asbag63
(g84
g65
NtRp3706
(dp3707
g68
(dp3708
sg77
g3693
sg70
(lp3709
g63
(g64
g65
NtRp3710
(dp3711
g68
(dp3712
g76
I3
ssg77
g3706
sg70
(lp3713
g1771
asbasbasbag63
(g79
g65
NtRp3714
(dp3715
g68
(dp3716
sg77
g3353
sg70
(lp3717
g63
(g84
g65
NtRp3718
(dp3719
g68
(dp3720
g88
g89
ssg77
g3714
sg70
(lp3721
S'SERVER_SOFTWARE'
p3722
asbag63
(g84
g65
NtRp3723
(dp3724
g68
(dp3725
g95
g96
ssg77
g3714
sg70
(lp3726
S':'
asbag63
(g84
g65
NtRp3727
(dp3728
g68
(dp3729
sg77
g3714
sg70
(lp3730
g63
(g64
g65
NtRp3731
(dp3732
g68
(dp3733
g76
I3
ssg77
g3727
sg70
(lp3734
g1793
asbasbasbag63
(g79
g65
NtRp3735
(dp3736
g68
(dp3737
sg77
g3353
sg70
(lp3738
g63
(g84
g65
NtRp3739
(dp3740
g68
(dp3741
g88
g89
ssg77
g3735
sg70
(lp3742
S'wsgi.errors'
p3743
asbag63
(g84
g65
NtRp3744
(dp3745
g68
(dp3746
g95
g96
ssg77
g3735
sg70
(lp3747
S':'
asbag63
(g84
g65
NtRp3748
(dp3749
g68
(dp3750
sg77
g3735
sg70
(lp3751
g63
(g64
g65
NtRp3752
(dp3753
g68
(dp3754
g76
I3
ssg77
g3748
sg70
(lp3755
S"<open file '<stderr>', mode 'w' at 0x00A550D0>"
p3756
asbasbasbag63
(g79
g65
NtRp3757
(dp3758
g68
(dp3759
sg77
g3353
sg70
(lp3760
g63
(g84
g65
NtRp3761
(dp3762
g68
(dp3763
g88
g89
ssg77
g3757
sg70
(lp3764
S'wsgi.file_wrapper'
p3765
asbag63
(g84
g65
NtRp3766
(dp3767
g68
(dp3768
g95
g96
ssg77
g3757
sg70
(lp3769
S':'
asbag63
(g84
g65
NtRp3770
(dp3771
g68
(dp3772
sg77
g3757
sg70
(lp3773
g63
(g64
g65
NtRp3774
(dp3775
g68
(dp3776
g76
I3
ssg77
g3770
sg70
(lp3777
S'<class wsgiref.util.FileWrapper at 0x015E8AB0>'
p3778
asbasbasbag63
(g79
g65
NtRp3779
(dp3780
g68
(dp3781
sg77
g3353
sg70
(lp3782
g63
(g84
g65
NtRp3783
(dp3784
g68
(dp3785
g88
g89
ssg77
g3779
sg70
(lp3786
S'wsgi.input'
p3787
asbag63
(g84
g65
NtRp3788
(dp3789
g68
(dp3790
g95
g96
ssg77
g3779
sg70
(lp3791
S':'
asbag63
(g84
g65
NtRp3792
(dp3793
g68
(dp3794
sg77
g3779
sg70
(lp3795
g63
(g64
g65
NtRp3796
(dp3797
g68
(dp3798
g76
I3
ssg77
g3792
sg70
(lp3799
S'<cStringIO.StringO object at 0x05C4DC20>'
p3800
asbasbasbag63
(g79
g65
NtRp3801
(dp3802
g68
(dp3803
sg77
g3353
sg70
(lp3804
g63
(g84
g65
NtRp3805
(dp3806
g68
(dp3807
g88
g89
ssg77
g3801
sg70
(lp3808
S'wsgi.multiprocess'
p3809
asbag63
(g84
g65
NtRp3810
(dp3811
g68
(dp3812
g95
g96
ssg77
g3801
sg70
(lp3813
S':'
asbag63
(g84
g65
NtRp3814
(dp3815
g68
(dp3816
sg77
g3801
sg70
(lp3817
g63
(g64
g65
NtRp3818
(dp3819
g68
(dp3820
g76
I3
ssg77
g3814
sg70
(lp3821
g106
asbasbasbag63
(g79
g65
NtRp3822
(dp3823
g68
(dp3824
sg77
g3353
sg70
(lp3825
g63
(g84
g65
NtRp3826
(dp3827
g68
(dp3828
g88
g89
ssg77
g3822
sg70
(lp3829
S'wsgi.multithread'
p3830
asbag63
(g84
g65
NtRp3831
(dp3832
g68
(dp3833
g95
g96
ssg77
g3822
sg70
(lp3834
S':'
asbag63
(g84
g65
NtRp3835
(dp3836
g68
(dp3837
sg77
g3822
sg70
(lp3838
g63
(g64
g65
NtRp3839
(dp3840
g68
(dp3841
g76
I3
ssg77
g3835
sg70
(lp3842
g2033
asbasbasbag63
(g79
g65
NtRp3843
(dp3844
g68
(dp3845
sg77
g3353
sg70
(lp3846
g63
(g84
g65
NtRp3847
(dp3848
g68
(dp3849
g88
g89
ssg77
g3843
sg70
(lp3850
S'wsgi.run_once'
p3851
asbag63
(g84
g65
NtRp3852
(dp3853
g68
(dp3854
g95
g96
ssg77
g3843
sg70
(lp3855
S':'
asbag63
(g84
g65
NtRp3856
(dp3857
g68
(dp3858
sg77
g3843
sg70
(lp3859
g63
(g64
g65
NtRp3860
(dp3861
g68
(dp3862
g76
I3
ssg77
g3856
sg70
(lp3863
g106
asbasbasbag63
(g79
g65
NtRp3864
(dp3865
g68
(dp3866
sg77
g3353
sg70
(lp3867
g63
(g84
g65
NtRp3868
(dp3869
g68
(dp3870
g88
g89
ssg77
g3864
sg70
(lp3871
S'wsgi.url_scheme'
p3872
asbag63
(g84
g65
NtRp3873
(dp3874
g68
(dp3875
g95
g96
ssg77
g3864
sg70
(lp3876
S':'
asbag63
(g84
g65
NtRp3877
(dp3878
g68
(dp3879
sg77
g3864
sg70
(lp3880
g63
(g64
g65
NtRp3881
(dp3882
g68
(dp3883
g76
I3
ssg77
g3877
sg70
(lp3884
g2076
asbasbasbag63
(g79
g65
NtRp3885
(dp3886
g68
(dp3887
sg77
g3353
sg70
(lp3888
g63
(g84
g65
NtRp3889
(dp3890
g68
(dp3891
g88
g89
ssg77
g3885
sg70
(lp3892
S'wsgi.version'
p3893
asbag63
(g84
g65
NtRp3894
(dp3895
g68
(dp3896
g95
g96
ssg77
g3885
sg70
(lp3897
S':'
asbag63
(g84
g65
NtRp3898
(dp3899
g68
(dp3900
sg77
g3885
sg70
(lp3901
g63
(g64
g65
NtRp3902
(dp3903
g68
(dp3904
g76
I3
ssg77
g3898
sg70
(lp3905
S'1'
asbasbasbasbasbasbasbasbasbasbasbasbasbsS'frames'
p3906
(lp3907
(dp3908
S'file'
p3909
S'C:\\Documents and Settings\\agrover\\Desktop\\previous crawler\\web2py\\gluon\\restricted.py'
p3910
sS'dump'
p3911
(dp3912
S'environment'
p3913
S"{'A': <class 'gluon.html.A'>, 'Auth': <class 'gluon.tools.Auth'>, 'B': <class 'gluon.html.B'>, 'BEAUTIFY': <class 'gluon.html.BEAUTIFY'>, 'BODY': <class 'gluon.html.BODY'>, 'BR': <class 'gluon.html.BR'>, 'BUTTON': <class 'gluon.html.BUTTON'>, 'CAT': <class 'gluon.html.CAT'>, 'CENTER': <class 'gluon.html.CENTER'>, 'CLEANUP': <class 'gluon.validators.CLEANUP'>, ...}"
p3914
sS'ccode'
p3915
S'<code object <module> at 058EEA88, file "C:\\Docu...tions\\mycrawler\\controllers/default.py", line 11>'
p3916
ssS'lnum'
p3917
I205
sS'lines'
p3918
(dp3919
I200
S'    try:'
p3920
sI201
S'        if type(code) == types.CodeType:'
p3921
sI202
S'            ccode = code'
p3922
sI203
S'        else:'
p3923
sI204
S'            ccode = compile2(code,layer)'
p3924
sI205
S'        exec ccode in environment'
p3925
sI206
S'    except HTTP:'
p3926
sI207
S'        raise'
p3927
sI208
S'    except RestrictedError:'
p3928
sI209
S'        # do not encapsulate (obfuscate) the original RestrictedError'
p3929
ssS'call'
p3930
S"(code='# -*- coding: utf-8 -*-\\n# this file is released ...urrent)\\n\\nresponse._vars=response._caller(search)\\n', environment={'A': <class 'gluon.html.A'>, 'Auth': <class 'gluon.tools.Auth'>, 'B': <class 'gluon.html.B'>, 'BEAUTIFY': <class 'gluon.html.BEAUTIFY'>, 'BODY': <class 'gluon.html.BODY'>, 'BR': <class 'gluon.html.BR'>, 'BUTTON': <class 'gluon.html.BUTTON'>, 'CAT': <class 'gluon.html.CAT'>, 'CENTER': <class 'gluon.html.CENTER'>, 'CLEANUP': <class 'gluon.validators.CLEANUP'>, ...}, layer=r'C:\\Documents and Settings\\agrover\\Desktop\\previo...2py\\applications\\mycrawler\\controllers/default.py')"
p3931
sS'func'
p3932
S'restricted'
p3933
sa(dp3934
g3909
S'C:\\Documents and Settings\\agrover\\Desktop\\previous crawler\\web2py\\applications\\mycrawler\\controllers\\default.py'
p3935
sg3911
(dp3936
sg3917
I374
sg3918
(dp3937
I363
S"    #response.headers['Content-Type'] = 'text/csv'"
p3938
sI364
S"    #response.headers['Content-Disposition'] = 'attachment; filename=%s' % request.vars.File_Name"
p3939
sI365
S''
sI366
S'    #print view_profile'
p3940
sI367
S'    #print name'
p3941
sI368
S'    #print location'
p3942
sI369
S'    #print industry'
p3943
sI370
S'    #print titl'
p3944
sI371
S''
sI372
S'    return dict(view_profile=view_profile,name=name,location=location,industry=industry,titl=titl,current=current)'
p3945
ssg3930
S'()'
p3946
sg3932
S'<module>'
p3947
sa(dp3948
g3909
S'C:\\Documents and Settings\\agrover\\Desktop\\previous crawler\\web2py\\gluon\\globals.py'
p3949
sg3911
(dp3950
S'self'
p3951
S'undefined'
p3952
sS'f'
S'<function search>'
p3953
ssg3917
I173
sg3918
(dp3954
I168
S'        self.menu = []             # used by the default view layout'
p3955
sI169
S'        self.files = []            # used by web2py_ajax.html'
p3956
sI170
S'        self.generic_patterns = [] # patterns to allow generic views'
p3957
sI171
S"        self.delimiters = ('{{','}}')"
p3958
sI172
S'        self._vars = None'
p3959
sI173
S'        self._caller = lambda f: f()'
p3960
sI174
S'        self._view_environment = None'
p3961
sI175
S'        self._custom_commit = None'
p3962
sI176
S'        self._custom_rollback = None'
p3963
sI177
S''
ssg3930
S'(f=<function search>)'
p3964
sg3932
S'<lambda>'
p3965
sa(dp3966
g3909
S'C:\\Documents and Settings\\agrover\\Desktop\\previous crawler\\web2py\\applications\\mycrawler\\controllers\\default.py'
p3967
sg3911
(dp3968
sg3917
I260
sg3918
(dp3969
I256
S'    #flag to make sure we get entries on 1st page'
p3970
sI257
S'    flag=1'
p3971
sI258
S''
sI259
S'    #writing into file with given filename'
p3972
sI260
S"    spamWriter = csv.writer(open(request.vars.File_Name+'.csv', 'wb'), delimiter=',')"
p3973
sI261
S'    soup = BeautifulSoup(br.response().read())'
p3974
sI262
S"    spamWriter.writerow(['NAME','JOB-TITLE','Current','LOCATION','INDUSTRY','PROFLE-URL'])"
p3975
sI263
S''
sI264
S'    #scans till there is a link to "next page"'
p3976
sI255
S''
ssg3930
S'()'
p3977
sg3932
S'search'
p3978
sasS'pyver'
p3979
S'Python 2.7.3: C:\\Python27\\python.exe'
p3980
sS'session'
p3981
g63
(g64
g65
NtRp3982
(dp3983
g68
(dp3984
sg70
(lp3985
g63
(g72
g65
NtRp3986
(dp3987
g68
(dp3988
g76
I5
ssg77
Nsg70
(lp3989
g63
(g79
g65
NtRp3990
(dp3991
g68
(dp3992
sg77
g3986
sg70
(lp3993
g63
(g84
g65
NtRp3994
(dp3995
g68
(dp3996
g88
g89
ssg77
g3990
sg70
(lp3997
S'last_query'
p3998
asbag63
(g84
g65
NtRp3999
(dp4000
g68
(dp4001
g95
g96
ssg77
g3990
sg70
(lp4002
S':'
asbag63
(g84
g65
NtRp4003
(dp4004
g68
(dp4005
sg77
g3990
sg70
(lp4006
g63
(g64
g65
NtRp4007
(dp4008
g68
(dp4009
g76
I5
ssg77
g4003
sg70
(lp4010
S'db.auth_user.id>0'
p4011
asbasbasbasbasbsS'etype'
p4012
S"<type 'exceptions.IOError'>"
p4013
sS'date'
p4014
S'Mon Jun 11 16:32:04 2012'
p4015
sS'response'
p4016
g63
(g64
g65
NtRp4017
(dp4018
g68
(dp4019
sg70
(lp4020
g63
(g72
g65
NtRp4021
(dp4022
g68
(dp4023
g76
I5
ssg77
Nsg70
(lp4024
g63
(g79
g65
NtRp4025
(dp4026
g68
(dp4027
sg77
g4021
sg70
(lp4028
g63
(g84
g65
NtRp4029
(dp4030
g68
(dp4031
g88
g89
ssg77
g4025
sg70
(lp4032
g161
asbag63
(g84
g65
NtRp4033
(dp4034
g68
(dp4035
g95
g96
ssg77
g4025
sg70
(lp4036
S':'
asbag63
(g84
g65
NtRp4037
(dp4038
g68
(dp4039
sg77
g4025
sg70
(lp4040
g63
(g64
g65
NtRp4041
(dp4042
g68
(dp4043
g76
I5
ssg77
g4037
sg70
(lp4044
S'<cStringIO.StringO object at 0x05D802C0>'
p4045
asbasbasbag63
(g79
g65
NtRp4046
(dp4047
g68
(dp4048
sg77
g4021
sg70
(lp4049
g63
(g84
g65
NtRp4050
(dp4051
g68
(dp4052
g88
g89
ssg77
g4046
sg70
(lp4053
g227
asbag63
(g84
g65
NtRp4054
(dp4055
g68
(dp4056
g95
g96
ssg77
g4046
sg70
(lp4057
S':'
asbag63
(g84
g65
NtRp4058
(dp4059
g68
(dp4060
sg77
g4046
sg70
(lp4061
g63
(g64
g65
NtRp4062
(dp4063
g68
(dp4064
g76
I5
ssg77
g4058
sg70
(lp4065
g63
(g72
g65
NtRp4066
(dp4067
g68
(dp4068
g76
I4
ssg77
Nsg70
(lp4069
g63
(g79
g65
NtRp4070
(dp4071
g68
(dp4072
sg77
g4066
sg70
(lp4073
g63
(g84
g65
NtRp4074
(dp4075
g68
(dp4076
g88
g89
ssg77
g4070
sg70
(lp4077
S'session_id_mycrawler'
p4078
asbag63
(g84
g65
NtRp4079
(dp4080
g68
(dp4081
g95
g96
ssg77
g4070
sg70
(lp4082
S':'
asbag63
(g84
g65
NtRp4083
(dp4084
g68
(dp4085
sg77
g4070
sg70
(lp4086
g63
(g64
g65
NtRp4087
(dp4088
g68
(dp4089
g76
I4
ssg77
g4083
sg70
(lp4090
g63
(g72
g65
NtRp4091
(dp4092
g68
(dp4093
g76
I3
ssg77
Nsg70
(lp4094
g63
(g79
g65
NtRp4095
(dp4096
g68
(dp4097
sg77
g4091
sg70
(lp4098
g63
(g84
g65
NtRp4099
(dp4100
g68
(dp4101
g88
g89
ssg77
g4095
sg70
(lp4102
g277
asbag63
(g84
g65
NtRp4103
(dp4104
g68
(dp4105
g95
g96
ssg77
g4095
sg70
(lp4106
S':'
asbag63
(g84
g65
NtRp4107
(dp4108
g68
(dp4109
sg77
g4095
sg70
(lp4110
g63
(g64
g65
NtRp4111
(dp4112
g68
(dp4113
g76
I3
ssg77
g4107
sg70
(lp4114
S''
asbasbasbag63
(g79
g65
NtRp4115
(dp4116
g68
(dp4117
sg77
g4091
sg70
(lp4118
g63
(g84
g65
NtRp4119
(dp4120
g68
(dp4121
g88
g89
ssg77
g4115
sg70
(lp4122
g298
asbag63
(g84
g65
NtRp4123
(dp4124
g68
(dp4125
g95
g96
ssg77
g4115
sg70
(lp4126
S':'
asbag63
(g84
g65
NtRp4127
(dp4128
g68
(dp4129
sg77
g4115
sg70
(lp4130
g63
(g64
g65
NtRp4131
(dp4132
g68
(dp4133
g76
I3
ssg77
g4127
sg70
(lp4134
S''
asbasbasbag63
(g79
g65
NtRp4135
(dp4136
g68
(dp4137
sg77
g4091
sg70
(lp4138
g63
(g84
g65
NtRp4139
(dp4140
g68
(dp4141
g88
g89
ssg77
g4135
sg70
(lp4142
g319
asbag63
(g84
g65
NtRp4143
(dp4144
g68
(dp4145
g95
g96
ssg77
g4135
sg70
(lp4146
S':'
asbag63
(g84
g65
NtRp4147
(dp4148
g68
(dp4149
sg77
g4135
sg70
(lp4150
g63
(g64
g65
NtRp4151
(dp4152
g68
(dp4153
g76
I3
ssg77
g4147
sg70
(lp4154
S''
asbasbasbag63
(g79
g65
NtRp4155
(dp4156
g68
(dp4157
sg77
g4091
sg70
(lp4158
g63
(g84
g65
NtRp4159
(dp4160
g68
(dp4161
g88
g89
ssg77
g4155
sg70
(lp4162
g340
asbag63
(g84
g65
NtRp4163
(dp4164
g68
(dp4165
g95
g96
ssg77
g4155
sg70
(lp4166
S':'
asbag63
(g84
g65
NtRp4167
(dp4168
g68
(dp4169
sg77
g4155
sg70
(lp4170
g63
(g64
g65
NtRp4171
(dp4172
g68
(dp4173
g76
I3
ssg77
g4167
sg70
(lp4174
S''
asbasbasbag63
(g79
g65
NtRp4175
(dp4176
g68
(dp4177
sg77
g4091
sg70
(lp4178
g63
(g84
g65
NtRp4179
(dp4180
g68
(dp4181
g88
g89
ssg77
g4175
sg70
(lp4182
g361
asbag63
(g84
g65
NtRp4183
(dp4184
g68
(dp4185
g95
g96
ssg77
g4175
sg70
(lp4186
S':'
asbag63
(g84
g65
NtRp4187
(dp4188
g68
(dp4189
sg77
g4175
sg70
(lp4190
g63
(g64
g65
NtRp4191
(dp4192
g68
(dp4193
g76
I3
ssg77
g4187
sg70
(lp4194
S''
asbasbasbag63
(g79
g65
NtRp4195
(dp4196
g68
(dp4197
sg77
g4091
sg70
(lp4198
g63
(g84
g65
NtRp4199
(dp4200
g68
(dp4201
g88
g89
ssg77
g4195
sg70
(lp4202
g382
asbag63
(g84
g65
NtRp4203
(dp4204
g68
(dp4205
g95
g96
ssg77
g4195
sg70
(lp4206
S':'
asbag63
(g84
g65
NtRp4207
(dp4208
g68
(dp4209
sg77
g4195
sg70
(lp4210
g63
(g64
g65
NtRp4211
(dp4212
g68
(dp4213
g76
I3
ssg77
g4207
sg70
(lp4214
S'/'
asbasbasbag63
(g79
g65
NtRp4215
(dp4216
g68
(dp4217
sg77
g4091
sg70
(lp4218
g63
(g84
g65
NtRp4219
(dp4220
g68
(dp4221
g88
g89
ssg77
g4215
sg70
(lp4222
g403
asbag63
(g84
g65
NtRp4223
(dp4224
g68
(dp4225
g95
g96
ssg77
g4215
sg70
(lp4226
S':'
asbag63
(g84
g65
NtRp4227
(dp4228
g68
(dp4229
sg77
g4215
sg70
(lp4230
g63
(g64
g65
NtRp4231
(dp4232
g68
(dp4233
g76
I3
ssg77
g4227
sg70
(lp4234
S''
asbasbasbag63
(g79
g65
NtRp4235
(dp4236
g68
(dp4237
sg77
g4091
sg70
(lp4238
g63
(g84
g65
NtRp4239
(dp4240
g68
(dp4241
g88
g89
ssg77
g4235
sg70
(lp4242
g424
asbag63
(g84
g65
NtRp4243
(dp4244
g68
(dp4245
g95
g96
ssg77
g4235
sg70
(lp4246
S':'
asbag63
(g84
g65
NtRp4247
(dp4248
g68
(dp4249
sg77
g4235
sg70
(lp4250
g63
(g64
g65
NtRp4251
(dp4252
g68
(dp4253
g76
I3
ssg77
g4247
sg70
(lp4254
S''
asbasbasbasbasbasbasbasbasbasbasbag63
(g79
g65
NtRp4255
(dp4256
g68
(dp4257
sg77
g4021
sg70
(lp4258
g63
(g84
g65
NtRp4259
(dp4260
g68
(dp4261
g88
g89
ssg77
g4255
sg70
(lp4262
S'delimiters'
p4263
asbag63
(g84
g65
NtRp4264
(dp4265
g68
(dp4266
g95
g96
ssg77
g4255
sg70
(lp4267
S':'
asbag63
(g84
g65
NtRp4268
(dp4269
g68
(dp4270
sg77
g4255
sg70
(lp4271
g63
(g64
g65
NtRp4272
(dp4273
g68
(dp4274
g76
I5
ssg77
g4268
sg70
(lp4275
g63
(g72
g65
NtRp4276
(dp4277
g68
(dp4278
g76
I4
ssg77
Nsg70
(lp4279
g63
(g79
g65
NtRp4280
(dp4281
g68
(dp4282
sg77
g4276
sg70
(lp4283
g63
(g84
g65
NtRp4284
(dp4285
g68
(dp4286
sg77
g4280
sg70
(lp4287
g63
(g64
g65
NtRp4288
(dp4289
g68
(dp4290
g76
I4
ssg77
g4284
sg70
(lp4291
S'{{'
p4292
asbasbasbag63
(g79
g65
NtRp4293
(dp4294
g68
(dp4295
sg77
g4276
sg70
(lp4296
g63
(g84
g65
NtRp4297
(dp4298
g68
(dp4299
sg77
g4293
sg70
(lp4300
g63
(g64
g65
NtRp4301
(dp4302
g68
(dp4303
g76
I4
ssg77
g4297
sg70
(lp4304
S'}}'
p4305
asbasbasbasbasbasbasbag63
(g79
g65
NtRp4306
(dp4307
g68
(dp4308
sg77
g4021
sg70
(lp4309
g63
(g84
g65
NtRp4310
(dp4311
g68
(dp4312
g88
g89
ssg77
g4306
sg70
(lp4313
S'files'
p4314
asbag63
(g84
g65
NtRp4315
(dp4316
g68
(dp4317
g95
g96
ssg77
g4306
sg70
(lp4318
S':'
asbag63
(g84
g65
NtRp4319
(dp4320
g68
(dp4321
sg77
g4306
sg70
(lp4322
g63
(g64
g65
NtRp4323
(dp4324
g68
(dp4325
g76
I5
ssg77
g4319
sg70
(lp4326
g63
(g72
g65
NtRp4327
(dp4328
g68
(dp4329
g76
I4
ssg77
Nsg70
(lp4330
sbasbasbasbag63
(g79
g65
NtRp4331
(dp4332
g68
(dp4333
sg77
g4021
sg70
(lp4334
g63
(g84
g65
NtRp4335
(dp4336
g68
(dp4337
g88
g89
ssg77
g4331
sg70
(lp4338
S'flash'
p4339
asbag63
(g84
g65
NtRp4340
(dp4341
g68
(dp4342
g95
g96
ssg77
g4331
sg70
(lp4343
S':'
asbag63
(g84
g65
NtRp4344
(dp4345
g68
(dp4346
sg77
g4331
sg70
(lp4347
g63
(g64
g65
NtRp4348
(dp4349
g68
(dp4350
g76
I5
ssg77
g4344
sg70
(lp4351
S''
asbasbasbag63
(g79
g65
NtRp4352
(dp4353
g68
(dp4354
sg77
g4021
sg70
(lp4355
g63
(g84
g65
NtRp4356
(dp4357
g68
(dp4358
g88
g89
ssg77
g4352
sg70
(lp4359
S'generic_patterns'
p4360
asbag63
(g84
g65
NtRp4361
(dp4362
g68
(dp4363
g95
g96
ssg77
g4352
sg70
(lp4364
S':'
asbag63
(g84
g65
NtRp4365
(dp4366
g68
(dp4367
sg77
g4352
sg70
(lp4368
g63
(g64
g65
NtRp4369
(dp4370
g68
(dp4371
g76
I5
ssg77
g4365
sg70
(lp4372
g63
(g72
g65
NtRp4373
(dp4374
g68
(dp4375
g76
I4
ssg77
Nsg70
(lp4376
g63
(g79
g65
NtRp4377
(dp4378
g68
(dp4379
sg77
g4373
sg70
(lp4380
g63
(g84
g65
NtRp4381
(dp4382
g68
(dp4383
sg77
g4377
sg70
(lp4384
g63
(g64
g65
NtRp4385
(dp4386
g68
(dp4387
g76
I4
ssg77
g4381
sg70
(lp4388
S'*'
asbasbasbasbasbasbasbag63
(g79
g65
NtRp4389
(dp4390
g68
(dp4391
sg77
g4021
sg70
(lp4392
g63
(g84
g65
NtRp4393
(dp4394
g68
(dp4395
g88
g89
ssg77
g4389
sg70
(lp4396
S'headers'
p4397
asbag63
(g84
g65
NtRp4398
(dp4399
g68
(dp4400
g95
g96
ssg77
g4389
sg70
(lp4401
S':'
asbag63
(g84
g65
NtRp4402
(dp4403
g68
(dp4404
sg77
g4389
sg70
(lp4405
g63
(g64
g65
NtRp4406
(dp4407
g68
(dp4408
g76
I5
ssg77
g4402
sg70
(lp4409
g63
(g72
g65
NtRp4410
(dp4411
g68
(dp4412
g76
I4
ssg77
Nsg70
(lp4413
g63
(g79
g65
NtRp4414
(dp4415
g68
(dp4416
sg77
g4410
sg70
(lp4417
g63
(g84
g65
NtRp4418
(dp4419
g68
(dp4420
g88
g89
ssg77
g4414
sg70
(lp4421
S'Cache-Control'
p4422
asbag63
(g84
g65
NtRp4423
(dp4424
g68
(dp4425
g95
g96
ssg77
g4414
sg70
(lp4426
S':'
asbag63
(g84
g65
NtRp4427
(dp4428
g68
(dp4429
sg77
g4414
sg70
(lp4430
g63
(g64
g65
NtRp4431
(dp4432
g68
(dp4433
g76
I4
ssg77
g4427
sg70
(lp4434
S'no-store, no-cache, must-revalidate, post-check=0, pre-check=0'
p4435
asbasbasbag63
(g79
g65
NtRp4436
(dp4437
g68
(dp4438
sg77
g4410
sg70
(lp4439
g63
(g84
g65
NtRp4440
(dp4441
g68
(dp4442
g88
g89
ssg77
g4436
sg70
(lp4443
S'Content-Type'
p4444
asbag63
(g84
g65
NtRp4445
(dp4446
g68
(dp4447
g95
g96
ssg77
g4436
sg70
(lp4448
S':'
asbag63
(g84
g65
NtRp4449
(dp4450
g68
(dp4451
sg77
g4436
sg70
(lp4452
g63
(g64
g65
NtRp4453
(dp4454
g68
(dp4455
g76
I4
ssg77
g4449
sg70
(lp4456
S'text/html; charset=utf-8'
p4457
asbasbasbag63
(g79
g65
NtRp4458
(dp4459
g68
(dp4460
sg77
g4410
sg70
(lp4461
g63
(g84
g65
NtRp4462
(dp4463
g68
(dp4464
g88
g89
ssg77
g4458
sg70
(lp4465
S'Expires'
p4466
asbag63
(g84
g65
NtRp4467
(dp4468
g68
(dp4469
g95
g96
ssg77
g4458
sg70
(lp4470
S':'
asbag63
(g84
g65
NtRp4471
(dp4472
g68
(dp4473
sg77
g4458
sg70
(lp4474
g63
(g64
g65
NtRp4475
(dp4476
g68
(dp4477
g76
I4
ssg77
g4471
sg70
(lp4478
S'Mon, 11 Jun 2012 23:31:56 GMT'
p4479
asbasbasbag63
(g79
g65
NtRp4480
(dp4481
g68
(dp4482
sg77
g4410
sg70
(lp4483
g63
(g84
g65
NtRp4484
(dp4485
g68
(dp4486
g88
g89
ssg77
g4480
sg70
(lp4487
S'Pragma'
p4488
asbag63
(g84
g65
NtRp4489
(dp4490
g68
(dp4491
g95
g96
ssg77
g4480
sg70
(lp4492
S':'
asbag63
(g84
g65
NtRp4493
(dp4494
g68
(dp4495
sg77
g4480
sg70
(lp4496
g63
(g64
g65
NtRp4497
(dp4498
g68
(dp4499
g76
I4
ssg77
g4493
sg70
(lp4500
S'no-cache'
p4501
asbasbasbag63
(g79
g65
NtRp4502
(dp4503
g68
(dp4504
sg77
g4410
sg70
(lp4505
g63
(g84
g65
NtRp4506
(dp4507
g68
(dp4508
g88
g89
ssg77
g4502
sg70
(lp4509
S'X-Powered-By'
p4510
asbag63
(g84
g65
NtRp4511
(dp4512
g68
(dp4513
g95
g96
ssg77
g4502
sg70
(lp4514
S':'
asbag63
(g84
g65
NtRp4515
(dp4516
g68
(dp4517
sg77
g4502
sg70
(lp4518
g63
(g64
g65
NtRp4519
(dp4520
g68
(dp4521
g76
I4
ssg77
g4515
sg70
(lp4522
S'web2py'
p4523
asbasbasbasbasbasbasbag63
(g79
g65
NtRp4524
(dp4525
g68
(dp4526
sg77
g4021
sg70
(lp4527
g63
(g84
g65
NtRp4528
(dp4529
g68
(dp4530
g88
g89
ssg77
g4524
sg70
(lp4531
S'menu'
p4532
asbag63
(g84
g65
NtRp4533
(dp4534
g68
(dp4535
g95
g96
ssg77
g4524
sg70
(lp4536
S':'
asbag63
(g84
g65
NtRp4537
(dp4538
g68
(dp4539
sg77
g4524
sg70
(lp4540
g63
(g64
g65
NtRp4541
(dp4542
g68
(dp4543
g76
I5
ssg77
g4537
sg70
(lp4544
g63
(g72
g65
NtRp4545
(dp4546
g68
(dp4547
g76
I4
ssg77
Nsg70
(lp4548
g63
(g79
g65
NtRp4549
(dp4550
g68
(dp4551
sg77
g4545
sg70
(lp4552
g63
(g84
g65
NtRp4553
(dp4554
g68
(dp4555
sg77
g4549
sg70
(lp4556
g63
(g64
g65
NtRp4557
(dp4558
g68
(dp4559
g76
I4
ssg77
g4553
sg70
(lp4560
g63
(g72
g65
NtRp4561
(dp4562
g68
(dp4563
g76
I3
ssg77
Nsg70
(lp4564
g63
(g79
g65
NtRp4565
(dp4566
g68
(dp4567
sg77
g4561
sg70
(lp4568
g63
(g84
g65
NtRp4569
(dp4570
g68
(dp4571
sg77
g4565
sg70
(lp4572
g63
(g64
g65
NtRp4573
(dp4574
g68
(dp4575
g76
I3
ssg77
g4569
sg70
(lp4576
cgluon.languages
lazyT_unpickle
p4577
(S't\x04\x00\x00\x00Home'
tRp4578
asbasbasbag63
(g79
g65
NtRp4579
(dp4580
g68
(dp4581
sg77
g4561
sg70
(lp4582
g63
(g84
g65
NtRp4583
(dp4584
g68
(dp4585
sg77
g4579
sg70
(lp4586
g63
(g64
g65
NtRp4587
(dp4588
g68
(dp4589
g76
I3
ssg77
g4583
sg70
(lp4590
g106
asbasbasbag63
(g79
g65
NtRp4591
(dp4592
g68
(dp4593
sg77
g4561
sg70
(lp4594
g63
(g84
g65
NtRp4595
(dp4596
g68
(dp4597
sg77
g4591
sg70
(lp4598
g63
(g64
g65
NtRp4599
(dp4600
g68
(dp4601
g76
I3
ssg77
g4595
sg70
(lp4602
S'/mycrawler/default/index'
p4603
asbasbasbag63
(g79
g65
NtRp4604
(dp4605
g68
(dp4606
sg77
g4561
sg70
(lp4607
g63
(g84
g65
NtRp4608
(dp4609
g68
(dp4610
sg77
g4604
sg70
(lp4611
g63
(g64
g65
NtRp4612
(dp4613
g68
(dp4614
g76
I3
ssg77
g4608
sg70
(lp4615
g63
(g72
g65
NtRp4616
(dp4617
g68
(dp4618
g76
I2
ssg77
Nsg70
(lp4619
sbasbasbasbasbasbasbasbag63
(g79
g65
NtRp4620
(dp4621
g68
(dp4622
sg77
g4545
sg70
(lp4623
g63
(g84
g65
NtRp4624
(dp4625
g68
(dp4626
sg77
g4620
sg70
(lp4627
g63
(g64
g65
NtRp4628
(dp4629
g68
(dp4630
g76
I4
ssg77
g4624
sg70
(lp4631
g63
(g72
g65
NtRp4632
(dp4633
g68
(dp4634
g76
I3
ssg77
Nsg70
(lp4635
g63
(g79
g65
NtRp4636
(dp4637
g68
(dp4638
sg77
g4632
sg70
(lp4639
g63
(g84
g65
NtRp4640
(dp4641
g68
(dp4642
sg77
g4636
sg70
(lp4643
g63
(g64
g65
NtRp4644
(dp4645
g68
(dp4646
g76
I3
ssg77
g4640
sg70
(lp4647
g63
(cgluon.html
SPAN
p4648
g65
NtRp4649
(dp4650
g68
(dp4651
g88
S'color:yellow'
p4652
ssg77
Nsg70
(lp4653
g4523
asbasbasbasbag63
(g79
g65
NtRp4654
(dp4655
g68
(dp4656
sg77
g4632
sg70
(lp4657
g63
(g84
g65
NtRp4658
(dp4659
g68
(dp4660
sg77
g4654
sg70
(lp4661
g63
(g64
g65
NtRp4662
(dp4663
g68
(dp4664
g76
I3
ssg77
g4658
sg70
(lp4665
g106
asbasbasbag63
(g79
g65
NtRp4666
(dp4667
g68
(dp4668
sg77
g4632
sg70
(lp4669
g63
(g84
g65
NtRp4670
(dp4671
g68
(dp4672
sg77
g4666
sg70
(lp4673
g63
(g64
g65
NtRp4674
(dp4675
g68
(dp4676
g76
I3
ssg77
g4670
sg70
(lp4677
S'None'
p4678
asbasbasbag63
(g79
g65
NtRp4679
(dp4680
g68
(dp4681
sg77
g4632
sg70
(lp4682
g63
(g84
g65
NtRp4683
(dp4684
g68
(dp4685
sg77
g4679
sg70
(lp4686
g63
(g64
g65
NtRp4687
(dp4688
g68
(dp4689
g76
I3
ssg77
g4683
sg70
(lp4690
g63
(g72
g65
NtRp4691
(dp4692
g68
(dp4693
g76
I2
ssg77
Nsg70
(lp4694
g63
(g79
g65
NtRp4695
(dp4696
g68
(dp4697
sg77
g4691
sg70
(lp4698
g63
(g84
g65
NtRp4699
(dp4700
g68
(dp4701
sg77
g4695
sg70
(lp4702
g63
(g64
g65
NtRp4703
(dp4704
g68
(dp4705
g76
I2
ssg77
g4699
sg70
(lp4706
g63
(g72
g65
NtRp4707
(dp4708
g68
(dp4709
g76
I1
ssg77
Nsg70
(lp4710
g63
(g79
g65
NtRp4711
(dp4712
g68
(dp4713
sg77
g4707
sg70
(lp4714
g63
(g84
g65
NtRp4715
(dp4716
g68
(dp4717
sg77
g4711
sg70
(lp4718
g63
(g64
g65
NtRp4719
(dp4720
g68
(dp4721
g76
I1
ssg77
g4715
sg70
(lp4722
g4577
(S's\x08\x00\x00\x00My Sites'
tRp4723
asbasbasbag63
(g79
g65
NtRp4724
(dp4725
g68
(dp4726
sg77
g4707
sg70
(lp4727
g63
(g84
g65
NtRp4728
(dp4729
g68
(dp4730
sg77
g4724
sg70
(lp4731
g63
(g64
g65
NtRp4732
(dp4733
g68
(dp4734
g76
I1
ssg77
g4728
sg70
(lp4735
I00
asbasbasbag63
(g79
g65
NtRp4736
(dp4737
g68
(dp4738
sg77
g4707
sg70
(lp4739
g63
(g84
g65
NtRp4740
(dp4741
g68
(dp4742
sg77
g4736
sg70
(lp4743
g63
(g64
g65
NtRp4744
(dp4745
g68
(dp4746
g76
I1
ssg77
g4740
sg70
(lp4747
S'/admin/default/site'
p4748
asbasbasbasbasbasbasbag63
(g79
g65
NtRp4749
(dp4750
g68
(dp4751
sg77
g4691
sg70
(lp4752
g63
(g84
g65
NtRp4753
(dp4754
g68
(dp4755
sg77
g4749
sg70
(lp4756
g63
(g64
g65
NtRp4757
(dp4758
g68
(dp4759
g76
I2
ssg77
g4753
sg70
(lp4760
g63
(g72
g65
NtRp4761
(dp4762
g68
(dp4763
g76
I1
ssg77
Nsg70
(lp4764
g63
(g79
g65
NtRp4765
(dp4766
g68
(dp4767
sg77
g4761
sg70
(lp4768
g63
(g84
g65
NtRp4769
(dp4770
g68
(dp4771
sg77
g4765
sg70
(lp4772
g63
(g64
g65
NtRp4773
(dp4774
g68
(dp4775
g76
I1
ssg77
g4769
sg70
(lp4776
g4577
(S's\x08\x00\x00\x00This App'
tRp4777
asbasbasbag63
(g79
g65
NtRp4778
(dp4779
g68
(dp4780
sg77
g4761
sg70
(lp4781
g63
(g84
g65
NtRp4782
(dp4783
g68
(dp4784
sg77
g4778
sg70
(lp4785
g63
(g64
g65
NtRp4786
(dp4787
g68
(dp4788
g76
I1
ssg77
g4782
sg70
(lp4789
I00
asbasbasbag63
(g79
g65
NtRp4790
(dp4791
g68
(dp4792
sg77
g4761
sg70
(lp4793
g63
(g84
g65
NtRp4794
(dp4795
g68
(dp4796
sg77
g4790
sg70
(lp4797
g63
(g64
g65
NtRp4798
(dp4799
g68
(dp4800
g76
I1
ssg77
g4794
sg70
(lp4801
S'/admin/default/design/mycrawler'
p4802
asbasbasbag63
(g79
g65
NtRp4803
(dp4804
g68
(dp4805
sg77
g4761
sg70
(lp4806
g63
(g84
g65
NtRp4807
(dp4808
g68
(dp4809
sg77
g4803
sg70
(lp4810
g63
(g64
g65
NtRp4811
(dp4812
g68
(dp4813
g76
I1
ssg77
g4807
sg70
(lp4814
(lp4815
(g4577
(S't\n\x00\x00\x00Controller'
tRp4816
I00
S'/admin/default/edit/mycrawler/controllers/default.py'
tp4817
a(g4577
(S't\x04\x00\x00\x00View'
tRp4818
I00
S'/admin/default/edit/mycrawler/views/default/search.html'
tp4819
a(g4577
(S't\x06\x00\x00\x00Layout'
tRp4820
I00
S'/admin/default/edit/mycrawler/views/layout.html'
tp4821
a(g4577
(S't\n\x00\x00\x00Stylesheet'
tRp4822
I00
S'/admin/default/edit/mycrawler/static/css/web2py.css'
tp4823
a(g4577
(S's\x08\x00\x00\x00DB Model'
tRp4824
I00
S'/admin/default/edit/mycrawler/models/db.py'
tp4825
a(g4577
(S's\n\x00\x00\x00Menu Model'
tRp4826
I00
S'/admin/default/edit/mycrawler/models/menu.py'
tp4827
a(g4577
(S't\x08\x00\x00\x00Database'
tRp4828
I00
S'/mycrawler/appadmin/index'
tp4829
a(g4577
(S't\x06\x00\x00\x00Errors'
tRp4830
I00
S'/admin/default/errors/mycrawler'
tp4831
a(g4577
(S't\x05\x00\x00\x00About'
tRp4832
I00
S'/admin/default/about/mycrawler'
tp4833
aasbasbasbasbasbasbasbag63
(g79
g65
NtRp4834
(dp4835
g68
(dp4836
sg77
g4691
sg70
(lp4837
g63
(g84
g65
NtRp4838
(dp4839
g68
(dp4840
sg77
g4834
sg70
(lp4841
g63
(g64
g65
NtRp4842
(dp4843
g68
(dp4844
g76
I2
ssg77
g4838
sg70
(lp4845
g63
(g72
g65
NtRp4846
(dp4847
g68
(dp4848
g76
I1
ssg77
Nsg70
(lp4849
g63
(g79
g65
NtRp4850
(dp4851
g68
(dp4852
sg77
g4846
sg70
(lp4853
g63
(g84
g65
NtRp4854
(dp4855
g68
(dp4856
sg77
g4850
sg70
(lp4857
g63
(g64
g65
NtRp4858
(dp4859
g68
(dp4860
g76
I1
ssg77
g4854
sg70
(lp4861
S'web2py.com'
p4862
asbasbasbag63
(g79
g65
NtRp4863
(dp4864
g68
(dp4865
sg77
g4846
sg70
(lp4866
g63
(g84
g65
NtRp4867
(dp4868
g68
(dp4869
sg77
g4863
sg70
(lp4870
g63
(g64
g65
NtRp4871
(dp4872
g68
(dp4873
g76
I1
ssg77
g4867
sg70
(lp4874
I00
asbasbasbag63
(g79
g65
NtRp4875
(dp4876
g68
(dp4877
sg77
g4846
sg70
(lp4878
g63
(g84
g65
NtRp4879
(dp4880
g68
(dp4881
sg77
g4875
sg70
(lp4882
g63
(g64
g65
NtRp4883
(dp4884
g68
(dp4885
g76
I1
ssg77
g4879
sg70
(lp4886
S'http://www.web2py.com'
p4887
asbasbasbag63
(g79
g65
NtRp4888
(dp4889
g68
(dp4890
sg77
g4846
sg70
(lp4891
g63
(g84
g65
NtRp4892
(dp4893
g68
(dp4894
sg77
g4888
sg70
(lp4895
g63
(g64
g65
NtRp4896
(dp4897
g68
(dp4898
g76
I1
ssg77
g4892
sg70
(lp4899
(lp4900
(g4577
(S't\x08\x00\x00\x00Download'
tRp4901
I00
S'http://www.web2py.com/examples/default/download'
p4902
tp4903
a(g4577
(S't\x07\x00\x00\x00Support'
tRp4904
I00
S'http://www.web2py.com/examples/default/support'
p4905
tp4906
a(g4577
(S't\x04\x00\x00\x00Demo'
tRp4907
I00
S'http://web2py.com/demo_admin'
p4908
tp4909
a(g4577
(S's\x0e\x00\x00\x00Quick Examples'
tRp4910
I00
S'http://web2py.com/examples/default/examples'
p4911
tp4912
a(g4577
(S't\x03\x00\x00\x00FAQ'
tRp4913
I00
S'http://web2py.com/AlterEgo'
p4914
tp4915
a(g4577
(S't\x06\x00\x00\x00Videos'
tRp4916
I00
S'http://www.web2py.com/examples/default/videos/'
p4917
tp4918
a(g4577
(S's\x11\x00\x00\x00Free Applications'
tRp4919
I00
S'http://web2py.com/appliances'
p4920
tp4921
a(g4577
(S't\x07\x00\x00\x00Plugins'
tRp4922
I00
S'http://web2py.com/plugins'
p4923
tp4924
a(g4577
(S't\x07\x00\x00\x00Layouts'
tRp4925
I00
S'http://web2py.com/layouts'
p4926
tp4927
a(g4577
(S't\x07\x00\x00\x00Recipes'
tRp4928
I00
S'http://web2pyslices.com/'
p4929
tp4930
a(g4577
(S't\x08\x00\x00\x00Semantic'
tRp4931
I00
S'http://web2py.com/semantic'
p4932
tp4933
aasbasbasbasbasbasbasbag63
(g79
g65
NtRp4934
(dp4935
g68
(dp4936
sg77
g4691
sg70
(lp4937
g63
(g84
g65
NtRp4938
(dp4939
g68
(dp4940
sg77
g4934
sg70
(lp4941
g63
(g64
g65
NtRp4942
(dp4943
g68
(dp4944
g76
I2
ssg77
g4938
sg70
(lp4945
g63
(g72
g65
NtRp4946
(dp4947
g68
(dp4948
g76
I1
ssg77
Nsg70
(lp4949
g63
(g79
g65
NtRp4950
(dp4951
g68
(dp4952
sg77
g4946
sg70
(lp4953
g63
(g84
g65
NtRp4954
(dp4955
g68
(dp4956
sg77
g4950
sg70
(lp4957
g63
(g64
g65
NtRp4958
(dp4959
g68
(dp4960
g76
I1
ssg77
g4954
sg70
(lp4961
g4577
(S't\r\x00\x00\x00Documentation'
tRp4962
asbasbasbag63
(g79
g65
NtRp4963
(dp4964
g68
(dp4965
sg77
g4946
sg70
(lp4966
g63
(g84
g65
NtRp4967
(dp4968
g68
(dp4969
sg77
g4963
sg70
(lp4970
g63
(g64
g65
NtRp4971
(dp4972
g68
(dp4973
g76
I1
ssg77
g4967
sg70
(lp4974
I00
asbasbasbag63
(g79
g65
NtRp4975
(dp4976
g68
(dp4977
sg77
g4946
sg70
(lp4978
g63
(g84
g65
NtRp4979
(dp4980
g68
(dp4981
sg77
g4975
sg70
(lp4982
g63
(g64
g65
NtRp4983
(dp4984
g68
(dp4985
g76
I1
ssg77
g4979
sg70
(lp4986
S'http://www.web2py.com/book'
p4987
asbasbasbag63
(g79
g65
NtRp4988
(dp4989
g68
(dp4990
sg77
g4946
sg70
(lp4991
g63
(g84
g65
NtRp4992
(dp4993
g68
(dp4994
sg77
g4988
sg70
(lp4995
g63
(g64
g65
NtRp4996
(dp4997
g68
(dp4998
g76
I1
ssg77
g4992
sg70
(lp4999
(lp5000
(g4577
(S't\x07\x00\x00\x00Preface'
tRp5001
I00
S'http://www.web2py.com/book/default/chapter/00'
p5002
tp5003
a(g4577
(S't\x0c\x00\x00\x00Introduction'
tRp5004
I00
S'http://www.web2py.com/book/default/chapter/01'
p5005
tp5006
a(g4577
(S't\x06\x00\x00\x00Python'
tRp5007
I00
S'http://www.web2py.com/book/default/chapter/02'
p5008
tp5009
a(g4577
(S't\x08\x00\x00\x00Overview'
tRp5010
I00
S'http://www.web2py.com/book/default/chapter/03'
p5011
tp5012
a(g4577
(S's\x08\x00\x00\x00The Core'
tRp5013
I00
S'http://www.web2py.com/book/default/chapter/04'
p5014
tp5015
a(g4577
(S's\t\x00\x00\x00The Views'
tRp5016
I00
S'http://www.web2py.com/book/default/chapter/05'
p5017
tp5018
a(g4577
(S't\x08\x00\x00\x00Database'
tRp5019
I00
S'http://www.web2py.com/book/default/chapter/06'
p5020
tp5021
a(g4577
(S's\x14\x00\x00\x00Forms and Validators'
tRp5022
I00
S'http://www.web2py.com/book/default/chapter/07'
p5023
tp5024
a(g4577
(S's\r\x00\x00\x00Email and SMS'
tRp5025
I00
S'http://www.web2py.com/book/default/chapter/08'
p5026
tp5027
a(g4577
(S's\x0e\x00\x00\x00Access Control'
tRp5028
I00
S'http://www.web2py.com/book/default/chapter/09'
p5029
tp5030
a(g4577
(S't\x08\x00\x00\x00Services'
tRp5031
I00
S'http://www.web2py.com/book/default/chapter/10'
p5032
tp5033
a(g4577
(S's\x0c\x00\x00\x00Ajax Recipes'
tRp5034
I00
S'http://www.web2py.com/book/default/chapter/11'
p5035
tp5036
a(g4577
(S's\x16\x00\x00\x00Components and Plugins'
tRp5037
I00
S'http://www.web2py.com/book/default/chapter/12'
p5038
tp5039
a(g4577
(S's\x12\x00\x00\x00Deployment Recipes'
tRp5040
I00
S'http://www.web2py.com/book/default/chapter/13'
p5041
tp5042
a(g4577
(S's\r\x00\x00\x00Other Recipes'
tRp5043
I00
S'http://www.web2py.com/book/default/chapter/14'
p5044
tp5045
a(g4577
(S's\r\x00\x00\x00Buy this book'
tRp5046
I00
S'http://stores.lulu.com/web2py'
p5047
tp5048
aasbasbasbasbasbasbasbag63
(g79
g65
NtRp5049
(dp5050
g68
(dp5051
sg77
g4691
sg70
(lp5052
g63
(g84
g65
NtRp5053
(dp5054
g68
(dp5055
sg77
g5049
sg70
(lp5056
g63
(g64
g65
NtRp5057
(dp5058
g68
(dp5059
g76
I2
ssg77
g5053
sg70
(lp5060
g63
(g72
g65
NtRp5061
(dp5062
g68
(dp5063
g76
I1
ssg77
Nsg70
(lp5064
g63
(g79
g65
NtRp5065
(dp5066
g68
(dp5067
sg77
g5061
sg70
(lp5068
g63
(g84
g65
NtRp5069
(dp5070
g68
(dp5071
sg77
g5065
sg70
(lp5072
g63
(g64
g65
NtRp5073
(dp5074
g68
(dp5075
g76
I1
ssg77
g5069
sg70
(lp5076
g4577
(S't\t\x00\x00\x00Community'
tRp5077
asbasbasbag63
(g79
g65
NtRp5078
(dp5079
g68
(dp5080
sg77
g5061
sg70
(lp5081
g63
(g84
g65
NtRp5082
(dp5083
g68
(dp5084
sg77
g5078
sg70
(lp5085
g63
(g64
g65
NtRp5086
(dp5087
g68
(dp5088
g76
I1
ssg77
g5082
sg70
(lp5089
I00
asbasbasbag63
(g79
g65
NtRp5090
(dp5091
g68
(dp5092
sg77
g5061
sg70
(lp5093
g63
(g84
g65
NtRp5094
(dp5095
g68
(dp5096
sg77
g5090
sg70
(lp5097
g63
(g64
g65
NtRp5098
(dp5099
g68
(dp5100
g76
I1
ssg77
g5094
sg70
(lp5101
Nasbasbasbag63
(g79
g65
NtRp5102
(dp5103
g68
(dp5104
sg77
g5061
sg70
(lp5105
g63
(g84
g65
NtRp5106
(dp5107
g68
(dp5108
sg77
g5102
sg70
(lp5109
g63
(g64
g65
NtRp5110
(dp5111
g68
(dp5112
g76
I1
ssg77
g5106
sg70
(lp5113
(lp5114
(g4577
(S't\x06\x00\x00\x00Groups'
tRp5115
I00
S'http://www.web2py.com/examples/default/usergroups'
p5116
tp5117
a(g4577
(S't\x07\x00\x00\x00Twitter'
tRp5118
I00
S'http://twitter.com/web2py'
p5119
tp5120
a(g4577
(S's\t\x00\x00\x00Live Chat'
tRp5121
I00
S'http://webchat.freenode.net/?channels=web2py'
p5122
tp5123
aasbasbasbasbasbasbasbag63
(g79
g65
NtRp5124
(dp5125
g68
(dp5126
sg77
g4691
sg70
(lp5127
g63
(g84
g65
NtRp5128
(dp5129
g68
(dp5130
sg77
g5124
sg70
(lp5131
g63
(g64
g65
NtRp5132
(dp5133
g68
(dp5134
g76
I2
ssg77
g5128
sg70
(lp5135
g63
(g72
g65
NtRp5136
(dp5137
g68
(dp5138
g76
I1
ssg77
Nsg70
(lp5139
g63
(g79
g65
NtRp5140
(dp5141
g68
(dp5142
sg77
g5136
sg70
(lp5143
g63
(g84
g65
NtRp5144
(dp5145
g68
(dp5146
sg77
g5140
sg70
(lp5147
g63
(g64
g65
NtRp5148
(dp5149
g68
(dp5150
g76
I1
ssg77
g5144
sg70
(lp5151
g4577
(S't\x07\x00\x00\x00Plugins'
tRp5152
asbasbasbag63
(g79
g65
NtRp5153
(dp5154
g68
(dp5155
sg77
g5136
sg70
(lp5156
g63
(g84
g65
NtRp5157
(dp5158
g68
(dp5159
sg77
g5153
sg70
(lp5160
g63
(g64
g65
NtRp5161
(dp5162
g68
(dp5163
g76
I1
ssg77
g5157
sg70
(lp5164
I00
asbasbasbag63
(g79
g65
NtRp5165
(dp5166
g68
(dp5167
sg77
g5136
sg70
(lp5168
g63
(g84
g65
NtRp5169
(dp5170
g68
(dp5171
sg77
g5165
sg70
(lp5172
g63
(g64
g65
NtRp5173
(dp5174
g68
(dp5175
g76
I1
ssg77
g5169
sg70
(lp5176
Nasbasbasbag63
(g79
g65
NtRp5177
(dp5178
g68
(dp5179
sg77
g5136
sg70
(lp5180
g63
(g84
g65
NtRp5181
(dp5182
g68
(dp5183
sg77
g5177
sg70
(lp5184
g63
(g64
g65
NtRp5185
(dp5186
g68
(dp5187
g76
I1
ssg77
g5181
sg70
(lp5188
(lp5189
(S'plugin_wiki'
p5190
I00
S'http://web2py.com/examples/default/download'
p5191
tp5192
a(g4577
(S's\r\x00\x00\x00Other Plugins'
tRp5193
I00
g4923
tp5194
a(g4577
(S's\x0e\x00\x00\x00Layout Plugins'
tRp5195
I00
g4926
tp5196
aasbasbasbasbasbasbasbasbasbasbasbasbasbasbasbasbasbasbasbag63
(g79
g65
NtRp5197
(dp5198
g68
(dp5199
sg77
g4021
sg70
(lp5200
g63
(g84
g65
NtRp5201
(dp5202
g68
(dp5203
g88
g89
ssg77
g5197
sg70
(lp5204
S'meta'
p5205
asbag63
(g84
g65
NtRp5206
(dp5207
g68
(dp5208
g95
g96
ssg77
g5197
sg70
(lp5209
S':'
asbag63
(g84
g65
NtRp5210
(dp5211
g68
(dp5212
sg77
g5197
sg70
(lp5213
g63
(g64
g65
NtRp5214
(dp5215
g68
(dp5216
g76
I5
ssg77
g5210
sg70
(lp5217
g63
(g72
g65
NtRp5218
(dp5219
g68
(dp5220
g76
I4
ssg77
Nsg70
(lp5221
g63
(g79
g65
NtRp5222
(dp5223
g68
(dp5224
sg77
g5218
sg70
(lp5225
g63
(g84
g65
NtRp5226
(dp5227
g68
(dp5228
g88
g89
ssg77
g5222
sg70
(lp5229
S'author'
p5230
asbag63
(g84
g65
NtRp5231
(dp5232
g68
(dp5233
g95
g96
ssg77
g5222
sg70
(lp5234
S':'
asbag63
(g84
g65
NtRp5235
(dp5236
g68
(dp5237
sg77
g5222
sg70
(lp5238
g63
(g64
g65
NtRp5239
(dp5240
g68
(dp5241
g76
I4
ssg77
g5235
sg70
(lp5242
S'Your Name <you@example.com>'
p5243
asbasbasbag63
(g79
g65
NtRp5244
(dp5245
g68
(dp5246
sg77
g5218
sg70
(lp5247
g63
(g84
g65
NtRp5248
(dp5249
g68
(dp5250
g88
g89
ssg77
g5244
sg70
(lp5251
S'copyright'
p5252
asbag63
(g84
g65
NtRp5253
(dp5254
g68
(dp5255
g95
g96
ssg77
g5244
sg70
(lp5256
S':'
asbag63
(g84
g65
NtRp5257
(dp5258
g68
(dp5259
sg77
g5244
sg70
(lp5260
g63
(g64
g65
NtRp5261
(dp5262
g68
(dp5263
g76
I4
ssg77
g5257
sg70
(lp5264
S'Copyright 2011'
p5265
asbasbasbag63
(g79
g65
NtRp5266
(dp5267
g68
(dp5268
sg77
g5218
sg70
(lp5269
g63
(g84
g65
NtRp5270
(dp5271
g68
(dp5272
g88
g89
ssg77
g5266
sg70
(lp5273
S'description'
p5274
asbag63
(g84
g65
NtRp5275
(dp5276
g68
(dp5277
g95
g96
ssg77
g5266
sg70
(lp5278
S':'
asbag63
(g84
g65
NtRp5279
(dp5280
g68
(dp5281
sg77
g5266
sg70
(lp5282
g63
(g64
g65
NtRp5283
(dp5284
g68
(dp5285
g76
I4
ssg77
g5279
sg70
(lp5286
S'a cool new app'
p5287
asbasbasbag63
(g79
g65
NtRp5288
(dp5289
g68
(dp5290
sg77
g5218
sg70
(lp5291
g63
(g84
g65
NtRp5292
(dp5293
g68
(dp5294
g88
g89
ssg77
g5288
sg70
(lp5295
S'generator'
p5296
asbag63
(g84
g65
NtRp5297
(dp5298
g68
(dp5299
g95
g96
ssg77
g5288
sg70
(lp5300
S':'
asbag63
(g84
g65
NtRp5301
(dp5302
g68
(dp5303
sg77
g5288
sg70
(lp5304
g63
(g64
g65
NtRp5305
(dp5306
g68
(dp5307
g76
I4
ssg77
g5301
sg70
(lp5308
S'Web2py Web Framework'
p5309
asbasbasbag63
(g79
g65
NtRp5310
(dp5311
g68
(dp5312
sg77
g5218
sg70
(lp5313
g63
(g84
g65
NtRp5314
(dp5315
g68
(dp5316
g88
g89
ssg77
g5310
sg70
(lp5317
S'keywords'
p5318
asbag63
(g84
g65
NtRp5319
(dp5320
g68
(dp5321
g95
g96
ssg77
g5310
sg70
(lp5322
S':'
asbag63
(g84
g65
NtRp5323
(dp5324
g68
(dp5325
sg77
g5310
sg70
(lp5326
g63
(g64
g65
NtRp5327
(dp5328
g68
(dp5329
g76
I4
ssg77
g5323
sg70
(lp5330
S'web2py, python, framework'
p5331
asbasbasbasbasbasbasbag63
(g79
g65
NtRp5332
(dp5333
g68
(dp5334
sg77
g4021
sg70
(lp5335
g63
(g84
g65
NtRp5336
(dp5337
g68
(dp5338
g88
g89
ssg77
g5332
sg70
(lp5339
S'postprocessing'
p5340
asbag63
(g84
g65
NtRp5341
(dp5342
g68
(dp5343
g95
g96
ssg77
g5332
sg70
(lp5344
S':'
asbag63
(g84
g65
NtRp5345
(dp5346
g68
(dp5347
sg77
g5332
sg70
(lp5348
g63
(g64
g65
NtRp5349
(dp5350
g68
(dp5351
g76
I5
ssg77
g5345
sg70
(lp5352
g63
(g72
g65
NtRp5353
(dp5354
g68
(dp5355
g76
I4
ssg77
Nsg70
(lp5356
sbasbasbasbag63
(g79
g65
NtRp5357
(dp5358
g68
(dp5359
sg77
g4021
sg70
(lp5360
g63
(g84
g65
NtRp5361
(dp5362
g68
(dp5363
g88
g89
ssg77
g5357
sg70
(lp5364
S'session_file'
p5365
asbag63
(g84
g65
NtRp5366
(dp5367
g68
(dp5368
g95
g96
ssg77
g5357
sg70
(lp5369
S':'
asbag63
(g84
g65
NtRp5370
(dp5371
g68
(dp5372
sg77
g5357
sg70
(lp5373
g63
(g64
g65
NtRp5374
(dp5375
g68
(dp5376
g76
I5
ssg77
g5370
sg70
(lp5377
S"<open file 'C:\\Documents and Settings\\agrover\\Desktop\\previous crawler\\web2py\\applications\\mycrawler\\sessions\\127.0.0.1-32a946d8-ad2c-43d8-be0f-c8249d02766a', mode 'rb+' at 0x013D5758>"
p5378
asbasbasbag63
(g79
g65
NtRp5379
(dp5380
g68
(dp5381
sg77
g4021
sg70
(lp5382
g63
(g84
g65
NtRp5383
(dp5384
g68
(dp5385
g88
g89
ssg77
g5379
sg70
(lp5386
S'session_filename'
p5387
asbag63
(g84
g65
NtRp5388
(dp5389
g68
(dp5390
g95
g96
ssg77
g5379
sg70
(lp5391
S':'
asbag63
(g84
g65
NtRp5392
(dp5393
g68
(dp5394
sg77
g5379
sg70
(lp5395
g63
(g64
g65
NtRp5396
(dp5397
g68
(dp5398
g76
I5
ssg77
g5392
sg70
(lp5399
S'C:\\Documents and Settings\\agrover\\Desktop\\previous crawler\\web2py\\applications\\mycrawler\\sessions\\127.0.0.1-32a946d8-ad2c-43d8-be0f-c8249d02766a'
p5400
asbasbasbag63
(g79
g65
NtRp5401
(dp5402
g68
(dp5403
sg77
g4021
sg70
(lp5404
g63
(g84
g65
NtRp5405
(dp5406
g68
(dp5407
g88
g89
ssg77
g5401
sg70
(lp5408
S'session_id'
p5409
asbag63
(g84
g65
NtRp5410
(dp5411
g68
(dp5412
g95
g96
ssg77
g5401
sg70
(lp5413
S':'
asbag63
(g84
g65
NtRp5414
(dp5415
g68
(dp5416
sg77
g5401
sg70
(lp5417
g63
(g64
g65
NtRp5418
(dp5419
g68
(dp5420
g76
I5
ssg77
g5414
sg70
(lp5421
S'127.0.0.1-32a946d8-ad2c-43d8-be0f-c8249d02766a'
p5422
asbasbasbag63
(g79
g65
NtRp5423
(dp5424
g68
(dp5425
sg77
g4021
sg70
(lp5426
g63
(g84
g65
NtRp5427
(dp5428
g68
(dp5429
g88
g89
ssg77
g5423
sg70
(lp5430
S'session_id_name'
p5431
asbag63
(g84
g65
NtRp5432
(dp5433
g68
(dp5434
g95
g96
ssg77
g5423
sg70
(lp5435
S':'
asbag63
(g84
g65
NtRp5436
(dp5437
g68
(dp5438
sg77
g5423
sg70
(lp5439
g63
(g64
g65
NtRp5440
(dp5441
g68
(dp5442
g76
I5
ssg77
g5436
sg70
(lp5443
g4078
asbasbasbag63
(g79
g65
NtRp5444
(dp5445
g68
(dp5446
sg77
g4021
sg70
(lp5447
g63
(g84
g65
NtRp5448
(dp5449
g68
(dp5450
g88
g89
ssg77
g5444
sg70
(lp5451
S'session_locked'
p5452
asbag63
(g84
g65
NtRp5453
(dp5454
g68
(dp5455
g95
g96
ssg77
g5444
sg70
(lp5456
S':'
asbag63
(g84
g65
NtRp5457
(dp5458
g68
(dp5459
sg77
g5444
sg70
(lp5460
g63
(g64
g65
NtRp5461
(dp5462
g68
(dp5463
g76
I5
ssg77
g5457
sg70
(lp5464
g2033
asbasbasbag63
(g79
g65
NtRp5465
(dp5466
g68
(dp5467
sg77
g4021
sg70
(lp5468
g63
(g84
g65
NtRp5469
(dp5470
g68
(dp5471
g88
g89
ssg77
g5465
sg70
(lp5472
S'session_new'
p5473
asbag63
(g84
g65
NtRp5474
(dp5475
g68
(dp5476
g95
g96
ssg77
g5465
sg70
(lp5477
S':'
asbag63
(g84
g65
NtRp5478
(dp5479
g68
(dp5480
sg77
g5465
sg70
(lp5481
g63
(g64
g65
NtRp5482
(dp5483
g68
(dp5484
g76
I5
ssg77
g5478
sg70
(lp5485
g106
asbasbasbag63
(g79
g65
NtRp5486
(dp5487
g68
(dp5488
sg77
g4021
sg70
(lp5489
g63
(g84
g65
NtRp5490
(dp5491
g68
(dp5492
g88
g89
ssg77
g5486
sg70
(lp5493
S'status'
p5494
asbag63
(g84
g65
NtRp5495
(dp5496
g68
(dp5497
g95
g96
ssg77
g5486
sg70
(lp5498
S':'
asbag63
(g84
g65
NtRp5499
(dp5500
g68
(dp5501
sg77
g5486
sg70
(lp5502
g63
(g64
g65
NtRp5503
(dp5504
g68
(dp5505
g76
I5
ssg77
g5499
sg70
(lp5506
S'200'
p5507
asbasbasbag63
(g79
g65
NtRp5508
(dp5509
g68
(dp5510
sg77
g4021
sg70
(lp5511
g63
(g84
g65
NtRp5512
(dp5513
g68
(dp5514
g88
g89
ssg77
g5508
sg70
(lp5515
S'subtitle'
p5516
asbag63
(g84
g65
NtRp5517
(dp5518
g68
(dp5519
g95
g96
ssg77
g5508
sg70
(lp5520
S':'
asbag63
(g84
g65
NtRp5521
(dp5522
g68
(dp5523
sg77
g5508
sg70
(lp5524
g63
(g64
g65
NtRp5525
(dp5526
g68
(dp5527
g76
I5
ssg77
g5521
sg70
(lp5528
g4577
(S's\r\x00\x00\x00customize me!'
tRp5529
asbasbasbag63
(g79
g65
NtRp5530
(dp5531
g68
(dp5532
sg77
g4021
sg70
(lp5533
g63
(g84
g65
NtRp5534
(dp5535
g68
(dp5536
g88
g89
ssg77
g5530
sg70
(lp5537
S'title'
p5538
asbag63
(g84
g65
NtRp5539
(dp5540
g68
(dp5541
g95
g96
ssg77
g5530
sg70
(lp5542
S':'
asbag63
(g84
g65
NtRp5543
(dp5544
g68
(dp5545
sg77
g5530
sg70
(lp5546
g63
(g64
g65
NtRp5547
(dp5548
g68
(dp5549
g76
I5
ssg77
g5543
sg70
(lp5550
S'Mycrawler'
p5551
asbasbasbag63
(g79
g65
NtRp5552
(dp5553
g68
(dp5554
sg77
g4021
sg70
(lp5555
g63
(g84
g65
NtRp5556
(dp5557
g68
(dp5558
g88
g89
ssg77
g5552
sg70
(lp5559
g2992
asbag63
(g84
g65
NtRp5560
(dp5561
g68
(dp5562
g95
g96
ssg77
g5552
sg70
(lp5563
S':'
asbag63
(g84
g65
NtRp5564
(dp5565
g68
(dp5566
sg77
g5552
sg70
(lp5567
g63
(g64
g65
NtRp5568
(dp5569
g68
(dp5570
g76
I5
ssg77
g5564
sg70
(lp5571
g3005
asbasbasbag63
(g79
g65
NtRp5572
(dp5573
g68
(dp5574
sg77
g4021
sg70
(lp5575
g63
(g84
g65
NtRp5576
(dp5577
g68
(dp5578
g88
g89
ssg77
g5572
sg70
(lp5579
S'view'
p5580
asbag63
(g84
g65
NtRp5581
(dp5582
g68
(dp5583
g95
g96
ssg77
g5572
sg70
(lp5584
S':'
asbag63
(g84
g65
NtRp5585
(dp5586
g68
(dp5587
sg77
g5572
sg70
(lp5588
g63
(g64
g65
NtRp5589
(dp5590
g68
(dp5591
g76
I5
ssg77
g5585
sg70
(lp5592
S'default/search.html'
p5593
asbasbasbasbasbsS'locals'
p5594
(dp5595
S'cj'
p5596
S'<_LWPCookieJar.LWPCookieJar[Cookie(version=0, na...=None, comment_url=None, rest={}, rfc2109=True)]>'
p5597
sS'name'
p5598
S'[]'
p5599
sS'i'
S"'Owner'"
p5600
sS'titl'
p5601
S'[]'
p5602
sS'industry'
p5603
S'[]'
p5604
sS'BeautifulSoup'
p5605
S"<class 'bs4.BeautifulSoup'>"
p5606
sS'current'
p5607
S'[]'
p5608
sS'view_profile'
p5609
S'[]'
p5610
sS'flag'
p5611
S'1'
sS'html2text'
p5612
S"<module 'html2text' from 'C:\\Python27\\lib\\site-packages\\html2text-3.200.3-py2.7.egg\\html2text.pyc'>"
p5613
sS'location'
p5614
S'[]'
p5615
sS'br'
p5616
S'<mechanize._mechanize.Browser instance>'
p5617
sS'mechanize'
p5618
S"<module 'mechanize' from 'C:\\Python27\\lib\\site-p...echanize-0.2.5-py2.7.egg\\mechanize\\__init__.pyc'>"
p5619
sS'cookielib'
p5620
S"<module 'cookielib' from 'C:\\Python27\\lib\\cookielib.pyc'>"
p5621
sssS'traceback'
p5622
S'Traceback (most recent call last):\n  File "C:\\Documents and Settings\\agrover\\Desktop\\previous crawler\\web2py\\gluon\\restricted.py", line 205, in restricted\n    exec ccode in environment\n  File "C:\\Documents and Settings\\agrover\\Desktop\\previous crawler\\web2py\\applications\\mycrawler\\controllers/default.py", line 374, in <module>\n  File "C:\\Documents and Settings\\agrover\\Desktop\\previous crawler\\web2py\\gluon\\globals.py", line 173, in <lambda>\n    self._caller = lambda f: f()\n  File "C:\\Documents and Settings\\agrover\\Desktop\\previous crawler\\web2py\\applications\\mycrawler\\controllers/default.py", line 260, in search\n    spamWriter = csv.writer(open(request.vars.File_Name+\'.csv\', \'wb\'), delimiter=\',\')\nIOError: [Errno 13] Permission denied: \'34.csv\'\n'
p5623
s.