(dp1
S'output'
p2
S"<type 'exceptions.KeyError'> 'row'"
p3
sS'layer'
p4
S'C:\\Documents and Settings\\agrover\\Desktop\\previous crawler\\web2py\\applications\\mycrawler\\controllers/default.py'
p5
sS'code'
p6
S'# -*- coding: utf-8 -*-\n# this file is released under public domain and you can use without limitations\n\n#########################################################################\n## This is a samples controller\n## - index is the default action of any application\n## - user is required for authentication and authorization\n## - download is for downloading files uploaded in the db (does streaming)\n## - call exposes all registered services (none by default)\n#########################################################################\nimport cStringIO\nimport csv\nimport re\nimport string\ncountry=[\'United States\', \'Afghanistan\', \'Aland Islands\', \'Albania\', \'Algeria\', \'American Samoa\', \'Andorra\', \'Angola\', \'Anguilla\', \'Antarctica\', \'Antigua and Barbuda\', \'Argentina\', \'Armenia\', \'Aruba\', \'Australia\', \'Austria\', \'Azerbaijan\', \'Bahamas\', \'Bahrain\', \'Bangladesh\', \'Barbados\', \'Belarus\', \'Belgium\', \'Belize\', \'Benin\', \'Bermuda\', \'Bhutan\', \'Bolivia\', \'Bosnia and Herzegovina\', \'Botswana\', \'Brazil\', \'British Indian Ocean Territory\', \'Brunei Darussalam\', \'Bulgaria\', \'Burkina Faso\', \'Burundi\', \'Cambodia\', \'Cameroon\', \'Canada\', \'Cape Verde\', \'Caribbean Nations\', \'Cayman Islands\', \'Central African Republic\', \'Chad\', \'Chile\', \'China\', \'Christmas Island\', \'Cocos (Keeling) Islands\', \'Colombia\', \'Comoros\', \'Congo\', \'Cook Islands\', \'Costa Rica\', "Cote D\'Ivoire (Ivory Coast)", \'Croatia\', \'Cuba\', \'Cyprus\', \'Czech Republic\', \'Democratic Republic of the Congo\', \'Denmark\', \'Djibouti\', \'Dominica\', \'Dominican Republic\', \'East Timor\', \'Ecuador\', \'Egypt\', \'El Salvador\', \'Equatorial Guinea\', \'Eritrea\', \'Estonia\', \'Ethiopia\', \'Falkland Islands (Malvinas)\', \'Faroe Islands\', \'Federated States of Micronesia\', \'Fiji\', \'Finland\', \'France\', \'French Guiana\', \'French Polynesia\', \'French Southern Territories\', \'Gabon\', \'Gambia\', \'Georgia\', \'Germany\', \'Ghana\', \'Gibraltar\', \'Greece\', \'Greenland\', \'Grenada\', \'Guadeloupe\', \'Guam\', \'Guatemala\', \'Guernsey\', \'Guinea\', \'Guinea-Bissau\', \'Guyana\', \'Haiti\', \'Honduras\', \'Hong Kong\', \'Hungary\', \'Iceland\', \'India\', \'Indonesia\', \'Iran\', \'Iraq\', \'Ireland\', \'Isle of Man\', \'Israel\', \'Italy\', \'Jamaica\', \'Japan\', \'Jersey\', \'Jordan\', \'Kazakhstan\', \'Kenya\', \'Kiribati\', \'Korea\', \'Korea (North)\', \'Kuwait\', \'Kyrgyzstan\', \'Laos\', \'Latvia\', \'Lebanon\', \'Lesotho\', \'Liberia\', \'Libya\', \'Liechtenstein\', \'Lithuania\', \'Luxembourg\', \'Macao\', \'Macedonia\', \'Madagascar\', \'Malawi\', \'Malaysia\', \'Maldives\', \'Mali\', \'Malta\', \'Marshall Islands\', \'Martinique\', \'Mauritania\', \'Mauritius\', \'Mayotte\', \'Mexico\', \'Moldova\', \'Monaco\', \'Mongolia\', \'Montenegro\', \'Montserrat\', \'Morocco\', \'Mozambique\', \'Myanmar\', \'Namibia\', \'Nauru\', \'Nepal\', \'Netherlands\', \'Netherlands Antilles\', \'New Caledonia\', \'New Zealand\', \'Nicaragua\', \'Niger\', \'Nigeria\', \'Niue\', \'Norfolk Island\', \'Northern Mariana Islands\', \'Norway\', \'Oman\', \'Pakistan\', \'Palau\', \'Palestinian Territory\', \'Panama\', \'Papua New Guinea\', \'Paraguay\', \'Peru\', \'Philippines\', \'Pitcairn\', \'Poland\', \'Portugal\', \'Puerto Rico\', \'Qatar\', \'Reunion\', \'Romania\', \'Russian Federation\', \'Rwanda\', \'Saint Helena\', \'Saint Kitts and Nevis\', \'Saint Lucia\', \'Saint Pierre and Miquelon\', \'Saint Vincent and the Grenadines\', \'Samoa\', \'San Marino\', \'Sao Tome and Principe\', \'Saudi Arabia\', \'Senegal\', \'Serbia\', \'Seychelles\', \'Sierra Leone\', \'Singapore\', \'Slovak Republic\', \'Slovenia\', \'Solomon Islands\', \'Somalia\', \'South Africa\', \'Spain\', \'Sri Lanka\', \'Sudan\', \'Suriname\', \'Svalbard and Jan Mayen\', \'Swaziland\', \'Sweden\', \'Switzerland\', \'Syria\', \'Taiwan\', \'Tajikistan\', \'Tanzania\', \'Thailand\', \'Timor-Leste\', \'Togo\', \'Tokelau\', \'Tonga\', \'Trinidad and Tobago\', \'Tunisia\', \'Turkey\', \'Turkmenistan\', \'Turks and Caicos Islands\', \'Tuvalu\', \'Uganda\', \'Ukraine\', \'United Arab Emirates\', \'United Kingdom\', \'Uruguay\', \'Uzbekistan\', \'Vanuatu\', \'Vatican City State (Holy See)\', \'Venezuela\', \'Vietnam\', \'Virgin Islands (British)\', \'Virgin Islands (U.S.)\', \'Wallis and Futuna\', \'Western Sahara\', \'Yemen\', \'Zambia\', \'Zimbabwe\', \'Other\']\n    \ncountryid=[\'us\', \'af\', \'ax\', \'al\', \'dz\', \'as\', \'ad\', \'ao\', \'ai\', \'aq\', \'ag\', \'ar\', \'am\', \'aw\', \'au\', \'at\', \'az\', \'bs\', \'bh\', \'bd\', \'bb\', \'by\', \'be\', \'bz\', \'bj\', \'bm\', \'bt\', \'bo\', \'ba\', \'bw\', \'br\', \'io\', \'bn\', \'bg\', \'bf\', \'bi\', \'kh\', \'cm\', \'ca\', \'cv\', \'cb\', \'ky\', \'cf\', \'td\', \'cl\', \'cn\', \'cx\', \'cc\', \'co\', \'km\', \'cg\', \'ck\', \'cr\', \'ci\', \'hr\', \'cu\', \'cy\', \'cz\', \'cd\', \'dk\', \'dj\', \'dm\', \'do\', \'tp\', \'ec\', \'eg\', \'sv\', \'gq\', \'er\', \'ee\', \'et\', \'fk\', \'fo\', \'fm\', \'fj\', \'fi\', \'fr\', \'gf\', \'pf\', \'tf\', \'ga\', \'gm\', \'ge\', \'de\', \'gh\', \'gi\', \'gr\', \'gl\', \'gd\', \'gp\', \'gu\', \'gt\', \'gg\', \'gn\', \'gw\', \'gy\', \'ht\', \'hn\', \'hk\', \'hu\', \'is\', \'in\', \'id\', \'ir\', \'iq\', \'ie\', \'im\', \'il\', \'it\', \'jm\', \'jp\', \'je\', \'jo\', \'kz\', \'ke\', \'ki\', \'kr\', \'kp\', \'kw\', \'kg\', \'la\', \'lv\', \'lb\', \'ls\', \'lr\', \'ly\', \'li\', \'lt\', \'lu\', \'mo\', \'mk\', \'mg\', \'mw\', \'my\', \'mv\', \'ml\', \'mt\', \'mh\', \'mq\', \'mr\', \'mu\', \'yt\', \'mx\', \'md\', \'mc\', \'mn\', \'me\', \'ms\', \'ma\', \'mz\', \'mm\', \'na\', \'nr\', \'np\', \'nl\', \'an\', \'nc\', \'nz\', \'ni\', \'ne\', \'ng\', \'nu\', \'nf\', \'mp\', \'no\', \'om\', \'pk\', \'pw\', \'ps\', \'pa\', \'pg\', \'py\', \'pe\', \'ph\', \'pn\', \'pl\', \'pt\', \'pr\', \'qa\', \'re\', \'ro\', \'ru\', \'rw\', \'sh\', \'kn\', \'lc\', \'pm\', \'vc\', \'ws\', \'sm\', \'st\', \'sa\', \'sn\', \'rs\', \'sc\', \'sl\', \'sg\', \'sk\', \'si\', \'sb\', \'so\', \'za\', \'es\', \'lk\', \'sd\', \'sr\', \'sj\', \'sz\', \'se\', \'ch\', \'sy\', \'tw\', \'tj\', \'tz\', \'th\', \'tl\', \'tg\', \'tk\', \'to\', \'tt\', \'tn\', \'tr\', \'tm\', \'tc\', \'tv\', \'ug\', \'ua\', \'ae\', \'gb\', \'uy\', \'uz\', \'vu\', \'va\', \'ve\', \'vn\', \'vg\', \'vi\', \'wf\', \'eh\', \'ye\', \'zm\', \'zw\', \'oo\']\n\nindustries=[\'All Industries\',\'Accounting\', \'Airlines/Aviation\', \'Alternative Dispute Resolution\', \'Alternative Medicine\', \'Animation\', \'Apparel & Fashion\', \'Architecture & Planning\', \'Arts and Crafts\', \'Automotive\', \'Aviation & Aerospace\', \'Banking\', \'Biotechnology\', \'Broadcast Media\', \'Building Materials\', \'Business Supplies and Equipment\', \'Capital Markets\', \'Chemicals\', \'Civic & Social Organization\', \'Civil Engineering\', \'Commercial Real Estate\', \'Computer & Network Security\', \'Computer Games\', \'Computer Hardware\', \'Computer Networking\', \'Computer Software\', \'Construction\', \'Consumer Electronics\', \'Consumer Goods\', \'Consumer Services\', \'Cosmetics\', \'Dairy\', \'Defense & Space\', \'Design\', \'Education Management\', \'E-Learning\', \'Electrical/Electronic Manufacturing\', \'Entertainment\', \'Environmental Services\', \'Events Services\', \'Executive Office\', \'Facilities Services\', \'Farming\', \'Financial Services\', \'Fine Art\', \'Fishery\', \'Food & Beverages\', \'Food Production\', \'Fund-Raising\', \'Furniture\', \'Gambling & Casinos\', \'Glass, Ceramics & Concrete\', \'Government Administration\', \'Government Relations\', \'Graphic Design\', \'Health, Wellness and Fitness\', \'Higher Education\', \'Hospital & Health Care\', \'Hospitality\', \'Human Resources\', \'Import and Export\', \'Individual & Family Services\', \'Industrial Automation\', \'Information Services\', \'Information Technology and Services\', \'Insurance\', \'International Affairs\', \'International Trade and Development\', \'Internet\', \'Investment Banking\', \'Investment Management\', \'Judiciary\', \'Law Enforcement\', \'Law Practice\', \'Legal Services\', \'Legislative Office\', \'Leisure, Travel & Tourism\', \'Libraries\', \'Logistics and Supply Chain\', \'Luxury Goods & Jewelry\', \'Machinery\', \'Management Consulting\', \'Maritime\', \'Marketing and Advertising\', \'Market Research\', \'Mechanical or Industrial Engineering\', \'Media Production\', \'Medical Devices\', \'Medical Practice\', \'Mental Health Care\', \'Military\', \'Mining & Metals\', \'Motion Pictures and Film\', \'Museums and Institutions\', \'Music\', \'Nanotechnology\', \'Newspapers\', \'Nonprofit Organization Management\', \'Oil & Energy\', \'Online Media\', \'Outsourcing/Offshoring\', \'Package/Freight Delivery\', \'Packaging and Containers\', \'Paper & Forest Products\', \'Performing Arts\', \'Pharmaceuticals\', \'Philanthropy\', \'Photography\', \'Plastics\', \'Political Organization\', \'Primary/Secondary Education\', \'Printing\', \'Professional Training & Coaching\', \'Program Development\', \'Public Policy\', \'Public Relations and Communications\', \'Public Safety\', \'Publishing\', \'Railroad Manufacture\', \'Ranching\', \'Real Estate\', \'Recreational Facilities and Services\', \'Religious Institutions\', \'Renewables & Environment\', \'Research\', \'Restaurants\', \'Retail\', \'Security and Investigations\', \'Semiconductors\', \'Shipbuilding\', \'Sporting Goods\', \'Sports\', \'Staffing and Recruiting\', \'Supermarkets\', \'Telecommunications\', \'Textiles\', \'Think Tanks\', \'Tobacco\', \'Translation and Localization\', \'Transportation/Trucking/Railroad\', \'Utilities\', \'Venture Capital & Private Equity\', \'Veterinary\', \'Warehousing\', \'Wholesale\', \'Wine and Spirits\', \'Wireless\', \'Writing and Editing\']\n\nseniority=[\'All Seniority Levels\', \'Manager\', \'Owner\', \'Partner\', \'CXO\', \'VP\', \'Director\', \'Senior\', \'Entry\', \'Students & Interns\', \'Volunteer\']\n\nfunctions=[\'All Functions\', \'Academics\', \'Accounting\', \'Administrative\', \'Business development\', \'Buyer\', \'Consultant\', \'Creative\', \'Engineering\', \'Entrepreneur\', \'Finance\', \'Human resources\', \'Information technology\', \'Legal\', \'Marketing\', \'Medical\', \'Operations\', \'Product\', \'Public relations\', \'Real estate\', \'Sales\', \'Support\']\n\nemaildict={\'Pfizer\' : [\'firstname\', \'lastname\', \'pfizer.com\', \'.\'],\'Novartis\' : [\'firstname\', \'lastname\', \'novartis.com\', \'.\'],\'Merck KGaA\' : [\'firstname\', \'lastname\', \'merck.de\', \'.\'],\'Merck & Co.\' : [\'firstname\', \'lastname\', \'merck.com\', \'_\'],\'GlaxoSmithKline\' : [\'firstname\', \'lastname\', \'gsk.com\', \'.\'],\'GlaxoSmithKline Biologicals\' : [\'firstname\', \'lastname\', \'gskbio.com\', \'.\'],\'Roche\' : [\'firstname\', \'lastname\', \'roche.com\', \'.\'],\'Roche Diagnostics\' : [\'firstname\', \'lastname\', \'roche.com\', \'.\'],\'Roche Diagnostics\' \'Corporation\' : [\'firstname\', \'lastname\', \'roche.com\', \'.\'],\'AstraZeneca\' : [\'firstname\', \'lastname\', \'astrazeneca.com\', \'.\'],\'Eli Lilly &\xe2\x80\x88Co.\' : [\'firstname\', \'lastname\', \'lilly.com\', \'_\'],\'Abbott Laboratories\' : [\'firstname\', \'lastname\', \'abbott.com\', \'.\'],\'Bristol-Myers Squibb\' : [\'firstname\', \'lastname\', \'bms.com\', \'.\'],\'Teva\' : [\'firstname\', \'lastname\', \'tevausa.com\', \'.\'],\'Amgen\' : [\'f\', \'lastname\', \'amgen.com\', \'\'],\'Takeda Pharma\' : [\'f\', \'lastname\', \'tpna.com\', \'\'],\'Bayer Schering\': [\'firstname\', \'lastname\', \'bayer.com\', \'.\'],\'Bayer HealthCare\' : [\'firstname\', \'lastname\', \'bayer.com\', \'.\'],\'Boehringer-Ingelheim\' : [\'firstname\', \'lastname\', \'boehringer-ingelheim.com\', \'.\'],\'Astellas\' : [\'firstname\', \'lastname\', \'us.astellas.com\', \'.\'],\'Daiichi-Sankyo\' : [\'f\', \'lastname\', \'daiichisankyo-us.com\', \'\'],\'Baxter\' : [\'firstname\', \'lastname\', \'baxter.com\', \'_\'],\'EISAI\' : [\'firstname\', \'lastname\', \'eisai.com\', \'_\'],\'Otsuka\' : [\'firstname\', \'lastname\', \'otsuka.com\', \'.\'],\'Otsuka Pharmaceutical\' : [\'firstname\', \'lastname\', \'otsuka.com\', \'.\'],\'Gilead Sciences\' : [\'firstname\', \'lastname\', \'gilead.com\', \'.\'],\'Mylan\' : [\'f\', \'lastname\', \'mylanlabs.com\', \'\'],\'Genzyme\' : [\'firstname\', \'lastname\', \'genzyme.com\', \'.\'],\'Allergan\' : [\'lastname\', \'firstname\', \'allergan.com\', \'_\'],\'Forest\' : [\'f\', \'lastname\', \'forestpharm.com\', \'\'],\'CSL\' : [\'firstname\', \'lastname\', \'cslbehring.com\', \'.\'],\'UCB\' : [\'firstname\', \'lastname\', \'ucb.com\', \'.\'],\'Celgene\' : [\'f\', \'lastname\', \'celgene.com\', \'\'],\'Biogen Idec\' : [\'firstname\', \'lastname\', \'biogenidec.com\', \'.\'],\'Shire\': [\'f\', \'lastname\', \'shire.com\', \'\'],\'Alcon\': [\'firstname\', \'lastname\', \'alconlabs.com\', \'.\'],\'Cephalon\' : [\'f\', \'lastname\', \'cephalon.com\', \'\'],\'Watson\' : [\'f\', \'lastname\', \'watsonpharm.com\', \'\'],\'Lundbeck\' : [\'firstname\', \'lastname\', \'lundbeck.com\', \'.\'],\'Shionogi\' : [\'f\', \'lastname\', \'shionogipharma.com\', \'\'],\'Actavis\' : [\'f\', \'lastname\', \'actavis.com\', \'\'],\'Nycomed\' : [\'firstname\', \'lastname\', \'nycomed.com\', \'.\'],\'ViforPharma\' : [\'firstname\', \'lastname\', \'viforpharma.com\', \'.\'],\'Sanofi-Aventis\' : [\'firstname\', \'lastname\', \'sanofi-aventisus.com\', \'.\'],\'Millennium Pharmaceuticals\' : [\'firstname\', \'lastname\', \'mpi.com\', \'.\']}\n\n#THIS IS THE LOGIN PAGE\ndef index():\n    """\n    example action using the internationalization operator T and flash\n    rendered by views/default/index.html or views/generic.html\n    """\n    #login form\n    form = SQLFORM.factory(\n       Field(\'LinkedIn_User_Id\'),\n       Field(\'Password\',type=\'password\'))\n       \n    #checking if there is already a user logged in,i.e. creating a session\n    if session.username:\n        response.flash =\'form accepted\'\n        redirect(URL(r=request,f=\'enter_info\')) \n       \n\n    session.username=request.vars.LinkedIn_User_Id\n    session.password=request.vars.Password\n    #if form is accepted call enterinfo function\n    if form.process().accepted:\n        response.flash =\'form accepted\'\n        redirect(URL(r=request,f=\'enter_info\')) \n    return dict(form=form)   \n\ndef user():\n    """\n    exposes:\n    http://..../[app]/default/user/login\n    http://..../[app]/default/user/logout\n    http://..../[app]/default/user/register\n    http://..../[app]/default/user/profile\n    http://..../[app]/default/user/retrieve_password\n    http://..../[app]/default/user/change_password\n    use @auth.requires_login()\n        @auth.requires_membership(\'group name\')\n        @auth.requires_permission(\'read\',\'table name\',record_id)\n    to decorate functions that need access control\n    """\n    return dict(form=auth())\n\n\ndef download():\n    """\n    allows downloading of uploaded files\n    http://..../[app]/default/download/[filename]\n    """\n    return response.download(request,db)\n\n\ndef call():\n    """\n    exposes services. for example:\n    http://..../[app]/default/call/jsonrpc\n    decorate with @services.jsonrpc the functions to expose\n    supports xml, json, xmlrpc, jsonrpc, amfrpc, rss, csv\n    """\n    return service()\n\n\n@auth.requires_signature()\ndef data():\n    """\n    http://..../[app]/default/data/tables\n    http://..../[app]/default/data/create/[table]\n    http://..../[app]/default/data/read/[table]/[id]\n    http://..../[app]/default/data/update/[table]/[id]\n    http://..../[app]/default/data/delete/[table]/[id]\n    http://..../[app]/default/data/select/[table]\n    http://..../[app]/default/data/search/[table]\n    but URLs must be signed, i.e. linked with\n      A(\'table\',_href=URL(\'data/tables\',user_signature=True))\n    or with the signed load operator\n      LOAD(\'default\',\'data.load\',args=\'tables\',ajax=True,user_signature=True)\n    """\n    return dict(form=crud())\n\n    \ndef enter_info():\n    #form for entering information\n    form = SQLFORM.factory(\n       Field(\'First_Name\'),\n       Field(\'Last_Name\'),\n       Field(\'Keywords\'),\n       Field(\'Title\'),\n       Field(\'Company\'),\n       Field(\'School\'),\n       Field(\'File_Name\',requires=IS_NOT_EMPTY()),\n       Field(\'Country\',requires=IS_IN_SET(country),default=\'India\'),\n       Field(\'Industry\',requires=IS_IN_SET(industries,multiple=\'multiple\'),default=\'All Industries\'),\n       Field(\'Seniority_Levels\',requires=IS_IN_SET(seniority,multiple=\'multiple\'),default=\'All Seniority Levels\'),\n       Field(\'Functions\',requires=IS_IN_SET(functions,multiple=\'multiple\'),default=\'All Functions\'))\n       \n    #if form accepted redirect to search function\n    if form.process().accepted:\n        response.flash = \'form accepted\'\n        redirect(URL(r=request,f=\'search\',vars=request.vars))\n    elif form.errors:\n        response.flash = \'form has errors\'\n    return dict(form=form)\n    \n\ndef search():\n    import mechanize\n    import cookielib\n    import html2text\n    from bs4 import BeautifulSoup\n    \n    # Browser    \n    br = mechanize.Browser()\n\n    # Cookie Jar\n    cj = cookielib.LWPCookieJar()\n    br.set_cookiejar(cj)\n\n    # Browser options\n    br.set_handle_equiv(True)\n    br.set_handle_gzip(True)\n    br.set_handle_redirect(True)\n    br.set_handle_referer(True)\n    br.set_handle_robots(False)\n\n    # Follows refresh 0 but not hangs on refresh > 0\n    br.set_handle_refresh(mechanize._http.HTTPRefreshProcessor(), max_time=1)\n\n    # User-Agent (this is cheating, ok?)\n    br.addheaders = [(\'User-agent\', \'Mozilla/5.0 (X11; U; Linux i686; en-US; rv:1.9.0.1) Gecko/2008071615 Fedora/3.0.1-1.fc9 Firefox/3.0.1\')]\n\n\n    # The site we will navigate into, handling it\'s session    \n    br.open(\'https://www.linkedin.com\')\n\n    # Select the first (index zero) form\n    br.select_form(nr=0)\n\n    # User credentials\n    #br.form[\'session_key\'] = \'mrigeshgaurav@gmail.com\'\n    #br.form[\'session_password\'] = \'modeln@1234\'\n    \n    #entering username and password user provided at login\n    br.form[\'session_key\'] = session.username\n    br.form[\'session_password\'] = session.password\n    \n    \n    # Login by submitting form br\n    br.submit()\n    \n    #opening the advanced search page straight away\n    br.open(\'http://www.linkedin.com/search?trk=advsrch\')\n    \n    #selecting the 1st form\n    br.select_form(nr=1)\n\n    #entering various fields and filters\n    if request.vars.Last_Name:\n        br["lname"]=request.vars.Last_Name\n\n    if request.vars.First_Name:\n        br["fname"]=request.vars.First_Name\n    \n    if request.vars.Keywords:\n        br["keywords"]=request.vars.Keywords\n\n    if request.vars.Company:\n        br["company"]=request.vars.Company\n\n    if request.vars.School:\n        br["school"]=request.vars.School\n\n    if request.vars.Title:\n        br["title"]=request.vars.Title\n        \n    if request.vars.Country:\n        br["countryCode"]=[countryid[country.index(request.vars.Country)]]\n    \n    if request.vars.Industry and request.vars.Industry!=\'All Industries\':\n        if isinstance(request.vars.Industry,list):\n            for i in request.vars.Industry:\n                br.find_control("facet_I").items[industries.index(i)-1].selected=True\n        else:\n            br.find_control("facet_I").items[industries.index(request.vars.Industry)-1].selected=True\n    try:        \n        if request.vars.Seniority_Levels and request.vars.Seniority_Levels!=\'All Seniority Levels\':\n            if isinstance(request.vars.Seniority_Levels,list):\n                for i in request.vars.Seniority_Levels:\n                    br.find_control("facet_SE").items[seniority.index(i)-1].selected=True\n            else:\n                br.find_control("facet_SE").items[seniority.index(request.vars.Seniority_Levels)-1].selected=True\n            \n        if request.vars.Functions and request.vars.Functions!=\'All Functions\':\n            if isinstance(request.vars.Functions,list):\n                for i in request.vars.Functions:\n                    br.find_control("facet_FA").items[functions.index(i)-1].selected=True\n            else:\n                br.find_control("facet_FA").items[functions.index(request.vars.Functions)-1].selected=True\n    except:\n        flag=1\n        \n    #submitting the form\n    br.submit()\n    \n    #lists for retreiving the required data\n    view_profile=[]\n    firstname=[]\n    titl=[]\n    location=[]\n    industry=[]\n    current=[]\n    middlename=[]\n    lastname=[]\n    company=[]\n    emailid=[]\n    \n    #flag to make sure we get entries on 1st page\n    flag=1\n    \n    #writing into file with given filename\n    global csv_response\n\n    csv_response = cStringIO.StringIO()\n    \n    spamWriter = csv.writer(csv_response, delimiter=\',\')\n    \n    #spamWriter = csv.writer(open(request.vars.File_Name+\'.csv\', \'wb\'), delimiter=\',\')\n    soup = BeautifulSoup(br.response().read())\n    spamWriter.writerow([\'FIRST NAME\',\'MIDDLE NAME\',\'LAST-NAME\',\'JOB-TITLE\',\'CURRENT\',\'LOCATION\',\'INDUSTRY\',\'PROFLE-URL\',\'COMPANY NAME\',\'EMAILID\'])\n    \n    #scans till there is a link to "next page"\n    while soup.find(\'a\',{"class" : "paginator-next"}) or flag==1:\n        flag=0\n        soup = BeautifulSoup(br.response().read())\n        view_profile=[]\n        firstname=[]\n        titl=[]\n        location=[]\n        industry=[]\n        current=[]\n        middlename=[]\n        lastname=[]\n        company=[]\n        emailid=[]\n        \n        #parsing for the html response to get information\n        for k in soup.find_all(\'dl\',{"class" : "vcard-basic"}):\n            if k.find(\'dd\',{"class" : "title"}):\n                    titl.append(k.find(\'dd\',{"class" : "title"}).get_text())\n            else:\n                    titl.append(\'NONE\')\n                            \n            if k.find(\'span\',{"class" : "location"}):\n                    location.append(k.find(\'span\',{"class" : "location"}).get_text())\n            else:\n                    location.append(\'NONE\')\n            if k.find(\'span\',{"class" : "industry"}):\n                    industry.append(k.find(\'span\',{"class" : "industry"}).get_text())\n            else:\n                    industry.append(\'NONE\')\n                \n        for k in soup.find_all(\'dl\',{"class" : "vcard-expanded"}):\n            temp1=[]\n            temp2=[]\n            if k.find(\'span\',{"class" : "current-details more-text"}):\n                    less=k.find(\'span\',{"class" : "current-details more-text"}).get_text()\n                    temp1=less[0:len(less)-4].encode(\'utf-8\').split(\' at \',1)\n                    if(len(temp1)>1):\n                        try:\n                            temp2=temp1[1].encode(\'utf-8\').split(\',\',1)\n                        except:\n                            temp2=[\'NONE\']\n                    else:\n                        temp2=[\'NONE\']\n                    company.append(temp2[0])\n                    current.append(less[0:len(less)-4])\n            elif k.find(\'span\',{"class" : "current-details"}):\n                    less=k.find(\'span\',{"class" : "current-details"}).get_text()\n                    current.append(less)\n                    temp1=less.encode(\'utf-8\').split(\' at \',1)\n                    if(len(temp1)>1):\n                        try:\n                            temp2=temp1[1].encode(\'utf-8\').split(\',\',1)\n                        except:\n                            temp2=[\'NONE\']\n                    else:\n                        temp2=[\'NONE\']\n                    company.append(temp2[0])\n            else:\n                    current.append(\'NONE\')\n                    company.append(\'NONE\')\n               \n        for l in soup.find_all(\'a\',{"title" : "View Profile"}):\n            temp=[]\n            view_profile.append(\'http://www.linkedin.com\'+l.get(\'href\'))\n            temp.append(l.get_text().encode(\'utf-8\').split(None,2))\n            if temp[0][0]:\n                firstname.append(temp[0][0])\n            else:\n                firstname.append(\'None\')\n            if temp[0][1] and (len(temp[0])-1)==1:\n                lastname.append(temp[0][1])\n                middlename.append(\'None\')\n            else:\n                lastname.append(temp[0][len(temp[0])-1])\n                middlename.append(temp[0][1])\n        """\n        for i in range(0,len(firstname)):\n            e=\'\'\n            w=\'\'\n            if company[i] in emaildict:\n                if emaildict[company[i]][0]==\'firstname\':\n                    e=e+firstname[i]\n                if emaildict[company[i]][0]==\'f\':    \n                    e=e+firstname[i][0]\n                if emaildict[company[i]][0]==\'lastname\':\n                    e=e+lastname[i]\n                if emaildict[company[i]][0]==\'l\':\n                    e=e+lastname[i][0]\n                \n                e=e+emaildict[company[i]][3]\n                 \n                if emaildict[company[i]][1]==\'firstname\':\n                    e=e+firstname[i]\n                if emaildict[company[i]][1]==\'f\':    \n                    e=e+firstname[i][0]\n                if emaildict[company[i]][1]==\'lastname\':\n                    e=e+lastname[i]\n                if emaildict[company[i]][1]==\'l\':\n                    e=e+lastname[i][0]\n                e=e+\'@\'\n                e=e+emaildict[company[i]][2]\n                w=string.lower(e)                                    \n                emailid.append(w)\n            else:\n                emailid.append(\'NONE\')\n        """\n        \n        \n        for i in range(0,len(firstname)):\n            e=\'\'\n            w=\'\'\n            for row in db(db.email_info.Company_Name==company[i]).select():\n                if db.row.First_String==\'firstname\':\n                    e=e+firstname[i]\n                if db.row.First_String==\'f\':    \n                    e=e+firstname[i][0]\n                if db.row.First_String==\'lastname\':\n                    e=e+lastname[i]\n                if db.row.First_String==\'l\':\n                    e=e+lastname[i][0]\n                \n                e=e+db.row.Delimiter\n                 \n                if db.row.Second_String==\'firstname\':\n                    e=e+firstname[i]\n                if db.row.Second_String==\'f\':    \n                    e=e+firstname[i][0]\n                if db.row.Second_String==\'lastname\':\n                    e=e+lastname[i]\n                if db.row.Second_String==\'l\':\n                    e=e+lastname[i][0]\n                e=e+db.row.Domain_Name\n                w=string.lower(e)                                    \n                emailid.append(w)\n            else:\n                emailid.append(\'NONE\')        \n                \n        for i in range(0,len(firstname)):\n            try:\n                spamWriter.writerow([firstname[i].encode(\'utf-8\').strip(),middlename[i].encode(\'utf-8\').strip(),lastname[i].encode(\'utf-8\').strip(),titl[i].encode(\'utf-8\').strip(),current[i].encode(\'utf-8\').strip(),location[i].encode(\'utf-8\').strip(),industry[i].encode(\'utf-8\').strip(),view_profile[i].encode(\'utf-8\').strip(),company[i].encode(\'utf-8\').strip(),emailid[i].encode(\'utf-8\').strip()])\n            except:\n                continue\n        if soup.find(\'a\',{"class" : "paginator-next"}):\n            br.open(\'http://www.linkedin.com\'+ soup.find(\'a\',{"class" : "paginator-next"}).get(\'href\'))\n        #soup = BeautifulSoup(br.response().read())\n        \n    response.headers[\'Content-Type\'] = \'text/csv\'\n    response.headers[\'Content-Disposition\'] = \'attachment; filename=%s.csv\' % request.vars.File_Name\n    \n    return csv_response.getvalue()\n    \ndef email_info():\n     name=SQLFORM(db.email_info)\n     if(name.accepts(request.vars,session)):\n         #db.playlist.insert(playlist_id=request.vars.id)\n         session.flash=\'new entry made\'\n         redirect(URL(r=request,f=\'enter_info\'))\n     return dict(name=name) \n          \ndef logout():\n    session.username=[]\n    session.password=[]\n    redirect(URL(r=request,f=\'index\'))\n\n#finish\n###########################################################################################################    \n    #redirect(URL(r=request,f=\'enter_info\'))       \n    #for link in soup.find_all(\'a\'):\n    #    if link.get(\'title\')==\'View Profile\':\n    #        #print(link.get(\'href\'))\n    #        #print link.get_text()\n    #        view_profile.append(\'http://www.linkedin.com\'+link.get(\'href\'))\n    #        name.append(link.get_text())\n#for l in soup.find_all("span", { "class" : "given-name" }):\n    #print l.get_text()\n\n        \n\n#    for l in soup.find_all(\'dd\',{"class" : "title"}):\n        #print l.get_text()\n#        titl.append(l.get_text())\n    \n#    for l in soup.find_all(\'span\',{"class" : "location"}):\n        #print l.get_text()\n#        location.append(l.get_text())\n\n#    for l in soup.find_all(\'span\',{"class" : "industry"}):\n        #print l.get_text()\n#        industry.append(l.get_text())\n        \n#    for l in soup.find_all(\'span\', {"class" : "current-details"}):\n#        k=l.get_text()\n#        if k[len(k)-4:len(k)]!=\'more\':\n#            current.append(k)\n        #elif(l.get["class"]==\'current-details more text\'):\n        #    current.append(l.get_text())\n    #for l in soup.find_all(\'span\',{"class" : "current-details"}):\n        #print l.get_text()\n        #current.append(l.get_text())\n\n    \n    #global filename,csv_response\n\n    #csv_response = cStringIO.StringIO()\n    \n    #spamWriter = csv.writer(csv_response, delimiter=\',\')\n    \n    #spamWriter.writerow([\'NAME\',\'JOB-TITLE\',\'COMPANY-NAME\',\'LOCATION\',\'INDUSTRY\',\'PROFLE-URL\'])\n   \n    #spamWriter = csv.writer(open(request.vars.File_Name+\'.csv\', \'wb\'), delimiter=\',\')\n    #spamWriter.writerow([\'NAME\',\'JOB-TITLE\',\'Current\',\'LOCATION\',\'INDUSTRY\',\'PROFLE-URL\'])\n    #for i in range(1,10):\n    #    spamWriter.writerow([name[i].encode(\'utf-8\'),titl[i],current[i],location[i],industry[i],view_profile[i]])\n        \n        \n    #,titl[i],current[i],location[i],industry[i],view_profile[i]\n    #response.headers[\'Content-Type\'] = \'text/csv\'\n    #response.headers[\'Content-Disposition\'] = \'attachment; filename=%s\' % request.vars.File_Name\n\n    #print view_profile\n    #print name\n    #print location\n    #print industry\n    #print titl\n    \n    #return dict(view_profile=view_profile,name=name,location=location,industry=industry,titl=titl,current=current)\n\nresponse._vars=response._caller(search)\n'
p7
sS'snapshot'
p8
(dp9
S'exception'
p10
(dp11
S'__hash__'
p12
S"<method-wrapper '__hash__' of exceptions.KeyError object>"
p13
sS'__setattr__'
p14
S"<method-wrapper '__setattr__' of exceptions.KeyError object>"
p15
sS'__reduce_ex__'
p16
S'<built-in method __reduce_ex__ of exceptions.KeyError object>'
p17
sS'__getslice__'
p18
S"<method-wrapper '__getslice__' of exceptions.KeyError object>"
p19
sS'__getitem__'
p20
S"<method-wrapper '__getitem__' of exceptions.KeyError object>"
p21
sS'__setstate__'
p22
S'<built-in method __setstate__ of exceptions.KeyError object>'
p23
sS'__reduce__'
p24
S'<built-in method __reduce__ of exceptions.KeyError object>'
p25
sS'__str__'
p26
S"<method-wrapper '__str__' of exceptions.KeyError object>"
p27
sS'__format__'
p28
S'<built-in method __format__ of exceptions.KeyError object>'
p29
sS'__getattribute__'
p30
S"<method-wrapper '__getattribute__' of exceptions.KeyError object>"
p31
sS'__class__'
p32
S"<type 'exceptions.KeyError'>"
p33
sS'__unicode__'
p34
S'<built-in method __unicode__ of exceptions.KeyError object>'
p35
sS'__delattr__'
p36
S"<method-wrapper '__delattr__' of exceptions.KeyError object>"
p37
sS'__subclasshook__'
p38
S'<built-in method __subclasshook__ of type object>'
p39
sS'__repr__'
p40
S"<method-wrapper '__repr__' of exceptions.KeyError object>"
p41
sS'args'
p42
S"('row',)"
p43
sS'__dict__'
p44
S'{}'
p45
sS'__sizeof__'
p46
S'<built-in method __sizeof__ of exceptions.KeyError object>'
p47
sS'__doc__'
p48
S"'Mapping key not found.'"
p49
sS'__init__'
p50
S"<method-wrapper '__init__' of exceptions.KeyError object>"
p51
sS'__new__'
p52
S'<built-in method __new__ of type object>'
p53
ssS'evalue'
p54
S"'row'"
p55
sS'request'
p56
ccopy_reg
_reconstructor
p57
(cgluon.html
BEAUTIFY
p58
c__builtin__
object
p59
NtRp60
(dp61
S'attributes'
p62
(dp63
sS'components'
p64
(lp65
g57
(cgluon.html
TABLE
p66
g59
NtRp67
(dp68
g62
(dp69
S'level'
p70
I5
ssS'parent'
p71
Nsg64
(lp72
g57
(cgluon.html
TR
p73
g59
NtRp74
(dp75
g62
(dp76
sg71
g67
sg64
(lp77
g57
(cgluon.html
TD
p78
g59
NtRp79
(dp80
g62
(dp81
S'_style'
p82
S'font-weight:bold;vertical-align:top'
p83
ssg71
g74
sg64
(lp84
S'ajax'
p85
asbag57
(g78
g59
NtRp86
(dp87
g62
(dp88
S'_valign'
p89
S'top'
p90
ssg71
g74
sg64
(lp91
S':'
asbag57
(g78
g59
NtRp92
(dp93
g62
(dp94
sg71
g74
sg64
(lp95
g57
(g58
g59
NtRp96
(dp97
g62
(dp98
g70
I5
ssg71
g92
sg64
(lp99
S'False'
p100
asbasbasbag57
(g73
g59
NtRp101
(dp102
g62
(dp103
sg71
g67
sg64
(lp104
g57
(g78
g59
NtRp105
(dp106
g62
(dp107
g82
g83
ssg71
g101
sg64
(lp108
S'application'
p109
asbag57
(g78
g59
NtRp110
(dp111
g62
(dp112
g89
g90
ssg71
g101
sg64
(lp113
S':'
asbag57
(g78
g59
NtRp114
(dp115
g62
(dp116
sg71
g101
sg64
(lp117
g57
(g58
g59
NtRp118
(dp119
g62
(dp120
g70
I5
ssg71
g114
sg64
(lp121
S'mycrawler'
p122
asbasbasbag57
(g73
g59
NtRp123
(dp124
g62
(dp125
sg71
g67
sg64
(lp126
g57
(g78
g59
NtRp127
(dp128
g62
(dp129
g82
g83
ssg71
g123
sg64
(lp130
g42
asbag57
(g78
g59
NtRp131
(dp132
g62
(dp133
g89
g90
ssg71
g123
sg64
(lp134
S':'
asbag57
(g78
g59
NtRp135
(dp136
g62
(dp137
sg71
g123
sg64
(lp138
g57
(g58
g59
NtRp139
(dp140
g62
(dp141
g70
I5
ssg71
g135
sg64
(lp142
g57
(g66
g59
NtRp143
(dp144
g62
(dp145
g70
I4
ssg71
Nsg64
(lp146
sbasbasbasbag57
(g73
g59
NtRp147
(dp148
g62
(dp149
sg71
g67
sg64
(lp150
g57
(g78
g59
NtRp151
(dp152
g62
(dp153
g82
g83
ssg71
g147
sg64
(lp154
S'body'
p155
asbag57
(g78
g59
NtRp156
(dp157
g62
(dp158
g89
g90
ssg71
g147
sg64
(lp159
S':'
asbag57
(g78
g59
NtRp160
(dp161
g62
(dp162
sg71
g147
sg64
(lp163
g57
(g58
g59
NtRp164
(dp165
g62
(dp166
g70
I5
ssg71
g160
sg64
(lp167
S'<cStringIO.StringO object at 0x06D9A1A0>'
p168
asbasbasbag57
(g73
g59
NtRp169
(dp170
g62
(dp171
sg71
g67
sg64
(lp172
g57
(g78
g59
NtRp173
(dp174
g62
(dp175
g82
g83
ssg71
g169
sg64
(lp176
S'client'
p177
asbag57
(g78
g59
NtRp178
(dp179
g62
(dp180
g89
g90
ssg71
g169
sg64
(lp181
S':'
asbag57
(g78
g59
NtRp182
(dp183
g62
(dp184
sg71
g169
sg64
(lp185
g57
(g58
g59
NtRp186
(dp187
g62
(dp188
g70
I5
ssg71
g182
sg64
(lp189
S'127.0.0.1'
p190
asbasbasbag57
(g73
g59
NtRp191
(dp192
g62
(dp193
sg71
g67
sg64
(lp194
g57
(g78
g59
NtRp195
(dp196
g62
(dp197
g82
g83
ssg71
g191
sg64
(lp198
S'controller'
p199
asbag57
(g78
g59
NtRp200
(dp201
g62
(dp202
g89
g90
ssg71
g191
sg64
(lp203
S':'
asbag57
(g78
g59
NtRp204
(dp205
g62
(dp206
sg71
g191
sg64
(lp207
g57
(g58
g59
NtRp208
(dp209
g62
(dp210
g70
I5
ssg71
g204
sg64
(lp211
S'default'
p212
asbasbasbag57
(g73
g59
NtRp213
(dp214
g62
(dp215
sg71
g67
sg64
(lp216
g57
(g78
g59
NtRp217
(dp218
g62
(dp219
g82
g83
ssg71
g213
sg64
(lp220
S'cookies'
p221
asbag57
(g78
g59
NtRp222
(dp223
g62
(dp224
g89
g90
ssg71
g213
sg64
(lp225
S':'
asbag57
(g78
g59
NtRp226
(dp227
g62
(dp228
sg71
g213
sg64
(lp229
g57
(g58
g59
NtRp230
(dp231
g62
(dp232
g70
I5
ssg71
g226
sg64
(lp233
g57
(g66
g59
NtRp234
(dp235
g62
(dp236
g70
I4
ssg71
Nsg64
(lp237
g57
(g73
g59
NtRp238
(dp239
g62
(dp240
sg71
g234
sg64
(lp241
g57
(g78
g59
NtRp242
(dp243
g62
(dp244
g82
g83
ssg71
g238
sg64
(lp245
S'session_id_admin'
p246
asbag57
(g78
g59
NtRp247
(dp248
g62
(dp249
g89
g90
ssg71
g238
sg64
(lp250
S':'
asbag57
(g78
g59
NtRp251
(dp252
g62
(dp253
sg71
g238
sg64
(lp254
g57
(g58
g59
NtRp255
(dp256
g62
(dp257
g70
I4
ssg71
g251
sg64
(lp258
g57
(g66
g59
NtRp259
(dp260
g62
(dp261
g70
I3
ssg71
Nsg64
(lp262
g57
(g73
g59
NtRp263
(dp264
g62
(dp265
sg71
g259
sg64
(lp266
g57
(g78
g59
NtRp267
(dp268
g62
(dp269
g82
g83
ssg71
g263
sg64
(lp270
S'comment'
p271
asbag57
(g78
g59
NtRp272
(dp273
g62
(dp274
g89
g90
ssg71
g263
sg64
(lp275
S':'
asbag57
(g78
g59
NtRp276
(dp277
g62
(dp278
sg71
g263
sg64
(lp279
g57
(g58
g59
NtRp280
(dp281
g62
(dp282
g70
I3
ssg71
g276
sg64
(lp283
S''
asbasbasbag57
(g73
g59
NtRp284
(dp285
g62
(dp286
sg71
g259
sg64
(lp287
g57
(g78
g59
NtRp288
(dp289
g62
(dp290
g82
g83
ssg71
g284
sg64
(lp291
S'domain'
p292
asbag57
(g78
g59
NtRp293
(dp294
g62
(dp295
g89
g90
ssg71
g284
sg64
(lp296
S':'
asbag57
(g78
g59
NtRp297
(dp298
g62
(dp299
sg71
g284
sg64
(lp300
g57
(g58
g59
NtRp301
(dp302
g62
(dp303
g70
I3
ssg71
g297
sg64
(lp304
S''
asbasbasbag57
(g73
g59
NtRp305
(dp306
g62
(dp307
sg71
g259
sg64
(lp308
g57
(g78
g59
NtRp309
(dp310
g62
(dp311
g82
g83
ssg71
g305
sg64
(lp312
S'expires'
p313
asbag57
(g78
g59
NtRp314
(dp315
g62
(dp316
g89
g90
ssg71
g305
sg64
(lp317
S':'
asbag57
(g78
g59
NtRp318
(dp319
g62
(dp320
sg71
g305
sg64
(lp321
g57
(g58
g59
NtRp322
(dp323
g62
(dp324
g70
I3
ssg71
g318
sg64
(lp325
S''
asbasbasbag57
(g73
g59
NtRp326
(dp327
g62
(dp328
sg71
g259
sg64
(lp329
g57
(g78
g59
NtRp330
(dp331
g62
(dp332
g82
g83
ssg71
g326
sg64
(lp333
S'httponly'
p334
asbag57
(g78
g59
NtRp335
(dp336
g62
(dp337
g89
g90
ssg71
g326
sg64
(lp338
S':'
asbag57
(g78
g59
NtRp339
(dp340
g62
(dp341
sg71
g326
sg64
(lp342
g57
(g58
g59
NtRp343
(dp344
g62
(dp345
g70
I3
ssg71
g339
sg64
(lp346
S''
asbasbasbag57
(g73
g59
NtRp347
(dp348
g62
(dp349
sg71
g259
sg64
(lp350
g57
(g78
g59
NtRp351
(dp352
g62
(dp353
g82
g83
ssg71
g347
sg64
(lp354
S'max-age'
p355
asbag57
(g78
g59
NtRp356
(dp357
g62
(dp358
g89
g90
ssg71
g347
sg64
(lp359
S':'
asbag57
(g78
g59
NtRp360
(dp361
g62
(dp362
sg71
g347
sg64
(lp363
g57
(g58
g59
NtRp364
(dp365
g62
(dp366
g70
I3
ssg71
g360
sg64
(lp367
S''
asbasbasbag57
(g73
g59
NtRp368
(dp369
g62
(dp370
sg71
g259
sg64
(lp371
g57
(g78
g59
NtRp372
(dp373
g62
(dp374
g82
g83
ssg71
g368
sg64
(lp375
S'path'
p376
asbag57
(g78
g59
NtRp377
(dp378
g62
(dp379
g89
g90
ssg71
g368
sg64
(lp380
S':'
asbag57
(g78
g59
NtRp381
(dp382
g62
(dp383
sg71
g368
sg64
(lp384
g57
(g58
g59
NtRp385
(dp386
g62
(dp387
g70
I3
ssg71
g381
sg64
(lp388
S''
asbasbasbag57
(g73
g59
NtRp389
(dp390
g62
(dp391
sg71
g259
sg64
(lp392
g57
(g78
g59
NtRp393
(dp394
g62
(dp395
g82
g83
ssg71
g389
sg64
(lp396
S'secure'
p397
asbag57
(g78
g59
NtRp398
(dp399
g62
(dp400
g89
g90
ssg71
g389
sg64
(lp401
S':'
asbag57
(g78
g59
NtRp402
(dp403
g62
(dp404
sg71
g389
sg64
(lp405
g57
(g58
g59
NtRp406
(dp407
g62
(dp408
g70
I3
ssg71
g402
sg64
(lp409
S''
asbasbasbag57
(g73
g59
NtRp410
(dp411
g62
(dp412
sg71
g259
sg64
(lp413
g57
(g78
g59
NtRp414
(dp415
g62
(dp416
g82
g83
ssg71
g410
sg64
(lp417
S'version'
p418
asbag57
(g78
g59
NtRp419
(dp420
g62
(dp421
g89
g90
ssg71
g410
sg64
(lp422
S':'
asbag57
(g78
g59
NtRp423
(dp424
g62
(dp425
sg71
g410
sg64
(lp426
g57
(g58
g59
NtRp427
(dp428
g62
(dp429
g70
I3
ssg71
g423
sg64
(lp430
S''
asbasbasbasbasbasbasbag57
(g73
g59
NtRp431
(dp432
g62
(dp433
sg71
g234
sg64
(lp434
g57
(g78
g59
NtRp435
(dp436
g62
(dp437
g82
g83
ssg71
g431
sg64
(lp438
S'session_id_mycrawler'
p439
asbag57
(g78
g59
NtRp440
(dp441
g62
(dp442
g89
g90
ssg71
g431
sg64
(lp443
S':'
asbag57
(g78
g59
NtRp444
(dp445
g62
(dp446
sg71
g431
sg64
(lp447
g57
(g58
g59
NtRp448
(dp449
g62
(dp450
g70
I4
ssg71
g444
sg64
(lp451
g57
(g66
g59
NtRp452
(dp453
g62
(dp454
g70
I3
ssg71
Nsg64
(lp455
g57
(g73
g59
NtRp456
(dp457
g62
(dp458
sg71
g452
sg64
(lp459
g57
(g78
g59
NtRp460
(dp461
g62
(dp462
g82
g83
ssg71
g456
sg64
(lp463
g271
asbag57
(g78
g59
NtRp464
(dp465
g62
(dp466
g89
g90
ssg71
g456
sg64
(lp467
S':'
asbag57
(g78
g59
NtRp468
(dp469
g62
(dp470
sg71
g456
sg64
(lp471
g57
(g58
g59
NtRp472
(dp473
g62
(dp474
g70
I3
ssg71
g468
sg64
(lp475
S''
asbasbasbag57
(g73
g59
NtRp476
(dp477
g62
(dp478
sg71
g452
sg64
(lp479
g57
(g78
g59
NtRp480
(dp481
g62
(dp482
g82
g83
ssg71
g476
sg64
(lp483
g292
asbag57
(g78
g59
NtRp484
(dp485
g62
(dp486
g89
g90
ssg71
g476
sg64
(lp487
S':'
asbag57
(g78
g59
NtRp488
(dp489
g62
(dp490
sg71
g476
sg64
(lp491
g57
(g58
g59
NtRp492
(dp493
g62
(dp494
g70
I3
ssg71
g488
sg64
(lp495
S''
asbasbasbag57
(g73
g59
NtRp496
(dp497
g62
(dp498
sg71
g452
sg64
(lp499
g57
(g78
g59
NtRp500
(dp501
g62
(dp502
g82
g83
ssg71
g496
sg64
(lp503
g313
asbag57
(g78
g59
NtRp504
(dp505
g62
(dp506
g89
g90
ssg71
g496
sg64
(lp507
S':'
asbag57
(g78
g59
NtRp508
(dp509
g62
(dp510
sg71
g496
sg64
(lp511
g57
(g58
g59
NtRp512
(dp513
g62
(dp514
g70
I3
ssg71
g508
sg64
(lp515
S''
asbasbasbag57
(g73
g59
NtRp516
(dp517
g62
(dp518
sg71
g452
sg64
(lp519
g57
(g78
g59
NtRp520
(dp521
g62
(dp522
g82
g83
ssg71
g516
sg64
(lp523
g334
asbag57
(g78
g59
NtRp524
(dp525
g62
(dp526
g89
g90
ssg71
g516
sg64
(lp527
S':'
asbag57
(g78
g59
NtRp528
(dp529
g62
(dp530
sg71
g516
sg64
(lp531
g57
(g58
g59
NtRp532
(dp533
g62
(dp534
g70
I3
ssg71
g528
sg64
(lp535
S''
asbasbasbag57
(g73
g59
NtRp536
(dp537
g62
(dp538
sg71
g452
sg64
(lp539
g57
(g78
g59
NtRp540
(dp541
g62
(dp542
g82
g83
ssg71
g536
sg64
(lp543
g355
asbag57
(g78
g59
NtRp544
(dp545
g62
(dp546
g89
g90
ssg71
g536
sg64
(lp547
S':'
asbag57
(g78
g59
NtRp548
(dp549
g62
(dp550
sg71
g536
sg64
(lp551
g57
(g58
g59
NtRp552
(dp553
g62
(dp554
g70
I3
ssg71
g548
sg64
(lp555
S''
asbasbasbag57
(g73
g59
NtRp556
(dp557
g62
(dp558
sg71
g452
sg64
(lp559
g57
(g78
g59
NtRp560
(dp561
g62
(dp562
g82
g83
ssg71
g556
sg64
(lp563
g376
asbag57
(g78
g59
NtRp564
(dp565
g62
(dp566
g89
g90
ssg71
g556
sg64
(lp567
S':'
asbag57
(g78
g59
NtRp568
(dp569
g62
(dp570
sg71
g556
sg64
(lp571
g57
(g58
g59
NtRp572
(dp573
g62
(dp574
g70
I3
ssg71
g568
sg64
(lp575
S''
asbasbasbag57
(g73
g59
NtRp576
(dp577
g62
(dp578
sg71
g452
sg64
(lp579
g57
(g78
g59
NtRp580
(dp581
g62
(dp582
g82
g83
ssg71
g576
sg64
(lp583
g397
asbag57
(g78
g59
NtRp584
(dp585
g62
(dp586
g89
g90
ssg71
g576
sg64
(lp587
S':'
asbag57
(g78
g59
NtRp588
(dp589
g62
(dp590
sg71
g576
sg64
(lp591
g57
(g58
g59
NtRp592
(dp593
g62
(dp594
g70
I3
ssg71
g588
sg64
(lp595
S''
asbasbasbag57
(g73
g59
NtRp596
(dp597
g62
(dp598
sg71
g452
sg64
(lp599
g57
(g78
g59
NtRp600
(dp601
g62
(dp602
g82
g83
ssg71
g596
sg64
(lp603
g418
asbag57
(g78
g59
NtRp604
(dp605
g62
(dp606
g89
g90
ssg71
g596
sg64
(lp607
S':'
asbag57
(g78
g59
NtRp608
(dp609
g62
(dp610
sg71
g596
sg64
(lp611
g57
(g58
g59
NtRp612
(dp613
g62
(dp614
g70
I3
ssg71
g608
sg64
(lp615
S''
asbasbasbasbasbasbasbag57
(g73
g59
NtRp616
(dp617
g62
(dp618
sg71
g234
sg64
(lp619
g57
(g78
g59
NtRp620
(dp621
g62
(dp622
g82
g83
ssg71
g616
sg64
(lp623
S'session_id_welcome'
p624
asbag57
(g78
g59
NtRp625
(dp626
g62
(dp627
g89
g90
ssg71
g616
sg64
(lp628
S':'
asbag57
(g78
g59
NtRp629
(dp630
g62
(dp631
sg71
g616
sg64
(lp632
g57
(g58
g59
NtRp633
(dp634
g62
(dp635
g70
I4
ssg71
g629
sg64
(lp636
g57
(g66
g59
NtRp637
(dp638
g62
(dp639
g70
I3
ssg71
Nsg64
(lp640
g57
(g73
g59
NtRp641
(dp642
g62
(dp643
sg71
g637
sg64
(lp644
g57
(g78
g59
NtRp645
(dp646
g62
(dp647
g82
g83
ssg71
g641
sg64
(lp648
g271
asbag57
(g78
g59
NtRp649
(dp650
g62
(dp651
g89
g90
ssg71
g641
sg64
(lp652
S':'
asbag57
(g78
g59
NtRp653
(dp654
g62
(dp655
sg71
g641
sg64
(lp656
g57
(g58
g59
NtRp657
(dp658
g62
(dp659
g70
I3
ssg71
g653
sg64
(lp660
S''
asbasbasbag57
(g73
g59
NtRp661
(dp662
g62
(dp663
sg71
g637
sg64
(lp664
g57
(g78
g59
NtRp665
(dp666
g62
(dp667
g82
g83
ssg71
g661
sg64
(lp668
g292
asbag57
(g78
g59
NtRp669
(dp670
g62
(dp671
g89
g90
ssg71
g661
sg64
(lp672
S':'
asbag57
(g78
g59
NtRp673
(dp674
g62
(dp675
sg71
g661
sg64
(lp676
g57
(g58
g59
NtRp677
(dp678
g62
(dp679
g70
I3
ssg71
g673
sg64
(lp680
S''
asbasbasbag57
(g73
g59
NtRp681
(dp682
g62
(dp683
sg71
g637
sg64
(lp684
g57
(g78
g59
NtRp685
(dp686
g62
(dp687
g82
g83
ssg71
g681
sg64
(lp688
g313
asbag57
(g78
g59
NtRp689
(dp690
g62
(dp691
g89
g90
ssg71
g681
sg64
(lp692
S':'
asbag57
(g78
g59
NtRp693
(dp694
g62
(dp695
sg71
g681
sg64
(lp696
g57
(g58
g59
NtRp697
(dp698
g62
(dp699
g70
I3
ssg71
g693
sg64
(lp700
S''
asbasbasbag57
(g73
g59
NtRp701
(dp702
g62
(dp703
sg71
g637
sg64
(lp704
g57
(g78
g59
NtRp705
(dp706
g62
(dp707
g82
g83
ssg71
g701
sg64
(lp708
g334
asbag57
(g78
g59
NtRp709
(dp710
g62
(dp711
g89
g90
ssg71
g701
sg64
(lp712
S':'
asbag57
(g78
g59
NtRp713
(dp714
g62
(dp715
sg71
g701
sg64
(lp716
g57
(g58
g59
NtRp717
(dp718
g62
(dp719
g70
I3
ssg71
g713
sg64
(lp720
S''
asbasbasbag57
(g73
g59
NtRp721
(dp722
g62
(dp723
sg71
g637
sg64
(lp724
g57
(g78
g59
NtRp725
(dp726
g62
(dp727
g82
g83
ssg71
g721
sg64
(lp728
g355
asbag57
(g78
g59
NtRp729
(dp730
g62
(dp731
g89
g90
ssg71
g721
sg64
(lp732
S':'
asbag57
(g78
g59
NtRp733
(dp734
g62
(dp735
sg71
g721
sg64
(lp736
g57
(g58
g59
NtRp737
(dp738
g62
(dp739
g70
I3
ssg71
g733
sg64
(lp740
S''
asbasbasbag57
(g73
g59
NtRp741
(dp742
g62
(dp743
sg71
g637
sg64
(lp744
g57
(g78
g59
NtRp745
(dp746
g62
(dp747
g82
g83
ssg71
g741
sg64
(lp748
g376
asbag57
(g78
g59
NtRp749
(dp750
g62
(dp751
g89
g90
ssg71
g741
sg64
(lp752
S':'
asbag57
(g78
g59
NtRp753
(dp754
g62
(dp755
sg71
g741
sg64
(lp756
g57
(g58
g59
NtRp757
(dp758
g62
(dp759
g70
I3
ssg71
g753
sg64
(lp760
S''
asbasbasbag57
(g73
g59
NtRp761
(dp762
g62
(dp763
sg71
g637
sg64
(lp764
g57
(g78
g59
NtRp765
(dp766
g62
(dp767
g82
g83
ssg71
g761
sg64
(lp768
g397
asbag57
(g78
g59
NtRp769
(dp770
g62
(dp771
g89
g90
ssg71
g761
sg64
(lp772
S':'
asbag57
(g78
g59
NtRp773
(dp774
g62
(dp775
sg71
g761
sg64
(lp776
g57
(g58
g59
NtRp777
(dp778
g62
(dp779
g70
I3
ssg71
g773
sg64
(lp780
S''
asbasbasbag57
(g73
g59
NtRp781
(dp782
g62
(dp783
sg71
g637
sg64
(lp784
g57
(g78
g59
NtRp785
(dp786
g62
(dp787
g82
g83
ssg71
g781
sg64
(lp788
g418
asbag57
(g78
g59
NtRp789
(dp790
g62
(dp791
g89
g90
ssg71
g781
sg64
(lp792
S':'
asbag57
(g78
g59
NtRp793
(dp794
g62
(dp795
sg71
g781
sg64
(lp796
g57
(g58
g59
NtRp797
(dp798
g62
(dp799
g70
I3
ssg71
g793
sg64
(lp800
S''
asbasbasbasbasbasbasbasbasbasbasbag57
(g73
g59
NtRp801
(dp802
g62
(dp803
sg71
g67
sg64
(lp804
g57
(g78
g59
NtRp805
(dp806
g62
(dp807
g82
g83
ssg71
g801
sg64
(lp808
S'env'
p809
asbag57
(g78
g59
NtRp810
(dp811
g62
(dp812
g89
g90
ssg71
g801
sg64
(lp813
S':'
asbag57
(g78
g59
NtRp814
(dp815
g62
(dp816
sg71
g801
sg64
(lp817
g57
(g58
g59
NtRp818
(dp819
g62
(dp820
g70
I5
ssg71
g814
sg64
(lp821
g57
(g66
g59
NtRp822
(dp823
g62
(dp824
g70
I4
ssg71
Nsg64
(lp825
g57
(g73
g59
NtRp826
(dp827
g62
(dp828
sg71
g822
sg64
(lp829
g57
(g78
g59
NtRp830
(dp831
g62
(dp832
g82
g83
ssg71
g826
sg64
(lp833
S'app_folders'
p834
asbag57
(g78
g59
NtRp835
(dp836
g62
(dp837
g89
g90
ssg71
g826
sg64
(lp838
S':'
asbag57
(g78
g59
NtRp839
(dp840
g62
(dp841
sg71
g826
sg64
(lp842
g57
(g58
g59
NtRp843
(dp844
g62
(dp845
g70
I4
ssg71
g839
sg64
(lp846
S"set(['C:\\\\Documents and Settings\\\\agrover\\\\Desktop\\\\previous crawler\\\\web2py\\\\applications\\\\admin\\\\', 'C:\\\\Documents and Settings\\\\agrover\\\\Desktop\\\\previous crawler\\\\web2py\\\\applications\\\\mycrawler\\\\', 'C:\\\\Documents and Settings\\\\agrover\\\\Desktop\\\\previous crawler\\\\web2py\\\\applications\\\\welcome\\\\'])"
p847
asbasbasbag57
(g73
g59
NtRp848
(dp849
g62
(dp850
sg71
g822
sg64
(lp851
g57
(g78
g59
NtRp852
(dp853
g62
(dp854
g82
g83
ssg71
g848
sg64
(lp855
S'applications_parent'
p856
asbag57
(g78
g59
NtRp857
(dp858
g62
(dp859
g89
g90
ssg71
g848
sg64
(lp860
S':'
asbag57
(g78
g59
NtRp861
(dp862
g62
(dp863
sg71
g848
sg64
(lp864
g57
(g58
g59
NtRp865
(dp866
g62
(dp867
g70
I4
ssg71
g861
sg64
(lp868
S'C:\\Documents and Settings\\agrover\\Desktop\\previous crawler\\web2py'
p869
asbasbasbag57
(g73
g59
NtRp870
(dp871
g62
(dp872
sg71
g822
sg64
(lp873
g57
(g78
g59
NtRp874
(dp875
g62
(dp876
g82
g83
ssg71
g870
sg64
(lp877
S'cmd_args'
p878
asbag57
(g78
g59
NtRp879
(dp880
g62
(dp881
g89
g90
ssg71
g870
sg64
(lp882
S':'
asbag57
(g78
g59
NtRp883
(dp884
g62
(dp885
sg71
g870
sg64
(lp886
g57
(g58
g59
NtRp887
(dp888
g62
(dp889
g70
I4
ssg71
g883
sg64
(lp890
g57
(g66
g59
NtRp891
(dp892
g62
(dp893
g70
I3
ssg71
Nsg64
(lp894
sbasbasbasbag57
(g73
g59
NtRp895
(dp896
g62
(dp897
sg71
g822
sg64
(lp898
g57
(g78
g59
NtRp899
(dp900
g62
(dp901
g82
g83
ssg71
g895
sg64
(lp902
S'cmd_options'
p903
asbag57
(g78
g59
NtRp904
(dp905
g62
(dp906
g89
g90
ssg71
g895
sg64
(lp907
S':'
asbag57
(g78
g59
NtRp908
(dp909
g62
(dp910
sg71
g895
sg64
(lp911
g57
(g58
g59
NtRp912
(dp913
g62
(dp914
g70
I4
ssg71
g908
sg64
(lp915
S"<Values at 0x16d73f0: {'verbose': False, 'ip': '127.0.0.1', 'shutdown_timeout': 5, 'taskbar': False, 'nocron': False, 'pid_filename': 'httpserver.pid', 'maxthreads': None, 'softcron': False, 'server_name': 'mniagrover', 'bpython': False, 'nogui': False, 'port': 8000, 'extcron': False, 'debuglevel': 30, 'test': None, 'folder': 'C:\\\\Documents and Settings\\\\agrover\\\\Desktop\\\\previous crawler\\\\web2py', 'config': '', 'import_models': False, 'winservice': '', 'shell': None, 'run': '', 'log_filename': 'httpserver.log', 'args': [''], 'socket_timeout': 5, 'ssl_ca_certificate': None, 'scheduler': None, 'profiler_filename': None, 'ssl_private_key': '', 'password': '<ask>', 'request_queue_size': 5, 'ssl_certificate': '', 'cronjob': False, 'numthreads': None, 'quiet': False, 'interfaces': None, 'minthreads': None, 'timeout': 10, 'plain': False, 'nobanner': False}>"
p916
asbasbasbag57
(g73
g59
NtRp917
(dp918
g62
(dp919
sg71
g822
sg64
(lp920
g57
(g78
g59
NtRp921
(dp922
g62
(dp923
g82
g83
ssg71
g917
sg64
(lp924
S'db_sessions'
p925
asbag57
(g78
g59
NtRp926
(dp927
g62
(dp928
g89
g90
ssg71
g917
sg64
(lp929
S':'
asbag57
(g78
g59
NtRp930
(dp931
g62
(dp932
sg71
g917
sg64
(lp933
g57
(g58
g59
NtRp934
(dp935
g62
(dp936
g70
I4
ssg71
g930
sg64
(lp937
S'set([])'
p938
asbasbasbag57
(g73
g59
NtRp939
(dp940
g62
(dp941
sg71
g822
sg64
(lp942
g57
(g78
g59
NtRp943
(dp944
g62
(dp945
g82
g83
ssg71
g939
sg64
(lp946
S'debugging'
p947
asbag57
(g78
g59
NtRp948
(dp949
g62
(dp950
g89
g90
ssg71
g939
sg64
(lp951
S':'
asbag57
(g78
g59
NtRp952
(dp953
g62
(dp954
sg71
g939
sg64
(lp955
g57
(g58
g59
NtRp956
(dp957
g62
(dp958
g70
I4
ssg71
g952
sg64
(lp959
g100
asbasbasbag57
(g73
g59
NtRp960
(dp961
g62
(dp962
sg71
g822
sg64
(lp963
g57
(g78
g59
NtRp964
(dp965
g62
(dp966
g82
g83
ssg71
g960
sg64
(lp967
S'gluon_parent'
p968
asbag57
(g78
g59
NtRp969
(dp970
g62
(dp971
g89
g90
ssg71
g960
sg64
(lp972
S':'
asbag57
(g78
g59
NtRp973
(dp974
g62
(dp975
sg71
g960
sg64
(lp976
g57
(g58
g59
NtRp977
(dp978
g62
(dp979
g70
I4
ssg71
g973
sg64
(lp980
S'C:\\Documents and Settings\\agrover\\Desktop\\previous crawler\\web2py'
p981
asbasbasbag57
(g73
g59
NtRp982
(dp983
g62
(dp984
sg71
g822
sg64
(lp985
g57
(g78
g59
NtRp986
(dp987
g62
(dp988
g82
g83
ssg71
g982
sg64
(lp989
S'http_accept'
p990
asbag57
(g78
g59
NtRp991
(dp992
g62
(dp993
g89
g90
ssg71
g982
sg64
(lp994
S':'
asbag57
(g78
g59
NtRp995
(dp996
g62
(dp997
sg71
g982
sg64
(lp998
g57
(g58
g59
NtRp999
(dp1000
g62
(dp1001
g70
I4
ssg71
g995
sg64
(lp1002
S'text/html,application/xhtml+xml,application/xml;q=0.9,*/*;q=0.8'
p1003
asbasbasbag57
(g73
g59
NtRp1004
(dp1005
g62
(dp1006
sg71
g822
sg64
(lp1007
g57
(g78
g59
NtRp1008
(dp1009
g62
(dp1010
g82
g83
ssg71
g1004
sg64
(lp1011
S'http_accept_encoding'
p1012
asbag57
(g78
g59
NtRp1013
(dp1014
g62
(dp1015
g89
g90
ssg71
g1004
sg64
(lp1016
S':'
asbag57
(g78
g59
NtRp1017
(dp1018
g62
(dp1019
sg71
g1004
sg64
(lp1020
g57
(g58
g59
NtRp1021
(dp1022
g62
(dp1023
g70
I4
ssg71
g1017
sg64
(lp1024
S'gzip, deflate'
p1025
asbasbasbag57
(g73
g59
NtRp1026
(dp1027
g62
(dp1028
sg71
g822
sg64
(lp1029
g57
(g78
g59
NtRp1030
(dp1031
g62
(dp1032
g82
g83
ssg71
g1026
sg64
(lp1033
S'http_accept_language'
p1034
asbag57
(g78
g59
NtRp1035
(dp1036
g62
(dp1037
g89
g90
ssg71
g1026
sg64
(lp1038
S':'
asbag57
(g78
g59
NtRp1039
(dp1040
g62
(dp1041
sg71
g1026
sg64
(lp1042
g57
(g58
g59
NtRp1043
(dp1044
g62
(dp1045
g70
I4
ssg71
g1039
sg64
(lp1046
S'en-us,en;q=0.5'
p1047
asbasbasbag57
(g73
g59
NtRp1048
(dp1049
g62
(dp1050
sg71
g822
sg64
(lp1051
g57
(g78
g59
NtRp1052
(dp1053
g62
(dp1054
g82
g83
ssg71
g1048
sg64
(lp1055
S'http_connection'
p1056
asbag57
(g78
g59
NtRp1057
(dp1058
g62
(dp1059
g89
g90
ssg71
g1048
sg64
(lp1060
S':'
asbag57
(g78
g59
NtRp1061
(dp1062
g62
(dp1063
sg71
g1048
sg64
(lp1064
g57
(g58
g59
NtRp1065
(dp1066
g62
(dp1067
g70
I4
ssg71
g1061
sg64
(lp1068
S'keep-alive'
p1069
asbasbasbag57
(g73
g59
NtRp1070
(dp1071
g62
(dp1072
sg71
g822
sg64
(lp1073
g57
(g78
g59
NtRp1074
(dp1075
g62
(dp1076
g82
g83
ssg71
g1070
sg64
(lp1077
S'http_cookie'
p1078
asbag57
(g78
g59
NtRp1079
(dp1080
g62
(dp1081
g89
g90
ssg71
g1070
sg64
(lp1082
S':'
asbag57
(g78
g59
NtRp1083
(dp1084
g62
(dp1085
sg71
g1070
sg64
(lp1086
g57
(g58
g59
NtRp1087
(dp1088
g62
(dp1089
g70
I4
ssg71
g1083
sg64
(lp1090
S'session_id_welcome=127.0.0.1-45d7a5cf-b9f9-4413-8f39-705386d53da8; session_id_admin=127.0.0.1-ca5d0997-9e0b-410c-a047-033f4f615d84; session_id_mycrawler=127.0.0.1-2770ef8a-3056-4fd8-9016-5cf5e194a093'
p1091
asbasbasbag57
(g73
g59
NtRp1092
(dp1093
g62
(dp1094
sg71
g822
sg64
(lp1095
g57
(g78
g59
NtRp1096
(dp1097
g62
(dp1098
g82
g83
ssg71
g1092
sg64
(lp1099
S'http_host'
p1100
asbag57
(g78
g59
NtRp1101
(dp1102
g62
(dp1103
g89
g90
ssg71
g1092
sg64
(lp1104
S':'
asbag57
(g78
g59
NtRp1105
(dp1106
g62
(dp1107
sg71
g1092
sg64
(lp1108
g57
(g58
g59
NtRp1109
(dp1110
g62
(dp1111
g70
I4
ssg71
g1105
sg64
(lp1112
S'127.0.0.1:8000'
p1113
asbasbasbag57
(g73
g59
NtRp1114
(dp1115
g62
(dp1116
sg71
g822
sg64
(lp1117
g57
(g78
g59
NtRp1118
(dp1119
g62
(dp1120
g82
g83
ssg71
g1114
sg64
(lp1121
S'http_referer'
p1122
asbag57
(g78
g59
NtRp1123
(dp1124
g62
(dp1125
g89
g90
ssg71
g1114
sg64
(lp1126
S':'
asbag57
(g78
g59
NtRp1127
(dp1128
g62
(dp1129
sg71
g1114
sg64
(lp1130
g57
(g58
g59
NtRp1131
(dp1132
g62
(dp1133
g70
I4
ssg71
g1127
sg64
(lp1134
S'http://127.0.0.1:8000/mycrawler/default/enter_info'
p1135
asbasbasbag57
(g73
g59
NtRp1136
(dp1137
g62
(dp1138
sg71
g822
sg64
(lp1139
g57
(g78
g59
NtRp1140
(dp1141
g62
(dp1142
g82
g83
ssg71
g1136
sg64
(lp1143
S'http_user_agent'
p1144
asbag57
(g78
g59
NtRp1145
(dp1146
g62
(dp1147
g89
g90
ssg71
g1136
sg64
(lp1148
S':'
asbag57
(g78
g59
NtRp1149
(dp1150
g62
(dp1151
sg71
g1136
sg64
(lp1152
g57
(g58
g59
NtRp1153
(dp1154
g62
(dp1155
g70
I4
ssg71
g1149
sg64
(lp1156
S'Mozilla/5.0 (Windows NT 5.1; rv:12.0) Gecko/20100101 Firefox/12.0'
p1157
asbasbasbag57
(g73
g59
NtRp1158
(dp1159
g62
(dp1160
sg71
g822
sg64
(lp1161
g57
(g78
g59
NtRp1162
(dp1163
g62
(dp1164
g82
g83
ssg71
g1158
sg64
(lp1165
S'is_jython'
p1166
asbag57
(g78
g59
NtRp1167
(dp1168
g62
(dp1169
g89
g90
ssg71
g1158
sg64
(lp1170
S':'
asbag57
(g78
g59
NtRp1171
(dp1172
g62
(dp1173
sg71
g1158
sg64
(lp1174
g57
(g58
g59
NtRp1175
(dp1176
g62
(dp1177
g70
I4
ssg71
g1171
sg64
(lp1178
g100
asbasbasbag57
(g73
g59
NtRp1179
(dp1180
g62
(dp1181
sg71
g822
sg64
(lp1182
g57
(g78
g59
NtRp1183
(dp1184
g62
(dp1185
g82
g83
ssg71
g1179
sg64
(lp1186
S'is_pypy'
p1187
asbag57
(g78
g59
NtRp1188
(dp1189
g62
(dp1190
g89
g90
ssg71
g1179
sg64
(lp1191
S':'
asbag57
(g78
g59
NtRp1192
(dp1193
g62
(dp1194
sg71
g1179
sg64
(lp1195
g57
(g58
g59
NtRp1196
(dp1197
g62
(dp1198
g70
I4
ssg71
g1192
sg64
(lp1199
g100
asbasbasbag57
(g73
g59
NtRp1200
(dp1201
g62
(dp1202
sg71
g822
sg64
(lp1203
g57
(g78
g59
NtRp1204
(dp1205
g62
(dp1206
g82
g83
ssg71
g1200
sg64
(lp1207
S'path_info'
p1208
asbag57
(g78
g59
NtRp1209
(dp1210
g62
(dp1211
g89
g90
ssg71
g1200
sg64
(lp1212
S':'
asbag57
(g78
g59
NtRp1213
(dp1214
g62
(dp1215
sg71
g1200
sg64
(lp1216
g57
(g58
g59
NtRp1217
(dp1218
g62
(dp1219
g70
I4
ssg71
g1213
sg64
(lp1220
S'/mycrawler/default/search'
p1221
asbasbasbag57
(g73
g59
NtRp1222
(dp1223
g62
(dp1224
sg71
g822
sg64
(lp1225
g57
(g78
g59
NtRp1226
(dp1227
g62
(dp1228
g82
g83
ssg71
g1222
sg64
(lp1229
S'query_string'
p1230
asbag57
(g78
g59
NtRp1231
(dp1232
g62
(dp1233
g89
g90
ssg71
g1222
sg64
(lp1234
S':'
asbag57
(g78
g59
NtRp1235
(dp1236
g62
(dp1237
sg71
g1222
sg64
(lp1238
g57
(g58
g59
NtRp1239
(dp1240
g62
(dp1241
g70
I4
ssg71
g1235
sg64
(lp1242
S'Company=&Country=United+States&File_Name=try2&First_Name=sam&Functions=All+Functions&Industry=All+Industries&Keywords=&Last_Name=&School=&Seniority_Levels=All+Seniority+Levels&Title=&_formkey=27433726-c26f-40a0-a79a-8a8e25ea7e3b&_formname=no_table%2Fcreate'
p1243
asbasbasbag57
(g73
g59
NtRp1244
(dp1245
g62
(dp1246
sg71
g822
sg64
(lp1247
g57
(g78
g59
NtRp1248
(dp1249
g62
(dp1250
g82
g83
ssg71
g1244
sg64
(lp1251
S'remote_addr'
p1252
asbag57
(g78
g59
NtRp1253
(dp1254
g62
(dp1255
g89
g90
ssg71
g1244
sg64
(lp1256
S':'
asbag57
(g78
g59
NtRp1257
(dp1258
g62
(dp1259
sg71
g1244
sg64
(lp1260
g57
(g58
g59
NtRp1261
(dp1262
g62
(dp1263
g70
I4
ssg71
g1257
sg64
(lp1264
g190
asbasbasbag57
(g73
g59
NtRp1265
(dp1266
g62
(dp1267
sg71
g822
sg64
(lp1268
g57
(g78
g59
NtRp1269
(dp1270
g62
(dp1271
g82
g83
ssg71
g1265
sg64
(lp1272
S'remote_port'
p1273
asbag57
(g78
g59
NtRp1274
(dp1275
g62
(dp1276
g89
g90
ssg71
g1265
sg64
(lp1277
S':'
asbag57
(g78
g59
NtRp1278
(dp1279
g62
(dp1280
sg71
g1265
sg64
(lp1281
g57
(g58
g59
NtRp1282
(dp1283
g62
(dp1284
g70
I4
ssg71
g1278
sg64
(lp1285
S'3851'
p1286
asbasbasbag57
(g73
g59
NtRp1287
(dp1288
g62
(dp1289
sg71
g822
sg64
(lp1290
g57
(g78
g59
NtRp1291
(dp1292
g62
(dp1293
g82
g83
ssg71
g1287
sg64
(lp1294
S'request_method'
p1295
asbag57
(g78
g59
NtRp1296
(dp1297
g62
(dp1298
g89
g90
ssg71
g1287
sg64
(lp1299
S':'
asbag57
(g78
g59
NtRp1300
(dp1301
g62
(dp1302
sg71
g1287
sg64
(lp1303
g57
(g58
g59
NtRp1304
(dp1305
g62
(dp1306
g70
I4
ssg71
g1300
sg64
(lp1307
S'GET'
p1308
asbasbasbag57
(g73
g59
NtRp1309
(dp1310
g62
(dp1311
sg71
g822
sg64
(lp1312
g57
(g78
g59
NtRp1313
(dp1314
g62
(dp1315
g82
g83
ssg71
g1309
sg64
(lp1316
S'script_name'
p1317
asbag57
(g78
g59
NtRp1318
(dp1319
g62
(dp1320
g89
g90
ssg71
g1309
sg64
(lp1321
S':'
asbag57
(g78
g59
NtRp1322
(dp1323
g62
(dp1324
sg71
g1309
sg64
(lp1325
g57
(g58
g59
NtRp1326
(dp1327
g62
(dp1328
g70
I4
ssg71
g1322
sg64
(lp1329
S''
asbasbasbag57
(g73
g59
NtRp1330
(dp1331
g62
(dp1332
sg71
g822
sg64
(lp1333
g57
(g78
g59
NtRp1334
(dp1335
g62
(dp1336
g82
g83
ssg71
g1330
sg64
(lp1337
S'server_name'
p1338
asbag57
(g78
g59
NtRp1339
(dp1340
g62
(dp1341
g89
g90
ssg71
g1330
sg64
(lp1342
S':'
asbag57
(g78
g59
NtRp1343
(dp1344
g62
(dp1345
sg71
g1330
sg64
(lp1346
g57
(g58
g59
NtRp1347
(dp1348
g62
(dp1349
g70
I4
ssg71
g1343
sg64
(lp1350
S'mniagrover'
p1351
asbasbasbag57
(g73
g59
NtRp1352
(dp1353
g62
(dp1354
sg71
g822
sg64
(lp1355
g57
(g78
g59
NtRp1356
(dp1357
g62
(dp1358
g82
g83
ssg71
g1352
sg64
(lp1359
S'server_port'
p1360
asbag57
(g78
g59
NtRp1361
(dp1362
g62
(dp1363
g89
g90
ssg71
g1352
sg64
(lp1364
S':'
asbag57
(g78
g59
NtRp1365
(dp1366
g62
(dp1367
sg71
g1352
sg64
(lp1368
g57
(g58
g59
NtRp1369
(dp1370
g62
(dp1371
g70
I4
ssg71
g1365
sg64
(lp1372
S'8000'
p1373
asbasbasbag57
(g73
g59
NtRp1374
(dp1375
g62
(dp1376
sg71
g822
sg64
(lp1377
g57
(g78
g59
NtRp1378
(dp1379
g62
(dp1380
g82
g83
ssg71
g1374
sg64
(lp1381
S'server_protocol'
p1382
asbag57
(g78
g59
NtRp1383
(dp1384
g62
(dp1385
g89
g90
ssg71
g1374
sg64
(lp1386
S':'
asbag57
(g78
g59
NtRp1387
(dp1388
g62
(dp1389
sg71
g1374
sg64
(lp1390
g57
(g58
g59
NtRp1391
(dp1392
g62
(dp1393
g70
I4
ssg71
g1387
sg64
(lp1394
S'HTTP/1.1'
p1395
asbasbasbag57
(g73
g59
NtRp1396
(dp1397
g62
(dp1398
sg71
g822
sg64
(lp1399
g57
(g78
g59
NtRp1400
(dp1401
g62
(dp1402
g82
g83
ssg71
g1396
sg64
(lp1403
S'server_software'
p1404
asbag57
(g78
g59
NtRp1405
(dp1406
g62
(dp1407
g89
g90
ssg71
g1396
sg64
(lp1408
S':'
asbag57
(g78
g59
NtRp1409
(dp1410
g62
(dp1411
sg71
g1396
sg64
(lp1412
g57
(g58
g59
NtRp1413
(dp1414
g62
(dp1415
g70
I4
ssg71
g1409
sg64
(lp1416
S'Rocket 1.2.4'
p1417
asbasbasbag57
(g73
g59
NtRp1418
(dp1419
g62
(dp1420
sg71
g822
sg64
(lp1421
g57
(g78
g59
NtRp1422
(dp1423
g62
(dp1424
g82
g83
ssg71
g1418
sg64
(lp1425
S'web2py_crontype'
p1426
asbag57
(g78
g59
NtRp1427
(dp1428
g62
(dp1429
g89
g90
ssg71
g1418
sg64
(lp1430
S':'
asbag57
(g78
g59
NtRp1431
(dp1432
g62
(dp1433
sg71
g1418
sg64
(lp1434
g57
(g58
g59
NtRp1435
(dp1436
g62
(dp1437
g70
I4
ssg71
g1431
sg64
(lp1438
S'hard'
p1439
asbasbasbag57
(g73
g59
NtRp1440
(dp1441
g62
(dp1442
sg71
g822
sg64
(lp1443
g57
(g78
g59
NtRp1444
(dp1445
g62
(dp1446
g82
g83
ssg71
g1440
sg64
(lp1447
S'web2py_path'
p1448
asbag57
(g78
g59
NtRp1449
(dp1450
g62
(dp1451
g89
g90
ssg71
g1440
sg64
(lp1452
S':'
asbag57
(g78
g59
NtRp1453
(dp1454
g62
(dp1455
sg71
g1440
sg64
(lp1456
g57
(g58
g59
NtRp1457
(dp1458
g62
(dp1459
g70
I4
ssg71
g1453
sg64
(lp1460
g869
asbasbasbag57
(g73
g59
NtRp1461
(dp1462
g62
(dp1463
sg71
g822
sg64
(lp1464
g57
(g78
g59
NtRp1465
(dp1466
g62
(dp1467
g82
g83
ssg71
g1461
sg64
(lp1468
S'web2py_version'
p1469
asbag57
(g78
g59
NtRp1470
(dp1471
g62
(dp1472
g89
g90
ssg71
g1461
sg64
(lp1473
S':'
asbag57
(g78
g59
NtRp1474
(dp1475
g62
(dp1476
sg71
g1461
sg64
(lp1477
g57
(g58
g59
NtRp1478
(dp1479
g62
(dp1480
g70
I4
ssg71
g1474
sg64
(lp1481
g57
(g66
g59
NtRp1482
(dp1483
g62
(dp1484
g70
I3
ssg71
Nsg64
(lp1485
g57
(g73
g59
NtRp1486
(dp1487
g62
(dp1488
sg71
g1482
sg64
(lp1489
g57
(g78
g59
NtRp1490
(dp1491
g62
(dp1492
sg71
g1486
sg64
(lp1493
g57
(g58
g59
NtRp1494
(dp1495
g62
(dp1496
g70
I3
ssg71
g1490
sg64
(lp1497
S'1'
asbasbasbag57
(g73
g59
NtRp1498
(dp1499
g62
(dp1500
sg71
g1482
sg64
(lp1501
g57
(g78
g59
NtRp1502
(dp1503
g62
(dp1504
sg71
g1498
sg64
(lp1505
g57
(g58
g59
NtRp1506
(dp1507
g62
(dp1508
g70
I3
ssg71
g1502
sg64
(lp1509
S'99'
p1510
asbasbasbag57
(g73
g59
NtRp1511
(dp1512
g62
(dp1513
sg71
g1482
sg64
(lp1514
g57
(g78
g59
NtRp1515
(dp1516
g62
(dp1517
sg71
g1511
sg64
(lp1518
g57
(g58
g59
NtRp1519
(dp1520
g62
(dp1521
g70
I3
ssg71
g1515
sg64
(lp1522
S'7'
asbasbasbag57
(g73
g59
NtRp1523
(dp1524
g62
(dp1525
sg71
g1482
sg64
(lp1526
g57
(g78
g59
NtRp1527
(dp1528
g62
(dp1529
sg71
g1523
sg64
(lp1530
g57
(g58
g59
NtRp1531
(dp1532
g62
(dp1533
g70
I3
ssg71
g1527
sg64
(lp1534
S'datetime.datetime(2012, 3, 4, 22, 12, 8)'
p1535
asbasbasbag57
(g73
g59
NtRp1536
(dp1537
g62
(dp1538
sg71
g1482
sg64
(lp1539
g57
(g78
g59
NtRp1540
(dp1541
g62
(dp1542
sg71
g1536
sg64
(lp1543
g57
(g58
g59
NtRp1544
(dp1545
g62
(dp1546
g70
I3
ssg71
g1540
sg64
(lp1547
S'stable'
p1548
asbasbasbasbasbasbasbag57
(g73
g59
NtRp1549
(dp1550
g62
(dp1551
sg71
g822
sg64
(lp1552
g57
(g78
g59
NtRp1553
(dp1554
g62
(dp1555
g82
g83
ssg71
g1549
sg64
(lp1556
S'wsgi_errors'
p1557
asbag57
(g78
g59
NtRp1558
(dp1559
g62
(dp1560
g89
g90
ssg71
g1549
sg64
(lp1561
S':'
asbag57
(g78
g59
NtRp1562
(dp1563
g62
(dp1564
sg71
g1549
sg64
(lp1565
g57
(g58
g59
NtRp1566
(dp1567
g62
(dp1568
g70
I4
ssg71
g1562
sg64
(lp1569
S"<open file '<stderr>', mode 'w' at 0x00A550D0>"
p1570
asbasbasbag57
(g73
g59
NtRp1571
(dp1572
g62
(dp1573
sg71
g822
sg64
(lp1574
g57
(g78
g59
NtRp1575
(dp1576
g62
(dp1577
g82
g83
ssg71
g1571
sg64
(lp1578
S'wsgi_file_wrapper'
p1579
asbag57
(g78
g59
NtRp1580
(dp1581
g62
(dp1582
g89
g90
ssg71
g1571
sg64
(lp1583
S':'
asbag57
(g78
g59
NtRp1584
(dp1585
g62
(dp1586
sg71
g1571
sg64
(lp1587
g57
(g58
g59
NtRp1588
(dp1589
g62
(dp1590
g70
I4
ssg71
g1584
sg64
(lp1591
S'<class wsgiref.util.FileWrapper at 0x015E8AB0>'
p1592
asbasbasbag57
(g73
g59
NtRp1593
(dp1594
g62
(dp1595
sg71
g822
sg64
(lp1596
g57
(g78
g59
NtRp1597
(dp1598
g62
(dp1599
g82
g83
ssg71
g1593
sg64
(lp1600
S'wsgi_input'
p1601
asbag57
(g78
g59
NtRp1602
(dp1603
g62
(dp1604
g89
g90
ssg71
g1593
sg64
(lp1605
S':'
asbag57
(g78
g59
NtRp1606
(dp1607
g62
(dp1608
sg71
g1593
sg64
(lp1609
g57
(g58
g59
NtRp1610
(dp1611
g62
(dp1612
g70
I4
ssg71
g1606
sg64
(lp1613
S'<socket._fileobject object at 0x01C0F0F0>'
p1614
asbasbasbag57
(g73
g59
NtRp1615
(dp1616
g62
(dp1617
sg71
g822
sg64
(lp1618
g57
(g78
g59
NtRp1619
(dp1620
g62
(dp1621
g82
g83
ssg71
g1615
sg64
(lp1622
S'wsgi_multiprocess'
p1623
asbag57
(g78
g59
NtRp1624
(dp1625
g62
(dp1626
g89
g90
ssg71
g1615
sg64
(lp1627
S':'
asbag57
(g78
g59
NtRp1628
(dp1629
g62
(dp1630
sg71
g1615
sg64
(lp1631
g57
(g58
g59
NtRp1632
(dp1633
g62
(dp1634
g70
I4
ssg71
g1628
sg64
(lp1635
g100
asbasbasbag57
(g73
g59
NtRp1636
(dp1637
g62
(dp1638
sg71
g822
sg64
(lp1639
g57
(g78
g59
NtRp1640
(dp1641
g62
(dp1642
g82
g83
ssg71
g1636
sg64
(lp1643
S'wsgi_multithread'
p1644
asbag57
(g78
g59
NtRp1645
(dp1646
g62
(dp1647
g89
g90
ssg71
g1636
sg64
(lp1648
S':'
asbag57
(g78
g59
NtRp1649
(dp1650
g62
(dp1651
sg71
g1636
sg64
(lp1652
g57
(g58
g59
NtRp1653
(dp1654
g62
(dp1655
g70
I4
ssg71
g1649
sg64
(lp1656
S'True'
p1657
asbasbasbag57
(g73
g59
NtRp1658
(dp1659
g62
(dp1660
sg71
g822
sg64
(lp1661
g57
(g78
g59
NtRp1662
(dp1663
g62
(dp1664
g82
g83
ssg71
g1658
sg64
(lp1665
S'wsgi_run_once'
p1666
asbag57
(g78
g59
NtRp1667
(dp1668
g62
(dp1669
g89
g90
ssg71
g1658
sg64
(lp1670
S':'
asbag57
(g78
g59
NtRp1671
(dp1672
g62
(dp1673
sg71
g1658
sg64
(lp1674
g57
(g58
g59
NtRp1675
(dp1676
g62
(dp1677
g70
I4
ssg71
g1671
sg64
(lp1678
g100
asbasbasbag57
(g73
g59
NtRp1679
(dp1680
g62
(dp1681
sg71
g822
sg64
(lp1682
g57
(g78
g59
NtRp1683
(dp1684
g62
(dp1685
g82
g83
ssg71
g1679
sg64
(lp1686
S'wsgi_url_scheme'
p1687
asbag57
(g78
g59
NtRp1688
(dp1689
g62
(dp1690
g89
g90
ssg71
g1679
sg64
(lp1691
S':'
asbag57
(g78
g59
NtRp1692
(dp1693
g62
(dp1694
sg71
g1679
sg64
(lp1695
g57
(g58
g59
NtRp1696
(dp1697
g62
(dp1698
g70
I4
ssg71
g1692
sg64
(lp1699
S'http'
p1700
asbasbasbag57
(g73
g59
NtRp1701
(dp1702
g62
(dp1703
sg71
g822
sg64
(lp1704
g57
(g78
g59
NtRp1705
(dp1706
g62
(dp1707
g82
g83
ssg71
g1701
sg64
(lp1708
S'wsgi_version'
p1709
asbag57
(g78
g59
NtRp1710
(dp1711
g62
(dp1712
g89
g90
ssg71
g1701
sg64
(lp1713
S':'
asbag57
(g78
g59
NtRp1714
(dp1715
g62
(dp1716
sg71
g1701
sg64
(lp1717
g57
(g58
g59
NtRp1718
(dp1719
g62
(dp1720
g70
I4
ssg71
g1714
sg64
(lp1721
g57
(g66
g59
NtRp1722
(dp1723
g62
(dp1724
g70
I3
ssg71
Nsg64
(lp1725
g57
(g73
g59
NtRp1726
(dp1727
g62
(dp1728
sg71
g1722
sg64
(lp1729
g57
(g78
g59
NtRp1730
(dp1731
g62
(dp1732
sg71
g1726
sg64
(lp1733
g57
(g58
g59
NtRp1734
(dp1735
g62
(dp1736
g70
I3
ssg71
g1730
sg64
(lp1737
S'1'
asbasbasbag57
(g73
g59
NtRp1738
(dp1739
g62
(dp1740
sg71
g1722
sg64
(lp1741
g57
(g78
g59
NtRp1742
(dp1743
g62
(dp1744
sg71
g1738
sg64
(lp1745
g57
(g58
g59
NtRp1746
(dp1747
g62
(dp1748
g70
I3
ssg71
g1742
sg64
(lp1749
S'0'
asbasbasbasbasbasbasbasbasbasbasbag57
(g73
g59
NtRp1750
(dp1751
g62
(dp1752
sg71
g67
sg64
(lp1753
g57
(g78
g59
NtRp1754
(dp1755
g62
(dp1756
g82
g83
ssg71
g1750
sg64
(lp1757
S'extension'
p1758
asbag57
(g78
g59
NtRp1759
(dp1760
g62
(dp1761
g89
g90
ssg71
g1750
sg64
(lp1762
S':'
asbag57
(g78
g59
NtRp1763
(dp1764
g62
(dp1765
sg71
g1750
sg64
(lp1766
g57
(g58
g59
NtRp1767
(dp1768
g62
(dp1769
g70
I5
ssg71
g1763
sg64
(lp1770
S'html'
p1771
asbasbasbag57
(g73
g59
NtRp1772
(dp1773
g62
(dp1774
sg71
g67
sg64
(lp1775
g57
(g78
g59
NtRp1776
(dp1777
g62
(dp1778
g82
g83
ssg71
g1772
sg64
(lp1779
S'folder'
p1780
asbag57
(g78
g59
NtRp1781
(dp1782
g62
(dp1783
g89
g90
ssg71
g1772
sg64
(lp1784
S':'
asbag57
(g78
g59
NtRp1785
(dp1786
g62
(dp1787
sg71
g1772
sg64
(lp1788
g57
(g58
g59
NtRp1789
(dp1790
g62
(dp1791
g70
I5
ssg71
g1785
sg64
(lp1792
S'C:\\Documents and Settings\\agrover\\Desktop\\previous crawler\\web2py\\applications\\mycrawler\\'
p1793
asbasbasbag57
(g73
g59
NtRp1794
(dp1795
g62
(dp1796
sg71
g67
sg64
(lp1797
g57
(g78
g59
NtRp1798
(dp1799
g62
(dp1800
g82
g83
ssg71
g1794
sg64
(lp1801
S'function'
p1802
asbag57
(g78
g59
NtRp1803
(dp1804
g62
(dp1805
g89
g90
ssg71
g1794
sg64
(lp1806
S':'
asbag57
(g78
g59
NtRp1807
(dp1808
g62
(dp1809
sg71
g1794
sg64
(lp1810
g57
(g58
g59
NtRp1811
(dp1812
g62
(dp1813
g70
I5
ssg71
g1807
sg64
(lp1814
S'search'
p1815
asbasbasbag57
(g73
g59
NtRp1816
(dp1817
g62
(dp1818
sg71
g67
sg64
(lp1819
g57
(g78
g59
NtRp1820
(dp1821
g62
(dp1822
g82
g83
ssg71
g1816
sg64
(lp1823
S'get_vars'
p1824
asbag57
(g78
g59
NtRp1825
(dp1826
g62
(dp1827
g89
g90
ssg71
g1816
sg64
(lp1828
S':'
asbag57
(g78
g59
NtRp1829
(dp1830
g62
(dp1831
sg71
g1816
sg64
(lp1832
g57
(g58
g59
NtRp1833
(dp1834
g62
(dp1835
g70
I5
ssg71
g1829
sg64
(lp1836
g57
(g66
g59
NtRp1837
(dp1838
g62
(dp1839
g70
I4
ssg71
Nsg64
(lp1840
g57
(g73
g59
NtRp1841
(dp1842
g62
(dp1843
sg71
g1837
sg64
(lp1844
g57
(g78
g59
NtRp1845
(dp1846
g62
(dp1847
g82
g83
ssg71
g1841
sg64
(lp1848
S'Company'
p1849
asbag57
(g78
g59
NtRp1850
(dp1851
g62
(dp1852
g89
g90
ssg71
g1841
sg64
(lp1853
S':'
asbag57
(g78
g59
NtRp1854
(dp1855
g62
(dp1856
sg71
g1841
sg64
(lp1857
g57
(g58
g59
NtRp1858
(dp1859
g62
(dp1860
g70
I4
ssg71
g1854
sg64
(lp1861
S''
asbasbasbag57
(g73
g59
NtRp1862
(dp1863
g62
(dp1864
sg71
g1837
sg64
(lp1865
g57
(g78
g59
NtRp1866
(dp1867
g62
(dp1868
g82
g83
ssg71
g1862
sg64
(lp1869
S'Country'
p1870
asbag57
(g78
g59
NtRp1871
(dp1872
g62
(dp1873
g89
g90
ssg71
g1862
sg64
(lp1874
S':'
asbag57
(g78
g59
NtRp1875
(dp1876
g62
(dp1877
sg71
g1862
sg64
(lp1878
g57
(g58
g59
NtRp1879
(dp1880
g62
(dp1881
g70
I4
ssg71
g1875
sg64
(lp1882
S'United States'
p1883
asbasbasbag57
(g73
g59
NtRp1884
(dp1885
g62
(dp1886
sg71
g1837
sg64
(lp1887
g57
(g78
g59
NtRp1888
(dp1889
g62
(dp1890
g82
g83
ssg71
g1884
sg64
(lp1891
S'File_Name'
p1892
asbag57
(g78
g59
NtRp1893
(dp1894
g62
(dp1895
g89
g90
ssg71
g1884
sg64
(lp1896
S':'
asbag57
(g78
g59
NtRp1897
(dp1898
g62
(dp1899
sg71
g1884
sg64
(lp1900
g57
(g58
g59
NtRp1901
(dp1902
g62
(dp1903
g70
I4
ssg71
g1897
sg64
(lp1904
S'try2'
p1905
asbasbasbag57
(g73
g59
NtRp1906
(dp1907
g62
(dp1908
sg71
g1837
sg64
(lp1909
g57
(g78
g59
NtRp1910
(dp1911
g62
(dp1912
g82
g83
ssg71
g1906
sg64
(lp1913
S'First_Name'
p1914
asbag57
(g78
g59
NtRp1915
(dp1916
g62
(dp1917
g89
g90
ssg71
g1906
sg64
(lp1918
S':'
asbag57
(g78
g59
NtRp1919
(dp1920
g62
(dp1921
sg71
g1906
sg64
(lp1922
g57
(g58
g59
NtRp1923
(dp1924
g62
(dp1925
g70
I4
ssg71
g1919
sg64
(lp1926
S'sam'
p1927
asbasbasbag57
(g73
g59
NtRp1928
(dp1929
g62
(dp1930
sg71
g1837
sg64
(lp1931
g57
(g78
g59
NtRp1932
(dp1933
g62
(dp1934
g82
g83
ssg71
g1928
sg64
(lp1935
S'Functions'
p1936
asbag57
(g78
g59
NtRp1937
(dp1938
g62
(dp1939
g89
g90
ssg71
g1928
sg64
(lp1940
S':'
asbag57
(g78
g59
NtRp1941
(dp1942
g62
(dp1943
sg71
g1928
sg64
(lp1944
g57
(g58
g59
NtRp1945
(dp1946
g62
(dp1947
g70
I4
ssg71
g1941
sg64
(lp1948
S'All Functions'
p1949
asbasbasbag57
(g73
g59
NtRp1950
(dp1951
g62
(dp1952
sg71
g1837
sg64
(lp1953
g57
(g78
g59
NtRp1954
(dp1955
g62
(dp1956
g82
g83
ssg71
g1950
sg64
(lp1957
S'Industry'
p1958
asbag57
(g78
g59
NtRp1959
(dp1960
g62
(dp1961
g89
g90
ssg71
g1950
sg64
(lp1962
S':'
asbag57
(g78
g59
NtRp1963
(dp1964
g62
(dp1965
sg71
g1950
sg64
(lp1966
g57
(g58
g59
NtRp1967
(dp1968
g62
(dp1969
g70
I4
ssg71
g1963
sg64
(lp1970
S'All Industries'
p1971
asbasbasbag57
(g73
g59
NtRp1972
(dp1973
g62
(dp1974
sg71
g1837
sg64
(lp1975
g57
(g78
g59
NtRp1976
(dp1977
g62
(dp1978
g82
g83
ssg71
g1972
sg64
(lp1979
S'Keywords'
p1980
asbag57
(g78
g59
NtRp1981
(dp1982
g62
(dp1983
g89
g90
ssg71
g1972
sg64
(lp1984
S':'
asbag57
(g78
g59
NtRp1985
(dp1986
g62
(dp1987
sg71
g1972
sg64
(lp1988
g57
(g58
g59
NtRp1989
(dp1990
g62
(dp1991
g70
I4
ssg71
g1985
sg64
(lp1992
S''
asbasbasbag57
(g73
g59
NtRp1993
(dp1994
g62
(dp1995
sg71
g1837
sg64
(lp1996
g57
(g78
g59
NtRp1997
(dp1998
g62
(dp1999
g82
g83
ssg71
g1993
sg64
(lp2000
S'Last_Name'
p2001
asbag57
(g78
g59
NtRp2002
(dp2003
g62
(dp2004
g89
g90
ssg71
g1993
sg64
(lp2005
S':'
asbag57
(g78
g59
NtRp2006
(dp2007
g62
(dp2008
sg71
g1993
sg64
(lp2009
g57
(g58
g59
NtRp2010
(dp2011
g62
(dp2012
g70
I4
ssg71
g2006
sg64
(lp2013
S''
asbasbasbag57
(g73
g59
NtRp2014
(dp2015
g62
(dp2016
sg71
g1837
sg64
(lp2017
g57
(g78
g59
NtRp2018
(dp2019
g62
(dp2020
g82
g83
ssg71
g2014
sg64
(lp2021
S'School'
p2022
asbag57
(g78
g59
NtRp2023
(dp2024
g62
(dp2025
g89
g90
ssg71
g2014
sg64
(lp2026
S':'
asbag57
(g78
g59
NtRp2027
(dp2028
g62
(dp2029
sg71
g2014
sg64
(lp2030
g57
(g58
g59
NtRp2031
(dp2032
g62
(dp2033
g70
I4
ssg71
g2027
sg64
(lp2034
S''
asbasbasbag57
(g73
g59
NtRp2035
(dp2036
g62
(dp2037
sg71
g1837
sg64
(lp2038
g57
(g78
g59
NtRp2039
(dp2040
g62
(dp2041
g82
g83
ssg71
g2035
sg64
(lp2042
S'Seniority_Levels'
p2043
asbag57
(g78
g59
NtRp2044
(dp2045
g62
(dp2046
g89
g90
ssg71
g2035
sg64
(lp2047
S':'
asbag57
(g78
g59
NtRp2048
(dp2049
g62
(dp2050
sg71
g2035
sg64
(lp2051
g57
(g58
g59
NtRp2052
(dp2053
g62
(dp2054
g70
I4
ssg71
g2048
sg64
(lp2055
S'All Seniority Levels'
p2056
asbasbasbag57
(g73
g59
NtRp2057
(dp2058
g62
(dp2059
sg71
g1837
sg64
(lp2060
g57
(g78
g59
NtRp2061
(dp2062
g62
(dp2063
g82
g83
ssg71
g2057
sg64
(lp2064
S'Title'
p2065
asbag57
(g78
g59
NtRp2066
(dp2067
g62
(dp2068
g89
g90
ssg71
g2057
sg64
(lp2069
S':'
asbag57
(g78
g59
NtRp2070
(dp2071
g62
(dp2072
sg71
g2057
sg64
(lp2073
g57
(g58
g59
NtRp2074
(dp2075
g62
(dp2076
g70
I4
ssg71
g2070
sg64
(lp2077
S''
asbasbasbasbasbasbasbag57
(g73
g59
NtRp2078
(dp2079
g62
(dp2080
sg71
g67
sg64
(lp2081
g57
(g78
g59
NtRp2082
(dp2083
g62
(dp2084
g82
g83
ssg71
g2078
sg64
(lp2085
S'global_settings'
p2086
asbag57
(g78
g59
NtRp2087
(dp2088
g62
(dp2089
g89
g90
ssg71
g2078
sg64
(lp2090
S':'
asbag57
(g78
g59
NtRp2091
(dp2092
g62
(dp2093
sg71
g2078
sg64
(lp2094
g57
(g58
g59
NtRp2095
(dp2096
g62
(dp2097
g70
I5
ssg71
g2091
sg64
(lp2098
g57
(g66
g59
NtRp2099
(dp2100
g62
(dp2101
g70
I4
ssg71
Nsg64
(lp2102
g57
(g73
g59
NtRp2103
(dp2104
g62
(dp2105
sg71
g2099
sg64
(lp2106
g57
(g78
g59
NtRp2107
(dp2108
g62
(dp2109
g82
g83
ssg71
g2103
sg64
(lp2110
g834
asbag57
(g78
g59
NtRp2111
(dp2112
g62
(dp2113
g89
g90
ssg71
g2103
sg64
(lp2114
S':'
asbag57
(g78
g59
NtRp2115
(dp2116
g62
(dp2117
sg71
g2103
sg64
(lp2118
g57
(g58
g59
NtRp2119
(dp2120
g62
(dp2121
g70
I4
ssg71
g2115
sg64
(lp2122
S"set(['C:\\\\Documents and Settings\\\\agrover\\\\Desktop\\\\previous crawler\\\\web2py\\\\applications\\\\admin\\\\', 'C:\\\\Documents and Settings\\\\agrover\\\\Desktop\\\\previous crawler\\\\web2py\\\\applications\\\\mycrawler\\\\', 'C:\\\\Documents and Settings\\\\agrover\\\\Desktop\\\\previous crawler\\\\web2py\\\\applications\\\\welcome\\\\'])"
p2123
asbasbasbag57
(g73
g59
NtRp2124
(dp2125
g62
(dp2126
sg71
g2099
sg64
(lp2127
g57
(g78
g59
NtRp2128
(dp2129
g62
(dp2130
g82
g83
ssg71
g2124
sg64
(lp2131
g856
asbag57
(g78
g59
NtRp2132
(dp2133
g62
(dp2134
g89
g90
ssg71
g2124
sg64
(lp2135
S':'
asbag57
(g78
g59
NtRp2136
(dp2137
g62
(dp2138
sg71
g2124
sg64
(lp2139
g57
(g58
g59
NtRp2140
(dp2141
g62
(dp2142
g70
I4
ssg71
g2136
sg64
(lp2143
g869
asbasbasbag57
(g73
g59
NtRp2144
(dp2145
g62
(dp2146
sg71
g2099
sg64
(lp2147
g57
(g78
g59
NtRp2148
(dp2149
g62
(dp2150
g82
g83
ssg71
g2144
sg64
(lp2151
g878
asbag57
(g78
g59
NtRp2152
(dp2153
g62
(dp2154
g89
g90
ssg71
g2144
sg64
(lp2155
S':'
asbag57
(g78
g59
NtRp2156
(dp2157
g62
(dp2158
sg71
g2144
sg64
(lp2159
g57
(g58
g59
NtRp2160
(dp2161
g62
(dp2162
g70
I4
ssg71
g2156
sg64
(lp2163
g57
(g66
g59
NtRp2164
(dp2165
g62
(dp2166
g70
I3
ssg71
Nsg64
(lp2167
sbasbasbasbag57
(g73
g59
NtRp2168
(dp2169
g62
(dp2170
sg71
g2099
sg64
(lp2171
g57
(g78
g59
NtRp2172
(dp2173
g62
(dp2174
g82
g83
ssg71
g2168
sg64
(lp2175
g903
asbag57
(g78
g59
NtRp2176
(dp2177
g62
(dp2178
g89
g90
ssg71
g2168
sg64
(lp2179
S':'
asbag57
(g78
g59
NtRp2180
(dp2181
g62
(dp2182
sg71
g2168
sg64
(lp2183
g57
(g58
g59
NtRp2184
(dp2185
g62
(dp2186
g70
I4
ssg71
g2180
sg64
(lp2187
S"<Values at 0x16d73f0: {'verbose': False, 'ip': '127.0.0.1', 'shutdown_timeout': 5, 'taskbar': False, 'nocron': False, 'pid_filename': 'httpserver.pid', 'maxthreads': None, 'softcron': False, 'server_name': 'mniagrover', 'bpython': False, 'nogui': False, 'port': 8000, 'extcron': False, 'debuglevel': 30, 'test': None, 'folder': 'C:\\\\Documents and Settings\\\\agrover\\\\Desktop\\\\previous crawler\\\\web2py', 'config': '', 'import_models': False, 'winservice': '', 'shell': None, 'run': '', 'log_filename': 'httpserver.log', 'args': [''], 'socket_timeout': 5, 'ssl_ca_certificate': None, 'scheduler': None, 'profiler_filename': None, 'ssl_private_key': '', 'password': '<ask>', 'request_queue_size': 5, 'ssl_certificate': '', 'cronjob': False, 'numthreads': None, 'quiet': False, 'interfaces': None, 'minthreads': None, 'timeout': 10, 'plain': False, 'nobanner': False}>"
p2188
asbasbasbag57
(g73
g59
NtRp2189
(dp2190
g62
(dp2191
sg71
g2099
sg64
(lp2192
g57
(g78
g59
NtRp2193
(dp2194
g62
(dp2195
g82
g83
ssg71
g2189
sg64
(lp2196
g925
asbag57
(g78
g59
NtRp2197
(dp2198
g62
(dp2199
g89
g90
ssg71
g2189
sg64
(lp2200
S':'
asbag57
(g78
g59
NtRp2201
(dp2202
g62
(dp2203
sg71
g2189
sg64
(lp2204
g57
(g58
g59
NtRp2205
(dp2206
g62
(dp2207
g70
I4
ssg71
g2201
sg64
(lp2208
S'set([])'
p2209
asbasbasbag57
(g73
g59
NtRp2210
(dp2211
g62
(dp2212
sg71
g2099
sg64
(lp2213
g57
(g78
g59
NtRp2214
(dp2215
g62
(dp2216
g82
g83
ssg71
g2210
sg64
(lp2217
g947
asbag57
(g78
g59
NtRp2218
(dp2219
g62
(dp2220
g89
g90
ssg71
g2210
sg64
(lp2221
S':'
asbag57
(g78
g59
NtRp2222
(dp2223
g62
(dp2224
sg71
g2210
sg64
(lp2225
g57
(g58
g59
NtRp2226
(dp2227
g62
(dp2228
g70
I4
ssg71
g2222
sg64
(lp2229
g100
asbasbasbag57
(g73
g59
NtRp2230
(dp2231
g62
(dp2232
sg71
g2099
sg64
(lp2233
g57
(g78
g59
NtRp2234
(dp2235
g62
(dp2236
g82
g83
ssg71
g2230
sg64
(lp2237
g968
asbag57
(g78
g59
NtRp2238
(dp2239
g62
(dp2240
g89
g90
ssg71
g2230
sg64
(lp2241
S':'
asbag57
(g78
g59
NtRp2242
(dp2243
g62
(dp2244
sg71
g2230
sg64
(lp2245
g57
(g58
g59
NtRp2246
(dp2247
g62
(dp2248
g70
I4
ssg71
g2242
sg64
(lp2249
g981
asbasbasbag57
(g73
g59
NtRp2250
(dp2251
g62
(dp2252
sg71
g2099
sg64
(lp2253
g57
(g78
g59
NtRp2254
(dp2255
g62
(dp2256
g82
g83
ssg71
g2250
sg64
(lp2257
g1166
asbag57
(g78
g59
NtRp2258
(dp2259
g62
(dp2260
g89
g90
ssg71
g2250
sg64
(lp2261
S':'
asbag57
(g78
g59
NtRp2262
(dp2263
g62
(dp2264
sg71
g2250
sg64
(lp2265
g57
(g58
g59
NtRp2266
(dp2267
g62
(dp2268
g70
I4
ssg71
g2262
sg64
(lp2269
g100
asbasbasbag57
(g73
g59
NtRp2270
(dp2271
g62
(dp2272
sg71
g2099
sg64
(lp2273
g57
(g78
g59
NtRp2274
(dp2275
g62
(dp2276
g82
g83
ssg71
g2270
sg64
(lp2277
g1187
asbag57
(g78
g59
NtRp2278
(dp2279
g62
(dp2280
g89
g90
ssg71
g2270
sg64
(lp2281
S':'
asbag57
(g78
g59
NtRp2282
(dp2283
g62
(dp2284
sg71
g2270
sg64
(lp2285
g57
(g58
g59
NtRp2286
(dp2287
g62
(dp2288
g70
I4
ssg71
g2282
sg64
(lp2289
g100
asbasbasbag57
(g73
g59
NtRp2290
(dp2291
g62
(dp2292
sg71
g2099
sg64
(lp2293
g57
(g78
g59
NtRp2294
(dp2295
g62
(dp2296
g82
g83
ssg71
g2290
sg64
(lp2297
g1426
asbag57
(g78
g59
NtRp2298
(dp2299
g62
(dp2300
g89
g90
ssg71
g2290
sg64
(lp2301
S':'
asbag57
(g78
g59
NtRp2302
(dp2303
g62
(dp2304
sg71
g2290
sg64
(lp2305
g57
(g58
g59
NtRp2306
(dp2307
g62
(dp2308
g70
I4
ssg71
g2302
sg64
(lp2309
g1439
asbasbasbag57
(g73
g59
NtRp2310
(dp2311
g62
(dp2312
sg71
g2099
sg64
(lp2313
g57
(g78
g59
NtRp2314
(dp2315
g62
(dp2316
g82
g83
ssg71
g2310
sg64
(lp2317
g1469
asbag57
(g78
g59
NtRp2318
(dp2319
g62
(dp2320
g89
g90
ssg71
g2310
sg64
(lp2321
S':'
asbag57
(g78
g59
NtRp2322
(dp2323
g62
(dp2324
sg71
g2310
sg64
(lp2325
g57
(g58
g59
NtRp2326
(dp2327
g62
(dp2328
g70
I4
ssg71
g2322
sg64
(lp2329
g57
(g66
g59
NtRp2330
(dp2331
g62
(dp2332
g70
I3
ssg71
Nsg64
(lp2333
g57
(g73
g59
NtRp2334
(dp2335
g62
(dp2336
sg71
g2330
sg64
(lp2337
g57
(g78
g59
NtRp2338
(dp2339
g62
(dp2340
sg71
g2334
sg64
(lp2341
g57
(g58
g59
NtRp2342
(dp2343
g62
(dp2344
g70
I3
ssg71
g2338
sg64
(lp2345
S'1'
asbasbasbag57
(g73
g59
NtRp2346
(dp2347
g62
(dp2348
sg71
g2330
sg64
(lp2349
g57
(g78
g59
NtRp2350
(dp2351
g62
(dp2352
sg71
g2346
sg64
(lp2353
g57
(g58
g59
NtRp2354
(dp2355
g62
(dp2356
g70
I3
ssg71
g2350
sg64
(lp2357
S'99'
p2358
asbasbasbag57
(g73
g59
NtRp2359
(dp2360
g62
(dp2361
sg71
g2330
sg64
(lp2362
g57
(g78
g59
NtRp2363
(dp2364
g62
(dp2365
sg71
g2359
sg64
(lp2366
g57
(g58
g59
NtRp2367
(dp2368
g62
(dp2369
g70
I3
ssg71
g2363
sg64
(lp2370
S'7'
asbasbasbag57
(g73
g59
NtRp2371
(dp2372
g62
(dp2373
sg71
g2330
sg64
(lp2374
g57
(g78
g59
NtRp2375
(dp2376
g62
(dp2377
sg71
g2371
sg64
(lp2378
g57
(g58
g59
NtRp2379
(dp2380
g62
(dp2381
g70
I3
ssg71
g2375
sg64
(lp2382
S'datetime.datetime(2012, 3, 4, 22, 12, 8)'
p2383
asbasbasbag57
(g73
g59
NtRp2384
(dp2385
g62
(dp2386
sg71
g2330
sg64
(lp2387
g57
(g78
g59
NtRp2388
(dp2389
g62
(dp2390
sg71
g2384
sg64
(lp2391
g57
(g58
g59
NtRp2392
(dp2393
g62
(dp2394
g70
I3
ssg71
g2388
sg64
(lp2395
g1548
asbasbasbasbasbasbasbasbasbasbasbag57
(g73
g59
NtRp2396
(dp2397
g62
(dp2398
sg71
g67
sg64
(lp2399
g57
(g78
g59
NtRp2400
(dp2401
g62
(dp2402
g82
g83
ssg71
g2396
sg64
(lp2403
S'is_https'
p2404
asbag57
(g78
g59
NtRp2405
(dp2406
g62
(dp2407
g89
g90
ssg71
g2396
sg64
(lp2408
S':'
asbag57
(g78
g59
NtRp2409
(dp2410
g62
(dp2411
sg71
g2396
sg64
(lp2412
g57
(g58
g59
NtRp2413
(dp2414
g62
(dp2415
g70
I5
ssg71
g2409
sg64
(lp2416
g100
asbasbasbag57
(g73
g59
NtRp2417
(dp2418
g62
(dp2419
sg71
g67
sg64
(lp2420
g57
(g78
g59
NtRp2421
(dp2422
g62
(dp2423
g82
g83
ssg71
g2417
sg64
(lp2424
S'is_local'
p2425
asbag57
(g78
g59
NtRp2426
(dp2427
g62
(dp2428
g89
g90
ssg71
g2417
sg64
(lp2429
S':'
asbag57
(g78
g59
NtRp2430
(dp2431
g62
(dp2432
sg71
g2417
sg64
(lp2433
g57
(g58
g59
NtRp2434
(dp2435
g62
(dp2436
g70
I5
ssg71
g2430
sg64
(lp2437
g1657
asbasbasbag57
(g73
g59
NtRp2438
(dp2439
g62
(dp2440
sg71
g67
sg64
(lp2441
g57
(g78
g59
NtRp2442
(dp2443
g62
(dp2444
g82
g83
ssg71
g2438
sg64
(lp2445
S'is_restful'
p2446
asbag57
(g78
g59
NtRp2447
(dp2448
g62
(dp2449
g89
g90
ssg71
g2438
sg64
(lp2450
S':'
asbag57
(g78
g59
NtRp2451
(dp2452
g62
(dp2453
sg71
g2438
sg64
(lp2454
g57
(g58
g59
NtRp2455
(dp2456
g62
(dp2457
g70
I5
ssg71
g2451
sg64
(lp2458
g100
asbasbasbag57
(g73
g59
NtRp2459
(dp2460
g62
(dp2461
sg71
g67
sg64
(lp2462
g57
(g78
g59
NtRp2463
(dp2464
g62
(dp2465
g82
g83
ssg71
g2459
sg64
(lp2466
S'now'
p2467
asbag57
(g78
g59
NtRp2468
(dp2469
g62
(dp2470
g89
g90
ssg71
g2459
sg64
(lp2471
S':'
asbag57
(g78
g59
NtRp2472
(dp2473
g62
(dp2474
sg71
g2459
sg64
(lp2475
g57
(g58
g59
NtRp2476
(dp2477
g62
(dp2478
g70
I5
ssg71
g2472
sg64
(lp2479
S'datetime.datetime(2012, 6, 22, 12, 48, 48, 671000)'
p2480
asbasbasbag57
(g73
g59
NtRp2481
(dp2482
g62
(dp2483
sg71
g67
sg64
(lp2484
g57
(g78
g59
NtRp2485
(dp2486
g62
(dp2487
g82
g83
ssg71
g2481
sg64
(lp2488
S'post_vars'
p2489
asbag57
(g78
g59
NtRp2490
(dp2491
g62
(dp2492
g89
g90
ssg71
g2481
sg64
(lp2493
S':'
asbag57
(g78
g59
NtRp2494
(dp2495
g62
(dp2496
sg71
g2481
sg64
(lp2497
g57
(g58
g59
NtRp2498
(dp2499
g62
(dp2500
g70
I5
ssg71
g2494
sg64
(lp2501
g57
(g66
g59
NtRp2502
(dp2503
g62
(dp2504
g70
I4
ssg71
Nsg64
(lp2505
sbasbasbasbag57
(g73
g59
NtRp2506
(dp2507
g62
(dp2508
sg71
g67
sg64
(lp2509
g57
(g78
g59
NtRp2510
(dp2511
g62
(dp2512
g82
g83
ssg71
g2506
sg64
(lp2513
S'url'
p2514
asbag57
(g78
g59
NtRp2515
(dp2516
g62
(dp2517
g89
g90
ssg71
g2506
sg64
(lp2518
S':'
asbag57
(g78
g59
NtRp2519
(dp2520
g62
(dp2521
sg71
g2506
sg64
(lp2522
g57
(g58
g59
NtRp2523
(dp2524
g62
(dp2525
g70
I5
ssg71
g2519
sg64
(lp2526
S'/mycrawler/default/search'
p2527
asbasbasbag57
(g73
g59
NtRp2528
(dp2529
g62
(dp2530
sg71
g67
sg64
(lp2531
g57
(g78
g59
NtRp2532
(dp2533
g62
(dp2534
g82
g83
ssg71
g2528
sg64
(lp2535
S'utcnow'
p2536
asbag57
(g78
g59
NtRp2537
(dp2538
g62
(dp2539
g89
g90
ssg71
g2528
sg64
(lp2540
S':'
asbag57
(g78
g59
NtRp2541
(dp2542
g62
(dp2543
sg71
g2528
sg64
(lp2544
g57
(g58
g59
NtRp2545
(dp2546
g62
(dp2547
g70
I5
ssg71
g2541
sg64
(lp2548
S'datetime.datetime(2012, 6, 22, 19, 48, 48, 671000)'
p2549
asbasbasbag57
(g73
g59
NtRp2550
(dp2551
g62
(dp2552
sg71
g67
sg64
(lp2553
g57
(g78
g59
NtRp2554
(dp2555
g62
(dp2556
g82
g83
ssg71
g2550
sg64
(lp2557
S'uuid'
p2558
asbag57
(g78
g59
NtRp2559
(dp2560
g62
(dp2561
g89
g90
ssg71
g2550
sg64
(lp2562
S':'
asbag57
(g78
g59
NtRp2563
(dp2564
g62
(dp2565
sg71
g2550
sg64
(lp2566
g57
(g58
g59
NtRp2567
(dp2568
g62
(dp2569
g70
I5
ssg71
g2563
sg64
(lp2570
S'mycrawler/127.0.0.1.2012-06-22.12-48-48.ce07e320-3abd-47de-87c4-7ecd91d47672'
p2571
asbasbasbag57
(g73
g59
NtRp2572
(dp2573
g62
(dp2574
sg71
g67
sg64
(lp2575
g57
(g78
g59
NtRp2576
(dp2577
g62
(dp2578
g82
g83
ssg71
g2572
sg64
(lp2579
S'vars'
p2580
asbag57
(g78
g59
NtRp2581
(dp2582
g62
(dp2583
g89
g90
ssg71
g2572
sg64
(lp2584
S':'
asbag57
(g78
g59
NtRp2585
(dp2586
g62
(dp2587
sg71
g2572
sg64
(lp2588
g57
(g58
g59
NtRp2589
(dp2590
g62
(dp2591
g70
I5
ssg71
g2585
sg64
(lp2592
g57
(g66
g59
NtRp2593
(dp2594
g62
(dp2595
g70
I4
ssg71
Nsg64
(lp2596
g57
(g73
g59
NtRp2597
(dp2598
g62
(dp2599
sg71
g2593
sg64
(lp2600
g57
(g78
g59
NtRp2601
(dp2602
g62
(dp2603
g82
g83
ssg71
g2597
sg64
(lp2604
g1849
asbag57
(g78
g59
NtRp2605
(dp2606
g62
(dp2607
g89
g90
ssg71
g2597
sg64
(lp2608
S':'
asbag57
(g78
g59
NtRp2609
(dp2610
g62
(dp2611
sg71
g2597
sg64
(lp2612
g57
(g58
g59
NtRp2613
(dp2614
g62
(dp2615
g70
I4
ssg71
g2609
sg64
(lp2616
S''
asbasbasbag57
(g73
g59
NtRp2617
(dp2618
g62
(dp2619
sg71
g2593
sg64
(lp2620
g57
(g78
g59
NtRp2621
(dp2622
g62
(dp2623
g82
g83
ssg71
g2617
sg64
(lp2624
g1870
asbag57
(g78
g59
NtRp2625
(dp2626
g62
(dp2627
g89
g90
ssg71
g2617
sg64
(lp2628
S':'
asbag57
(g78
g59
NtRp2629
(dp2630
g62
(dp2631
sg71
g2617
sg64
(lp2632
g57
(g58
g59
NtRp2633
(dp2634
g62
(dp2635
g70
I4
ssg71
g2629
sg64
(lp2636
g1883
asbasbasbag57
(g73
g59
NtRp2637
(dp2638
g62
(dp2639
sg71
g2593
sg64
(lp2640
g57
(g78
g59
NtRp2641
(dp2642
g62
(dp2643
g82
g83
ssg71
g2637
sg64
(lp2644
g1892
asbag57
(g78
g59
NtRp2645
(dp2646
g62
(dp2647
g89
g90
ssg71
g2637
sg64
(lp2648
S':'
asbag57
(g78
g59
NtRp2649
(dp2650
g62
(dp2651
sg71
g2637
sg64
(lp2652
g57
(g58
g59
NtRp2653
(dp2654
g62
(dp2655
g70
I4
ssg71
g2649
sg64
(lp2656
g1905
asbasbasbag57
(g73
g59
NtRp2657
(dp2658
g62
(dp2659
sg71
g2593
sg64
(lp2660
g57
(g78
g59
NtRp2661
(dp2662
g62
(dp2663
g82
g83
ssg71
g2657
sg64
(lp2664
g1914
asbag57
(g78
g59
NtRp2665
(dp2666
g62
(dp2667
g89
g90
ssg71
g2657
sg64
(lp2668
S':'
asbag57
(g78
g59
NtRp2669
(dp2670
g62
(dp2671
sg71
g2657
sg64
(lp2672
g57
(g58
g59
NtRp2673
(dp2674
g62
(dp2675
g70
I4
ssg71
g2669
sg64
(lp2676
g1927
asbasbasbag57
(g73
g59
NtRp2677
(dp2678
g62
(dp2679
sg71
g2593
sg64
(lp2680
g57
(g78
g59
NtRp2681
(dp2682
g62
(dp2683
g82
g83
ssg71
g2677
sg64
(lp2684
g1936
asbag57
(g78
g59
NtRp2685
(dp2686
g62
(dp2687
g89
g90
ssg71
g2677
sg64
(lp2688
S':'
asbag57
(g78
g59
NtRp2689
(dp2690
g62
(dp2691
sg71
g2677
sg64
(lp2692
g57
(g58
g59
NtRp2693
(dp2694
g62
(dp2695
g70
I4
ssg71
g2689
sg64
(lp2696
g1949
asbasbasbag57
(g73
g59
NtRp2697
(dp2698
g62
(dp2699
sg71
g2593
sg64
(lp2700
g57
(g78
g59
NtRp2701
(dp2702
g62
(dp2703
g82
g83
ssg71
g2697
sg64
(lp2704
g1958
asbag57
(g78
g59
NtRp2705
(dp2706
g62
(dp2707
g89
g90
ssg71
g2697
sg64
(lp2708
S':'
asbag57
(g78
g59
NtRp2709
(dp2710
g62
(dp2711
sg71
g2697
sg64
(lp2712
g57
(g58
g59
NtRp2713
(dp2714
g62
(dp2715
g70
I4
ssg71
g2709
sg64
(lp2716
g1971
asbasbasbag57
(g73
g59
NtRp2717
(dp2718
g62
(dp2719
sg71
g2593
sg64
(lp2720
g57
(g78
g59
NtRp2721
(dp2722
g62
(dp2723
g82
g83
ssg71
g2717
sg64
(lp2724
g1980
asbag57
(g78
g59
NtRp2725
(dp2726
g62
(dp2727
g89
g90
ssg71
g2717
sg64
(lp2728
S':'
asbag57
(g78
g59
NtRp2729
(dp2730
g62
(dp2731
sg71
g2717
sg64
(lp2732
g57
(g58
g59
NtRp2733
(dp2734
g62
(dp2735
g70
I4
ssg71
g2729
sg64
(lp2736
S''
asbasbasbag57
(g73
g59
NtRp2737
(dp2738
g62
(dp2739
sg71
g2593
sg64
(lp2740
g57
(g78
g59
NtRp2741
(dp2742
g62
(dp2743
g82
g83
ssg71
g2737
sg64
(lp2744
g2001
asbag57
(g78
g59
NtRp2745
(dp2746
g62
(dp2747
g89
g90
ssg71
g2737
sg64
(lp2748
S':'
asbag57
(g78
g59
NtRp2749
(dp2750
g62
(dp2751
sg71
g2737
sg64
(lp2752
g57
(g58
g59
NtRp2753
(dp2754
g62
(dp2755
g70
I4
ssg71
g2749
sg64
(lp2756
S''
asbasbasbag57
(g73
g59
NtRp2757
(dp2758
g62
(dp2759
sg71
g2593
sg64
(lp2760
g57
(g78
g59
NtRp2761
(dp2762
g62
(dp2763
g82
g83
ssg71
g2757
sg64
(lp2764
g2022
asbag57
(g78
g59
NtRp2765
(dp2766
g62
(dp2767
g89
g90
ssg71
g2757
sg64
(lp2768
S':'
asbag57
(g78
g59
NtRp2769
(dp2770
g62
(dp2771
sg71
g2757
sg64
(lp2772
g57
(g58
g59
NtRp2773
(dp2774
g62
(dp2775
g70
I4
ssg71
g2769
sg64
(lp2776
S''
asbasbasbag57
(g73
g59
NtRp2777
(dp2778
g62
(dp2779
sg71
g2593
sg64
(lp2780
g57
(g78
g59
NtRp2781
(dp2782
g62
(dp2783
g82
g83
ssg71
g2777
sg64
(lp2784
g2043
asbag57
(g78
g59
NtRp2785
(dp2786
g62
(dp2787
g89
g90
ssg71
g2777
sg64
(lp2788
S':'
asbag57
(g78
g59
NtRp2789
(dp2790
g62
(dp2791
sg71
g2777
sg64
(lp2792
g57
(g58
g59
NtRp2793
(dp2794
g62
(dp2795
g70
I4
ssg71
g2789
sg64
(lp2796
g2056
asbasbasbag57
(g73
g59
NtRp2797
(dp2798
g62
(dp2799
sg71
g2593
sg64
(lp2800
g57
(g78
g59
NtRp2801
(dp2802
g62
(dp2803
g82
g83
ssg71
g2797
sg64
(lp2804
g2065
asbag57
(g78
g59
NtRp2805
(dp2806
g62
(dp2807
g89
g90
ssg71
g2797
sg64
(lp2808
S':'
asbag57
(g78
g59
NtRp2809
(dp2810
g62
(dp2811
sg71
g2797
sg64
(lp2812
g57
(g58
g59
NtRp2813
(dp2814
g62
(dp2815
g70
I4
ssg71
g2809
sg64
(lp2816
S''
asbasbasbasbasbasbasbag57
(g73
g59
NtRp2817
(dp2818
g62
(dp2819
sg71
g67
sg64
(lp2820
g57
(g78
g59
NtRp2821
(dp2822
g62
(dp2823
g82
g83
ssg71
g2817
sg64
(lp2824
S'wsgi'
p2825
asbag57
(g78
g59
NtRp2826
(dp2827
g62
(dp2828
g89
g90
ssg71
g2817
sg64
(lp2829
S':'
asbag57
(g78
g59
NtRp2830
(dp2831
g62
(dp2832
sg71
g2817
sg64
(lp2833
g57
(g58
g59
NtRp2834
(dp2835
g62
(dp2836
g70
I5
ssg71
g2830
sg64
(lp2837
g57
(g66
g59
NtRp2838
(dp2839
g62
(dp2840
g70
I4
ssg71
Nsg64
(lp2841
g57
(g73
g59
NtRp2842
(dp2843
g62
(dp2844
sg71
g2838
sg64
(lp2845
g57
(g78
g59
NtRp2846
(dp2847
g62
(dp2848
g82
g83
ssg71
g2842
sg64
(lp2849
S'environ'
p2850
asbag57
(g78
g59
NtRp2851
(dp2852
g62
(dp2853
g89
g90
ssg71
g2842
sg64
(lp2854
S':'
asbag57
(g78
g59
NtRp2855
(dp2856
g62
(dp2857
sg71
g2842
sg64
(lp2858
g57
(g58
g59
NtRp2859
(dp2860
g62
(dp2861
g70
I4
ssg71
g2855
sg64
(lp2862
g57
(g66
g59
NtRp2863
(dp2864
g62
(dp2865
g70
I3
ssg71
Nsg64
(lp2866
g57
(g73
g59
NtRp2867
(dp2868
g62
(dp2869
sg71
g2863
sg64
(lp2870
g57
(g78
g59
NtRp2871
(dp2872
g62
(dp2873
g82
g83
ssg71
g2867
sg64
(lp2874
S'HTTP_ACCEPT'
p2875
asbag57
(g78
g59
NtRp2876
(dp2877
g62
(dp2878
g89
g90
ssg71
g2867
sg64
(lp2879
S':'
asbag57
(g78
g59
NtRp2880
(dp2881
g62
(dp2882
sg71
g2867
sg64
(lp2883
g57
(g58
g59
NtRp2884
(dp2885
g62
(dp2886
g70
I3
ssg71
g2880
sg64
(lp2887
g1003
asbasbasbag57
(g73
g59
NtRp2888
(dp2889
g62
(dp2890
sg71
g2863
sg64
(lp2891
g57
(g78
g59
NtRp2892
(dp2893
g62
(dp2894
g82
g83
ssg71
g2888
sg64
(lp2895
S'HTTP_ACCEPT_ENCODING'
p2896
asbag57
(g78
g59
NtRp2897
(dp2898
g62
(dp2899
g89
g90
ssg71
g2888
sg64
(lp2900
S':'
asbag57
(g78
g59
NtRp2901
(dp2902
g62
(dp2903
sg71
g2888
sg64
(lp2904
g57
(g58
g59
NtRp2905
(dp2906
g62
(dp2907
g70
I3
ssg71
g2901
sg64
(lp2908
g1025
asbasbasbag57
(g73
g59
NtRp2909
(dp2910
g62
(dp2911
sg71
g2863
sg64
(lp2912
g57
(g78
g59
NtRp2913
(dp2914
g62
(dp2915
g82
g83
ssg71
g2909
sg64
(lp2916
S'HTTP_ACCEPT_LANGUAGE'
p2917
asbag57
(g78
g59
NtRp2918
(dp2919
g62
(dp2920
g89
g90
ssg71
g2909
sg64
(lp2921
S':'
asbag57
(g78
g59
NtRp2922
(dp2923
g62
(dp2924
sg71
g2909
sg64
(lp2925
g57
(g58
g59
NtRp2926
(dp2927
g62
(dp2928
g70
I3
ssg71
g2922
sg64
(lp2929
g1047
asbasbasbag57
(g73
g59
NtRp2930
(dp2931
g62
(dp2932
sg71
g2863
sg64
(lp2933
g57
(g78
g59
NtRp2934
(dp2935
g62
(dp2936
g82
g83
ssg71
g2930
sg64
(lp2937
S'HTTP_CONNECTION'
p2938
asbag57
(g78
g59
NtRp2939
(dp2940
g62
(dp2941
g89
g90
ssg71
g2930
sg64
(lp2942
S':'
asbag57
(g78
g59
NtRp2943
(dp2944
g62
(dp2945
sg71
g2930
sg64
(lp2946
g57
(g58
g59
NtRp2947
(dp2948
g62
(dp2949
g70
I3
ssg71
g2943
sg64
(lp2950
g1069
asbasbasbag57
(g73
g59
NtRp2951
(dp2952
g62
(dp2953
sg71
g2863
sg64
(lp2954
g57
(g78
g59
NtRp2955
(dp2956
g62
(dp2957
g82
g83
ssg71
g2951
sg64
(lp2958
S'HTTP_COOKIE'
p2959
asbag57
(g78
g59
NtRp2960
(dp2961
g62
(dp2962
g89
g90
ssg71
g2951
sg64
(lp2963
S':'
asbag57
(g78
g59
NtRp2964
(dp2965
g62
(dp2966
sg71
g2951
sg64
(lp2967
g57
(g58
g59
NtRp2968
(dp2969
g62
(dp2970
g70
I3
ssg71
g2964
sg64
(lp2971
g1091
asbasbasbag57
(g73
g59
NtRp2972
(dp2973
g62
(dp2974
sg71
g2863
sg64
(lp2975
g57
(g78
g59
NtRp2976
(dp2977
g62
(dp2978
g82
g83
ssg71
g2972
sg64
(lp2979
S'HTTP_HOST'
p2980
asbag57
(g78
g59
NtRp2981
(dp2982
g62
(dp2983
g89
g90
ssg71
g2972
sg64
(lp2984
S':'
asbag57
(g78
g59
NtRp2985
(dp2986
g62
(dp2987
sg71
g2972
sg64
(lp2988
g57
(g58
g59
NtRp2989
(dp2990
g62
(dp2991
g70
I3
ssg71
g2985
sg64
(lp2992
g1113
asbasbasbag57
(g73
g59
NtRp2993
(dp2994
g62
(dp2995
sg71
g2863
sg64
(lp2996
g57
(g78
g59
NtRp2997
(dp2998
g62
(dp2999
g82
g83
ssg71
g2993
sg64
(lp3000
S'HTTP_REFERER'
p3001
asbag57
(g78
g59
NtRp3002
(dp3003
g62
(dp3004
g89
g90
ssg71
g2993
sg64
(lp3005
S':'
asbag57
(g78
g59
NtRp3006
(dp3007
g62
(dp3008
sg71
g2993
sg64
(lp3009
g57
(g58
g59
NtRp3010
(dp3011
g62
(dp3012
g70
I3
ssg71
g3006
sg64
(lp3013
g1135
asbasbasbag57
(g73
g59
NtRp3014
(dp3015
g62
(dp3016
sg71
g2863
sg64
(lp3017
g57
(g78
g59
NtRp3018
(dp3019
g62
(dp3020
g82
g83
ssg71
g3014
sg64
(lp3021
S'HTTP_USER_AGENT'
p3022
asbag57
(g78
g59
NtRp3023
(dp3024
g62
(dp3025
g89
g90
ssg71
g3014
sg64
(lp3026
S':'
asbag57
(g78
g59
NtRp3027
(dp3028
g62
(dp3029
sg71
g3014
sg64
(lp3030
g57
(g58
g59
NtRp3031
(dp3032
g62
(dp3033
g70
I3
ssg71
g3027
sg64
(lp3034
g1157
asbasbasbag57
(g73
g59
NtRp3035
(dp3036
g62
(dp3037
sg71
g2863
sg64
(lp3038
g57
(g78
g59
NtRp3039
(dp3040
g62
(dp3041
g82
g83
ssg71
g3035
sg64
(lp3042
S'PATH_INFO'
p3043
asbag57
(g78
g59
NtRp3044
(dp3045
g62
(dp3046
g89
g90
ssg71
g3035
sg64
(lp3047
S':'
asbag57
(g78
g59
NtRp3048
(dp3049
g62
(dp3050
sg71
g3035
sg64
(lp3051
g57
(g58
g59
NtRp3052
(dp3053
g62
(dp3054
g70
I3
ssg71
g3048
sg64
(lp3055
g1221
asbasbasbag57
(g73
g59
NtRp3056
(dp3057
g62
(dp3058
sg71
g2863
sg64
(lp3059
g57
(g78
g59
NtRp3060
(dp3061
g62
(dp3062
g82
g83
ssg71
g3056
sg64
(lp3063
S'QUERY_STRING'
p3064
asbag57
(g78
g59
NtRp3065
(dp3066
g62
(dp3067
g89
g90
ssg71
g3056
sg64
(lp3068
S':'
asbag57
(g78
g59
NtRp3069
(dp3070
g62
(dp3071
sg71
g3056
sg64
(lp3072
g57
(g58
g59
NtRp3073
(dp3074
g62
(dp3075
g70
I3
ssg71
g3069
sg64
(lp3076
g1243
asbasbasbag57
(g73
g59
NtRp3077
(dp3078
g62
(dp3079
sg71
g2863
sg64
(lp3080
g57
(g78
g59
NtRp3081
(dp3082
g62
(dp3083
g82
g83
ssg71
g3077
sg64
(lp3084
S'REMOTE_ADDR'
p3085
asbag57
(g78
g59
NtRp3086
(dp3087
g62
(dp3088
g89
g90
ssg71
g3077
sg64
(lp3089
S':'
asbag57
(g78
g59
NtRp3090
(dp3091
g62
(dp3092
sg71
g3077
sg64
(lp3093
g57
(g58
g59
NtRp3094
(dp3095
g62
(dp3096
g70
I3
ssg71
g3090
sg64
(lp3097
g190
asbasbasbag57
(g73
g59
NtRp3098
(dp3099
g62
(dp3100
sg71
g2863
sg64
(lp3101
g57
(g78
g59
NtRp3102
(dp3103
g62
(dp3104
g82
g83
ssg71
g3098
sg64
(lp3105
S'REMOTE_PORT'
p3106
asbag57
(g78
g59
NtRp3107
(dp3108
g62
(dp3109
g89
g90
ssg71
g3098
sg64
(lp3110
S':'
asbag57
(g78
g59
NtRp3111
(dp3112
g62
(dp3113
sg71
g3098
sg64
(lp3114
g57
(g58
g59
NtRp3115
(dp3116
g62
(dp3117
g70
I3
ssg71
g3111
sg64
(lp3118
g1286
asbasbasbag57
(g73
g59
NtRp3119
(dp3120
g62
(dp3121
sg71
g2863
sg64
(lp3122
g57
(g78
g59
NtRp3123
(dp3124
g62
(dp3125
g82
g83
ssg71
g3119
sg64
(lp3126
S'REQUEST_METHOD'
p3127
asbag57
(g78
g59
NtRp3128
(dp3129
g62
(dp3130
g89
g90
ssg71
g3119
sg64
(lp3131
S':'
asbag57
(g78
g59
NtRp3132
(dp3133
g62
(dp3134
sg71
g3119
sg64
(lp3135
g57
(g58
g59
NtRp3136
(dp3137
g62
(dp3138
g70
I3
ssg71
g3132
sg64
(lp3139
g1308
asbasbasbag57
(g73
g59
NtRp3140
(dp3141
g62
(dp3142
sg71
g2863
sg64
(lp3143
g57
(g78
g59
NtRp3144
(dp3145
g62
(dp3146
g82
g83
ssg71
g3140
sg64
(lp3147
S'SCRIPT_NAME'
p3148
asbag57
(g78
g59
NtRp3149
(dp3150
g62
(dp3151
g89
g90
ssg71
g3140
sg64
(lp3152
S':'
asbag57
(g78
g59
NtRp3153
(dp3154
g62
(dp3155
sg71
g3140
sg64
(lp3156
g57
(g58
g59
NtRp3157
(dp3158
g62
(dp3159
g70
I3
ssg71
g3153
sg64
(lp3160
S''
asbasbasbag57
(g73
g59
NtRp3161
(dp3162
g62
(dp3163
sg71
g2863
sg64
(lp3164
g57
(g78
g59
NtRp3165
(dp3166
g62
(dp3167
g82
g83
ssg71
g3161
sg64
(lp3168
S'SERVER_NAME'
p3169
asbag57
(g78
g59
NtRp3170
(dp3171
g62
(dp3172
g89
g90
ssg71
g3161
sg64
(lp3173
S':'
asbag57
(g78
g59
NtRp3174
(dp3175
g62
(dp3176
sg71
g3161
sg64
(lp3177
g57
(g58
g59
NtRp3178
(dp3179
g62
(dp3180
g70
I3
ssg71
g3174
sg64
(lp3181
g1351
asbasbasbag57
(g73
g59
NtRp3182
(dp3183
g62
(dp3184
sg71
g2863
sg64
(lp3185
g57
(g78
g59
NtRp3186
(dp3187
g62
(dp3188
g82
g83
ssg71
g3182
sg64
(lp3189
S'SERVER_PORT'
p3190
asbag57
(g78
g59
NtRp3191
(dp3192
g62
(dp3193
g89
g90
ssg71
g3182
sg64
(lp3194
S':'
asbag57
(g78
g59
NtRp3195
(dp3196
g62
(dp3197
sg71
g3182
sg64
(lp3198
g57
(g58
g59
NtRp3199
(dp3200
g62
(dp3201
g70
I3
ssg71
g3195
sg64
(lp3202
g1373
asbasbasbag57
(g73
g59
NtRp3203
(dp3204
g62
(dp3205
sg71
g2863
sg64
(lp3206
g57
(g78
g59
NtRp3207
(dp3208
g62
(dp3209
g82
g83
ssg71
g3203
sg64
(lp3210
S'SERVER_PROTOCOL'
p3211
asbag57
(g78
g59
NtRp3212
(dp3213
g62
(dp3214
g89
g90
ssg71
g3203
sg64
(lp3215
S':'
asbag57
(g78
g59
NtRp3216
(dp3217
g62
(dp3218
sg71
g3203
sg64
(lp3219
g57
(g58
g59
NtRp3220
(dp3221
g62
(dp3222
g70
I3
ssg71
g3216
sg64
(lp3223
g1395
asbasbasbag57
(g73
g59
NtRp3224
(dp3225
g62
(dp3226
sg71
g2863
sg64
(lp3227
g57
(g78
g59
NtRp3228
(dp3229
g62
(dp3230
g82
g83
ssg71
g3224
sg64
(lp3231
S'SERVER_SOFTWARE'
p3232
asbag57
(g78
g59
NtRp3233
(dp3234
g62
(dp3235
g89
g90
ssg71
g3224
sg64
(lp3236
S':'
asbag57
(g78
g59
NtRp3237
(dp3238
g62
(dp3239
sg71
g3224
sg64
(lp3240
g57
(g58
g59
NtRp3241
(dp3242
g62
(dp3243
g70
I3
ssg71
g3237
sg64
(lp3244
g1417
asbasbasbag57
(g73
g59
NtRp3245
(dp3246
g62
(dp3247
sg71
g2863
sg64
(lp3248
g57
(g78
g59
NtRp3249
(dp3250
g62
(dp3251
g82
g83
ssg71
g3245
sg64
(lp3252
S'wsgi.errors'
p3253
asbag57
(g78
g59
NtRp3254
(dp3255
g62
(dp3256
g89
g90
ssg71
g3245
sg64
(lp3257
S':'
asbag57
(g78
g59
NtRp3258
(dp3259
g62
(dp3260
sg71
g3245
sg64
(lp3261
g57
(g58
g59
NtRp3262
(dp3263
g62
(dp3264
g70
I3
ssg71
g3258
sg64
(lp3265
S"<open file '<stderr>', mode 'w' at 0x00A550D0>"
p3266
asbasbasbag57
(g73
g59
NtRp3267
(dp3268
g62
(dp3269
sg71
g2863
sg64
(lp3270
g57
(g78
g59
NtRp3271
(dp3272
g62
(dp3273
g82
g83
ssg71
g3267
sg64
(lp3274
S'wsgi.file_wrapper'
p3275
asbag57
(g78
g59
NtRp3276
(dp3277
g62
(dp3278
g89
g90
ssg71
g3267
sg64
(lp3279
S':'
asbag57
(g78
g59
NtRp3280
(dp3281
g62
(dp3282
sg71
g3267
sg64
(lp3283
g57
(g58
g59
NtRp3284
(dp3285
g62
(dp3286
g70
I3
ssg71
g3280
sg64
(lp3287
S'<class wsgiref.util.FileWrapper at 0x015E8AB0>'
p3288
asbasbasbag57
(g73
g59
NtRp3289
(dp3290
g62
(dp3291
sg71
g2863
sg64
(lp3292
g57
(g78
g59
NtRp3293
(dp3294
g62
(dp3295
g82
g83
ssg71
g3289
sg64
(lp3296
S'wsgi.input'
p3297
asbag57
(g78
g59
NtRp3298
(dp3299
g62
(dp3300
g89
g90
ssg71
g3289
sg64
(lp3301
S':'
asbag57
(g78
g59
NtRp3302
(dp3303
g62
(dp3304
sg71
g3289
sg64
(lp3305
g57
(g58
g59
NtRp3306
(dp3307
g62
(dp3308
g70
I3
ssg71
g3302
sg64
(lp3309
S'<cStringIO.StringO object at 0x06D9A1A0>'
p3310
asbasbasbag57
(g73
g59
NtRp3311
(dp3312
g62
(dp3313
sg71
g2863
sg64
(lp3314
g57
(g78
g59
NtRp3315
(dp3316
g62
(dp3317
g82
g83
ssg71
g3311
sg64
(lp3318
S'wsgi.multiprocess'
p3319
asbag57
(g78
g59
NtRp3320
(dp3321
g62
(dp3322
g89
g90
ssg71
g3311
sg64
(lp3323
S':'
asbag57
(g78
g59
NtRp3324
(dp3325
g62
(dp3326
sg71
g3311
sg64
(lp3327
g57
(g58
g59
NtRp3328
(dp3329
g62
(dp3330
g70
I3
ssg71
g3324
sg64
(lp3331
g100
asbasbasbag57
(g73
g59
NtRp3332
(dp3333
g62
(dp3334
sg71
g2863
sg64
(lp3335
g57
(g78
g59
NtRp3336
(dp3337
g62
(dp3338
g82
g83
ssg71
g3332
sg64
(lp3339
S'wsgi.multithread'
p3340
asbag57
(g78
g59
NtRp3341
(dp3342
g62
(dp3343
g89
g90
ssg71
g3332
sg64
(lp3344
S':'
asbag57
(g78
g59
NtRp3345
(dp3346
g62
(dp3347
sg71
g3332
sg64
(lp3348
g57
(g58
g59
NtRp3349
(dp3350
g62
(dp3351
g70
I3
ssg71
g3345
sg64
(lp3352
g1657
asbasbasbag57
(g73
g59
NtRp3353
(dp3354
g62
(dp3355
sg71
g2863
sg64
(lp3356
g57
(g78
g59
NtRp3357
(dp3358
g62
(dp3359
g82
g83
ssg71
g3353
sg64
(lp3360
S'wsgi.run_once'
p3361
asbag57
(g78
g59
NtRp3362
(dp3363
g62
(dp3364
g89
g90
ssg71
g3353
sg64
(lp3365
S':'
asbag57
(g78
g59
NtRp3366
(dp3367
g62
(dp3368
sg71
g3353
sg64
(lp3369
g57
(g58
g59
NtRp3370
(dp3371
g62
(dp3372
g70
I3
ssg71
g3366
sg64
(lp3373
g100
asbasbasbag57
(g73
g59
NtRp3374
(dp3375
g62
(dp3376
sg71
g2863
sg64
(lp3377
g57
(g78
g59
NtRp3378
(dp3379
g62
(dp3380
g82
g83
ssg71
g3374
sg64
(lp3381
S'wsgi.url_scheme'
p3382
asbag57
(g78
g59
NtRp3383
(dp3384
g62
(dp3385
g89
g90
ssg71
g3374
sg64
(lp3386
S':'
asbag57
(g78
g59
NtRp3387
(dp3388
g62
(dp3389
sg71
g3374
sg64
(lp3390
g57
(g58
g59
NtRp3391
(dp3392
g62
(dp3393
g70
I3
ssg71
g3387
sg64
(lp3394
g1700
asbasbasbag57
(g73
g59
NtRp3395
(dp3396
g62
(dp3397
sg71
g2863
sg64
(lp3398
g57
(g78
g59
NtRp3399
(dp3400
g62
(dp3401
g82
g83
ssg71
g3395
sg64
(lp3402
S'wsgi.version'
p3403
asbag57
(g78
g59
NtRp3404
(dp3405
g62
(dp3406
g89
g90
ssg71
g3395
sg64
(lp3407
S':'
asbag57
(g78
g59
NtRp3408
(dp3409
g62
(dp3410
sg71
g3395
sg64
(lp3411
g57
(g58
g59
NtRp3412
(dp3413
g62
(dp3414
g70
I3
ssg71
g3408
sg64
(lp3415
S'1'
asbasbasbasbasbasbasbasbasbasbasbasbasbsS'frames'
p3416
(lp3417
(dp3418
S'file'
p3419
S'C:\\Documents and Settings\\agrover\\Desktop\\previous crawler\\web2py\\gluon\\restricted.py'
p3420
sS'dump'
p3421
(dp3422
S'environment'
p3423
S"{'A': <class 'gluon.html.A'>, 'Auth': <class 'gluon.tools.Auth'>, 'B': <class 'gluon.html.B'>, 'BEAUTIFY': <class 'gluon.html.BEAUTIFY'>, 'BODY': <class 'gluon.html.BODY'>, 'BR': <class 'gluon.html.BR'>, 'BUTTON': <class 'gluon.html.BUTTON'>, 'CAT': <class 'gluon.html.CAT'>, 'CENTER': <class 'gluon.html.CENTER'>, 'CLEANUP': <class 'gluon.validators.CLEANUP'>, ...}"
p3424
sS'ccode'
p3425
S'<code object <module> at 06B66D58, file "C:\\Docu...tions\\mycrawler\\controllers/default.py", line 11>'
p3426
ssS'lnum'
p3427
I205
sS'lines'
p3428
(dp3429
I200
S'    try:'
p3430
sI201
S'        if type(code) == types.CodeType:'
p3431
sI202
S'            ccode = code'
p3432
sI203
S'        else:'
p3433
sI204
S'            ccode = compile2(code,layer)'
p3434
sI205
S'        exec ccode in environment'
p3435
sI206
S'    except HTTP:'
p3436
sI207
S'        raise'
p3437
sI208
S'    except RestrictedError:'
p3438
sI209
S'        # do not encapsulate (obfuscate) the original RestrictedError'
p3439
ssS'call'
p3440
S"(code='# -*- coding: utf-8 -*-\\n# this file is released ...urrent)\\n\\nresponse._vars=response._caller(search)\\n', environment={'A': <class 'gluon.html.A'>, 'Auth': <class 'gluon.tools.Auth'>, 'B': <class 'gluon.html.B'>, 'BEAUTIFY': <class 'gluon.html.BEAUTIFY'>, 'BODY': <class 'gluon.html.BODY'>, 'BR': <class 'gluon.html.BR'>, 'BUTTON': <class 'gluon.html.BUTTON'>, 'CAT': <class 'gluon.html.CAT'>, 'CENTER': <class 'gluon.html.CENTER'>, 'CLEANUP': <class 'gluon.validators.CLEANUP'>, ...}, layer=r'C:\\Documents and Settings\\agrover\\Desktop\\previo...2py\\applications\\mycrawler\\controllers/default.py')"
p3441
sS'func'
p3442
S'restricted'
p3443
sa(dp3444
g3419
S'C:\\Documents and Settings\\agrover\\Desktop\\previous crawler\\web2py\\applications\\mycrawler\\controllers\\default.py'
p3445
sg3421
(dp3446
sg3427
I482
sg3428
(dp3447
I480
S'    #return dict(view_profile=view_profile,name=name,location=location,industry=industry,titl=titl,current=current)'
p3448
sI471
S"    #response.headers['Content-Type'] = 'text/csv'"
p3449
sI472
S"    #response.headers['Content-Disposition'] = 'attachment; filename=%s' % request.vars.File_Name"
p3450
sI473
S''
sI474
S'    #print view_profile'
p3451
sI475
S'    #print name'
p3452
sI476
S'    #print location'
p3453
sI477
S'    #print industry'
p3454
sI478
S'    #print titl'
p3455
sI479
S''
ssg3440
S'()'
p3456
sg3442
S'<module>'
p3457
sa(dp3458
g3419
S'C:\\Documents and Settings\\agrover\\Desktop\\previous crawler\\web2py\\gluon\\globals.py'
p3459
sg3421
(dp3460
S'self'
p3461
S'undefined'
p3462
sS'f'
S'<function search>'
p3463
ssg3427
I173
sg3428
(dp3464
I168
S'        self.menu = []             # used by the default view layout'
p3465
sI169
S'        self.files = []            # used by web2py_ajax.html'
p3466
sI170
S'        self.generic_patterns = [] # patterns to allow generic views'
p3467
sI171
S"        self.delimiters = ('{{','}}')"
p3468
sI172
S'        self._vars = None'
p3469
sI173
S'        self._caller = lambda f: f()'
p3470
sI174
S'        self._view_environment = None'
p3471
sI175
S'        self._custom_commit = None'
p3472
sI176
S'        self._custom_rollback = None'
p3473
sI177
S''
ssg3440
S'(f=<function search>)'
p3474
sg3442
S'<lambda>'
p3475
sa(dp3476
g3419
S'C:\\Documents and Settings\\agrover\\Desktop\\previous crawler\\web2py\\applications\\mycrawler\\controllers\\default.py'
p3477
sg3421
(dp3478
S'soup'
p3479
S'<!DOCTYPE html>\n\n<!--[if lt IE 7]> <html lang="e...067809116" width="1">\n</img></hr></body>\n</html>\n'
p3480
sS').get'
p3481
g3462
sS'br.open'
p3482
S'<bound method Browser.open of <mechanize._mechanize.Browser instance>>'
p3483
sS'br'
p3484
S'<mechanize._mechanize.Browser instance>'
p3485
sS'soup.find'
p3486
S'<bound method BeautifulSoup.find of <!DOCTYPE ht...67809116" width="1">\n</img></hr></body>\n</html>\n>'
p3487
ssg3427
I367
sg3428
(dp3488
I362
S''
sI363
S'        for i in range(0,len(firstname)):'
p3489
sI364
S"            e=''"
p3490
sI365
S"            w=''"
p3491
sI366
S'            for row in db(db.email_info.Company_Name==company[i]).select():'
p3492
sI367
S"                if db.row.First_String=='firstname':"
p3493
sI368
S'                    e=e+firstname[i]'
p3494
sI369
S"                if db.row.First_String=='f':"
p3495
sI370
S'                    e=e+firstname[i][0]'
p3496
sI371
S"                if db.row.First_String=='lastname':"
p3497
ssg3440
S'()'
p3498
sg3442
S'search'
p3499
sa(dp3500
g3419
S'C:\\Documents and Settings\\agrover\\Desktop\\previous crawler\\web2py\\gluon\\dal.py'
p3501
sg3421
(dp3502
S'self'
p3503
S"<DAL {'auth_event': <Table {'origin': <gluon.dal..._key': <gluon.dal.Field object at 0x053C9C50>}>}>"
p3504
sS'key'
p3505
S"'row'"
p3506
ssg3427
I6343
sg3428
(dp3507
I6338
S''
sI6339
S'    def __setitem__(self, key, value):'
p3508
sI6340
S'        dict.__setitem__(self, str(key), value)'
p3509
sI6341
S''
sI6342
S'    def __getattr__(self, key):'
p3510
sI6343
S'        return self[key]'
p3511
sI6344
S''
sI6345
S'    def __setattr__(self, key, value):'
p3512
sI6346
S"        if key[:1]!='_' and key in self:"
p3513
sI6347
S'            raise SyntaxError, \\'
p3514
ssg3440
S"(self=<DAL {'auth_event': <Table {'origin': <gluon.dal..._key': <gluon.dal.Field object at 0x053C9C50>}>}>, key='row')"
p3515
sg3442
S'__getattr__'
p3516
sa(dp3517
g3419
S'C:\\Documents and Settings\\agrover\\Desktop\\previous crawler\\web2py\\gluon\\dal.py'
p3518
sg3421
(dp3519
S'builtinstr'
p3520
S"<type 'str'>"
p3521
sS'self'
p3522
S"<DAL {'auth_event': <Table {'origin': <gluon.dal..._key': <gluon.dal.Field object at 0x053C9C50>}>}>"
p3523
sS'dict.__getitem__'
p3524
S"<method '__getitem__' of 'dict' objects>"
p3525
sS'key'
p3526
S"'row'"
p3527
sS'builtindict'
p3528
S"<type 'dict'>"
p3529
ssg3427
I6337
sg3428
(dp3530
I6336
S'    def __getitem__(self, key):'
p3531
sI6337
S'        return dict.__getitem__(self, str(key))'
p3532
sI6338
S''
sI6339
S'    def __setitem__(self, key, value):'
p3533
sI6340
S'        dict.__setitem__(self, str(key), value)'
p3534
sI6341
S''
sI6332
S'    def __iter__(self):'
p3535
sI6333
S'        for tablename in self.tables:'
p3536
sI6334
S'            yield self[tablename]'
p3537
sI6335
S''
ssg3440
S"(self=<DAL {'auth_event': <Table {'origin': <gluon.dal..._key': <gluon.dal.Field object at 0x053C9C50>}>}>, key='row')"
p3538
sg3442
g20
sasS'pyver'
p3539
S'Python 2.7.3: C:\\Python27\\python.exe'
p3540
sS'session'
p3541
g57
(g58
g59
NtRp3542
(dp3543
g62
(dp3544
sg64
(lp3545
g57
(g66
g59
NtRp3546
(dp3547
g62
(dp3548
g70
I5
ssg71
Nsg64
(lp3549
g57
(g73
g59
NtRp3550
(dp3551
g62
(dp3552
sg71
g3546
sg64
(lp3553
g57
(g78
g59
NtRp3554
(dp3555
g62
(dp3556
g82
g83
ssg71
g3550
sg64
(lp3557
S'last_query'
p3558
asbag57
(g78
g59
NtRp3559
(dp3560
g62
(dp3561
g89
g90
ssg71
g3550
sg64
(lp3562
S':'
asbag57
(g78
g59
NtRp3563
(dp3564
g62
(dp3565
sg71
g3550
sg64
(lp3566
g57
(g58
g59
NtRp3567
(dp3568
g62
(dp3569
g70
I5
ssg71
g3563
sg64
(lp3570
S'db.email_info.id>0'
p3571
asbasbasbag57
(g73
g59
NtRp3572
(dp3573
g62
(dp3574
sg71
g3546
sg64
(lp3575
g57
(g78
g59
NtRp3576
(dp3577
g62
(dp3578
g82
g83
ssg71
g3572
sg64
(lp3579
S'password'
p3580
asbag57
(g78
g59
NtRp3581
(dp3582
g62
(dp3583
g89
g90
ssg71
g3572
sg64
(lp3584
S':'
asbag57
(g78
g59
NtRp3585
(dp3586
g62
(dp3587
sg71
g3572
sg64
(lp3588
g57
(g58
g59
NtRp3589
(dp3590
g62
(dp3591
g70
I5
ssg71
g3585
sg64
(lp3592
S'modeln@1234'
p3593
asbasbasbag57
(g73
g59
NtRp3594
(dp3595
g62
(dp3596
sg71
g3546
sg64
(lp3597
g57
(g78
g59
NtRp3598
(dp3599
g62
(dp3600
g82
g83
ssg71
g3594
sg64
(lp3601
S'username'
p3602
asbag57
(g78
g59
NtRp3603
(dp3604
g62
(dp3605
g89
g90
ssg71
g3594
sg64
(lp3606
S':'
asbag57
(g78
g59
NtRp3607
(dp3608
g62
(dp3609
sg71
g3594
sg64
(lp3610
g57
(g58
g59
NtRp3611
(dp3612
g62
(dp3613
g70
I5
ssg71
g3607
sg64
(lp3614
S'mrigeshgaurav@gmail.com'
p3615
asbasbasbasbasbsS'etype'
p3616
S"<type 'exceptions.KeyError'>"
p3617
sS'date'
p3618
S'Fri Jun 22 12:52:08 2012'
p3619
sS'response'
p3620
g57
(g58
g59
NtRp3621
(dp3622
g62
(dp3623
sg64
(lp3624
g57
(g66
g59
NtRp3625
(dp3626
g62
(dp3627
g70
I5
ssg71
Nsg64
(lp3628
g57
(g73
g59
NtRp3629
(dp3630
g62
(dp3631
sg71
g3625
sg64
(lp3632
g57
(g78
g59
NtRp3633
(dp3634
g62
(dp3635
g82
g83
ssg71
g3629
sg64
(lp3636
g155
asbag57
(g78
g59
NtRp3637
(dp3638
g62
(dp3639
g89
g90
ssg71
g3629
sg64
(lp3640
S':'
asbag57
(g78
g59
NtRp3641
(dp3642
g62
(dp3643
sg71
g3629
sg64
(lp3644
g57
(g58
g59
NtRp3645
(dp3646
g62
(dp3647
g70
I5
ssg71
g3641
sg64
(lp3648
S'<cStringIO.StringO object at 0x053CAA80>'
p3649
asbasbasbag57
(g73
g59
NtRp3650
(dp3651
g62
(dp3652
sg71
g3625
sg64
(lp3653
g57
(g78
g59
NtRp3654
(dp3655
g62
(dp3656
g82
g83
ssg71
g3650
sg64
(lp3657
g221
asbag57
(g78
g59
NtRp3658
(dp3659
g62
(dp3660
g89
g90
ssg71
g3650
sg64
(lp3661
S':'
asbag57
(g78
g59
NtRp3662
(dp3663
g62
(dp3664
sg71
g3650
sg64
(lp3665
g57
(g58
g59
NtRp3666
(dp3667
g62
(dp3668
g70
I5
ssg71
g3662
sg64
(lp3669
g57
(g66
g59
NtRp3670
(dp3671
g62
(dp3672
g70
I4
ssg71
Nsg64
(lp3673
g57
(g73
g59
NtRp3674
(dp3675
g62
(dp3676
sg71
g3670
sg64
(lp3677
g57
(g78
g59
NtRp3678
(dp3679
g62
(dp3680
g82
g83
ssg71
g3674
sg64
(lp3681
S'session_id_mycrawler'
p3682
asbag57
(g78
g59
NtRp3683
(dp3684
g62
(dp3685
g89
g90
ssg71
g3674
sg64
(lp3686
S':'
asbag57
(g78
g59
NtRp3687
(dp3688
g62
(dp3689
sg71
g3674
sg64
(lp3690
g57
(g58
g59
NtRp3691
(dp3692
g62
(dp3693
g70
I4
ssg71
g3687
sg64
(lp3694
g57
(g66
g59
NtRp3695
(dp3696
g62
(dp3697
g70
I3
ssg71
Nsg64
(lp3698
g57
(g73
g59
NtRp3699
(dp3700
g62
(dp3701
sg71
g3695
sg64
(lp3702
g57
(g78
g59
NtRp3703
(dp3704
g62
(dp3705
g82
g83
ssg71
g3699
sg64
(lp3706
g271
asbag57
(g78
g59
NtRp3707
(dp3708
g62
(dp3709
g89
g90
ssg71
g3699
sg64
(lp3710
S':'
asbag57
(g78
g59
NtRp3711
(dp3712
g62
(dp3713
sg71
g3699
sg64
(lp3714
g57
(g58
g59
NtRp3715
(dp3716
g62
(dp3717
g70
I3
ssg71
g3711
sg64
(lp3718
S''
asbasbasbag57
(g73
g59
NtRp3719
(dp3720
g62
(dp3721
sg71
g3695
sg64
(lp3722
g57
(g78
g59
NtRp3723
(dp3724
g62
(dp3725
g82
g83
ssg71
g3719
sg64
(lp3726
g292
asbag57
(g78
g59
NtRp3727
(dp3728
g62
(dp3729
g89
g90
ssg71
g3719
sg64
(lp3730
S':'
asbag57
(g78
g59
NtRp3731
(dp3732
g62
(dp3733
sg71
g3719
sg64
(lp3734
g57
(g58
g59
NtRp3735
(dp3736
g62
(dp3737
g70
I3
ssg71
g3731
sg64
(lp3738
S''
asbasbasbag57
(g73
g59
NtRp3739
(dp3740
g62
(dp3741
sg71
g3695
sg64
(lp3742
g57
(g78
g59
NtRp3743
(dp3744
g62
(dp3745
g82
g83
ssg71
g3739
sg64
(lp3746
g313
asbag57
(g78
g59
NtRp3747
(dp3748
g62
(dp3749
g89
g90
ssg71
g3739
sg64
(lp3750
S':'
asbag57
(g78
g59
NtRp3751
(dp3752
g62
(dp3753
sg71
g3739
sg64
(lp3754
g57
(g58
g59
NtRp3755
(dp3756
g62
(dp3757
g70
I3
ssg71
g3751
sg64
(lp3758
S''
asbasbasbag57
(g73
g59
NtRp3759
(dp3760
g62
(dp3761
sg71
g3695
sg64
(lp3762
g57
(g78
g59
NtRp3763
(dp3764
g62
(dp3765
g82
g83
ssg71
g3759
sg64
(lp3766
g334
asbag57
(g78
g59
NtRp3767
(dp3768
g62
(dp3769
g89
g90
ssg71
g3759
sg64
(lp3770
S':'
asbag57
(g78
g59
NtRp3771
(dp3772
g62
(dp3773
sg71
g3759
sg64
(lp3774
g57
(g58
g59
NtRp3775
(dp3776
g62
(dp3777
g70
I3
ssg71
g3771
sg64
(lp3778
S''
asbasbasbag57
(g73
g59
NtRp3779
(dp3780
g62
(dp3781
sg71
g3695
sg64
(lp3782
g57
(g78
g59
NtRp3783
(dp3784
g62
(dp3785
g82
g83
ssg71
g3779
sg64
(lp3786
g355
asbag57
(g78
g59
NtRp3787
(dp3788
g62
(dp3789
g89
g90
ssg71
g3779
sg64
(lp3790
S':'
asbag57
(g78
g59
NtRp3791
(dp3792
g62
(dp3793
sg71
g3779
sg64
(lp3794
g57
(g58
g59
NtRp3795
(dp3796
g62
(dp3797
g70
I3
ssg71
g3791
sg64
(lp3798
S''
asbasbasbag57
(g73
g59
NtRp3799
(dp3800
g62
(dp3801
sg71
g3695
sg64
(lp3802
g57
(g78
g59
NtRp3803
(dp3804
g62
(dp3805
g82
g83
ssg71
g3799
sg64
(lp3806
g376
asbag57
(g78
g59
NtRp3807
(dp3808
g62
(dp3809
g89
g90
ssg71
g3799
sg64
(lp3810
S':'
asbag57
(g78
g59
NtRp3811
(dp3812
g62
(dp3813
sg71
g3799
sg64
(lp3814
g57
(g58
g59
NtRp3815
(dp3816
g62
(dp3817
g70
I3
ssg71
g3811
sg64
(lp3818
S'/'
asbasbasbag57
(g73
g59
NtRp3819
(dp3820
g62
(dp3821
sg71
g3695
sg64
(lp3822
g57
(g78
g59
NtRp3823
(dp3824
g62
(dp3825
g82
g83
ssg71
g3819
sg64
(lp3826
g397
asbag57
(g78
g59
NtRp3827
(dp3828
g62
(dp3829
g89
g90
ssg71
g3819
sg64
(lp3830
S':'
asbag57
(g78
g59
NtRp3831
(dp3832
g62
(dp3833
sg71
g3819
sg64
(lp3834
g57
(g58
g59
NtRp3835
(dp3836
g62
(dp3837
g70
I3
ssg71
g3831
sg64
(lp3838
S''
asbasbasbag57
(g73
g59
NtRp3839
(dp3840
g62
(dp3841
sg71
g3695
sg64
(lp3842
g57
(g78
g59
NtRp3843
(dp3844
g62
(dp3845
g82
g83
ssg71
g3839
sg64
(lp3846
g418
asbag57
(g78
g59
NtRp3847
(dp3848
g62
(dp3849
g89
g90
ssg71
g3839
sg64
(lp3850
S':'
asbag57
(g78
g59
NtRp3851
(dp3852
g62
(dp3853
sg71
g3839
sg64
(lp3854
g57
(g58
g59
NtRp3855
(dp3856
g62
(dp3857
g70
I3
ssg71
g3851
sg64
(lp3858
S''
asbasbasbasbasbasbasbasbasbasbasbag57
(g73
g59
NtRp3859
(dp3860
g62
(dp3861
sg71
g3625
sg64
(lp3862
g57
(g78
g59
NtRp3863
(dp3864
g62
(dp3865
g82
g83
ssg71
g3859
sg64
(lp3866
S'delimiters'
p3867
asbag57
(g78
g59
NtRp3868
(dp3869
g62
(dp3870
g89
g90
ssg71
g3859
sg64
(lp3871
S':'
asbag57
(g78
g59
NtRp3872
(dp3873
g62
(dp3874
sg71
g3859
sg64
(lp3875
g57
(g58
g59
NtRp3876
(dp3877
g62
(dp3878
g70
I5
ssg71
g3872
sg64
(lp3879
g57
(g66
g59
NtRp3880
(dp3881
g62
(dp3882
g70
I4
ssg71
Nsg64
(lp3883
g57
(g73
g59
NtRp3884
(dp3885
g62
(dp3886
sg71
g3880
sg64
(lp3887
g57
(g78
g59
NtRp3888
(dp3889
g62
(dp3890
sg71
g3884
sg64
(lp3891
g57
(g58
g59
NtRp3892
(dp3893
g62
(dp3894
g70
I4
ssg71
g3888
sg64
(lp3895
S'{{'
p3896
asbasbasbag57
(g73
g59
NtRp3897
(dp3898
g62
(dp3899
sg71
g3880
sg64
(lp3900
g57
(g78
g59
NtRp3901
(dp3902
g62
(dp3903
sg71
g3897
sg64
(lp3904
g57
(g58
g59
NtRp3905
(dp3906
g62
(dp3907
g70
I4
ssg71
g3901
sg64
(lp3908
S'}}'
p3909
asbasbasbasbasbasbasbag57
(g73
g59
NtRp3910
(dp3911
g62
(dp3912
sg71
g3625
sg64
(lp3913
g57
(g78
g59
NtRp3914
(dp3915
g62
(dp3916
g82
g83
ssg71
g3910
sg64
(lp3917
S'files'
p3918
asbag57
(g78
g59
NtRp3919
(dp3920
g62
(dp3921
g89
g90
ssg71
g3910
sg64
(lp3922
S':'
asbag57
(g78
g59
NtRp3923
(dp3924
g62
(dp3925
sg71
g3910
sg64
(lp3926
g57
(g58
g59
NtRp3927
(dp3928
g62
(dp3929
g70
I5
ssg71
g3923
sg64
(lp3930
g57
(g66
g59
NtRp3931
(dp3932
g62
(dp3933
g70
I4
ssg71
Nsg64
(lp3934
sbasbasbasbag57
(g73
g59
NtRp3935
(dp3936
g62
(dp3937
sg71
g3625
sg64
(lp3938
g57
(g78
g59
NtRp3939
(dp3940
g62
(dp3941
g82
g83
ssg71
g3935
sg64
(lp3942
S'flash'
p3943
asbag57
(g78
g59
NtRp3944
(dp3945
g62
(dp3946
g89
g90
ssg71
g3935
sg64
(lp3947
S':'
asbag57
(g78
g59
NtRp3948
(dp3949
g62
(dp3950
sg71
g3935
sg64
(lp3951
g57
(g58
g59
NtRp3952
(dp3953
g62
(dp3954
g70
I5
ssg71
g3948
sg64
(lp3955
S''
asbasbasbag57
(g73
g59
NtRp3956
(dp3957
g62
(dp3958
sg71
g3625
sg64
(lp3959
g57
(g78
g59
NtRp3960
(dp3961
g62
(dp3962
g82
g83
ssg71
g3956
sg64
(lp3963
S'generic_patterns'
p3964
asbag57
(g78
g59
NtRp3965
(dp3966
g62
(dp3967
g89
g90
ssg71
g3956
sg64
(lp3968
S':'
asbag57
(g78
g59
NtRp3969
(dp3970
g62
(dp3971
sg71
g3956
sg64
(lp3972
g57
(g58
g59
NtRp3973
(dp3974
g62
(dp3975
g70
I5
ssg71
g3969
sg64
(lp3976
g57
(g66
g59
NtRp3977
(dp3978
g62
(dp3979
g70
I4
ssg71
Nsg64
(lp3980
g57
(g73
g59
NtRp3981
(dp3982
g62
(dp3983
sg71
g3977
sg64
(lp3984
g57
(g78
g59
NtRp3985
(dp3986
g62
(dp3987
sg71
g3981
sg64
(lp3988
g57
(g58
g59
NtRp3989
(dp3990
g62
(dp3991
g70
I4
ssg71
g3985
sg64
(lp3992
S'*'
asbasbasbasbasbasbasbag57
(g73
g59
NtRp3993
(dp3994
g62
(dp3995
sg71
g3625
sg64
(lp3996
g57
(g78
g59
NtRp3997
(dp3998
g62
(dp3999
g82
g83
ssg71
g3993
sg64
(lp4000
S'headers'
p4001
asbag57
(g78
g59
NtRp4002
(dp4003
g62
(dp4004
g89
g90
ssg71
g3993
sg64
(lp4005
S':'
asbag57
(g78
g59
NtRp4006
(dp4007
g62
(dp4008
sg71
g3993
sg64
(lp4009
g57
(g58
g59
NtRp4010
(dp4011
g62
(dp4012
g70
I5
ssg71
g4006
sg64
(lp4013
g57
(g66
g59
NtRp4014
(dp4015
g62
(dp4016
g70
I4
ssg71
Nsg64
(lp4017
g57
(g73
g59
NtRp4018
(dp4019
g62
(dp4020
sg71
g4014
sg64
(lp4021
g57
(g78
g59
NtRp4022
(dp4023
g62
(dp4024
g82
g83
ssg71
g4018
sg64
(lp4025
S'Cache-Control'
p4026
asbag57
(g78
g59
NtRp4027
(dp4028
g62
(dp4029
g89
g90
ssg71
g4018
sg64
(lp4030
S':'
asbag57
(g78
g59
NtRp4031
(dp4032
g62
(dp4033
sg71
g4018
sg64
(lp4034
g57
(g58
g59
NtRp4035
(dp4036
g62
(dp4037
g70
I4
ssg71
g4031
sg64
(lp4038
S'no-store, no-cache, must-revalidate, post-check=0, pre-check=0'
p4039
asbasbasbag57
(g73
g59
NtRp4040
(dp4041
g62
(dp4042
sg71
g4014
sg64
(lp4043
g57
(g78
g59
NtRp4044
(dp4045
g62
(dp4046
g82
g83
ssg71
g4040
sg64
(lp4047
S'Content-Type'
p4048
asbag57
(g78
g59
NtRp4049
(dp4050
g62
(dp4051
g89
g90
ssg71
g4040
sg64
(lp4052
S':'
asbag57
(g78
g59
NtRp4053
(dp4054
g62
(dp4055
sg71
g4040
sg64
(lp4056
g57
(g58
g59
NtRp4057
(dp4058
g62
(dp4059
g70
I4
ssg71
g4053
sg64
(lp4060
S'text/html; charset=utf-8'
p4061
asbasbasbag57
(g73
g59
NtRp4062
(dp4063
g62
(dp4064
sg71
g4014
sg64
(lp4065
g57
(g78
g59
NtRp4066
(dp4067
g62
(dp4068
g82
g83
ssg71
g4062
sg64
(lp4069
S'Expires'
p4070
asbag57
(g78
g59
NtRp4071
(dp4072
g62
(dp4073
g89
g90
ssg71
g4062
sg64
(lp4074
S':'
asbag57
(g78
g59
NtRp4075
(dp4076
g62
(dp4077
sg71
g4062
sg64
(lp4078
g57
(g58
g59
NtRp4079
(dp4080
g62
(dp4081
g70
I4
ssg71
g4075
sg64
(lp4082
S'Fri, 22 Jun 2012 19:48:48 GMT'
p4083
asbasbasbag57
(g73
g59
NtRp4084
(dp4085
g62
(dp4086
sg71
g4014
sg64
(lp4087
g57
(g78
g59
NtRp4088
(dp4089
g62
(dp4090
g82
g83
ssg71
g4084
sg64
(lp4091
S'Pragma'
p4092
asbag57
(g78
g59
NtRp4093
(dp4094
g62
(dp4095
g89
g90
ssg71
g4084
sg64
(lp4096
S':'
asbag57
(g78
g59
NtRp4097
(dp4098
g62
(dp4099
sg71
g4084
sg64
(lp4100
g57
(g58
g59
NtRp4101
(dp4102
g62
(dp4103
g70
I4
ssg71
g4097
sg64
(lp4104
S'no-cache'
p4105
asbasbasbag57
(g73
g59
NtRp4106
(dp4107
g62
(dp4108
sg71
g4014
sg64
(lp4109
g57
(g78
g59
NtRp4110
(dp4111
g62
(dp4112
g82
g83
ssg71
g4106
sg64
(lp4113
S'X-Powered-By'
p4114
asbag57
(g78
g59
NtRp4115
(dp4116
g62
(dp4117
g89
g90
ssg71
g4106
sg64
(lp4118
S':'
asbag57
(g78
g59
NtRp4119
(dp4120
g62
(dp4121
sg71
g4106
sg64
(lp4122
g57
(g58
g59
NtRp4123
(dp4124
g62
(dp4125
g70
I4
ssg71
g4119
sg64
(lp4126
S'web2py'
p4127
asbasbasbasbasbasbasbag57
(g73
g59
NtRp4128
(dp4129
g62
(dp4130
sg71
g3625
sg64
(lp4131
g57
(g78
g59
NtRp4132
(dp4133
g62
(dp4134
g82
g83
ssg71
g4128
sg64
(lp4135
S'menu'
p4136
asbag57
(g78
g59
NtRp4137
(dp4138
g62
(dp4139
g89
g90
ssg71
g4128
sg64
(lp4140
S':'
asbag57
(g78
g59
NtRp4141
(dp4142
g62
(dp4143
sg71
g4128
sg64
(lp4144
g57
(g58
g59
NtRp4145
(dp4146
g62
(dp4147
g70
I5
ssg71
g4141
sg64
(lp4148
g57
(g66
g59
NtRp4149
(dp4150
g62
(dp4151
g70
I4
ssg71
Nsg64
(lp4152
g57
(g73
g59
NtRp4153
(dp4154
g62
(dp4155
sg71
g4149
sg64
(lp4156
g57
(g78
g59
NtRp4157
(dp4158
g62
(dp4159
sg71
g4153
sg64
(lp4160
g57
(g58
g59
NtRp4161
(dp4162
g62
(dp4163
g70
I4
ssg71
g4157
sg64
(lp4164
g57
(g66
g59
NtRp4165
(dp4166
g62
(dp4167
g70
I3
ssg71
Nsg64
(lp4168
g57
(g73
g59
NtRp4169
(dp4170
g62
(dp4171
sg71
g4165
sg64
(lp4172
g57
(g78
g59
NtRp4173
(dp4174
g62
(dp4175
sg71
g4169
sg64
(lp4176
g57
(g58
g59
NtRp4177
(dp4178
g62
(dp4179
g70
I3
ssg71
g4173
sg64
(lp4180
cgluon.languages
lazyT_unpickle
p4181
(S't\x04\x00\x00\x00Home'
tRp4182
asbasbasbag57
(g73
g59
NtRp4183
(dp4184
g62
(dp4185
sg71
g4165
sg64
(lp4186
g57
(g78
g59
NtRp4187
(dp4188
g62
(dp4189
sg71
g4183
sg64
(lp4190
g57
(g58
g59
NtRp4191
(dp4192
g62
(dp4193
g70
I3
ssg71
g4187
sg64
(lp4194
g100
asbasbasbag57
(g73
g59
NtRp4195
(dp4196
g62
(dp4197
sg71
g4165
sg64
(lp4198
g57
(g78
g59
NtRp4199
(dp4200
g62
(dp4201
sg71
g4195
sg64
(lp4202
g57
(g58
g59
NtRp4203
(dp4204
g62
(dp4205
g70
I3
ssg71
g4199
sg64
(lp4206
S'/mycrawler/default/index'
p4207
asbasbasbag57
(g73
g59
NtRp4208
(dp4209
g62
(dp4210
sg71
g4165
sg64
(lp4211
g57
(g78
g59
NtRp4212
(dp4213
g62
(dp4214
sg71
g4208
sg64
(lp4215
g57
(g58
g59
NtRp4216
(dp4217
g62
(dp4218
g70
I3
ssg71
g4212
sg64
(lp4219
g57
(g66
g59
NtRp4220
(dp4221
g62
(dp4222
g70
I2
ssg71
Nsg64
(lp4223
sbasbasbasbasbasbasbasbag57
(g73
g59
NtRp4224
(dp4225
g62
(dp4226
sg71
g4149
sg64
(lp4227
g57
(g78
g59
NtRp4228
(dp4229
g62
(dp4230
sg71
g4224
sg64
(lp4231
g57
(g58
g59
NtRp4232
(dp4233
g62
(dp4234
g70
I4
ssg71
g4228
sg64
(lp4235
g57
(g66
g59
NtRp4236
(dp4237
g62
(dp4238
g70
I3
ssg71
Nsg64
(lp4239
g57
(g73
g59
NtRp4240
(dp4241
g62
(dp4242
sg71
g4236
sg64
(lp4243
g57
(g78
g59
NtRp4244
(dp4245
g62
(dp4246
sg71
g4240
sg64
(lp4247
g57
(g58
g59
NtRp4248
(dp4249
g62
(dp4250
g70
I3
ssg71
g4244
sg64
(lp4251
g57
(cgluon.html
SPAN
p4252
g59
NtRp4253
(dp4254
g62
(dp4255
g82
S'color:yellow'
p4256
ssg71
Nsg64
(lp4257
g4127
asbasbasbasbag57
(g73
g59
NtRp4258
(dp4259
g62
(dp4260
sg71
g4236
sg64
(lp4261
g57
(g78
g59
NtRp4262
(dp4263
g62
(dp4264
sg71
g4258
sg64
(lp4265
g57
(g58
g59
NtRp4266
(dp4267
g62
(dp4268
g70
I3
ssg71
g4262
sg64
(lp4269
g100
asbasbasbag57
(g73
g59
NtRp4270
(dp4271
g62
(dp4272
sg71
g4236
sg64
(lp4273
g57
(g78
g59
NtRp4274
(dp4275
g62
(dp4276
sg71
g4270
sg64
(lp4277
g57
(g58
g59
NtRp4278
(dp4279
g62
(dp4280
g70
I3
ssg71
g4274
sg64
(lp4281
S'None'
p4282
asbasbasbag57
(g73
g59
NtRp4283
(dp4284
g62
(dp4285
sg71
g4236
sg64
(lp4286
g57
(g78
g59
NtRp4287
(dp4288
g62
(dp4289
sg71
g4283
sg64
(lp4290
g57
(g58
g59
NtRp4291
(dp4292
g62
(dp4293
g70
I3
ssg71
g4287
sg64
(lp4294
g57
(g66
g59
NtRp4295
(dp4296
g62
(dp4297
g70
I2
ssg71
Nsg64
(lp4298
g57
(g73
g59
NtRp4299
(dp4300
g62
(dp4301
sg71
g4295
sg64
(lp4302
g57
(g78
g59
NtRp4303
(dp4304
g62
(dp4305
sg71
g4299
sg64
(lp4306
g57
(g58
g59
NtRp4307
(dp4308
g62
(dp4309
g70
I2
ssg71
g4303
sg64
(lp4310
g57
(g66
g59
NtRp4311
(dp4312
g62
(dp4313
g70
I1
ssg71
Nsg64
(lp4314
g57
(g73
g59
NtRp4315
(dp4316
g62
(dp4317
sg71
g4311
sg64
(lp4318
g57
(g78
g59
NtRp4319
(dp4320
g62
(dp4321
sg71
g4315
sg64
(lp4322
g57
(g58
g59
NtRp4323
(dp4324
g62
(dp4325
g70
I1
ssg71
g4319
sg64
(lp4326
g4181
(S's\x08\x00\x00\x00My Sites'
tRp4327
asbasbasbag57
(g73
g59
NtRp4328
(dp4329
g62
(dp4330
sg71
g4311
sg64
(lp4331
g57
(g78
g59
NtRp4332
(dp4333
g62
(dp4334
sg71
g4328
sg64
(lp4335
g57
(g58
g59
NtRp4336
(dp4337
g62
(dp4338
g70
I1
ssg71
g4332
sg64
(lp4339
I00
asbasbasbag57
(g73
g59
NtRp4340
(dp4341
g62
(dp4342
sg71
g4311
sg64
(lp4343
g57
(g78
g59
NtRp4344
(dp4345
g62
(dp4346
sg71
g4340
sg64
(lp4347
g57
(g58
g59
NtRp4348
(dp4349
g62
(dp4350
g70
I1
ssg71
g4344
sg64
(lp4351
S'/admin/default/site'
p4352
asbasbasbasbasbasbasbag57
(g73
g59
NtRp4353
(dp4354
g62
(dp4355
sg71
g4295
sg64
(lp4356
g57
(g78
g59
NtRp4357
(dp4358
g62
(dp4359
sg71
g4353
sg64
(lp4360
g57
(g58
g59
NtRp4361
(dp4362
g62
(dp4363
g70
I2
ssg71
g4357
sg64
(lp4364
g57
(g66
g59
NtRp4365
(dp4366
g62
(dp4367
g70
I1
ssg71
Nsg64
(lp4368
g57
(g73
g59
NtRp4369
(dp4370
g62
(dp4371
sg71
g4365
sg64
(lp4372
g57
(g78
g59
NtRp4373
(dp4374
g62
(dp4375
sg71
g4369
sg64
(lp4376
g57
(g58
g59
NtRp4377
(dp4378
g62
(dp4379
g70
I1
ssg71
g4373
sg64
(lp4380
g4181
(S's\x08\x00\x00\x00This App'
tRp4381
asbasbasbag57
(g73
g59
NtRp4382
(dp4383
g62
(dp4384
sg71
g4365
sg64
(lp4385
g57
(g78
g59
NtRp4386
(dp4387
g62
(dp4388
sg71
g4382
sg64
(lp4389
g57
(g58
g59
NtRp4390
(dp4391
g62
(dp4392
g70
I1
ssg71
g4386
sg64
(lp4393
I00
asbasbasbag57
(g73
g59
NtRp4394
(dp4395
g62
(dp4396
sg71
g4365
sg64
(lp4397
g57
(g78
g59
NtRp4398
(dp4399
g62
(dp4400
sg71
g4394
sg64
(lp4401
g57
(g58
g59
NtRp4402
(dp4403
g62
(dp4404
g70
I1
ssg71
g4398
sg64
(lp4405
S'/admin/default/design/mycrawler'
p4406
asbasbasbag57
(g73
g59
NtRp4407
(dp4408
g62
(dp4409
sg71
g4365
sg64
(lp4410
g57
(g78
g59
NtRp4411
(dp4412
g62
(dp4413
sg71
g4407
sg64
(lp4414
g57
(g58
g59
NtRp4415
(dp4416
g62
(dp4417
g70
I1
ssg71
g4411
sg64
(lp4418
(lp4419
(g4181
(S't\n\x00\x00\x00Controller'
tRp4420
I00
S'/admin/default/edit/mycrawler/controllers/default.py'
tp4421
a(g4181
(S't\x04\x00\x00\x00View'
tRp4422
I00
S'/admin/default/edit/mycrawler/views/default/search.html'
tp4423
a(g4181
(S't\x06\x00\x00\x00Layout'
tRp4424
I00
S'/admin/default/edit/mycrawler/views/layout.html'
tp4425
a(g4181
(S't\n\x00\x00\x00Stylesheet'
tRp4426
I00
S'/admin/default/edit/mycrawler/static/css/web2py.css'
tp4427
a(g4181
(S's\x08\x00\x00\x00DB Model'
tRp4428
I00
S'/admin/default/edit/mycrawler/models/db.py'
tp4429
a(g4181
(S's\n\x00\x00\x00Menu Model'
tRp4430
I00
S'/admin/default/edit/mycrawler/models/menu.py'
tp4431
a(g4181
(S't\x08\x00\x00\x00Database'
tRp4432
I00
S'/mycrawler/appadmin/index'
tp4433
a(g4181
(S't\x06\x00\x00\x00Errors'
tRp4434
I00
S'/admin/default/errors/mycrawler'
tp4435
a(g4181
(S't\x05\x00\x00\x00About'
tRp4436
I00
S'/admin/default/about/mycrawler'
tp4437
aasbasbasbasbasbasbasbag57
(g73
g59
NtRp4438
(dp4439
g62
(dp4440
sg71
g4295
sg64
(lp4441
g57
(g78
g59
NtRp4442
(dp4443
g62
(dp4444
sg71
g4438
sg64
(lp4445
g57
(g58
g59
NtRp4446
(dp4447
g62
(dp4448
g70
I2
ssg71
g4442
sg64
(lp4449
g57
(g66
g59
NtRp4450
(dp4451
g62
(dp4452
g70
I1
ssg71
Nsg64
(lp4453
g57
(g73
g59
NtRp4454
(dp4455
g62
(dp4456
sg71
g4450
sg64
(lp4457
g57
(g78
g59
NtRp4458
(dp4459
g62
(dp4460
sg71
g4454
sg64
(lp4461
g57
(g58
g59
NtRp4462
(dp4463
g62
(dp4464
g70
I1
ssg71
g4458
sg64
(lp4465
S'web2py.com'
p4466
asbasbasbag57
(g73
g59
NtRp4467
(dp4468
g62
(dp4469
sg71
g4450
sg64
(lp4470
g57
(g78
g59
NtRp4471
(dp4472
g62
(dp4473
sg71
g4467
sg64
(lp4474
g57
(g58
g59
NtRp4475
(dp4476
g62
(dp4477
g70
I1
ssg71
g4471
sg64
(lp4478
I00
asbasbasbag57
(g73
g59
NtRp4479
(dp4480
g62
(dp4481
sg71
g4450
sg64
(lp4482
g57
(g78
g59
NtRp4483
(dp4484
g62
(dp4485
sg71
g4479
sg64
(lp4486
g57
(g58
g59
NtRp4487
(dp4488
g62
(dp4489
g70
I1
ssg71
g4483
sg64
(lp4490
S'http://www.web2py.com'
p4491
asbasbasbag57
(g73
g59
NtRp4492
(dp4493
g62
(dp4494
sg71
g4450
sg64
(lp4495
g57
(g78
g59
NtRp4496
(dp4497
g62
(dp4498
sg71
g4492
sg64
(lp4499
g57
(g58
g59
NtRp4500
(dp4501
g62
(dp4502
g70
I1
ssg71
g4496
sg64
(lp4503
(lp4504
(g4181
(S't\x08\x00\x00\x00Download'
tRp4505
I00
S'http://www.web2py.com/examples/default/download'
p4506
tp4507
a(g4181
(S't\x07\x00\x00\x00Support'
tRp4508
I00
S'http://www.web2py.com/examples/default/support'
p4509
tp4510
a(g4181
(S't\x04\x00\x00\x00Demo'
tRp4511
I00
S'http://web2py.com/demo_admin'
p4512
tp4513
a(g4181
(S's\x0e\x00\x00\x00Quick Examples'
tRp4514
I00
S'http://web2py.com/examples/default/examples'
p4515
tp4516
a(g4181
(S't\x03\x00\x00\x00FAQ'
tRp4517
I00
S'http://web2py.com/AlterEgo'
p4518
tp4519
a(g4181
(S't\x06\x00\x00\x00Videos'
tRp4520
I00
S'http://www.web2py.com/examples/default/videos/'
p4521
tp4522
a(g4181
(S's\x11\x00\x00\x00Free Applications'
tRp4523
I00
S'http://web2py.com/appliances'
p4524
tp4525
a(g4181
(S't\x07\x00\x00\x00Plugins'
tRp4526
I00
S'http://web2py.com/plugins'
p4527
tp4528
a(g4181
(S't\x07\x00\x00\x00Layouts'
tRp4529
I00
S'http://web2py.com/layouts'
p4530
tp4531
a(g4181
(S't\x07\x00\x00\x00Recipes'
tRp4532
I00
S'http://web2pyslices.com/'
p4533
tp4534
a(g4181
(S't\x08\x00\x00\x00Semantic'
tRp4535
I00
S'http://web2py.com/semantic'
p4536
tp4537
aasbasbasbasbasbasbasbag57
(g73
g59
NtRp4538
(dp4539
g62
(dp4540
sg71
g4295
sg64
(lp4541
g57
(g78
g59
NtRp4542
(dp4543
g62
(dp4544
sg71
g4538
sg64
(lp4545
g57
(g58
g59
NtRp4546
(dp4547
g62
(dp4548
g70
I2
ssg71
g4542
sg64
(lp4549
g57
(g66
g59
NtRp4550
(dp4551
g62
(dp4552
g70
I1
ssg71
Nsg64
(lp4553
g57
(g73
g59
NtRp4554
(dp4555
g62
(dp4556
sg71
g4550
sg64
(lp4557
g57
(g78
g59
NtRp4558
(dp4559
g62
(dp4560
sg71
g4554
sg64
(lp4561
g57
(g58
g59
NtRp4562
(dp4563
g62
(dp4564
g70
I1
ssg71
g4558
sg64
(lp4565
g4181
(S't\r\x00\x00\x00Documentation'
tRp4566
asbasbasbag57
(g73
g59
NtRp4567
(dp4568
g62
(dp4569
sg71
g4550
sg64
(lp4570
g57
(g78
g59
NtRp4571
(dp4572
g62
(dp4573
sg71
g4567
sg64
(lp4574
g57
(g58
g59
NtRp4575
(dp4576
g62
(dp4577
g70
I1
ssg71
g4571
sg64
(lp4578
I00
asbasbasbag57
(g73
g59
NtRp4579
(dp4580
g62
(dp4581
sg71
g4550
sg64
(lp4582
g57
(g78
g59
NtRp4583
(dp4584
g62
(dp4585
sg71
g4579
sg64
(lp4586
g57
(g58
g59
NtRp4587
(dp4588
g62
(dp4589
g70
I1
ssg71
g4583
sg64
(lp4590
S'http://www.web2py.com/book'
p4591
asbasbasbag57
(g73
g59
NtRp4592
(dp4593
g62
(dp4594
sg71
g4550
sg64
(lp4595
g57
(g78
g59
NtRp4596
(dp4597
g62
(dp4598
sg71
g4592
sg64
(lp4599
g57
(g58
g59
NtRp4600
(dp4601
g62
(dp4602
g70
I1
ssg71
g4596
sg64
(lp4603
(lp4604
(g4181
(S't\x07\x00\x00\x00Preface'
tRp4605
I00
S'http://www.web2py.com/book/default/chapter/00'
p4606
tp4607
a(g4181
(S't\x0c\x00\x00\x00Introduction'
tRp4608
I00
S'http://www.web2py.com/book/default/chapter/01'
p4609
tp4610
a(g4181
(S't\x06\x00\x00\x00Python'
tRp4611
I00
S'http://www.web2py.com/book/default/chapter/02'
p4612
tp4613
a(g4181
(S't\x08\x00\x00\x00Overview'
tRp4614
I00
S'http://www.web2py.com/book/default/chapter/03'
p4615
tp4616
a(g4181
(S's\x08\x00\x00\x00The Core'
tRp4617
I00
S'http://www.web2py.com/book/default/chapter/04'
p4618
tp4619
a(g4181
(S's\t\x00\x00\x00The Views'
tRp4620
I00
S'http://www.web2py.com/book/default/chapter/05'
p4621
tp4622
a(g4181
(S't\x08\x00\x00\x00Database'
tRp4623
I00
S'http://www.web2py.com/book/default/chapter/06'
p4624
tp4625
a(g4181
(S's\x14\x00\x00\x00Forms and Validators'
tRp4626
I00
S'http://www.web2py.com/book/default/chapter/07'
p4627
tp4628
a(g4181
(S's\r\x00\x00\x00Email and SMS'
tRp4629
I00
S'http://www.web2py.com/book/default/chapter/08'
p4630
tp4631
a(g4181
(S's\x0e\x00\x00\x00Access Control'
tRp4632
I00
S'http://www.web2py.com/book/default/chapter/09'
p4633
tp4634
a(g4181
(S't\x08\x00\x00\x00Services'
tRp4635
I00
S'http://www.web2py.com/book/default/chapter/10'
p4636
tp4637
a(g4181
(S's\x0c\x00\x00\x00Ajax Recipes'
tRp4638
I00
S'http://www.web2py.com/book/default/chapter/11'
p4639
tp4640
a(g4181
(S's\x16\x00\x00\x00Components and Plugins'
tRp4641
I00
S'http://www.web2py.com/book/default/chapter/12'
p4642
tp4643
a(g4181
(S's\x12\x00\x00\x00Deployment Recipes'
tRp4644
I00
S'http://www.web2py.com/book/default/chapter/13'
p4645
tp4646
a(g4181
(S's\r\x00\x00\x00Other Recipes'
tRp4647
I00
S'http://www.web2py.com/book/default/chapter/14'
p4648
tp4649
a(g4181
(S's\r\x00\x00\x00Buy this book'
tRp4650
I00
S'http://stores.lulu.com/web2py'
p4651
tp4652
aasbasbasbasbasbasbasbag57
(g73
g59
NtRp4653
(dp4654
g62
(dp4655
sg71
g4295
sg64
(lp4656
g57
(g78
g59
NtRp4657
(dp4658
g62
(dp4659
sg71
g4653
sg64
(lp4660
g57
(g58
g59
NtRp4661
(dp4662
g62
(dp4663
g70
I2
ssg71
g4657
sg64
(lp4664
g57
(g66
g59
NtRp4665
(dp4666
g62
(dp4667
g70
I1
ssg71
Nsg64
(lp4668
g57
(g73
g59
NtRp4669
(dp4670
g62
(dp4671
sg71
g4665
sg64
(lp4672
g57
(g78
g59
NtRp4673
(dp4674
g62
(dp4675
sg71
g4669
sg64
(lp4676
g57
(g58
g59
NtRp4677
(dp4678
g62
(dp4679
g70
I1
ssg71
g4673
sg64
(lp4680
g4181
(S't\t\x00\x00\x00Community'
tRp4681
asbasbasbag57
(g73
g59
NtRp4682
(dp4683
g62
(dp4684
sg71
g4665
sg64
(lp4685
g57
(g78
g59
NtRp4686
(dp4687
g62
(dp4688
sg71
g4682
sg64
(lp4689
g57
(g58
g59
NtRp4690
(dp4691
g62
(dp4692
g70
I1
ssg71
g4686
sg64
(lp4693
I00
asbasbasbag57
(g73
g59
NtRp4694
(dp4695
g62
(dp4696
sg71
g4665
sg64
(lp4697
g57
(g78
g59
NtRp4698
(dp4699
g62
(dp4700
sg71
g4694
sg64
(lp4701
g57
(g58
g59
NtRp4702
(dp4703
g62
(dp4704
g70
I1
ssg71
g4698
sg64
(lp4705
Nasbasbasbag57
(g73
g59
NtRp4706
(dp4707
g62
(dp4708
sg71
g4665
sg64
(lp4709
g57
(g78
g59
NtRp4710
(dp4711
g62
(dp4712
sg71
g4706
sg64
(lp4713
g57
(g58
g59
NtRp4714
(dp4715
g62
(dp4716
g70
I1
ssg71
g4710
sg64
(lp4717
(lp4718
(g4181
(S't\x06\x00\x00\x00Groups'
tRp4719
I00
S'http://www.web2py.com/examples/default/usergroups'
p4720
tp4721
a(g4181
(S't\x07\x00\x00\x00Twitter'
tRp4722
I00
S'http://twitter.com/web2py'
p4723
tp4724
a(g4181
(S's\t\x00\x00\x00Live Chat'
tRp4725
I00
S'http://webchat.freenode.net/?channels=web2py'
p4726
tp4727
aasbasbasbasbasbasbasbag57
(g73
g59
NtRp4728
(dp4729
g62
(dp4730
sg71
g4295
sg64
(lp4731
g57
(g78
g59
NtRp4732
(dp4733
g62
(dp4734
sg71
g4728
sg64
(lp4735
g57
(g58
g59
NtRp4736
(dp4737
g62
(dp4738
g70
I2
ssg71
g4732
sg64
(lp4739
g57
(g66
g59
NtRp4740
(dp4741
g62
(dp4742
g70
I1
ssg71
Nsg64
(lp4743
g57
(g73
g59
NtRp4744
(dp4745
g62
(dp4746
sg71
g4740
sg64
(lp4747
g57
(g78
g59
NtRp4748
(dp4749
g62
(dp4750
sg71
g4744
sg64
(lp4751
g57
(g58
g59
NtRp4752
(dp4753
g62
(dp4754
g70
I1
ssg71
g4748
sg64
(lp4755
g4181
(S't\x07\x00\x00\x00Plugins'
tRp4756
asbasbasbag57
(g73
g59
NtRp4757
(dp4758
g62
(dp4759
sg71
g4740
sg64
(lp4760
g57
(g78
g59
NtRp4761
(dp4762
g62
(dp4763
sg71
g4757
sg64
(lp4764
g57
(g58
g59
NtRp4765
(dp4766
g62
(dp4767
g70
I1
ssg71
g4761
sg64
(lp4768
I00
asbasbasbag57
(g73
g59
NtRp4769
(dp4770
g62
(dp4771
sg71
g4740
sg64
(lp4772
g57
(g78
g59
NtRp4773
(dp4774
g62
(dp4775
sg71
g4769
sg64
(lp4776
g57
(g58
g59
NtRp4777
(dp4778
g62
(dp4779
g70
I1
ssg71
g4773
sg64
(lp4780
Nasbasbasbag57
(g73
g59
NtRp4781
(dp4782
g62
(dp4783
sg71
g4740
sg64
(lp4784
g57
(g78
g59
NtRp4785
(dp4786
g62
(dp4787
sg71
g4781
sg64
(lp4788
g57
(g58
g59
NtRp4789
(dp4790
g62
(dp4791
g70
I1
ssg71
g4785
sg64
(lp4792
(lp4793
(S'plugin_wiki'
p4794
I00
S'http://web2py.com/examples/default/download'
p4795
tp4796
a(g4181
(S's\r\x00\x00\x00Other Plugins'
tRp4797
I00
g4527
tp4798
a(g4181
(S's\x0e\x00\x00\x00Layout Plugins'
tRp4799
I00
g4530
tp4800
aasbasbasbasbasbasbasbasbasbasbasbasbasbasbasbasbasbasbasbag57
(g73
g59
NtRp4801
(dp4802
g62
(dp4803
sg71
g3625
sg64
(lp4804
g57
(g78
g59
NtRp4805
(dp4806
g62
(dp4807
g82
g83
ssg71
g4801
sg64
(lp4808
S'meta'
p4809
asbag57
(g78
g59
NtRp4810
(dp4811
g62
(dp4812
g89
g90
ssg71
g4801
sg64
(lp4813
S':'
asbag57
(g78
g59
NtRp4814
(dp4815
g62
(dp4816
sg71
g4801
sg64
(lp4817
g57
(g58
g59
NtRp4818
(dp4819
g62
(dp4820
g70
I5
ssg71
g4814
sg64
(lp4821
g57
(g66
g59
NtRp4822
(dp4823
g62
(dp4824
g70
I4
ssg71
Nsg64
(lp4825
g57
(g73
g59
NtRp4826
(dp4827
g62
(dp4828
sg71
g4822
sg64
(lp4829
g57
(g78
g59
NtRp4830
(dp4831
g62
(dp4832
g82
g83
ssg71
g4826
sg64
(lp4833
S'author'
p4834
asbag57
(g78
g59
NtRp4835
(dp4836
g62
(dp4837
g89
g90
ssg71
g4826
sg64
(lp4838
S':'
asbag57
(g78
g59
NtRp4839
(dp4840
g62
(dp4841
sg71
g4826
sg64
(lp4842
g57
(g58
g59
NtRp4843
(dp4844
g62
(dp4845
g70
I4
ssg71
g4839
sg64
(lp4846
S'Your Name <you@example.com>'
p4847
asbasbasbag57
(g73
g59
NtRp4848
(dp4849
g62
(dp4850
sg71
g4822
sg64
(lp4851
g57
(g78
g59
NtRp4852
(dp4853
g62
(dp4854
g82
g83
ssg71
g4848
sg64
(lp4855
S'copyright'
p4856
asbag57
(g78
g59
NtRp4857
(dp4858
g62
(dp4859
g89
g90
ssg71
g4848
sg64
(lp4860
S':'
asbag57
(g78
g59
NtRp4861
(dp4862
g62
(dp4863
sg71
g4848
sg64
(lp4864
g57
(g58
g59
NtRp4865
(dp4866
g62
(dp4867
g70
I4
ssg71
g4861
sg64
(lp4868
S'Copyright 2011'
p4869
asbasbasbag57
(g73
g59
NtRp4870
(dp4871
g62
(dp4872
sg71
g4822
sg64
(lp4873
g57
(g78
g59
NtRp4874
(dp4875
g62
(dp4876
g82
g83
ssg71
g4870
sg64
(lp4877
S'description'
p4878
asbag57
(g78
g59
NtRp4879
(dp4880
g62
(dp4881
g89
g90
ssg71
g4870
sg64
(lp4882
S':'
asbag57
(g78
g59
NtRp4883
(dp4884
g62
(dp4885
sg71
g4870
sg64
(lp4886
g57
(g58
g59
NtRp4887
(dp4888
g62
(dp4889
g70
I4
ssg71
g4883
sg64
(lp4890
S'a cool new app'
p4891
asbasbasbag57
(g73
g59
NtRp4892
(dp4893
g62
(dp4894
sg71
g4822
sg64
(lp4895
g57
(g78
g59
NtRp4896
(dp4897
g62
(dp4898
g82
g83
ssg71
g4892
sg64
(lp4899
S'generator'
p4900
asbag57
(g78
g59
NtRp4901
(dp4902
g62
(dp4903
g89
g90
ssg71
g4892
sg64
(lp4904
S':'
asbag57
(g78
g59
NtRp4905
(dp4906
g62
(dp4907
sg71
g4892
sg64
(lp4908
g57
(g58
g59
NtRp4909
(dp4910
g62
(dp4911
g70
I4
ssg71
g4905
sg64
(lp4912
S'Web2py Web Framework'
p4913
asbasbasbag57
(g73
g59
NtRp4914
(dp4915
g62
(dp4916
sg71
g4822
sg64
(lp4917
g57
(g78
g59
NtRp4918
(dp4919
g62
(dp4920
g82
g83
ssg71
g4914
sg64
(lp4921
S'keywords'
p4922
asbag57
(g78
g59
NtRp4923
(dp4924
g62
(dp4925
g89
g90
ssg71
g4914
sg64
(lp4926
S':'
asbag57
(g78
g59
NtRp4927
(dp4928
g62
(dp4929
sg71
g4914
sg64
(lp4930
g57
(g58
g59
NtRp4931
(dp4932
g62
(dp4933
g70
I4
ssg71
g4927
sg64
(lp4934
S'web2py, python, framework'
p4935
asbasbasbasbasbasbasbag57
(g73
g59
NtRp4936
(dp4937
g62
(dp4938
sg71
g3625
sg64
(lp4939
g57
(g78
g59
NtRp4940
(dp4941
g62
(dp4942
g82
g83
ssg71
g4936
sg64
(lp4943
S'postprocessing'
p4944
asbag57
(g78
g59
NtRp4945
(dp4946
g62
(dp4947
g89
g90
ssg71
g4936
sg64
(lp4948
S':'
asbag57
(g78
g59
NtRp4949
(dp4950
g62
(dp4951
sg71
g4936
sg64
(lp4952
g57
(g58
g59
NtRp4953
(dp4954
g62
(dp4955
g70
I5
ssg71
g4949
sg64
(lp4956
g57
(g66
g59
NtRp4957
(dp4958
g62
(dp4959
g70
I4
ssg71
Nsg64
(lp4960
sbasbasbasbag57
(g73
g59
NtRp4961
(dp4962
g62
(dp4963
sg71
g3625
sg64
(lp4964
g57
(g78
g59
NtRp4965
(dp4966
g62
(dp4967
g82
g83
ssg71
g4961
sg64
(lp4968
S'session_file'
p4969
asbag57
(g78
g59
NtRp4970
(dp4971
g62
(dp4972
g89
g90
ssg71
g4961
sg64
(lp4973
S':'
asbag57
(g78
g59
NtRp4974
(dp4975
g62
(dp4976
sg71
g4961
sg64
(lp4977
g57
(g58
g59
NtRp4978
(dp4979
g62
(dp4980
g70
I5
ssg71
g4974
sg64
(lp4981
S"<open file 'C:\\Documents and Settings\\agrover\\Desktop\\previous crawler\\web2py\\applications\\mycrawler\\sessions\\127.0.0.1-2770ef8a-3056-4fd8-9016-5cf5e194a093', mode 'rb+' at 0x057701D8>"
p4982
asbasbasbag57
(g73
g59
NtRp4983
(dp4984
g62
(dp4985
sg71
g3625
sg64
(lp4986
g57
(g78
g59
NtRp4987
(dp4988
g62
(dp4989
g82
g83
ssg71
g4983
sg64
(lp4990
S'session_filename'
p4991
asbag57
(g78
g59
NtRp4992
(dp4993
g62
(dp4994
g89
g90
ssg71
g4983
sg64
(lp4995
S':'
asbag57
(g78
g59
NtRp4996
(dp4997
g62
(dp4998
sg71
g4983
sg64
(lp4999
g57
(g58
g59
NtRp5000
(dp5001
g62
(dp5002
g70
I5
ssg71
g4996
sg64
(lp5003
S'C:\\Documents and Settings\\agrover\\Desktop\\previous crawler\\web2py\\applications\\mycrawler\\sessions\\127.0.0.1-2770ef8a-3056-4fd8-9016-5cf5e194a093'
p5004
asbasbasbag57
(g73
g59
NtRp5005
(dp5006
g62
(dp5007
sg71
g3625
sg64
(lp5008
g57
(g78
g59
NtRp5009
(dp5010
g62
(dp5011
g82
g83
ssg71
g5005
sg64
(lp5012
S'session_id'
p5013
asbag57
(g78
g59
NtRp5014
(dp5015
g62
(dp5016
g89
g90
ssg71
g5005
sg64
(lp5017
S':'
asbag57
(g78
g59
NtRp5018
(dp5019
g62
(dp5020
sg71
g5005
sg64
(lp5021
g57
(g58
g59
NtRp5022
(dp5023
g62
(dp5024
g70
I5
ssg71
g5018
sg64
(lp5025
S'127.0.0.1-2770ef8a-3056-4fd8-9016-5cf5e194a093'
p5026
asbasbasbag57
(g73
g59
NtRp5027
(dp5028
g62
(dp5029
sg71
g3625
sg64
(lp5030
g57
(g78
g59
NtRp5031
(dp5032
g62
(dp5033
g82
g83
ssg71
g5027
sg64
(lp5034
S'session_id_name'
p5035
asbag57
(g78
g59
NtRp5036
(dp5037
g62
(dp5038
g89
g90
ssg71
g5027
sg64
(lp5039
S':'
asbag57
(g78
g59
NtRp5040
(dp5041
g62
(dp5042
sg71
g5027
sg64
(lp5043
g57
(g58
g59
NtRp5044
(dp5045
g62
(dp5046
g70
I5
ssg71
g5040
sg64
(lp5047
g3682
asbasbasbag57
(g73
g59
NtRp5048
(dp5049
g62
(dp5050
sg71
g3625
sg64
(lp5051
g57
(g78
g59
NtRp5052
(dp5053
g62
(dp5054
g82
g83
ssg71
g5048
sg64
(lp5055
S'session_locked'
p5056
asbag57
(g78
g59
NtRp5057
(dp5058
g62
(dp5059
g89
g90
ssg71
g5048
sg64
(lp5060
S':'
asbag57
(g78
g59
NtRp5061
(dp5062
g62
(dp5063
sg71
g5048
sg64
(lp5064
g57
(g58
g59
NtRp5065
(dp5066
g62
(dp5067
g70
I5
ssg71
g5061
sg64
(lp5068
g1657
asbasbasbag57
(g73
g59
NtRp5069
(dp5070
g62
(dp5071
sg71
g3625
sg64
(lp5072
g57
(g78
g59
NtRp5073
(dp5074
g62
(dp5075
g82
g83
ssg71
g5069
sg64
(lp5076
S'session_new'
p5077
asbag57
(g78
g59
NtRp5078
(dp5079
g62
(dp5080
g89
g90
ssg71
g5069
sg64
(lp5081
S':'
asbag57
(g78
g59
NtRp5082
(dp5083
g62
(dp5084
sg71
g5069
sg64
(lp5085
g57
(g58
g59
NtRp5086
(dp5087
g62
(dp5088
g70
I5
ssg71
g5082
sg64
(lp5089
g100
asbasbasbag57
(g73
g59
NtRp5090
(dp5091
g62
(dp5092
sg71
g3625
sg64
(lp5093
g57
(g78
g59
NtRp5094
(dp5095
g62
(dp5096
g82
g83
ssg71
g5090
sg64
(lp5097
S'status'
p5098
asbag57
(g78
g59
NtRp5099
(dp5100
g62
(dp5101
g89
g90
ssg71
g5090
sg64
(lp5102
S':'
asbag57
(g78
g59
NtRp5103
(dp5104
g62
(dp5105
sg71
g5090
sg64
(lp5106
g57
(g58
g59
NtRp5107
(dp5108
g62
(dp5109
g70
I5
ssg71
g5103
sg64
(lp5110
S'200'
p5111
asbasbasbag57
(g73
g59
NtRp5112
(dp5113
g62
(dp5114
sg71
g3625
sg64
(lp5115
g57
(g78
g59
NtRp5116
(dp5117
g62
(dp5118
g82
g83
ssg71
g5112
sg64
(lp5119
S'subtitle'
p5120
asbag57
(g78
g59
NtRp5121
(dp5122
g62
(dp5123
g89
g90
ssg71
g5112
sg64
(lp5124
S':'
asbag57
(g78
g59
NtRp5125
(dp5126
g62
(dp5127
sg71
g5112
sg64
(lp5128
g57
(g58
g59
NtRp5129
(dp5130
g62
(dp5131
g70
I5
ssg71
g5125
sg64
(lp5132
g4181
(S's\r\x00\x00\x00customize me!'
tRp5133
asbasbasbag57
(g73
g59
NtRp5134
(dp5135
g62
(dp5136
sg71
g3625
sg64
(lp5137
g57
(g78
g59
NtRp5138
(dp5139
g62
(dp5140
g82
g83
ssg71
g5134
sg64
(lp5141
S'title'
p5142
asbag57
(g78
g59
NtRp5143
(dp5144
g62
(dp5145
g89
g90
ssg71
g5134
sg64
(lp5146
S':'
asbag57
(g78
g59
NtRp5147
(dp5148
g62
(dp5149
sg71
g5134
sg64
(lp5150
g57
(g58
g59
NtRp5151
(dp5152
g62
(dp5153
g70
I5
ssg71
g5147
sg64
(lp5154
S'Mycrawler'
p5155
asbasbasbag57
(g73
g59
NtRp5156
(dp5157
g62
(dp5158
sg71
g3625
sg64
(lp5159
g57
(g78
g59
NtRp5160
(dp5161
g62
(dp5162
g82
g83
ssg71
g5156
sg64
(lp5163
g2558
asbag57
(g78
g59
NtRp5164
(dp5165
g62
(dp5166
g89
g90
ssg71
g5156
sg64
(lp5167
S':'
asbag57
(g78
g59
NtRp5168
(dp5169
g62
(dp5170
sg71
g5156
sg64
(lp5171
g57
(g58
g59
NtRp5172
(dp5173
g62
(dp5174
g70
I5
ssg71
g5168
sg64
(lp5175
g2571
asbasbasbag57
(g73
g59
NtRp5176
(dp5177
g62
(dp5178
sg71
g3625
sg64
(lp5179
g57
(g78
g59
NtRp5180
(dp5181
g62
(dp5182
g82
g83
ssg71
g5176
sg64
(lp5183
S'view'
p5184
asbag57
(g78
g59
NtRp5185
(dp5186
g62
(dp5187
g89
g90
ssg71
g5176
sg64
(lp5188
S':'
asbag57
(g78
g59
NtRp5189
(dp5190
g62
(dp5191
sg71
g5176
sg64
(lp5192
g57
(g58
g59
NtRp5193
(dp5194
g62
(dp5195
g70
I5
ssg71
g5189
sg64
(lp5196
S'default/search.html'
p5197
asbasbasbasbasbsS'locals'
p5198
(dp5199
S'self'
p5200
S"<DAL {'auth_event': <Table {'origin': <gluon.dal..._key': <gluon.dal.Field object at 0x053C9C50>}>}>"
p5201
sS'key'
p5202
S"'row'"
p5203
sssS'traceback'
p5204
S'Traceback (most recent call last):\n  File "C:\\Documents and Settings\\agrover\\Desktop\\previous crawler\\web2py\\gluon\\restricted.py", line 205, in restricted\n    exec ccode in environment\n  File "C:\\Documents and Settings\\agrover\\Desktop\\previous crawler\\web2py\\applications\\mycrawler\\controllers/default.py", line 482, in <module>\n  File "C:\\Documents and Settings\\agrover\\Desktop\\previous crawler\\web2py\\gluon\\globals.py", line 173, in <lambda>\n    self._caller = lambda f: f()\n  File "C:\\Documents and Settings\\agrover\\Desktop\\previous crawler\\web2py\\applications\\mycrawler\\controllers/default.py", line 367, in search\n    if db.row.First_String==\'firstname\':\n  File "C:\\Documents and Settings\\agrover\\Desktop\\previous crawler\\web2py\\gluon\\dal.py", line 6343, in __getattr__\n    return self[key]\n  File "C:\\Documents and Settings\\agrover\\Desktop\\previous crawler\\web2py\\gluon\\dal.py", line 6337, in __getitem__\n    return dict.__getitem__(self, str(key))\nKeyError: \'row\'\n'
p5205
s.