(dp1
S'output'
p2
S"<class 'mechanize._mechanize.FormNotFoundError'> no form matching nr 1"
p3
sS'layer'
p4
S'C:\\Documents and Settings\\agrover\\Desktop\\previous crawler\\web2py\\applications\\mycrawler\\controllers/default.py'
p5
sS'code'
p6
S'# -*- coding: utf-8 -*-\n# this file is released under public domain and you can use without limitations\n\n#########################################################################\n## This is a samples controller\n## - index is the default action of any application\n## - user is required for authentication and authorization\n## - download is for downloading files uploaded in the db (does streaming)\n## - call exposes all registered services (none by default)\n#########################################################################\nimport cStringIO\nimport csv\nimport re\ndef index():\n    """\n    example action using the internationalization operator T and flash\n    rendered by views/default/index.html or views/generic.html\n    """\n    response.flash = "Welcome to web2py!"\n    return dict(message=T(\'Hello World\'))\n\ndef user():\n    """\n    exposes:\n    http://..../[app]/default/user/login\n    http://..../[app]/default/user/logout\n    http://..../[app]/default/user/register\n    http://..../[app]/default/user/profile\n    http://..../[app]/default/user/retrieve_password\n    http://..../[app]/default/user/change_password\n    use @auth.requires_login()\n        @auth.requires_membership(\'group name\')\n        @auth.requires_permission(\'read\',\'table name\',record_id)\n    to decorate functions that need access control\n    """\n    return dict(form=auth())\n\n\ndef download():\n    """\n    allows downloading of uploaded files\n    http://..../[app]/default/download/[filename]\n    """\n    return response.download(request,db)\n\n\ndef call():\n    """\n    exposes services. for example:\n    http://..../[app]/default/call/jsonrpc\n    decorate with @services.jsonrpc the functions to expose\n    supports xml, json, xmlrpc, jsonrpc, amfrpc, rss, csv\n    """\n    return service()\n\n\n@auth.requires_signature()\ndef data():\n    """\n    http://..../[app]/default/data/tables\n    http://..../[app]/default/data/create/[table]\n    http://..../[app]/default/data/read/[table]/[id]\n    http://..../[app]/default/data/update/[table]/[id]\n    http://..../[app]/default/data/delete/[table]/[id]\n    http://..../[app]/default/data/select/[table]\n    http://..../[app]/default/data/search/[table]\n    but URLs must be signed, i.e. linked with\n      A(\'table\',_href=URL(\'data/tables\',user_signature=True))\n    or with the signed load operator\n      LOAD(\'default\',\'data.load\',args=\'tables\',ajax=True,user_signature=True)\n    """\n    return dict(form=crud())\n\n#def enter_info():\n\n#     form = SQLFORM.factory(\n#         Field(\'First_Name\'),\n#         Field(\'Last_Name\'),\n#         Field(\'Keywords\'),\n#         Field(\'Title\'),\n#         Field(\'Company\'),\n#         Field(\'School\'))\n         #Field(\'Submit\',\'submit\'))\n#    if form.process().accepted:\n#        response.flash = \'form accepted\'\n#    elif form.errors:\n#        response.flash = \'form has errors\'\n    \n    #form=FORM(\'First Name:\',INPUT(_name=\'fname\',_id=\'fname\'),\n     #         \'Last Name:\',INPUT(_name=\'lname\',_id=\'lname\'),\n      #        \'Keywords:\',INPUT(_name=\'keywords\',_id=\'keywords\'),\n       #       \'Title:\',INPUT(_name=\'title\',_id=\'title\'),\n       #       \'Company:\',INPUT(_name=\'company\',_id=\'company\'),\n       #       \'School:\',INPUT(_name=\'school\',_id=\'school\'),\n              \n        #      INPUT(_type=\'submit\',_value=\'Submit\',_id=\'submit\'))\n    #if form.accepts(request,session):\n    #    response.flash = \'form accepted\'\n    #    redirect(URL(r=request,f=\'search\',vars=request.vars))\n#    return dict(form=form\n    \ndef enter_info():\n    form = SQLFORM.factory(\n       Field(\'First_Name\'),\n       Field(\'Last_Name\'),\n       Field(\'Keywords\'),\n       Field(\'Title\'),\n       Field(\'Company\'),\n       Field(\'School\'),\n       Field(\'File_Name\',requires=IS_NOT_EMPTY()))\n    \n    if form.process().accepted:\n        response.flash = \'form accepted\'\n        redirect(URL(r=request,f=\'search\',vars=request.vars))\n    #    session.your_name = form.vars.your_name\n     #   session.filename = form.vars.your_image\n    elif form.errors:\n        response.flash = \'form has errors\'\n    return dict(form=form)\n    \n\ndef search():\n    import mechanize\n    import cookielib\n    #from BeautifulSoup import BeautifulSoup\n    import html2text\n    from bs4 import BeautifulSoup\n    \n    \n    #name.append(request.vars.fname)\n    # Browser    \n    br = mechanize.Browser()\n\n    # Cookie Jar\n    cj = cookielib.LWPCookieJar()\n    br.set_cookiejar(cj)\n\n    # Browser options\n    br.set_handle_equiv(True)\n    br.set_handle_gzip(True)\n    br.set_handle_redirect(True)\n    br.set_handle_referer(True)\n    br.set_handle_robots(False)\n\n    # Follows refresh 0 but not hangs on refresh > 0\n    br.set_handle_refresh(mechanize._http.HTTPRefreshProcessor(), max_time=1)\n\n    # User-Agent (this is cheating, ok?)\n    br.addheaders = [(\'User-agent\', \'Mozilla/5.0 (X11; U; Linux i686; en-US; rv:1.9.0.1) Gecko/2008071615 Fedora/3.0.1-1.fc9 Firefox/3.0.1\')]\n\n\n    # The site we will navigate into, handling it\'s session    \n    br.open(\'https://www.linkedin.com\')\n\n    # Select the first (index zero) form\n    br.select_form(nr=0)\n\n    #for b in br.forms():\n    #    print b\n\n    # User credentials\n    br.form[\'session_key\'] = \'mrigeshgaurav@gmail.com\'\n    br.form[\'session_password\'] = \'leapfrogrx1234\'\n\n\n\n    # Login\n    br.submit()\n\n    br.open(\'http://www.linkedin.com/search?trk=advsrch\')\n    br.select_form(nr=1)\n    #print br\n\n    if request.vars.Last_Name:\n        br["lname"]=request.vars.Last_Name\n\n    if request.vars.First_Name:\n        br["fname"]=request.vars.First_Name\n    \n    if request.vars.Keywords:\n        br["keywords"]=request.vars.Keywords\n\n    if request.vars.Company:\n        br["company"]=request.vars.Company\n\n    if request.vars.School:\n        br["school"]=request.vars.School\n\n    if request.vars.Title:\n        br["title"]=request.vars.Title\n    br.submit()\n\n    view_profile=[]\n    name=[]\n    titl=[]\n    location=[]\n    industry=[]\n    current=[]\n\n    soup = BeautifulSoup(br.response().read())\n\n    for k in soup.find_all(\'dl\',{"class" : "vcard-basic"}):\n        if k.find(\'dd\',{"class" : "title"}):\n                titl.append(k.find(\'dd\',{"class" : "title"}).get_text())\n        else:\n                titl.append(\'NONE\')\n                            \n        if k.find(\'span\',{"class" : "location"}):\n                location.append(k.find(\'span\',{"class" : "location"}).get_text())\n        else:\n                location.append(\'NONE\')\n        if k.find(\'span\',{"class" : "industry"}).get_text():\n                industry.append(k.find(\'span\',{"class" : "industry"}).get_text())\n        else:\n                industry.append(\'NONE\')\n                \n    for k in soup.find_all(\'dl\',{"class" : "vcard-expanded"}):\n        if k.find(\'span\',{"class" : "current-details more-text"}):\n                current.append(k.find(\'span\',{"class" : "current-details more-text"}).get_text())\n        elif k.find(\'span\',{"class" : "current-details"}):\n                current.append(k.find(\'span\',{"class" : "current-details"}).get_text())\n        else:\n                current.append(\'NONE\')\n                \n    for l in soup.find_all(\'a\',{"title" : "View Profile"}):\n        #print l.get_text()\n        view_profile.append(\'http://www.linkedin.com\'+l.get(\'href\'))\n        name.append(l.get_text().encode(\'utf-8\'))\n    \n\n    #for link in soup.find_all(\'a\'):\n    #    if link.get(\'title\')==\'View Profile\':\n    #        #print(link.get(\'href\'))\n    #        #print link.get_text()\n    #        view_profile.append(\'http://www.linkedin.com\'+link.get(\'href\'))\n    #        name.append(link.get_text())\n#for l in soup.find_all("span", { "class" : "given-name" }):\n    #print l.get_text()\n\n        \n\n#    for l in soup.find_all(\'dd\',{"class" : "title"}):\n        #print l.get_text()\n#        titl.append(l.get_text())\n    \n#    for l in soup.find_all(\'span\',{"class" : "location"}):\n        #print l.get_text()\n#        location.append(l.get_text())\n\n#    for l in soup.find_all(\'span\',{"class" : "industry"}):\n        #print l.get_text()\n#        industry.append(l.get_text())\n        \n#    for l in soup.find_all(\'span\', {"class" : "current-details"}):\n#        k=l.get_text()\n#        if k[len(k)-4:len(k)]!=\'more\':\n#            current.append(k)\n        #elif(l.get["class"]==\'current-details more text\'):\n        #    current.append(l.get_text())\n    #for l in soup.find_all(\'span\',{"class" : "current-details"}):\n        #print l.get_text()\n        #current.append(l.get_text())\n\n    \n    global filename,csv_response\n\n    #csv_response = cStringIO.StringIO()\n    \n    #spamWriter = csv.writer(csv_response, delimiter=\',\')\n    \n    #spamWriter.writerow([\'NAME\',\'JOB-TITLE\',\'COMPANY-NAME\',\'LOCATION\',\'INDUSTRY\',\'PROFLE-URL\'])\n   \n    spamWriter = csv.writer(open(request.vars.File_Name+\'.csv\', \'wb\'), delimiter=\',\')\n    #spamWriter.writerow([\'NAME\',\'JOB-TITLE\',\'Current\',\'LOCATION\',\'INDUSTRY\',\'PROFLE-URL\'])\n    for i in range(1,10):\n        spamWriter.writerow([name[i][2:len(name)-1].encode(\'utf-8\'),titl[i],current[i],location[i],industry[i],view_profile[i]])\n        \n        \n    #,titl[i],current[i],location[i],industry[i],view_profile[i]\n    #response.headers[\'Content-Type\'] = \'text/csv\'\n    #response.headers[\'Content-Disposition\'] = \'attachment; filename=%s\' % request.vars.File_Name\n\n    #print view_profile\n    #print name\n    #print location\n    #print industry\n    #print titl\n    \n    return dict(view_profile=view_profile,name=name,location=location,industry=industry,titl=titl,current=current)\n\nresponse._vars=response._caller(search)\n'
p7
sS'snapshot'
p8
(dp9
S'exception'
p10
(dp11
S'__module__'
p12
S"'mechanize._mechanize'"
p13
sS'__getslice__'
p14
S"<method-wrapper '__getslice__' of FormNotFoundError object>"
p15
sS'__str__'
p16
S"<method-wrapper '__str__' of FormNotFoundError object>"
p17
sS'__reduce__'
p18
S'<built-in method __reduce__ of FormNotFoundError object>'
p19
sS'__dict__'
p20
S'{}'
p21
sS'__sizeof__'
p22
S'<built-in method __sizeof__ of FormNotFoundError object>'
p23
sS'__weakref__'
p24
S'None'
p25
sS'__init__'
p26
S"<method-wrapper '__init__' of FormNotFoundError object>"
p27
sS'__setattr__'
p28
S"<method-wrapper '__setattr__' of FormNotFoundError object>"
p29
sS'__reduce_ex__'
p30
S'<built-in method __reduce_ex__ of FormNotFoundError object>'
p31
sS'__new__'
p32
S'<built-in method __new__ of type object>'
p33
sS'__format__'
p34
S'<built-in method __format__ of FormNotFoundError object>'
p35
sS'__class__'
p36
S"<class 'mechanize._mechanize.FormNotFoundError'>"
p37
sS'__doc__'
p38
S'None'
p39
sS'__getitem__'
p40
S"<method-wrapper '__getitem__' of FormNotFoundError object>"
p41
sS'__setstate__'
p42
S'<built-in method __setstate__ of FormNotFoundError object>'
p43
sS'__getattribute__'
p44
S"<method-wrapper '__getattribute__' of FormNotFoundError object>"
p45
sS'args'
p46
S"('no form matching nr 1',)"
p47
sS'__subclasshook__'
p48
S'<built-in method __subclasshook__ of type object>'
p49
sS'__unicode__'
p50
S'<built-in method __unicode__ of FormNotFoundError object>'
p51
sS'__delattr__'
p52
S"<method-wrapper '__delattr__' of FormNotFoundError object>"
p53
sS'__repr__'
p54
S"<method-wrapper '__repr__' of FormNotFoundError object>"
p55
sS'__hash__'
p56
S"<method-wrapper '__hash__' of FormNotFoundError object>"
p57
ssS'evalue'
p58
S'no form matching nr 1'
p59
sS'request'
p60
ccopy_reg
_reconstructor
p61
(cgluon.html
BEAUTIFY
p62
c__builtin__
object
p63
NtRp64
(dp65
S'attributes'
p66
(dp67
sS'components'
p68
(lp69
g61
(cgluon.html
TABLE
p70
g63
NtRp71
(dp72
g66
(dp73
S'level'
p74
I5
ssS'parent'
p75
Nsg68
(lp76
g61
(cgluon.html
TR
p77
g63
NtRp78
(dp79
g66
(dp80
sg75
g71
sg68
(lp81
g61
(cgluon.html
TD
p82
g63
NtRp83
(dp84
g66
(dp85
S'_style'
p86
S'font-weight:bold;vertical-align:top'
p87
ssg75
g78
sg68
(lp88
S'ajax'
p89
asbag61
(g82
g63
NtRp90
(dp91
g66
(dp92
S'_valign'
p93
S'top'
p94
ssg75
g78
sg68
(lp95
S':'
asbag61
(g82
g63
NtRp96
(dp97
g66
(dp98
sg75
g78
sg68
(lp99
g61
(g62
g63
NtRp100
(dp101
g66
(dp102
g74
I5
ssg75
g96
sg68
(lp103
S'False'
p104
asbasbasbag61
(g77
g63
NtRp105
(dp106
g66
(dp107
sg75
g71
sg68
(lp108
g61
(g82
g63
NtRp109
(dp110
g66
(dp111
g86
g87
ssg75
g105
sg68
(lp112
S'application'
p113
asbag61
(g82
g63
NtRp114
(dp115
g66
(dp116
g93
g94
ssg75
g105
sg68
(lp117
S':'
asbag61
(g82
g63
NtRp118
(dp119
g66
(dp120
sg75
g105
sg68
(lp121
g61
(g62
g63
NtRp122
(dp123
g66
(dp124
g74
I5
ssg75
g118
sg68
(lp125
S'mycrawler'
p126
asbasbasbag61
(g77
g63
NtRp127
(dp128
g66
(dp129
sg75
g71
sg68
(lp130
g61
(g82
g63
NtRp131
(dp132
g66
(dp133
g86
g87
ssg75
g127
sg68
(lp134
g46
asbag61
(g82
g63
NtRp135
(dp136
g66
(dp137
g93
g94
ssg75
g127
sg68
(lp138
S':'
asbag61
(g82
g63
NtRp139
(dp140
g66
(dp141
sg75
g127
sg68
(lp142
g61
(g62
g63
NtRp143
(dp144
g66
(dp145
g74
I5
ssg75
g139
sg68
(lp146
g61
(g70
g63
NtRp147
(dp148
g66
(dp149
g74
I4
ssg75
Nsg68
(lp150
sbasbasbasbag61
(g77
g63
NtRp151
(dp152
g66
(dp153
sg75
g71
sg68
(lp154
g61
(g82
g63
NtRp155
(dp156
g66
(dp157
g86
g87
ssg75
g151
sg68
(lp158
S'body'
p159
asbag61
(g82
g63
NtRp160
(dp161
g66
(dp162
g93
g94
ssg75
g151
sg68
(lp163
S':'
asbag61
(g82
g63
NtRp164
(dp165
g66
(dp166
sg75
g151
sg68
(lp167
g61
(g62
g63
NtRp168
(dp169
g66
(dp170
g74
I5
ssg75
g164
sg68
(lp171
S'<cStringIO.StringO object at 0x04A0B6A0>'
p172
asbasbasbag61
(g77
g63
NtRp173
(dp174
g66
(dp175
sg75
g71
sg68
(lp176
g61
(g82
g63
NtRp177
(dp178
g66
(dp179
g86
g87
ssg75
g173
sg68
(lp180
S'client'
p181
asbag61
(g82
g63
NtRp182
(dp183
g66
(dp184
g93
g94
ssg75
g173
sg68
(lp185
S':'
asbag61
(g82
g63
NtRp186
(dp187
g66
(dp188
sg75
g173
sg68
(lp189
g61
(g62
g63
NtRp190
(dp191
g66
(dp192
g74
I5
ssg75
g186
sg68
(lp193
S'127.0.0.1'
p194
asbasbasbag61
(g77
g63
NtRp195
(dp196
g66
(dp197
sg75
g71
sg68
(lp198
g61
(g82
g63
NtRp199
(dp200
g66
(dp201
g86
g87
ssg75
g195
sg68
(lp202
S'controller'
p203
asbag61
(g82
g63
NtRp204
(dp205
g66
(dp206
g93
g94
ssg75
g195
sg68
(lp207
S':'
asbag61
(g82
g63
NtRp208
(dp209
g66
(dp210
sg75
g195
sg68
(lp211
g61
(g62
g63
NtRp212
(dp213
g66
(dp214
g74
I5
ssg75
g208
sg68
(lp215
S'default'
p216
asbasbasbag61
(g77
g63
NtRp217
(dp218
g66
(dp219
sg75
g71
sg68
(lp220
g61
(g82
g63
NtRp221
(dp222
g66
(dp223
g86
g87
ssg75
g217
sg68
(lp224
S'cookies'
p225
asbag61
(g82
g63
NtRp226
(dp227
g66
(dp228
g93
g94
ssg75
g217
sg68
(lp229
S':'
asbag61
(g82
g63
NtRp230
(dp231
g66
(dp232
sg75
g217
sg68
(lp233
g61
(g62
g63
NtRp234
(dp235
g66
(dp236
g74
I5
ssg75
g230
sg68
(lp237
g61
(g70
g63
NtRp238
(dp239
g66
(dp240
g74
I4
ssg75
Nsg68
(lp241
g61
(g77
g63
NtRp242
(dp243
g66
(dp244
sg75
g238
sg68
(lp245
g61
(g82
g63
NtRp246
(dp247
g66
(dp248
g86
g87
ssg75
g242
sg68
(lp249
S'session_id_admin'
p250
asbag61
(g82
g63
NtRp251
(dp252
g66
(dp253
g93
g94
ssg75
g242
sg68
(lp254
S':'
asbag61
(g82
g63
NtRp255
(dp256
g66
(dp257
sg75
g242
sg68
(lp258
g61
(g62
g63
NtRp259
(dp260
g66
(dp261
g74
I4
ssg75
g255
sg68
(lp262
g61
(g70
g63
NtRp263
(dp264
g66
(dp265
g74
I3
ssg75
Nsg68
(lp266
g61
(g77
g63
NtRp267
(dp268
g66
(dp269
sg75
g263
sg68
(lp270
g61
(g82
g63
NtRp271
(dp272
g66
(dp273
g86
g87
ssg75
g267
sg68
(lp274
S'comment'
p275
asbag61
(g82
g63
NtRp276
(dp277
g66
(dp278
g93
g94
ssg75
g267
sg68
(lp279
S':'
asbag61
(g82
g63
NtRp280
(dp281
g66
(dp282
sg75
g267
sg68
(lp283
g61
(g62
g63
NtRp284
(dp285
g66
(dp286
g74
I3
ssg75
g280
sg68
(lp287
S''
asbasbasbag61
(g77
g63
NtRp288
(dp289
g66
(dp290
sg75
g263
sg68
(lp291
g61
(g82
g63
NtRp292
(dp293
g66
(dp294
g86
g87
ssg75
g288
sg68
(lp295
S'domain'
p296
asbag61
(g82
g63
NtRp297
(dp298
g66
(dp299
g93
g94
ssg75
g288
sg68
(lp300
S':'
asbag61
(g82
g63
NtRp301
(dp302
g66
(dp303
sg75
g288
sg68
(lp304
g61
(g62
g63
NtRp305
(dp306
g66
(dp307
g74
I3
ssg75
g301
sg68
(lp308
S''
asbasbasbag61
(g77
g63
NtRp309
(dp310
g66
(dp311
sg75
g263
sg68
(lp312
g61
(g82
g63
NtRp313
(dp314
g66
(dp315
g86
g87
ssg75
g309
sg68
(lp316
S'expires'
p317
asbag61
(g82
g63
NtRp318
(dp319
g66
(dp320
g93
g94
ssg75
g309
sg68
(lp321
S':'
asbag61
(g82
g63
NtRp322
(dp323
g66
(dp324
sg75
g309
sg68
(lp325
g61
(g62
g63
NtRp326
(dp327
g66
(dp328
g74
I3
ssg75
g322
sg68
(lp329
S''
asbasbasbag61
(g77
g63
NtRp330
(dp331
g66
(dp332
sg75
g263
sg68
(lp333
g61
(g82
g63
NtRp334
(dp335
g66
(dp336
g86
g87
ssg75
g330
sg68
(lp337
S'httponly'
p338
asbag61
(g82
g63
NtRp339
(dp340
g66
(dp341
g93
g94
ssg75
g330
sg68
(lp342
S':'
asbag61
(g82
g63
NtRp343
(dp344
g66
(dp345
sg75
g330
sg68
(lp346
g61
(g62
g63
NtRp347
(dp348
g66
(dp349
g74
I3
ssg75
g343
sg68
(lp350
S''
asbasbasbag61
(g77
g63
NtRp351
(dp352
g66
(dp353
sg75
g263
sg68
(lp354
g61
(g82
g63
NtRp355
(dp356
g66
(dp357
g86
g87
ssg75
g351
sg68
(lp358
S'max-age'
p359
asbag61
(g82
g63
NtRp360
(dp361
g66
(dp362
g93
g94
ssg75
g351
sg68
(lp363
S':'
asbag61
(g82
g63
NtRp364
(dp365
g66
(dp366
sg75
g351
sg68
(lp367
g61
(g62
g63
NtRp368
(dp369
g66
(dp370
g74
I3
ssg75
g364
sg68
(lp371
S''
asbasbasbag61
(g77
g63
NtRp372
(dp373
g66
(dp374
sg75
g263
sg68
(lp375
g61
(g82
g63
NtRp376
(dp377
g66
(dp378
g86
g87
ssg75
g372
sg68
(lp379
S'path'
p380
asbag61
(g82
g63
NtRp381
(dp382
g66
(dp383
g93
g94
ssg75
g372
sg68
(lp384
S':'
asbag61
(g82
g63
NtRp385
(dp386
g66
(dp387
sg75
g372
sg68
(lp388
g61
(g62
g63
NtRp389
(dp390
g66
(dp391
g74
I3
ssg75
g385
sg68
(lp392
S''
asbasbasbag61
(g77
g63
NtRp393
(dp394
g66
(dp395
sg75
g263
sg68
(lp396
g61
(g82
g63
NtRp397
(dp398
g66
(dp399
g86
g87
ssg75
g393
sg68
(lp400
S'secure'
p401
asbag61
(g82
g63
NtRp402
(dp403
g66
(dp404
g93
g94
ssg75
g393
sg68
(lp405
S':'
asbag61
(g82
g63
NtRp406
(dp407
g66
(dp408
sg75
g393
sg68
(lp409
g61
(g62
g63
NtRp410
(dp411
g66
(dp412
g74
I3
ssg75
g406
sg68
(lp413
S''
asbasbasbag61
(g77
g63
NtRp414
(dp415
g66
(dp416
sg75
g263
sg68
(lp417
g61
(g82
g63
NtRp418
(dp419
g66
(dp420
g86
g87
ssg75
g414
sg68
(lp421
S'version'
p422
asbag61
(g82
g63
NtRp423
(dp424
g66
(dp425
g93
g94
ssg75
g414
sg68
(lp426
S':'
asbag61
(g82
g63
NtRp427
(dp428
g66
(dp429
sg75
g414
sg68
(lp430
g61
(g62
g63
NtRp431
(dp432
g66
(dp433
g74
I3
ssg75
g427
sg68
(lp434
S''
asbasbasbasbasbasbasbag61
(g77
g63
NtRp435
(dp436
g66
(dp437
sg75
g238
sg68
(lp438
g61
(g82
g63
NtRp439
(dp440
g66
(dp441
g86
g87
ssg75
g435
sg68
(lp442
S'session_id_crawler'
p443
asbag61
(g82
g63
NtRp444
(dp445
g66
(dp446
g93
g94
ssg75
g435
sg68
(lp447
S':'
asbag61
(g82
g63
NtRp448
(dp449
g66
(dp450
sg75
g435
sg68
(lp451
g61
(g62
g63
NtRp452
(dp453
g66
(dp454
g74
I4
ssg75
g448
sg68
(lp455
g61
(g70
g63
NtRp456
(dp457
g66
(dp458
g74
I3
ssg75
Nsg68
(lp459
g61
(g77
g63
NtRp460
(dp461
g66
(dp462
sg75
g456
sg68
(lp463
g61
(g82
g63
NtRp464
(dp465
g66
(dp466
g86
g87
ssg75
g460
sg68
(lp467
g275
asbag61
(g82
g63
NtRp468
(dp469
g66
(dp470
g93
g94
ssg75
g460
sg68
(lp471
S':'
asbag61
(g82
g63
NtRp472
(dp473
g66
(dp474
sg75
g460
sg68
(lp475
g61
(g62
g63
NtRp476
(dp477
g66
(dp478
g74
I3
ssg75
g472
sg68
(lp479
S''
asbasbasbag61
(g77
g63
NtRp480
(dp481
g66
(dp482
sg75
g456
sg68
(lp483
g61
(g82
g63
NtRp484
(dp485
g66
(dp486
g86
g87
ssg75
g480
sg68
(lp487
g296
asbag61
(g82
g63
NtRp488
(dp489
g66
(dp490
g93
g94
ssg75
g480
sg68
(lp491
S':'
asbag61
(g82
g63
NtRp492
(dp493
g66
(dp494
sg75
g480
sg68
(lp495
g61
(g62
g63
NtRp496
(dp497
g66
(dp498
g74
I3
ssg75
g492
sg68
(lp499
S''
asbasbasbag61
(g77
g63
NtRp500
(dp501
g66
(dp502
sg75
g456
sg68
(lp503
g61
(g82
g63
NtRp504
(dp505
g66
(dp506
g86
g87
ssg75
g500
sg68
(lp507
g317
asbag61
(g82
g63
NtRp508
(dp509
g66
(dp510
g93
g94
ssg75
g500
sg68
(lp511
S':'
asbag61
(g82
g63
NtRp512
(dp513
g66
(dp514
sg75
g500
sg68
(lp515
g61
(g62
g63
NtRp516
(dp517
g66
(dp518
g74
I3
ssg75
g512
sg68
(lp519
S''
asbasbasbag61
(g77
g63
NtRp520
(dp521
g66
(dp522
sg75
g456
sg68
(lp523
g61
(g82
g63
NtRp524
(dp525
g66
(dp526
g86
g87
ssg75
g520
sg68
(lp527
g338
asbag61
(g82
g63
NtRp528
(dp529
g66
(dp530
g93
g94
ssg75
g520
sg68
(lp531
S':'
asbag61
(g82
g63
NtRp532
(dp533
g66
(dp534
sg75
g520
sg68
(lp535
g61
(g62
g63
NtRp536
(dp537
g66
(dp538
g74
I3
ssg75
g532
sg68
(lp539
S''
asbasbasbag61
(g77
g63
NtRp540
(dp541
g66
(dp542
sg75
g456
sg68
(lp543
g61
(g82
g63
NtRp544
(dp545
g66
(dp546
g86
g87
ssg75
g540
sg68
(lp547
g359
asbag61
(g82
g63
NtRp548
(dp549
g66
(dp550
g93
g94
ssg75
g540
sg68
(lp551
S':'
asbag61
(g82
g63
NtRp552
(dp553
g66
(dp554
sg75
g540
sg68
(lp555
g61
(g62
g63
NtRp556
(dp557
g66
(dp558
g74
I3
ssg75
g552
sg68
(lp559
S''
asbasbasbag61
(g77
g63
NtRp560
(dp561
g66
(dp562
sg75
g456
sg68
(lp563
g61
(g82
g63
NtRp564
(dp565
g66
(dp566
g86
g87
ssg75
g560
sg68
(lp567
g380
asbag61
(g82
g63
NtRp568
(dp569
g66
(dp570
g93
g94
ssg75
g560
sg68
(lp571
S':'
asbag61
(g82
g63
NtRp572
(dp573
g66
(dp574
sg75
g560
sg68
(lp575
g61
(g62
g63
NtRp576
(dp577
g66
(dp578
g74
I3
ssg75
g572
sg68
(lp579
S''
asbasbasbag61
(g77
g63
NtRp580
(dp581
g66
(dp582
sg75
g456
sg68
(lp583
g61
(g82
g63
NtRp584
(dp585
g66
(dp586
g86
g87
ssg75
g580
sg68
(lp587
g401
asbag61
(g82
g63
NtRp588
(dp589
g66
(dp590
g93
g94
ssg75
g580
sg68
(lp591
S':'
asbag61
(g82
g63
NtRp592
(dp593
g66
(dp594
sg75
g580
sg68
(lp595
g61
(g62
g63
NtRp596
(dp597
g66
(dp598
g74
I3
ssg75
g592
sg68
(lp599
S''
asbasbasbag61
(g77
g63
NtRp600
(dp601
g66
(dp602
sg75
g456
sg68
(lp603
g61
(g82
g63
NtRp604
(dp605
g66
(dp606
g86
g87
ssg75
g600
sg68
(lp607
g422
asbag61
(g82
g63
NtRp608
(dp609
g66
(dp610
g93
g94
ssg75
g600
sg68
(lp611
S':'
asbag61
(g82
g63
NtRp612
(dp613
g66
(dp614
sg75
g600
sg68
(lp615
g61
(g62
g63
NtRp616
(dp617
g66
(dp618
g74
I3
ssg75
g612
sg68
(lp619
S''
asbasbasbasbasbasbasbag61
(g77
g63
NtRp620
(dp621
g66
(dp622
sg75
g238
sg68
(lp623
g61
(g82
g63
NtRp624
(dp625
g66
(dp626
g86
g87
ssg75
g620
sg68
(lp627
S'session_id_mycrawler'
p628
asbag61
(g82
g63
NtRp629
(dp630
g66
(dp631
g93
g94
ssg75
g620
sg68
(lp632
S':'
asbag61
(g82
g63
NtRp633
(dp634
g66
(dp635
sg75
g620
sg68
(lp636
g61
(g62
g63
NtRp637
(dp638
g66
(dp639
g74
I4
ssg75
g633
sg68
(lp640
g61
(g70
g63
NtRp641
(dp642
g66
(dp643
g74
I3
ssg75
Nsg68
(lp644
g61
(g77
g63
NtRp645
(dp646
g66
(dp647
sg75
g641
sg68
(lp648
g61
(g82
g63
NtRp649
(dp650
g66
(dp651
g86
g87
ssg75
g645
sg68
(lp652
g275
asbag61
(g82
g63
NtRp653
(dp654
g66
(dp655
g93
g94
ssg75
g645
sg68
(lp656
S':'
asbag61
(g82
g63
NtRp657
(dp658
g66
(dp659
sg75
g645
sg68
(lp660
g61
(g62
g63
NtRp661
(dp662
g66
(dp663
g74
I3
ssg75
g657
sg68
(lp664
S''
asbasbasbag61
(g77
g63
NtRp665
(dp666
g66
(dp667
sg75
g641
sg68
(lp668
g61
(g82
g63
NtRp669
(dp670
g66
(dp671
g86
g87
ssg75
g665
sg68
(lp672
g296
asbag61
(g82
g63
NtRp673
(dp674
g66
(dp675
g93
g94
ssg75
g665
sg68
(lp676
S':'
asbag61
(g82
g63
NtRp677
(dp678
g66
(dp679
sg75
g665
sg68
(lp680
g61
(g62
g63
NtRp681
(dp682
g66
(dp683
g74
I3
ssg75
g677
sg68
(lp684
S''
asbasbasbag61
(g77
g63
NtRp685
(dp686
g66
(dp687
sg75
g641
sg68
(lp688
g61
(g82
g63
NtRp689
(dp690
g66
(dp691
g86
g87
ssg75
g685
sg68
(lp692
g317
asbag61
(g82
g63
NtRp693
(dp694
g66
(dp695
g93
g94
ssg75
g685
sg68
(lp696
S':'
asbag61
(g82
g63
NtRp697
(dp698
g66
(dp699
sg75
g685
sg68
(lp700
g61
(g62
g63
NtRp701
(dp702
g66
(dp703
g74
I3
ssg75
g697
sg68
(lp704
S''
asbasbasbag61
(g77
g63
NtRp705
(dp706
g66
(dp707
sg75
g641
sg68
(lp708
g61
(g82
g63
NtRp709
(dp710
g66
(dp711
g86
g87
ssg75
g705
sg68
(lp712
g338
asbag61
(g82
g63
NtRp713
(dp714
g66
(dp715
g93
g94
ssg75
g705
sg68
(lp716
S':'
asbag61
(g82
g63
NtRp717
(dp718
g66
(dp719
sg75
g705
sg68
(lp720
g61
(g62
g63
NtRp721
(dp722
g66
(dp723
g74
I3
ssg75
g717
sg68
(lp724
S''
asbasbasbag61
(g77
g63
NtRp725
(dp726
g66
(dp727
sg75
g641
sg68
(lp728
g61
(g82
g63
NtRp729
(dp730
g66
(dp731
g86
g87
ssg75
g725
sg68
(lp732
g359
asbag61
(g82
g63
NtRp733
(dp734
g66
(dp735
g93
g94
ssg75
g725
sg68
(lp736
S':'
asbag61
(g82
g63
NtRp737
(dp738
g66
(dp739
sg75
g725
sg68
(lp740
g61
(g62
g63
NtRp741
(dp742
g66
(dp743
g74
I3
ssg75
g737
sg68
(lp744
S''
asbasbasbag61
(g77
g63
NtRp745
(dp746
g66
(dp747
sg75
g641
sg68
(lp748
g61
(g82
g63
NtRp749
(dp750
g66
(dp751
g86
g87
ssg75
g745
sg68
(lp752
g380
asbag61
(g82
g63
NtRp753
(dp754
g66
(dp755
g93
g94
ssg75
g745
sg68
(lp756
S':'
asbag61
(g82
g63
NtRp757
(dp758
g66
(dp759
sg75
g745
sg68
(lp760
g61
(g62
g63
NtRp761
(dp762
g66
(dp763
g74
I3
ssg75
g757
sg68
(lp764
S''
asbasbasbag61
(g77
g63
NtRp765
(dp766
g66
(dp767
sg75
g641
sg68
(lp768
g61
(g82
g63
NtRp769
(dp770
g66
(dp771
g86
g87
ssg75
g765
sg68
(lp772
g401
asbag61
(g82
g63
NtRp773
(dp774
g66
(dp775
g93
g94
ssg75
g765
sg68
(lp776
S':'
asbag61
(g82
g63
NtRp777
(dp778
g66
(dp779
sg75
g765
sg68
(lp780
g61
(g62
g63
NtRp781
(dp782
g66
(dp783
g74
I3
ssg75
g777
sg68
(lp784
S''
asbasbasbag61
(g77
g63
NtRp785
(dp786
g66
(dp787
sg75
g641
sg68
(lp788
g61
(g82
g63
NtRp789
(dp790
g66
(dp791
g86
g87
ssg75
g785
sg68
(lp792
g422
asbag61
(g82
g63
NtRp793
(dp794
g66
(dp795
g93
g94
ssg75
g785
sg68
(lp796
S':'
asbag61
(g82
g63
NtRp797
(dp798
g66
(dp799
sg75
g785
sg68
(lp800
g61
(g62
g63
NtRp801
(dp802
g66
(dp803
g74
I3
ssg75
g797
sg68
(lp804
S''
asbasbasbasbasbasbasbag61
(g77
g63
NtRp805
(dp806
g66
(dp807
sg75
g238
sg68
(lp808
g61
(g82
g63
NtRp809
(dp810
g66
(dp811
g86
g87
ssg75
g805
sg68
(lp812
S'session_id_welcome'
p813
asbag61
(g82
g63
NtRp814
(dp815
g66
(dp816
g93
g94
ssg75
g805
sg68
(lp817
S':'
asbag61
(g82
g63
NtRp818
(dp819
g66
(dp820
sg75
g805
sg68
(lp821
g61
(g62
g63
NtRp822
(dp823
g66
(dp824
g74
I4
ssg75
g818
sg68
(lp825
g61
(g70
g63
NtRp826
(dp827
g66
(dp828
g74
I3
ssg75
Nsg68
(lp829
g61
(g77
g63
NtRp830
(dp831
g66
(dp832
sg75
g826
sg68
(lp833
g61
(g82
g63
NtRp834
(dp835
g66
(dp836
g86
g87
ssg75
g830
sg68
(lp837
g275
asbag61
(g82
g63
NtRp838
(dp839
g66
(dp840
g93
g94
ssg75
g830
sg68
(lp841
S':'
asbag61
(g82
g63
NtRp842
(dp843
g66
(dp844
sg75
g830
sg68
(lp845
g61
(g62
g63
NtRp846
(dp847
g66
(dp848
g74
I3
ssg75
g842
sg68
(lp849
S''
asbasbasbag61
(g77
g63
NtRp850
(dp851
g66
(dp852
sg75
g826
sg68
(lp853
g61
(g82
g63
NtRp854
(dp855
g66
(dp856
g86
g87
ssg75
g850
sg68
(lp857
g296
asbag61
(g82
g63
NtRp858
(dp859
g66
(dp860
g93
g94
ssg75
g850
sg68
(lp861
S':'
asbag61
(g82
g63
NtRp862
(dp863
g66
(dp864
sg75
g850
sg68
(lp865
g61
(g62
g63
NtRp866
(dp867
g66
(dp868
g74
I3
ssg75
g862
sg68
(lp869
S''
asbasbasbag61
(g77
g63
NtRp870
(dp871
g66
(dp872
sg75
g826
sg68
(lp873
g61
(g82
g63
NtRp874
(dp875
g66
(dp876
g86
g87
ssg75
g870
sg68
(lp877
g317
asbag61
(g82
g63
NtRp878
(dp879
g66
(dp880
g93
g94
ssg75
g870
sg68
(lp881
S':'
asbag61
(g82
g63
NtRp882
(dp883
g66
(dp884
sg75
g870
sg68
(lp885
g61
(g62
g63
NtRp886
(dp887
g66
(dp888
g74
I3
ssg75
g882
sg68
(lp889
S''
asbasbasbag61
(g77
g63
NtRp890
(dp891
g66
(dp892
sg75
g826
sg68
(lp893
g61
(g82
g63
NtRp894
(dp895
g66
(dp896
g86
g87
ssg75
g890
sg68
(lp897
g338
asbag61
(g82
g63
NtRp898
(dp899
g66
(dp900
g93
g94
ssg75
g890
sg68
(lp901
S':'
asbag61
(g82
g63
NtRp902
(dp903
g66
(dp904
sg75
g890
sg68
(lp905
g61
(g62
g63
NtRp906
(dp907
g66
(dp908
g74
I3
ssg75
g902
sg68
(lp909
S''
asbasbasbag61
(g77
g63
NtRp910
(dp911
g66
(dp912
sg75
g826
sg68
(lp913
g61
(g82
g63
NtRp914
(dp915
g66
(dp916
g86
g87
ssg75
g910
sg68
(lp917
g359
asbag61
(g82
g63
NtRp918
(dp919
g66
(dp920
g93
g94
ssg75
g910
sg68
(lp921
S':'
asbag61
(g82
g63
NtRp922
(dp923
g66
(dp924
sg75
g910
sg68
(lp925
g61
(g62
g63
NtRp926
(dp927
g66
(dp928
g74
I3
ssg75
g922
sg68
(lp929
S''
asbasbasbag61
(g77
g63
NtRp930
(dp931
g66
(dp932
sg75
g826
sg68
(lp933
g61
(g82
g63
NtRp934
(dp935
g66
(dp936
g86
g87
ssg75
g930
sg68
(lp937
g380
asbag61
(g82
g63
NtRp938
(dp939
g66
(dp940
g93
g94
ssg75
g930
sg68
(lp941
S':'
asbag61
(g82
g63
NtRp942
(dp943
g66
(dp944
sg75
g930
sg68
(lp945
g61
(g62
g63
NtRp946
(dp947
g66
(dp948
g74
I3
ssg75
g942
sg68
(lp949
S''
asbasbasbag61
(g77
g63
NtRp950
(dp951
g66
(dp952
sg75
g826
sg68
(lp953
g61
(g82
g63
NtRp954
(dp955
g66
(dp956
g86
g87
ssg75
g950
sg68
(lp957
g401
asbag61
(g82
g63
NtRp958
(dp959
g66
(dp960
g93
g94
ssg75
g950
sg68
(lp961
S':'
asbag61
(g82
g63
NtRp962
(dp963
g66
(dp964
sg75
g950
sg68
(lp965
g61
(g62
g63
NtRp966
(dp967
g66
(dp968
g74
I3
ssg75
g962
sg68
(lp969
S''
asbasbasbag61
(g77
g63
NtRp970
(dp971
g66
(dp972
sg75
g826
sg68
(lp973
g61
(g82
g63
NtRp974
(dp975
g66
(dp976
g86
g87
ssg75
g970
sg68
(lp977
g422
asbag61
(g82
g63
NtRp978
(dp979
g66
(dp980
g93
g94
ssg75
g970
sg68
(lp981
S':'
asbag61
(g82
g63
NtRp982
(dp983
g66
(dp984
sg75
g970
sg68
(lp985
g61
(g62
g63
NtRp986
(dp987
g66
(dp988
g74
I3
ssg75
g982
sg68
(lp989
S''
asbasbasbasbasbasbasbasbasbasbasbag61
(g77
g63
NtRp990
(dp991
g66
(dp992
sg75
g71
sg68
(lp993
g61
(g82
g63
NtRp994
(dp995
g66
(dp996
g86
g87
ssg75
g990
sg68
(lp997
S'env'
p998
asbag61
(g82
g63
NtRp999
(dp1000
g66
(dp1001
g93
g94
ssg75
g990
sg68
(lp1002
S':'
asbag61
(g82
g63
NtRp1003
(dp1004
g66
(dp1005
sg75
g990
sg68
(lp1006
g61
(g62
g63
NtRp1007
(dp1008
g66
(dp1009
g74
I5
ssg75
g1003
sg68
(lp1010
g61
(g70
g63
NtRp1011
(dp1012
g66
(dp1013
g74
I4
ssg75
Nsg68
(lp1014
g61
(g77
g63
NtRp1015
(dp1016
g66
(dp1017
sg75
g1011
sg68
(lp1018
g61
(g82
g63
NtRp1019
(dp1020
g66
(dp1021
g86
g87
ssg75
g1015
sg68
(lp1022
S'app_folders'
p1023
asbag61
(g82
g63
NtRp1024
(dp1025
g66
(dp1026
g93
g94
ssg75
g1015
sg68
(lp1027
S':'
asbag61
(g82
g63
NtRp1028
(dp1029
g66
(dp1030
sg75
g1015
sg68
(lp1031
g61
(g62
g63
NtRp1032
(dp1033
g66
(dp1034
g74
I4
ssg75
g1028
sg68
(lp1035
S"set(['C:\\\\Documents and Settings\\\\agrover\\\\Desktop\\\\previous crawler\\\\web2py\\\\applications\\\\admin\\\\', 'C:\\\\Documents and Settings\\\\agrover\\\\Desktop\\\\previous crawler\\\\web2py\\\\applications\\\\mycrawler\\\\', 'C:\\\\Documents and Settings\\\\agrover\\\\Desktop\\\\previous crawler\\\\web2py\\\\applications\\\\welcome\\\\'])"
p1036
asbasbasbag61
(g77
g63
NtRp1037
(dp1038
g66
(dp1039
sg75
g1011
sg68
(lp1040
g61
(g82
g63
NtRp1041
(dp1042
g66
(dp1043
g86
g87
ssg75
g1037
sg68
(lp1044
S'applications_parent'
p1045
asbag61
(g82
g63
NtRp1046
(dp1047
g66
(dp1048
g93
g94
ssg75
g1037
sg68
(lp1049
S':'
asbag61
(g82
g63
NtRp1050
(dp1051
g66
(dp1052
sg75
g1037
sg68
(lp1053
g61
(g62
g63
NtRp1054
(dp1055
g66
(dp1056
g74
I4
ssg75
g1050
sg68
(lp1057
S'C:\\Documents and Settings\\agrover\\Desktop\\previous crawler\\web2py'
p1058
asbasbasbag61
(g77
g63
NtRp1059
(dp1060
g66
(dp1061
sg75
g1011
sg68
(lp1062
g61
(g82
g63
NtRp1063
(dp1064
g66
(dp1065
g86
g87
ssg75
g1059
sg68
(lp1066
S'cmd_args'
p1067
asbag61
(g82
g63
NtRp1068
(dp1069
g66
(dp1070
g93
g94
ssg75
g1059
sg68
(lp1071
S':'
asbag61
(g82
g63
NtRp1072
(dp1073
g66
(dp1074
sg75
g1059
sg68
(lp1075
g61
(g62
g63
NtRp1076
(dp1077
g66
(dp1078
g74
I4
ssg75
g1072
sg68
(lp1079
g61
(g70
g63
NtRp1080
(dp1081
g66
(dp1082
g74
I3
ssg75
Nsg68
(lp1083
sbasbasbasbag61
(g77
g63
NtRp1084
(dp1085
g66
(dp1086
sg75
g1011
sg68
(lp1087
g61
(g82
g63
NtRp1088
(dp1089
g66
(dp1090
g86
g87
ssg75
g1084
sg68
(lp1091
S'cmd_options'
p1092
asbag61
(g82
g63
NtRp1093
(dp1094
g66
(dp1095
g93
g94
ssg75
g1084
sg68
(lp1096
S':'
asbag61
(g82
g63
NtRp1097
(dp1098
g66
(dp1099
sg75
g1084
sg68
(lp1100
g61
(g62
g63
NtRp1101
(dp1102
g66
(dp1103
g74
I4
ssg75
g1097
sg68
(lp1104
S"<Values at 0x16d63f0: {'verbose': False, 'ip': '127.0.0.1', 'shutdown_timeout': 5, 'taskbar': False, 'nocron': False, 'pid_filename': 'httpserver.pid', 'maxthreads': None, 'softcron': False, 'server_name': 'mniagrover', 'bpython': False, 'nogui': False, 'port': 8000, 'extcron': False, 'debuglevel': 30, 'test': None, 'folder': 'C:\\\\Documents and Settings\\\\agrover\\\\Desktop\\\\previous crawler\\\\web2py', 'config': '', 'import_models': False, 'winservice': '', 'shell': None, 'run': '', 'log_filename': 'httpserver.log', 'args': [''], 'socket_timeout': 5, 'ssl_ca_certificate': None, 'scheduler': None, 'profiler_filename': None, 'ssl_private_key': '', 'password': '<ask>', 'request_queue_size': 5, 'ssl_certificate': '', 'cronjob': False, 'numthreads': None, 'quiet': False, 'interfaces': None, 'minthreads': None, 'timeout': 10, 'plain': False, 'nobanner': False}>"
p1105
asbasbasbag61
(g77
g63
NtRp1106
(dp1107
g66
(dp1108
sg75
g1011
sg68
(lp1109
g61
(g82
g63
NtRp1110
(dp1111
g66
(dp1112
g86
g87
ssg75
g1106
sg68
(lp1113
S'db_sessions'
p1114
asbag61
(g82
g63
NtRp1115
(dp1116
g66
(dp1117
g93
g94
ssg75
g1106
sg68
(lp1118
S':'
asbag61
(g82
g63
NtRp1119
(dp1120
g66
(dp1121
sg75
g1106
sg68
(lp1122
g61
(g62
g63
NtRp1123
(dp1124
g66
(dp1125
g74
I4
ssg75
g1119
sg68
(lp1126
S'set([])'
p1127
asbasbasbag61
(g77
g63
NtRp1128
(dp1129
g66
(dp1130
sg75
g1011
sg68
(lp1131
g61
(g82
g63
NtRp1132
(dp1133
g66
(dp1134
g86
g87
ssg75
g1128
sg68
(lp1135
S'debugging'
p1136
asbag61
(g82
g63
NtRp1137
(dp1138
g66
(dp1139
g93
g94
ssg75
g1128
sg68
(lp1140
S':'
asbag61
(g82
g63
NtRp1141
(dp1142
g66
(dp1143
sg75
g1128
sg68
(lp1144
g61
(g62
g63
NtRp1145
(dp1146
g66
(dp1147
g74
I4
ssg75
g1141
sg68
(lp1148
g104
asbasbasbag61
(g77
g63
NtRp1149
(dp1150
g66
(dp1151
sg75
g1011
sg68
(lp1152
g61
(g82
g63
NtRp1153
(dp1154
g66
(dp1155
g86
g87
ssg75
g1149
sg68
(lp1156
S'gluon_parent'
p1157
asbag61
(g82
g63
NtRp1158
(dp1159
g66
(dp1160
g93
g94
ssg75
g1149
sg68
(lp1161
S':'
asbag61
(g82
g63
NtRp1162
(dp1163
g66
(dp1164
sg75
g1149
sg68
(lp1165
g61
(g62
g63
NtRp1166
(dp1167
g66
(dp1168
g74
I4
ssg75
g1162
sg68
(lp1169
S'C:\\Documents and Settings\\agrover\\Desktop\\previous crawler\\web2py'
p1170
asbasbasbag61
(g77
g63
NtRp1171
(dp1172
g66
(dp1173
sg75
g1011
sg68
(lp1174
g61
(g82
g63
NtRp1175
(dp1176
g66
(dp1177
g86
g87
ssg75
g1171
sg68
(lp1178
S'http_accept'
p1179
asbag61
(g82
g63
NtRp1180
(dp1181
g66
(dp1182
g93
g94
ssg75
g1171
sg68
(lp1183
S':'
asbag61
(g82
g63
NtRp1184
(dp1185
g66
(dp1186
sg75
g1171
sg68
(lp1187
g61
(g62
g63
NtRp1188
(dp1189
g66
(dp1190
g74
I4
ssg75
g1184
sg68
(lp1191
S'text/html,application/xhtml+xml,application/xml;q=0.9,*/*;q=0.8'
p1192
asbasbasbag61
(g77
g63
NtRp1193
(dp1194
g66
(dp1195
sg75
g1011
sg68
(lp1196
g61
(g82
g63
NtRp1197
(dp1198
g66
(dp1199
g86
g87
ssg75
g1193
sg68
(lp1200
S'http_accept_encoding'
p1201
asbag61
(g82
g63
NtRp1202
(dp1203
g66
(dp1204
g93
g94
ssg75
g1193
sg68
(lp1205
S':'
asbag61
(g82
g63
NtRp1206
(dp1207
g66
(dp1208
sg75
g1193
sg68
(lp1209
g61
(g62
g63
NtRp1210
(dp1211
g66
(dp1212
g74
I4
ssg75
g1206
sg68
(lp1213
S'gzip, deflate'
p1214
asbasbasbag61
(g77
g63
NtRp1215
(dp1216
g66
(dp1217
sg75
g1011
sg68
(lp1218
g61
(g82
g63
NtRp1219
(dp1220
g66
(dp1221
g86
g87
ssg75
g1215
sg68
(lp1222
S'http_accept_language'
p1223
asbag61
(g82
g63
NtRp1224
(dp1225
g66
(dp1226
g93
g94
ssg75
g1215
sg68
(lp1227
S':'
asbag61
(g82
g63
NtRp1228
(dp1229
g66
(dp1230
sg75
g1215
sg68
(lp1231
g61
(g62
g63
NtRp1232
(dp1233
g66
(dp1234
g74
I4
ssg75
g1228
sg68
(lp1235
S'en-us,en;q=0.5'
p1236
asbasbasbag61
(g77
g63
NtRp1237
(dp1238
g66
(dp1239
sg75
g1011
sg68
(lp1240
g61
(g82
g63
NtRp1241
(dp1242
g66
(dp1243
g86
g87
ssg75
g1237
sg68
(lp1244
S'http_connection'
p1245
asbag61
(g82
g63
NtRp1246
(dp1247
g66
(dp1248
g93
g94
ssg75
g1237
sg68
(lp1249
S':'
asbag61
(g82
g63
NtRp1250
(dp1251
g66
(dp1252
sg75
g1237
sg68
(lp1253
g61
(g62
g63
NtRp1254
(dp1255
g66
(dp1256
g74
I4
ssg75
g1250
sg68
(lp1257
S'keep-alive'
p1258
asbasbasbag61
(g77
g63
NtRp1259
(dp1260
g66
(dp1261
sg75
g1011
sg68
(lp1262
g61
(g82
g63
NtRp1263
(dp1264
g66
(dp1265
g86
g87
ssg75
g1259
sg68
(lp1266
S'http_cookie'
p1267
asbag61
(g82
g63
NtRp1268
(dp1269
g66
(dp1270
g93
g94
ssg75
g1259
sg68
(lp1271
S':'
asbag61
(g82
g63
NtRp1272
(dp1273
g66
(dp1274
sg75
g1259
sg68
(lp1275
g61
(g62
g63
NtRp1276
(dp1277
g66
(dp1278
g74
I4
ssg75
g1272
sg68
(lp1279
S'session_id_crawler=127.0.0.1-3a24a7e8-514d-4bd8-b331-40ae22ac7de5; session_id_welcome=127.0.0.1-021ac449-a294-4218-b252-433a1553cea9; session_id_admin=127.0.0.1-6c582451-9afe-4b27-a715-192f5a4c3a1f; session_id_mycrawler=127.0.0.1-05d302d9-dfe2-4e60-ab26-5eeb721fac09'
p1280
asbasbasbag61
(g77
g63
NtRp1281
(dp1282
g66
(dp1283
sg75
g1011
sg68
(lp1284
g61
(g82
g63
NtRp1285
(dp1286
g66
(dp1287
g86
g87
ssg75
g1281
sg68
(lp1288
S'http_host'
p1289
asbag61
(g82
g63
NtRp1290
(dp1291
g66
(dp1292
g93
g94
ssg75
g1281
sg68
(lp1293
S':'
asbag61
(g82
g63
NtRp1294
(dp1295
g66
(dp1296
sg75
g1281
sg68
(lp1297
g61
(g62
g63
NtRp1298
(dp1299
g66
(dp1300
g74
I4
ssg75
g1294
sg68
(lp1301
S'127.0.0.1:8000'
p1302
asbasbasbag61
(g77
g63
NtRp1303
(dp1304
g66
(dp1305
sg75
g1011
sg68
(lp1306
g61
(g82
g63
NtRp1307
(dp1308
g66
(dp1309
g86
g87
ssg75
g1303
sg68
(lp1310
S'http_user_agent'
p1311
asbag61
(g82
g63
NtRp1312
(dp1313
g66
(dp1314
g93
g94
ssg75
g1303
sg68
(lp1315
S':'
asbag61
(g82
g63
NtRp1316
(dp1317
g66
(dp1318
sg75
g1303
sg68
(lp1319
g61
(g62
g63
NtRp1320
(dp1321
g66
(dp1322
g74
I4
ssg75
g1316
sg68
(lp1323
S'Mozilla/5.0 (Windows NT 5.1; rv:12.0) Gecko/20100101 Firefox/12.0'
p1324
asbasbasbag61
(g77
g63
NtRp1325
(dp1326
g66
(dp1327
sg75
g1011
sg68
(lp1328
g61
(g82
g63
NtRp1329
(dp1330
g66
(dp1331
g86
g87
ssg75
g1325
sg68
(lp1332
S'is_jython'
p1333
asbag61
(g82
g63
NtRp1334
(dp1335
g66
(dp1336
g93
g94
ssg75
g1325
sg68
(lp1337
S':'
asbag61
(g82
g63
NtRp1338
(dp1339
g66
(dp1340
sg75
g1325
sg68
(lp1341
g61
(g62
g63
NtRp1342
(dp1343
g66
(dp1344
g74
I4
ssg75
g1338
sg68
(lp1345
g104
asbasbasbag61
(g77
g63
NtRp1346
(dp1347
g66
(dp1348
sg75
g1011
sg68
(lp1349
g61
(g82
g63
NtRp1350
(dp1351
g66
(dp1352
g86
g87
ssg75
g1346
sg68
(lp1353
S'is_pypy'
p1354
asbag61
(g82
g63
NtRp1355
(dp1356
g66
(dp1357
g93
g94
ssg75
g1346
sg68
(lp1358
S':'
asbag61
(g82
g63
NtRp1359
(dp1360
g66
(dp1361
sg75
g1346
sg68
(lp1362
g61
(g62
g63
NtRp1363
(dp1364
g66
(dp1365
g74
I4
ssg75
g1359
sg68
(lp1366
g104
asbasbasbag61
(g77
g63
NtRp1367
(dp1368
g66
(dp1369
sg75
g1011
sg68
(lp1370
g61
(g82
g63
NtRp1371
(dp1372
g66
(dp1373
g86
g87
ssg75
g1367
sg68
(lp1374
S'path_info'
p1375
asbag61
(g82
g63
NtRp1376
(dp1377
g66
(dp1378
g93
g94
ssg75
g1367
sg68
(lp1379
S':'
asbag61
(g82
g63
NtRp1380
(dp1381
g66
(dp1382
sg75
g1367
sg68
(lp1383
g61
(g62
g63
NtRp1384
(dp1385
g66
(dp1386
g74
I4
ssg75
g1380
sg68
(lp1387
S'/mycrawler/default/search'
p1388
asbasbasbag61
(g77
g63
NtRp1389
(dp1390
g66
(dp1391
sg75
g1011
sg68
(lp1392
g61
(g82
g63
NtRp1393
(dp1394
g66
(dp1395
g86
g87
ssg75
g1389
sg68
(lp1396
S'query_string'
p1397
asbag61
(g82
g63
NtRp1398
(dp1399
g66
(dp1400
g93
g94
ssg75
g1389
sg68
(lp1401
S':'
asbag61
(g82
g63
NtRp1402
(dp1403
g66
(dp1404
sg75
g1389
sg68
(lp1405
g61
(g62
g63
NtRp1406
(dp1407
g66
(dp1408
g74
I4
ssg75
g1402
sg68
(lp1409
S''
asbasbasbag61
(g77
g63
NtRp1410
(dp1411
g66
(dp1412
sg75
g1011
sg68
(lp1413
g61
(g82
g63
NtRp1414
(dp1415
g66
(dp1416
g86
g87
ssg75
g1410
sg68
(lp1417
S'remote_addr'
p1418
asbag61
(g82
g63
NtRp1419
(dp1420
g66
(dp1421
g93
g94
ssg75
g1410
sg68
(lp1422
S':'
asbag61
(g82
g63
NtRp1423
(dp1424
g66
(dp1425
sg75
g1410
sg68
(lp1426
g61
(g62
g63
NtRp1427
(dp1428
g66
(dp1429
g74
I4
ssg75
g1423
sg68
(lp1430
g194
asbasbasbag61
(g77
g63
NtRp1431
(dp1432
g66
(dp1433
sg75
g1011
sg68
(lp1434
g61
(g82
g63
NtRp1435
(dp1436
g66
(dp1437
g86
g87
ssg75
g1431
sg68
(lp1438
S'remote_port'
p1439
asbag61
(g82
g63
NtRp1440
(dp1441
g66
(dp1442
g93
g94
ssg75
g1431
sg68
(lp1443
S':'
asbag61
(g82
g63
NtRp1444
(dp1445
g66
(dp1446
sg75
g1431
sg68
(lp1447
g61
(g62
g63
NtRp1448
(dp1449
g66
(dp1450
g74
I4
ssg75
g1444
sg68
(lp1451
S'1444'
p1452
asbasbasbag61
(g77
g63
NtRp1453
(dp1454
g66
(dp1455
sg75
g1011
sg68
(lp1456
g61
(g82
g63
NtRp1457
(dp1458
g66
(dp1459
g86
g87
ssg75
g1453
sg68
(lp1460
S'request_method'
p1461
asbag61
(g82
g63
NtRp1462
(dp1463
g66
(dp1464
g93
g94
ssg75
g1453
sg68
(lp1465
S':'
asbag61
(g82
g63
NtRp1466
(dp1467
g66
(dp1468
sg75
g1453
sg68
(lp1469
g61
(g62
g63
NtRp1470
(dp1471
g66
(dp1472
g74
I4
ssg75
g1466
sg68
(lp1473
S'GET'
p1474
asbasbasbag61
(g77
g63
NtRp1475
(dp1476
g66
(dp1477
sg75
g1011
sg68
(lp1478
g61
(g82
g63
NtRp1479
(dp1480
g66
(dp1481
g86
g87
ssg75
g1475
sg68
(lp1482
S'script_name'
p1483
asbag61
(g82
g63
NtRp1484
(dp1485
g66
(dp1486
g93
g94
ssg75
g1475
sg68
(lp1487
S':'
asbag61
(g82
g63
NtRp1488
(dp1489
g66
(dp1490
sg75
g1475
sg68
(lp1491
g61
(g62
g63
NtRp1492
(dp1493
g66
(dp1494
g74
I4
ssg75
g1488
sg68
(lp1495
S''
asbasbasbag61
(g77
g63
NtRp1496
(dp1497
g66
(dp1498
sg75
g1011
sg68
(lp1499
g61
(g82
g63
NtRp1500
(dp1501
g66
(dp1502
g86
g87
ssg75
g1496
sg68
(lp1503
S'server_name'
p1504
asbag61
(g82
g63
NtRp1505
(dp1506
g66
(dp1507
g93
g94
ssg75
g1496
sg68
(lp1508
S':'
asbag61
(g82
g63
NtRp1509
(dp1510
g66
(dp1511
sg75
g1496
sg68
(lp1512
g61
(g62
g63
NtRp1513
(dp1514
g66
(dp1515
g74
I4
ssg75
g1509
sg68
(lp1516
S'mniagrover'
p1517
asbasbasbag61
(g77
g63
NtRp1518
(dp1519
g66
(dp1520
sg75
g1011
sg68
(lp1521
g61
(g82
g63
NtRp1522
(dp1523
g66
(dp1524
g86
g87
ssg75
g1518
sg68
(lp1525
S'server_port'
p1526
asbag61
(g82
g63
NtRp1527
(dp1528
g66
(dp1529
g93
g94
ssg75
g1518
sg68
(lp1530
S':'
asbag61
(g82
g63
NtRp1531
(dp1532
g66
(dp1533
sg75
g1518
sg68
(lp1534
g61
(g62
g63
NtRp1535
(dp1536
g66
(dp1537
g74
I4
ssg75
g1531
sg68
(lp1538
S'8000'
p1539
asbasbasbag61
(g77
g63
NtRp1540
(dp1541
g66
(dp1542
sg75
g1011
sg68
(lp1543
g61
(g82
g63
NtRp1544
(dp1545
g66
(dp1546
g86
g87
ssg75
g1540
sg68
(lp1547
S'server_protocol'
p1548
asbag61
(g82
g63
NtRp1549
(dp1550
g66
(dp1551
g93
g94
ssg75
g1540
sg68
(lp1552
S':'
asbag61
(g82
g63
NtRp1553
(dp1554
g66
(dp1555
sg75
g1540
sg68
(lp1556
g61
(g62
g63
NtRp1557
(dp1558
g66
(dp1559
g74
I4
ssg75
g1553
sg68
(lp1560
S'HTTP/1.1'
p1561
asbasbasbag61
(g77
g63
NtRp1562
(dp1563
g66
(dp1564
sg75
g1011
sg68
(lp1565
g61
(g82
g63
NtRp1566
(dp1567
g66
(dp1568
g86
g87
ssg75
g1562
sg68
(lp1569
S'server_software'
p1570
asbag61
(g82
g63
NtRp1571
(dp1572
g66
(dp1573
g93
g94
ssg75
g1562
sg68
(lp1574
S':'
asbag61
(g82
g63
NtRp1575
(dp1576
g66
(dp1577
sg75
g1562
sg68
(lp1578
g61
(g62
g63
NtRp1579
(dp1580
g66
(dp1581
g74
I4
ssg75
g1575
sg68
(lp1582
S'Rocket 1.2.4'
p1583
asbasbasbag61
(g77
g63
NtRp1584
(dp1585
g66
(dp1586
sg75
g1011
sg68
(lp1587
g61
(g82
g63
NtRp1588
(dp1589
g66
(dp1590
g86
g87
ssg75
g1584
sg68
(lp1591
S'web2py_crontype'
p1592
asbag61
(g82
g63
NtRp1593
(dp1594
g66
(dp1595
g93
g94
ssg75
g1584
sg68
(lp1596
S':'
asbag61
(g82
g63
NtRp1597
(dp1598
g66
(dp1599
sg75
g1584
sg68
(lp1600
g61
(g62
g63
NtRp1601
(dp1602
g66
(dp1603
g74
I4
ssg75
g1597
sg68
(lp1604
S'hard'
p1605
asbasbasbag61
(g77
g63
NtRp1606
(dp1607
g66
(dp1608
sg75
g1011
sg68
(lp1609
g61
(g82
g63
NtRp1610
(dp1611
g66
(dp1612
g86
g87
ssg75
g1606
sg68
(lp1613
S'web2py_path'
p1614
asbag61
(g82
g63
NtRp1615
(dp1616
g66
(dp1617
g93
g94
ssg75
g1606
sg68
(lp1618
S':'
asbag61
(g82
g63
NtRp1619
(dp1620
g66
(dp1621
sg75
g1606
sg68
(lp1622
g61
(g62
g63
NtRp1623
(dp1624
g66
(dp1625
g74
I4
ssg75
g1619
sg68
(lp1626
g1058
asbasbasbag61
(g77
g63
NtRp1627
(dp1628
g66
(dp1629
sg75
g1011
sg68
(lp1630
g61
(g82
g63
NtRp1631
(dp1632
g66
(dp1633
g86
g87
ssg75
g1627
sg68
(lp1634
S'web2py_version'
p1635
asbag61
(g82
g63
NtRp1636
(dp1637
g66
(dp1638
g93
g94
ssg75
g1627
sg68
(lp1639
S':'
asbag61
(g82
g63
NtRp1640
(dp1641
g66
(dp1642
sg75
g1627
sg68
(lp1643
g61
(g62
g63
NtRp1644
(dp1645
g66
(dp1646
g74
I4
ssg75
g1640
sg68
(lp1647
g61
(g70
g63
NtRp1648
(dp1649
g66
(dp1650
g74
I3
ssg75
Nsg68
(lp1651
g61
(g77
g63
NtRp1652
(dp1653
g66
(dp1654
sg75
g1648
sg68
(lp1655
g61
(g82
g63
NtRp1656
(dp1657
g66
(dp1658
sg75
g1652
sg68
(lp1659
g61
(g62
g63
NtRp1660
(dp1661
g66
(dp1662
g74
I3
ssg75
g1656
sg68
(lp1663
S'1'
asbasbasbag61
(g77
g63
NtRp1664
(dp1665
g66
(dp1666
sg75
g1648
sg68
(lp1667
g61
(g82
g63
NtRp1668
(dp1669
g66
(dp1670
sg75
g1664
sg68
(lp1671
g61
(g62
g63
NtRp1672
(dp1673
g66
(dp1674
g74
I3
ssg75
g1668
sg68
(lp1675
S'99'
p1676
asbasbasbag61
(g77
g63
NtRp1677
(dp1678
g66
(dp1679
sg75
g1648
sg68
(lp1680
g61
(g82
g63
NtRp1681
(dp1682
g66
(dp1683
sg75
g1677
sg68
(lp1684
g61
(g62
g63
NtRp1685
(dp1686
g66
(dp1687
g74
I3
ssg75
g1681
sg68
(lp1688
S'7'
asbasbasbag61
(g77
g63
NtRp1689
(dp1690
g66
(dp1691
sg75
g1648
sg68
(lp1692
g61
(g82
g63
NtRp1693
(dp1694
g66
(dp1695
sg75
g1689
sg68
(lp1696
g61
(g62
g63
NtRp1697
(dp1698
g66
(dp1699
g74
I3
ssg75
g1693
sg68
(lp1700
S'datetime.datetime(2012, 3, 4, 22, 12, 8)'
p1701
asbasbasbag61
(g77
g63
NtRp1702
(dp1703
g66
(dp1704
sg75
g1648
sg68
(lp1705
g61
(g82
g63
NtRp1706
(dp1707
g66
(dp1708
sg75
g1702
sg68
(lp1709
g61
(g62
g63
NtRp1710
(dp1711
g66
(dp1712
g74
I3
ssg75
g1706
sg68
(lp1713
S'stable'
p1714
asbasbasbasbasbasbasbag61
(g77
g63
NtRp1715
(dp1716
g66
(dp1717
sg75
g1011
sg68
(lp1718
g61
(g82
g63
NtRp1719
(dp1720
g66
(dp1721
g86
g87
ssg75
g1715
sg68
(lp1722
S'wsgi_errors'
p1723
asbag61
(g82
g63
NtRp1724
(dp1725
g66
(dp1726
g93
g94
ssg75
g1715
sg68
(lp1727
S':'
asbag61
(g82
g63
NtRp1728
(dp1729
g66
(dp1730
sg75
g1715
sg68
(lp1731
g61
(g62
g63
NtRp1732
(dp1733
g66
(dp1734
g74
I4
ssg75
g1728
sg68
(lp1735
S"<open file '<stderr>', mode 'w' at 0x00A550D0>"
p1736
asbasbasbag61
(g77
g63
NtRp1737
(dp1738
g66
(dp1739
sg75
g1011
sg68
(lp1740
g61
(g82
g63
NtRp1741
(dp1742
g66
(dp1743
g86
g87
ssg75
g1737
sg68
(lp1744
S'wsgi_file_wrapper'
p1745
asbag61
(g82
g63
NtRp1746
(dp1747
g66
(dp1748
g93
g94
ssg75
g1737
sg68
(lp1749
S':'
asbag61
(g82
g63
NtRp1750
(dp1751
g66
(dp1752
sg75
g1737
sg68
(lp1753
g61
(g62
g63
NtRp1754
(dp1755
g66
(dp1756
g74
I4
ssg75
g1750
sg68
(lp1757
S'<class wsgiref.util.FileWrapper at 0x015E8AB0>'
p1758
asbasbasbag61
(g77
g63
NtRp1759
(dp1760
g66
(dp1761
sg75
g1011
sg68
(lp1762
g61
(g82
g63
NtRp1763
(dp1764
g66
(dp1765
g86
g87
ssg75
g1759
sg68
(lp1766
S'wsgi_input'
p1767
asbag61
(g82
g63
NtRp1768
(dp1769
g66
(dp1770
g93
g94
ssg75
g1759
sg68
(lp1771
S':'
asbag61
(g82
g63
NtRp1772
(dp1773
g66
(dp1774
sg75
g1759
sg68
(lp1775
g61
(g62
g63
NtRp1776
(dp1777
g66
(dp1778
g74
I4
ssg75
g1772
sg68
(lp1779
S'<socket._fileobject object at 0x016D2D30>'
p1780
asbasbasbag61
(g77
g63
NtRp1781
(dp1782
g66
(dp1783
sg75
g1011
sg68
(lp1784
g61
(g82
g63
NtRp1785
(dp1786
g66
(dp1787
g86
g87
ssg75
g1781
sg68
(lp1788
S'wsgi_multiprocess'
p1789
asbag61
(g82
g63
NtRp1790
(dp1791
g66
(dp1792
g93
g94
ssg75
g1781
sg68
(lp1793
S':'
asbag61
(g82
g63
NtRp1794
(dp1795
g66
(dp1796
sg75
g1781
sg68
(lp1797
g61
(g62
g63
NtRp1798
(dp1799
g66
(dp1800
g74
I4
ssg75
g1794
sg68
(lp1801
g104
asbasbasbag61
(g77
g63
NtRp1802
(dp1803
g66
(dp1804
sg75
g1011
sg68
(lp1805
g61
(g82
g63
NtRp1806
(dp1807
g66
(dp1808
g86
g87
ssg75
g1802
sg68
(lp1809
S'wsgi_multithread'
p1810
asbag61
(g82
g63
NtRp1811
(dp1812
g66
(dp1813
g93
g94
ssg75
g1802
sg68
(lp1814
S':'
asbag61
(g82
g63
NtRp1815
(dp1816
g66
(dp1817
sg75
g1802
sg68
(lp1818
g61
(g62
g63
NtRp1819
(dp1820
g66
(dp1821
g74
I4
ssg75
g1815
sg68
(lp1822
S'True'
p1823
asbasbasbag61
(g77
g63
NtRp1824
(dp1825
g66
(dp1826
sg75
g1011
sg68
(lp1827
g61
(g82
g63
NtRp1828
(dp1829
g66
(dp1830
g86
g87
ssg75
g1824
sg68
(lp1831
S'wsgi_run_once'
p1832
asbag61
(g82
g63
NtRp1833
(dp1834
g66
(dp1835
g93
g94
ssg75
g1824
sg68
(lp1836
S':'
asbag61
(g82
g63
NtRp1837
(dp1838
g66
(dp1839
sg75
g1824
sg68
(lp1840
g61
(g62
g63
NtRp1841
(dp1842
g66
(dp1843
g74
I4
ssg75
g1837
sg68
(lp1844
g104
asbasbasbag61
(g77
g63
NtRp1845
(dp1846
g66
(dp1847
sg75
g1011
sg68
(lp1848
g61
(g82
g63
NtRp1849
(dp1850
g66
(dp1851
g86
g87
ssg75
g1845
sg68
(lp1852
S'wsgi_url_scheme'
p1853
asbag61
(g82
g63
NtRp1854
(dp1855
g66
(dp1856
g93
g94
ssg75
g1845
sg68
(lp1857
S':'
asbag61
(g82
g63
NtRp1858
(dp1859
g66
(dp1860
sg75
g1845
sg68
(lp1861
g61
(g62
g63
NtRp1862
(dp1863
g66
(dp1864
g74
I4
ssg75
g1858
sg68
(lp1865
S'http'
p1866
asbasbasbag61
(g77
g63
NtRp1867
(dp1868
g66
(dp1869
sg75
g1011
sg68
(lp1870
g61
(g82
g63
NtRp1871
(dp1872
g66
(dp1873
g86
g87
ssg75
g1867
sg68
(lp1874
S'wsgi_version'
p1875
asbag61
(g82
g63
NtRp1876
(dp1877
g66
(dp1878
g93
g94
ssg75
g1867
sg68
(lp1879
S':'
asbag61
(g82
g63
NtRp1880
(dp1881
g66
(dp1882
sg75
g1867
sg68
(lp1883
g61
(g62
g63
NtRp1884
(dp1885
g66
(dp1886
g74
I4
ssg75
g1880
sg68
(lp1887
g61
(g70
g63
NtRp1888
(dp1889
g66
(dp1890
g74
I3
ssg75
Nsg68
(lp1891
g61
(g77
g63
NtRp1892
(dp1893
g66
(dp1894
sg75
g1888
sg68
(lp1895
g61
(g82
g63
NtRp1896
(dp1897
g66
(dp1898
sg75
g1892
sg68
(lp1899
g61
(g62
g63
NtRp1900
(dp1901
g66
(dp1902
g74
I3
ssg75
g1896
sg68
(lp1903
S'1'
asbasbasbag61
(g77
g63
NtRp1904
(dp1905
g66
(dp1906
sg75
g1888
sg68
(lp1907
g61
(g82
g63
NtRp1908
(dp1909
g66
(dp1910
sg75
g1904
sg68
(lp1911
g61
(g62
g63
NtRp1912
(dp1913
g66
(dp1914
g74
I3
ssg75
g1908
sg68
(lp1915
S'0'
asbasbasbasbasbasbasbasbasbasbasbag61
(g77
g63
NtRp1916
(dp1917
g66
(dp1918
sg75
g71
sg68
(lp1919
g61
(g82
g63
NtRp1920
(dp1921
g66
(dp1922
g86
g87
ssg75
g1916
sg68
(lp1923
S'extension'
p1924
asbag61
(g82
g63
NtRp1925
(dp1926
g66
(dp1927
g93
g94
ssg75
g1916
sg68
(lp1928
S':'
asbag61
(g82
g63
NtRp1929
(dp1930
g66
(dp1931
sg75
g1916
sg68
(lp1932
g61
(g62
g63
NtRp1933
(dp1934
g66
(dp1935
g74
I5
ssg75
g1929
sg68
(lp1936
S'html'
p1937
asbasbasbag61
(g77
g63
NtRp1938
(dp1939
g66
(dp1940
sg75
g71
sg68
(lp1941
g61
(g82
g63
NtRp1942
(dp1943
g66
(dp1944
g86
g87
ssg75
g1938
sg68
(lp1945
S'folder'
p1946
asbag61
(g82
g63
NtRp1947
(dp1948
g66
(dp1949
g93
g94
ssg75
g1938
sg68
(lp1950
S':'
asbag61
(g82
g63
NtRp1951
(dp1952
g66
(dp1953
sg75
g1938
sg68
(lp1954
g61
(g62
g63
NtRp1955
(dp1956
g66
(dp1957
g74
I5
ssg75
g1951
sg68
(lp1958
S'C:\\Documents and Settings\\agrover\\Desktop\\previous crawler\\web2py\\applications\\mycrawler\\'
p1959
asbasbasbag61
(g77
g63
NtRp1960
(dp1961
g66
(dp1962
sg75
g71
sg68
(lp1963
g61
(g82
g63
NtRp1964
(dp1965
g66
(dp1966
g86
g87
ssg75
g1960
sg68
(lp1967
S'function'
p1968
asbag61
(g82
g63
NtRp1969
(dp1970
g66
(dp1971
g93
g94
ssg75
g1960
sg68
(lp1972
S':'
asbag61
(g82
g63
NtRp1973
(dp1974
g66
(dp1975
sg75
g1960
sg68
(lp1976
g61
(g62
g63
NtRp1977
(dp1978
g66
(dp1979
g74
I5
ssg75
g1973
sg68
(lp1980
S'search'
p1981
asbasbasbag61
(g77
g63
NtRp1982
(dp1983
g66
(dp1984
sg75
g71
sg68
(lp1985
g61
(g82
g63
NtRp1986
(dp1987
g66
(dp1988
g86
g87
ssg75
g1982
sg68
(lp1989
S'get_vars'
p1990
asbag61
(g82
g63
NtRp1991
(dp1992
g66
(dp1993
g93
g94
ssg75
g1982
sg68
(lp1994
S':'
asbag61
(g82
g63
NtRp1995
(dp1996
g66
(dp1997
sg75
g1982
sg68
(lp1998
g61
(g62
g63
NtRp1999
(dp2000
g66
(dp2001
g74
I5
ssg75
g1995
sg68
(lp2002
g61
(g70
g63
NtRp2003
(dp2004
g66
(dp2005
g74
I4
ssg75
Nsg68
(lp2006
sbasbasbasbag61
(g77
g63
NtRp2007
(dp2008
g66
(dp2009
sg75
g71
sg68
(lp2010
g61
(g82
g63
NtRp2011
(dp2012
g66
(dp2013
g86
g87
ssg75
g2007
sg68
(lp2014
S'global_settings'
p2015
asbag61
(g82
g63
NtRp2016
(dp2017
g66
(dp2018
g93
g94
ssg75
g2007
sg68
(lp2019
S':'
asbag61
(g82
g63
NtRp2020
(dp2021
g66
(dp2022
sg75
g2007
sg68
(lp2023
g61
(g62
g63
NtRp2024
(dp2025
g66
(dp2026
g74
I5
ssg75
g2020
sg68
(lp2027
g61
(g70
g63
NtRp2028
(dp2029
g66
(dp2030
g74
I4
ssg75
Nsg68
(lp2031
g61
(g77
g63
NtRp2032
(dp2033
g66
(dp2034
sg75
g2028
sg68
(lp2035
g61
(g82
g63
NtRp2036
(dp2037
g66
(dp2038
g86
g87
ssg75
g2032
sg68
(lp2039
g1023
asbag61
(g82
g63
NtRp2040
(dp2041
g66
(dp2042
g93
g94
ssg75
g2032
sg68
(lp2043
S':'
asbag61
(g82
g63
NtRp2044
(dp2045
g66
(dp2046
sg75
g2032
sg68
(lp2047
g61
(g62
g63
NtRp2048
(dp2049
g66
(dp2050
g74
I4
ssg75
g2044
sg68
(lp2051
S"set(['C:\\\\Documents and Settings\\\\agrover\\\\Desktop\\\\previous crawler\\\\web2py\\\\applications\\\\admin\\\\', 'C:\\\\Documents and Settings\\\\agrover\\\\Desktop\\\\previous crawler\\\\web2py\\\\applications\\\\mycrawler\\\\', 'C:\\\\Documents and Settings\\\\agrover\\\\Desktop\\\\previous crawler\\\\web2py\\\\applications\\\\welcome\\\\'])"
p2052
asbasbasbag61
(g77
g63
NtRp2053
(dp2054
g66
(dp2055
sg75
g2028
sg68
(lp2056
g61
(g82
g63
NtRp2057
(dp2058
g66
(dp2059
g86
g87
ssg75
g2053
sg68
(lp2060
g1045
asbag61
(g82
g63
NtRp2061
(dp2062
g66
(dp2063
g93
g94
ssg75
g2053
sg68
(lp2064
S':'
asbag61
(g82
g63
NtRp2065
(dp2066
g66
(dp2067
sg75
g2053
sg68
(lp2068
g61
(g62
g63
NtRp2069
(dp2070
g66
(dp2071
g74
I4
ssg75
g2065
sg68
(lp2072
g1058
asbasbasbag61
(g77
g63
NtRp2073
(dp2074
g66
(dp2075
sg75
g2028
sg68
(lp2076
g61
(g82
g63
NtRp2077
(dp2078
g66
(dp2079
g86
g87
ssg75
g2073
sg68
(lp2080
g1067
asbag61
(g82
g63
NtRp2081
(dp2082
g66
(dp2083
g93
g94
ssg75
g2073
sg68
(lp2084
S':'
asbag61
(g82
g63
NtRp2085
(dp2086
g66
(dp2087
sg75
g2073
sg68
(lp2088
g61
(g62
g63
NtRp2089
(dp2090
g66
(dp2091
g74
I4
ssg75
g2085
sg68
(lp2092
g61
(g70
g63
NtRp2093
(dp2094
g66
(dp2095
g74
I3
ssg75
Nsg68
(lp2096
sbasbasbasbag61
(g77
g63
NtRp2097
(dp2098
g66
(dp2099
sg75
g2028
sg68
(lp2100
g61
(g82
g63
NtRp2101
(dp2102
g66
(dp2103
g86
g87
ssg75
g2097
sg68
(lp2104
g1092
asbag61
(g82
g63
NtRp2105
(dp2106
g66
(dp2107
g93
g94
ssg75
g2097
sg68
(lp2108
S':'
asbag61
(g82
g63
NtRp2109
(dp2110
g66
(dp2111
sg75
g2097
sg68
(lp2112
g61
(g62
g63
NtRp2113
(dp2114
g66
(dp2115
g74
I4
ssg75
g2109
sg68
(lp2116
S"<Values at 0x16d63f0: {'verbose': False, 'ip': '127.0.0.1', 'shutdown_timeout': 5, 'taskbar': False, 'nocron': False, 'pid_filename': 'httpserver.pid', 'maxthreads': None, 'softcron': False, 'server_name': 'mniagrover', 'bpython': False, 'nogui': False, 'port': 8000, 'extcron': False, 'debuglevel': 30, 'test': None, 'folder': 'C:\\\\Documents and Settings\\\\agrover\\\\Desktop\\\\previous crawler\\\\web2py', 'config': '', 'import_models': False, 'winservice': '', 'shell': None, 'run': '', 'log_filename': 'httpserver.log', 'args': [''], 'socket_timeout': 5, 'ssl_ca_certificate': None, 'scheduler': None, 'profiler_filename': None, 'ssl_private_key': '', 'password': '<ask>', 'request_queue_size': 5, 'ssl_certificate': '', 'cronjob': False, 'numthreads': None, 'quiet': False, 'interfaces': None, 'minthreads': None, 'timeout': 10, 'plain': False, 'nobanner': False}>"
p2117
asbasbasbag61
(g77
g63
NtRp2118
(dp2119
g66
(dp2120
sg75
g2028
sg68
(lp2121
g61
(g82
g63
NtRp2122
(dp2123
g66
(dp2124
g86
g87
ssg75
g2118
sg68
(lp2125
g1114
asbag61
(g82
g63
NtRp2126
(dp2127
g66
(dp2128
g93
g94
ssg75
g2118
sg68
(lp2129
S':'
asbag61
(g82
g63
NtRp2130
(dp2131
g66
(dp2132
sg75
g2118
sg68
(lp2133
g61
(g62
g63
NtRp2134
(dp2135
g66
(dp2136
g74
I4
ssg75
g2130
sg68
(lp2137
S'set([])'
p2138
asbasbasbag61
(g77
g63
NtRp2139
(dp2140
g66
(dp2141
sg75
g2028
sg68
(lp2142
g61
(g82
g63
NtRp2143
(dp2144
g66
(dp2145
g86
g87
ssg75
g2139
sg68
(lp2146
g1136
asbag61
(g82
g63
NtRp2147
(dp2148
g66
(dp2149
g93
g94
ssg75
g2139
sg68
(lp2150
S':'
asbag61
(g82
g63
NtRp2151
(dp2152
g66
(dp2153
sg75
g2139
sg68
(lp2154
g61
(g62
g63
NtRp2155
(dp2156
g66
(dp2157
g74
I4
ssg75
g2151
sg68
(lp2158
g104
asbasbasbag61
(g77
g63
NtRp2159
(dp2160
g66
(dp2161
sg75
g2028
sg68
(lp2162
g61
(g82
g63
NtRp2163
(dp2164
g66
(dp2165
g86
g87
ssg75
g2159
sg68
(lp2166
g1157
asbag61
(g82
g63
NtRp2167
(dp2168
g66
(dp2169
g93
g94
ssg75
g2159
sg68
(lp2170
S':'
asbag61
(g82
g63
NtRp2171
(dp2172
g66
(dp2173
sg75
g2159
sg68
(lp2174
g61
(g62
g63
NtRp2175
(dp2176
g66
(dp2177
g74
I4
ssg75
g2171
sg68
(lp2178
g1170
asbasbasbag61
(g77
g63
NtRp2179
(dp2180
g66
(dp2181
sg75
g2028
sg68
(lp2182
g61
(g82
g63
NtRp2183
(dp2184
g66
(dp2185
g86
g87
ssg75
g2179
sg68
(lp2186
g1333
asbag61
(g82
g63
NtRp2187
(dp2188
g66
(dp2189
g93
g94
ssg75
g2179
sg68
(lp2190
S':'
asbag61
(g82
g63
NtRp2191
(dp2192
g66
(dp2193
sg75
g2179
sg68
(lp2194
g61
(g62
g63
NtRp2195
(dp2196
g66
(dp2197
g74
I4
ssg75
g2191
sg68
(lp2198
g104
asbasbasbag61
(g77
g63
NtRp2199
(dp2200
g66
(dp2201
sg75
g2028
sg68
(lp2202
g61
(g82
g63
NtRp2203
(dp2204
g66
(dp2205
g86
g87
ssg75
g2199
sg68
(lp2206
g1354
asbag61
(g82
g63
NtRp2207
(dp2208
g66
(dp2209
g93
g94
ssg75
g2199
sg68
(lp2210
S':'
asbag61
(g82
g63
NtRp2211
(dp2212
g66
(dp2213
sg75
g2199
sg68
(lp2214
g61
(g62
g63
NtRp2215
(dp2216
g66
(dp2217
g74
I4
ssg75
g2211
sg68
(lp2218
g104
asbasbasbag61
(g77
g63
NtRp2219
(dp2220
g66
(dp2221
sg75
g2028
sg68
(lp2222
g61
(g82
g63
NtRp2223
(dp2224
g66
(dp2225
g86
g87
ssg75
g2219
sg68
(lp2226
g1592
asbag61
(g82
g63
NtRp2227
(dp2228
g66
(dp2229
g93
g94
ssg75
g2219
sg68
(lp2230
S':'
asbag61
(g82
g63
NtRp2231
(dp2232
g66
(dp2233
sg75
g2219
sg68
(lp2234
g61
(g62
g63
NtRp2235
(dp2236
g66
(dp2237
g74
I4
ssg75
g2231
sg68
(lp2238
g1605
asbasbasbag61
(g77
g63
NtRp2239
(dp2240
g66
(dp2241
sg75
g2028
sg68
(lp2242
g61
(g82
g63
NtRp2243
(dp2244
g66
(dp2245
g86
g87
ssg75
g2239
sg68
(lp2246
g1635
asbag61
(g82
g63
NtRp2247
(dp2248
g66
(dp2249
g93
g94
ssg75
g2239
sg68
(lp2250
S':'
asbag61
(g82
g63
NtRp2251
(dp2252
g66
(dp2253
sg75
g2239
sg68
(lp2254
g61
(g62
g63
NtRp2255
(dp2256
g66
(dp2257
g74
I4
ssg75
g2251
sg68
(lp2258
g61
(g70
g63
NtRp2259
(dp2260
g66
(dp2261
g74
I3
ssg75
Nsg68
(lp2262
g61
(g77
g63
NtRp2263
(dp2264
g66
(dp2265
sg75
g2259
sg68
(lp2266
g61
(g82
g63
NtRp2267
(dp2268
g66
(dp2269
sg75
g2263
sg68
(lp2270
g61
(g62
g63
NtRp2271
(dp2272
g66
(dp2273
g74
I3
ssg75
g2267
sg68
(lp2274
S'1'
asbasbasbag61
(g77
g63
NtRp2275
(dp2276
g66
(dp2277
sg75
g2259
sg68
(lp2278
g61
(g82
g63
NtRp2279
(dp2280
g66
(dp2281
sg75
g2275
sg68
(lp2282
g61
(g62
g63
NtRp2283
(dp2284
g66
(dp2285
g74
I3
ssg75
g2279
sg68
(lp2286
S'99'
p2287
asbasbasbag61
(g77
g63
NtRp2288
(dp2289
g66
(dp2290
sg75
g2259
sg68
(lp2291
g61
(g82
g63
NtRp2292
(dp2293
g66
(dp2294
sg75
g2288
sg68
(lp2295
g61
(g62
g63
NtRp2296
(dp2297
g66
(dp2298
g74
I3
ssg75
g2292
sg68
(lp2299
S'7'
asbasbasbag61
(g77
g63
NtRp2300
(dp2301
g66
(dp2302
sg75
g2259
sg68
(lp2303
g61
(g82
g63
NtRp2304
(dp2305
g66
(dp2306
sg75
g2300
sg68
(lp2307
g61
(g62
g63
NtRp2308
(dp2309
g66
(dp2310
g74
I3
ssg75
g2304
sg68
(lp2311
S'datetime.datetime(2012, 3, 4, 22, 12, 8)'
p2312
asbasbasbag61
(g77
g63
NtRp2313
(dp2314
g66
(dp2315
sg75
g2259
sg68
(lp2316
g61
(g82
g63
NtRp2317
(dp2318
g66
(dp2319
sg75
g2313
sg68
(lp2320
g61
(g62
g63
NtRp2321
(dp2322
g66
(dp2323
g74
I3
ssg75
g2317
sg68
(lp2324
g1714
asbasbasbasbasbasbasbasbasbasbasbag61
(g77
g63
NtRp2325
(dp2326
g66
(dp2327
sg75
g71
sg68
(lp2328
g61
(g82
g63
NtRp2329
(dp2330
g66
(dp2331
g86
g87
ssg75
g2325
sg68
(lp2332
S'is_https'
p2333
asbag61
(g82
g63
NtRp2334
(dp2335
g66
(dp2336
g93
g94
ssg75
g2325
sg68
(lp2337
S':'
asbag61
(g82
g63
NtRp2338
(dp2339
g66
(dp2340
sg75
g2325
sg68
(lp2341
g61
(g62
g63
NtRp2342
(dp2343
g66
(dp2344
g74
I5
ssg75
g2338
sg68
(lp2345
g104
asbasbasbag61
(g77
g63
NtRp2346
(dp2347
g66
(dp2348
sg75
g71
sg68
(lp2349
g61
(g82
g63
NtRp2350
(dp2351
g66
(dp2352
g86
g87
ssg75
g2346
sg68
(lp2353
S'is_local'
p2354
asbag61
(g82
g63
NtRp2355
(dp2356
g66
(dp2357
g93
g94
ssg75
g2346
sg68
(lp2358
S':'
asbag61
(g82
g63
NtRp2359
(dp2360
g66
(dp2361
sg75
g2346
sg68
(lp2362
g61
(g62
g63
NtRp2363
(dp2364
g66
(dp2365
g74
I5
ssg75
g2359
sg68
(lp2366
g1823
asbasbasbag61
(g77
g63
NtRp2367
(dp2368
g66
(dp2369
sg75
g71
sg68
(lp2370
g61
(g82
g63
NtRp2371
(dp2372
g66
(dp2373
g86
g87
ssg75
g2367
sg68
(lp2374
S'is_restful'
p2375
asbag61
(g82
g63
NtRp2376
(dp2377
g66
(dp2378
g93
g94
ssg75
g2367
sg68
(lp2379
S':'
asbag61
(g82
g63
NtRp2380
(dp2381
g66
(dp2382
sg75
g2367
sg68
(lp2383
g61
(g62
g63
NtRp2384
(dp2385
g66
(dp2386
g74
I5
ssg75
g2380
sg68
(lp2387
g104
asbasbasbag61
(g77
g63
NtRp2388
(dp2389
g66
(dp2390
sg75
g71
sg68
(lp2391
g61
(g82
g63
NtRp2392
(dp2393
g66
(dp2394
g86
g87
ssg75
g2388
sg68
(lp2395
S'now'
p2396
asbag61
(g82
g63
NtRp2397
(dp2398
g66
(dp2399
g93
g94
ssg75
g2388
sg68
(lp2400
S':'
asbag61
(g82
g63
NtRp2401
(dp2402
g66
(dp2403
sg75
g2388
sg68
(lp2404
g61
(g62
g63
NtRp2405
(dp2406
g66
(dp2407
g74
I5
ssg75
g2401
sg68
(lp2408
S'datetime.datetime(2012, 6, 8, 10, 38, 34, 500000)'
p2409
asbasbasbag61
(g77
g63
NtRp2410
(dp2411
g66
(dp2412
sg75
g71
sg68
(lp2413
g61
(g82
g63
NtRp2414
(dp2415
g66
(dp2416
g86
g87
ssg75
g2410
sg68
(lp2417
S'post_vars'
p2418
asbag61
(g82
g63
NtRp2419
(dp2420
g66
(dp2421
g93
g94
ssg75
g2410
sg68
(lp2422
S':'
asbag61
(g82
g63
NtRp2423
(dp2424
g66
(dp2425
sg75
g2410
sg68
(lp2426
g61
(g62
g63
NtRp2427
(dp2428
g66
(dp2429
g74
I5
ssg75
g2423
sg68
(lp2430
g61
(g70
g63
NtRp2431
(dp2432
g66
(dp2433
g74
I4
ssg75
Nsg68
(lp2434
sbasbasbasbag61
(g77
g63
NtRp2435
(dp2436
g66
(dp2437
sg75
g71
sg68
(lp2438
g61
(g82
g63
NtRp2439
(dp2440
g66
(dp2441
g86
g87
ssg75
g2435
sg68
(lp2442
S'url'
p2443
asbag61
(g82
g63
NtRp2444
(dp2445
g66
(dp2446
g93
g94
ssg75
g2435
sg68
(lp2447
S':'
asbag61
(g82
g63
NtRp2448
(dp2449
g66
(dp2450
sg75
g2435
sg68
(lp2451
g61
(g62
g63
NtRp2452
(dp2453
g66
(dp2454
g74
I5
ssg75
g2448
sg68
(lp2455
S'/mycrawler/default/search'
p2456
asbasbasbag61
(g77
g63
NtRp2457
(dp2458
g66
(dp2459
sg75
g71
sg68
(lp2460
g61
(g82
g63
NtRp2461
(dp2462
g66
(dp2463
g86
g87
ssg75
g2457
sg68
(lp2464
S'utcnow'
p2465
asbag61
(g82
g63
NtRp2466
(dp2467
g66
(dp2468
g93
g94
ssg75
g2457
sg68
(lp2469
S':'
asbag61
(g82
g63
NtRp2470
(dp2471
g66
(dp2472
sg75
g2457
sg68
(lp2473
g61
(g62
g63
NtRp2474
(dp2475
g66
(dp2476
g74
I5
ssg75
g2470
sg68
(lp2477
S'datetime.datetime(2012, 6, 8, 17, 38, 34, 500000)'
p2478
asbasbasbag61
(g77
g63
NtRp2479
(dp2480
g66
(dp2481
sg75
g71
sg68
(lp2482
g61
(g82
g63
NtRp2483
(dp2484
g66
(dp2485
g86
g87
ssg75
g2479
sg68
(lp2486
S'uuid'
p2487
asbag61
(g82
g63
NtRp2488
(dp2489
g66
(dp2490
g93
g94
ssg75
g2479
sg68
(lp2491
S':'
asbag61
(g82
g63
NtRp2492
(dp2493
g66
(dp2494
sg75
g2479
sg68
(lp2495
g61
(g62
g63
NtRp2496
(dp2497
g66
(dp2498
g74
I5
ssg75
g2492
sg68
(lp2499
S'mycrawler/127.0.0.1.2012-06-08.10-38-34.91f7e852-131e-4353-a147-ce7924324393'
p2500
asbasbasbag61
(g77
g63
NtRp2501
(dp2502
g66
(dp2503
sg75
g71
sg68
(lp2504
g61
(g82
g63
NtRp2505
(dp2506
g66
(dp2507
g86
g87
ssg75
g2501
sg68
(lp2508
S'vars'
p2509
asbag61
(g82
g63
NtRp2510
(dp2511
g66
(dp2512
g93
g94
ssg75
g2501
sg68
(lp2513
S':'
asbag61
(g82
g63
NtRp2514
(dp2515
g66
(dp2516
sg75
g2501
sg68
(lp2517
g61
(g62
g63
NtRp2518
(dp2519
g66
(dp2520
g74
I5
ssg75
g2514
sg68
(lp2521
g61
(g70
g63
NtRp2522
(dp2523
g66
(dp2524
g74
I4
ssg75
Nsg68
(lp2525
sbasbasbasbag61
(g77
g63
NtRp2526
(dp2527
g66
(dp2528
sg75
g71
sg68
(lp2529
g61
(g82
g63
NtRp2530
(dp2531
g66
(dp2532
g86
g87
ssg75
g2526
sg68
(lp2533
S'wsgi'
p2534
asbag61
(g82
g63
NtRp2535
(dp2536
g66
(dp2537
g93
g94
ssg75
g2526
sg68
(lp2538
S':'
asbag61
(g82
g63
NtRp2539
(dp2540
g66
(dp2541
sg75
g2526
sg68
(lp2542
g61
(g62
g63
NtRp2543
(dp2544
g66
(dp2545
g74
I5
ssg75
g2539
sg68
(lp2546
g61
(g70
g63
NtRp2547
(dp2548
g66
(dp2549
g74
I4
ssg75
Nsg68
(lp2550
g61
(g77
g63
NtRp2551
(dp2552
g66
(dp2553
sg75
g2547
sg68
(lp2554
g61
(g82
g63
NtRp2555
(dp2556
g66
(dp2557
g86
g87
ssg75
g2551
sg68
(lp2558
S'environ'
p2559
asbag61
(g82
g63
NtRp2560
(dp2561
g66
(dp2562
g93
g94
ssg75
g2551
sg68
(lp2563
S':'
asbag61
(g82
g63
NtRp2564
(dp2565
g66
(dp2566
sg75
g2551
sg68
(lp2567
g61
(g62
g63
NtRp2568
(dp2569
g66
(dp2570
g74
I4
ssg75
g2564
sg68
(lp2571
g61
(g70
g63
NtRp2572
(dp2573
g66
(dp2574
g74
I3
ssg75
Nsg68
(lp2575
g61
(g77
g63
NtRp2576
(dp2577
g66
(dp2578
sg75
g2572
sg68
(lp2579
g61
(g82
g63
NtRp2580
(dp2581
g66
(dp2582
g86
g87
ssg75
g2576
sg68
(lp2583
S'HTTP_ACCEPT'
p2584
asbag61
(g82
g63
NtRp2585
(dp2586
g66
(dp2587
g93
g94
ssg75
g2576
sg68
(lp2588
S':'
asbag61
(g82
g63
NtRp2589
(dp2590
g66
(dp2591
sg75
g2576
sg68
(lp2592
g61
(g62
g63
NtRp2593
(dp2594
g66
(dp2595
g74
I3
ssg75
g2589
sg68
(lp2596
g1192
asbasbasbag61
(g77
g63
NtRp2597
(dp2598
g66
(dp2599
sg75
g2572
sg68
(lp2600
g61
(g82
g63
NtRp2601
(dp2602
g66
(dp2603
g86
g87
ssg75
g2597
sg68
(lp2604
S'HTTP_ACCEPT_ENCODING'
p2605
asbag61
(g82
g63
NtRp2606
(dp2607
g66
(dp2608
g93
g94
ssg75
g2597
sg68
(lp2609
S':'
asbag61
(g82
g63
NtRp2610
(dp2611
g66
(dp2612
sg75
g2597
sg68
(lp2613
g61
(g62
g63
NtRp2614
(dp2615
g66
(dp2616
g74
I3
ssg75
g2610
sg68
(lp2617
g1214
asbasbasbag61
(g77
g63
NtRp2618
(dp2619
g66
(dp2620
sg75
g2572
sg68
(lp2621
g61
(g82
g63
NtRp2622
(dp2623
g66
(dp2624
g86
g87
ssg75
g2618
sg68
(lp2625
S'HTTP_ACCEPT_LANGUAGE'
p2626
asbag61
(g82
g63
NtRp2627
(dp2628
g66
(dp2629
g93
g94
ssg75
g2618
sg68
(lp2630
S':'
asbag61
(g82
g63
NtRp2631
(dp2632
g66
(dp2633
sg75
g2618
sg68
(lp2634
g61
(g62
g63
NtRp2635
(dp2636
g66
(dp2637
g74
I3
ssg75
g2631
sg68
(lp2638
g1236
asbasbasbag61
(g77
g63
NtRp2639
(dp2640
g66
(dp2641
sg75
g2572
sg68
(lp2642
g61
(g82
g63
NtRp2643
(dp2644
g66
(dp2645
g86
g87
ssg75
g2639
sg68
(lp2646
S'HTTP_CONNECTION'
p2647
asbag61
(g82
g63
NtRp2648
(dp2649
g66
(dp2650
g93
g94
ssg75
g2639
sg68
(lp2651
S':'
asbag61
(g82
g63
NtRp2652
(dp2653
g66
(dp2654
sg75
g2639
sg68
(lp2655
g61
(g62
g63
NtRp2656
(dp2657
g66
(dp2658
g74
I3
ssg75
g2652
sg68
(lp2659
g1258
asbasbasbag61
(g77
g63
NtRp2660
(dp2661
g66
(dp2662
sg75
g2572
sg68
(lp2663
g61
(g82
g63
NtRp2664
(dp2665
g66
(dp2666
g86
g87
ssg75
g2660
sg68
(lp2667
S'HTTP_COOKIE'
p2668
asbag61
(g82
g63
NtRp2669
(dp2670
g66
(dp2671
g93
g94
ssg75
g2660
sg68
(lp2672
S':'
asbag61
(g82
g63
NtRp2673
(dp2674
g66
(dp2675
sg75
g2660
sg68
(lp2676
g61
(g62
g63
NtRp2677
(dp2678
g66
(dp2679
g74
I3
ssg75
g2673
sg68
(lp2680
g1280
asbasbasbag61
(g77
g63
NtRp2681
(dp2682
g66
(dp2683
sg75
g2572
sg68
(lp2684
g61
(g82
g63
NtRp2685
(dp2686
g66
(dp2687
g86
g87
ssg75
g2681
sg68
(lp2688
S'HTTP_HOST'
p2689
asbag61
(g82
g63
NtRp2690
(dp2691
g66
(dp2692
g93
g94
ssg75
g2681
sg68
(lp2693
S':'
asbag61
(g82
g63
NtRp2694
(dp2695
g66
(dp2696
sg75
g2681
sg68
(lp2697
g61
(g62
g63
NtRp2698
(dp2699
g66
(dp2700
g74
I3
ssg75
g2694
sg68
(lp2701
g1302
asbasbasbag61
(g77
g63
NtRp2702
(dp2703
g66
(dp2704
sg75
g2572
sg68
(lp2705
g61
(g82
g63
NtRp2706
(dp2707
g66
(dp2708
g86
g87
ssg75
g2702
sg68
(lp2709
S'HTTP_USER_AGENT'
p2710
asbag61
(g82
g63
NtRp2711
(dp2712
g66
(dp2713
g93
g94
ssg75
g2702
sg68
(lp2714
S':'
asbag61
(g82
g63
NtRp2715
(dp2716
g66
(dp2717
sg75
g2702
sg68
(lp2718
g61
(g62
g63
NtRp2719
(dp2720
g66
(dp2721
g74
I3
ssg75
g2715
sg68
(lp2722
g1324
asbasbasbag61
(g77
g63
NtRp2723
(dp2724
g66
(dp2725
sg75
g2572
sg68
(lp2726
g61
(g82
g63
NtRp2727
(dp2728
g66
(dp2729
g86
g87
ssg75
g2723
sg68
(lp2730
S'PATH_INFO'
p2731
asbag61
(g82
g63
NtRp2732
(dp2733
g66
(dp2734
g93
g94
ssg75
g2723
sg68
(lp2735
S':'
asbag61
(g82
g63
NtRp2736
(dp2737
g66
(dp2738
sg75
g2723
sg68
(lp2739
g61
(g62
g63
NtRp2740
(dp2741
g66
(dp2742
g74
I3
ssg75
g2736
sg68
(lp2743
g1388
asbasbasbag61
(g77
g63
NtRp2744
(dp2745
g66
(dp2746
sg75
g2572
sg68
(lp2747
g61
(g82
g63
NtRp2748
(dp2749
g66
(dp2750
g86
g87
ssg75
g2744
sg68
(lp2751
S'QUERY_STRING'
p2752
asbag61
(g82
g63
NtRp2753
(dp2754
g66
(dp2755
g93
g94
ssg75
g2744
sg68
(lp2756
S':'
asbag61
(g82
g63
NtRp2757
(dp2758
g66
(dp2759
sg75
g2744
sg68
(lp2760
g61
(g62
g63
NtRp2761
(dp2762
g66
(dp2763
g74
I3
ssg75
g2757
sg68
(lp2764
S''
asbasbasbag61
(g77
g63
NtRp2765
(dp2766
g66
(dp2767
sg75
g2572
sg68
(lp2768
g61
(g82
g63
NtRp2769
(dp2770
g66
(dp2771
g86
g87
ssg75
g2765
sg68
(lp2772
S'REMOTE_ADDR'
p2773
asbag61
(g82
g63
NtRp2774
(dp2775
g66
(dp2776
g93
g94
ssg75
g2765
sg68
(lp2777
S':'
asbag61
(g82
g63
NtRp2778
(dp2779
g66
(dp2780
sg75
g2765
sg68
(lp2781
g61
(g62
g63
NtRp2782
(dp2783
g66
(dp2784
g74
I3
ssg75
g2778
sg68
(lp2785
g194
asbasbasbag61
(g77
g63
NtRp2786
(dp2787
g66
(dp2788
sg75
g2572
sg68
(lp2789
g61
(g82
g63
NtRp2790
(dp2791
g66
(dp2792
g86
g87
ssg75
g2786
sg68
(lp2793
S'REMOTE_PORT'
p2794
asbag61
(g82
g63
NtRp2795
(dp2796
g66
(dp2797
g93
g94
ssg75
g2786
sg68
(lp2798
S':'
asbag61
(g82
g63
NtRp2799
(dp2800
g66
(dp2801
sg75
g2786
sg68
(lp2802
g61
(g62
g63
NtRp2803
(dp2804
g66
(dp2805
g74
I3
ssg75
g2799
sg68
(lp2806
g1452
asbasbasbag61
(g77
g63
NtRp2807
(dp2808
g66
(dp2809
sg75
g2572
sg68
(lp2810
g61
(g82
g63
NtRp2811
(dp2812
g66
(dp2813
g86
g87
ssg75
g2807
sg68
(lp2814
S'REQUEST_METHOD'
p2815
asbag61
(g82
g63
NtRp2816
(dp2817
g66
(dp2818
g93
g94
ssg75
g2807
sg68
(lp2819
S':'
asbag61
(g82
g63
NtRp2820
(dp2821
g66
(dp2822
sg75
g2807
sg68
(lp2823
g61
(g62
g63
NtRp2824
(dp2825
g66
(dp2826
g74
I3
ssg75
g2820
sg68
(lp2827
g1474
asbasbasbag61
(g77
g63
NtRp2828
(dp2829
g66
(dp2830
sg75
g2572
sg68
(lp2831
g61
(g82
g63
NtRp2832
(dp2833
g66
(dp2834
g86
g87
ssg75
g2828
sg68
(lp2835
S'SCRIPT_NAME'
p2836
asbag61
(g82
g63
NtRp2837
(dp2838
g66
(dp2839
g93
g94
ssg75
g2828
sg68
(lp2840
S':'
asbag61
(g82
g63
NtRp2841
(dp2842
g66
(dp2843
sg75
g2828
sg68
(lp2844
g61
(g62
g63
NtRp2845
(dp2846
g66
(dp2847
g74
I3
ssg75
g2841
sg68
(lp2848
S''
asbasbasbag61
(g77
g63
NtRp2849
(dp2850
g66
(dp2851
sg75
g2572
sg68
(lp2852
g61
(g82
g63
NtRp2853
(dp2854
g66
(dp2855
g86
g87
ssg75
g2849
sg68
(lp2856
S'SERVER_NAME'
p2857
asbag61
(g82
g63
NtRp2858
(dp2859
g66
(dp2860
g93
g94
ssg75
g2849
sg68
(lp2861
S':'
asbag61
(g82
g63
NtRp2862
(dp2863
g66
(dp2864
sg75
g2849
sg68
(lp2865
g61
(g62
g63
NtRp2866
(dp2867
g66
(dp2868
g74
I3
ssg75
g2862
sg68
(lp2869
g1517
asbasbasbag61
(g77
g63
NtRp2870
(dp2871
g66
(dp2872
sg75
g2572
sg68
(lp2873
g61
(g82
g63
NtRp2874
(dp2875
g66
(dp2876
g86
g87
ssg75
g2870
sg68
(lp2877
S'SERVER_PORT'
p2878
asbag61
(g82
g63
NtRp2879
(dp2880
g66
(dp2881
g93
g94
ssg75
g2870
sg68
(lp2882
S':'
asbag61
(g82
g63
NtRp2883
(dp2884
g66
(dp2885
sg75
g2870
sg68
(lp2886
g61
(g62
g63
NtRp2887
(dp2888
g66
(dp2889
g74
I3
ssg75
g2883
sg68
(lp2890
g1539
asbasbasbag61
(g77
g63
NtRp2891
(dp2892
g66
(dp2893
sg75
g2572
sg68
(lp2894
g61
(g82
g63
NtRp2895
(dp2896
g66
(dp2897
g86
g87
ssg75
g2891
sg68
(lp2898
S'SERVER_PROTOCOL'
p2899
asbag61
(g82
g63
NtRp2900
(dp2901
g66
(dp2902
g93
g94
ssg75
g2891
sg68
(lp2903
S':'
asbag61
(g82
g63
NtRp2904
(dp2905
g66
(dp2906
sg75
g2891
sg68
(lp2907
g61
(g62
g63
NtRp2908
(dp2909
g66
(dp2910
g74
I3
ssg75
g2904
sg68
(lp2911
g1561
asbasbasbag61
(g77
g63
NtRp2912
(dp2913
g66
(dp2914
sg75
g2572
sg68
(lp2915
g61
(g82
g63
NtRp2916
(dp2917
g66
(dp2918
g86
g87
ssg75
g2912
sg68
(lp2919
S'SERVER_SOFTWARE'
p2920
asbag61
(g82
g63
NtRp2921
(dp2922
g66
(dp2923
g93
g94
ssg75
g2912
sg68
(lp2924
S':'
asbag61
(g82
g63
NtRp2925
(dp2926
g66
(dp2927
sg75
g2912
sg68
(lp2928
g61
(g62
g63
NtRp2929
(dp2930
g66
(dp2931
g74
I3
ssg75
g2925
sg68
(lp2932
g1583
asbasbasbag61
(g77
g63
NtRp2933
(dp2934
g66
(dp2935
sg75
g2572
sg68
(lp2936
g61
(g82
g63
NtRp2937
(dp2938
g66
(dp2939
g86
g87
ssg75
g2933
sg68
(lp2940
S'wsgi.errors'
p2941
asbag61
(g82
g63
NtRp2942
(dp2943
g66
(dp2944
g93
g94
ssg75
g2933
sg68
(lp2945
S':'
asbag61
(g82
g63
NtRp2946
(dp2947
g66
(dp2948
sg75
g2933
sg68
(lp2949
g61
(g62
g63
NtRp2950
(dp2951
g66
(dp2952
g74
I3
ssg75
g2946
sg68
(lp2953
S"<open file '<stderr>', mode 'w' at 0x00A550D0>"
p2954
asbasbasbag61
(g77
g63
NtRp2955
(dp2956
g66
(dp2957
sg75
g2572
sg68
(lp2958
g61
(g82
g63
NtRp2959
(dp2960
g66
(dp2961
g86
g87
ssg75
g2955
sg68
(lp2962
S'wsgi.file_wrapper'
p2963
asbag61
(g82
g63
NtRp2964
(dp2965
g66
(dp2966
g93
g94
ssg75
g2955
sg68
(lp2967
S':'
asbag61
(g82
g63
NtRp2968
(dp2969
g66
(dp2970
sg75
g2955
sg68
(lp2971
g61
(g62
g63
NtRp2972
(dp2973
g66
(dp2974
g74
I3
ssg75
g2968
sg68
(lp2975
S'<class wsgiref.util.FileWrapper at 0x015E8AB0>'
p2976
asbasbasbag61
(g77
g63
NtRp2977
(dp2978
g66
(dp2979
sg75
g2572
sg68
(lp2980
g61
(g82
g63
NtRp2981
(dp2982
g66
(dp2983
g86
g87
ssg75
g2977
sg68
(lp2984
S'wsgi.input'
p2985
asbag61
(g82
g63
NtRp2986
(dp2987
g66
(dp2988
g93
g94
ssg75
g2977
sg68
(lp2989
S':'
asbag61
(g82
g63
NtRp2990
(dp2991
g66
(dp2992
sg75
g2977
sg68
(lp2993
g61
(g62
g63
NtRp2994
(dp2995
g66
(dp2996
g74
I3
ssg75
g2990
sg68
(lp2997
S'<cStringIO.StringO object at 0x04A0B6A0>'
p2998
asbasbasbag61
(g77
g63
NtRp2999
(dp3000
g66
(dp3001
sg75
g2572
sg68
(lp3002
g61
(g82
g63
NtRp3003
(dp3004
g66
(dp3005
g86
g87
ssg75
g2999
sg68
(lp3006
S'wsgi.multiprocess'
p3007
asbag61
(g82
g63
NtRp3008
(dp3009
g66
(dp3010
g93
g94
ssg75
g2999
sg68
(lp3011
S':'
asbag61
(g82
g63
NtRp3012
(dp3013
g66
(dp3014
sg75
g2999
sg68
(lp3015
g61
(g62
g63
NtRp3016
(dp3017
g66
(dp3018
g74
I3
ssg75
g3012
sg68
(lp3019
g104
asbasbasbag61
(g77
g63
NtRp3020
(dp3021
g66
(dp3022
sg75
g2572
sg68
(lp3023
g61
(g82
g63
NtRp3024
(dp3025
g66
(dp3026
g86
g87
ssg75
g3020
sg68
(lp3027
S'wsgi.multithread'
p3028
asbag61
(g82
g63
NtRp3029
(dp3030
g66
(dp3031
g93
g94
ssg75
g3020
sg68
(lp3032
S':'
asbag61
(g82
g63
NtRp3033
(dp3034
g66
(dp3035
sg75
g3020
sg68
(lp3036
g61
(g62
g63
NtRp3037
(dp3038
g66
(dp3039
g74
I3
ssg75
g3033
sg68
(lp3040
g1823
asbasbasbag61
(g77
g63
NtRp3041
(dp3042
g66
(dp3043
sg75
g2572
sg68
(lp3044
g61
(g82
g63
NtRp3045
(dp3046
g66
(dp3047
g86
g87
ssg75
g3041
sg68
(lp3048
S'wsgi.run_once'
p3049
asbag61
(g82
g63
NtRp3050
(dp3051
g66
(dp3052
g93
g94
ssg75
g3041
sg68
(lp3053
S':'
asbag61
(g82
g63
NtRp3054
(dp3055
g66
(dp3056
sg75
g3041
sg68
(lp3057
g61
(g62
g63
NtRp3058
(dp3059
g66
(dp3060
g74
I3
ssg75
g3054
sg68
(lp3061
g104
asbasbasbag61
(g77
g63
NtRp3062
(dp3063
g66
(dp3064
sg75
g2572
sg68
(lp3065
g61
(g82
g63
NtRp3066
(dp3067
g66
(dp3068
g86
g87
ssg75
g3062
sg68
(lp3069
S'wsgi.url_scheme'
p3070
asbag61
(g82
g63
NtRp3071
(dp3072
g66
(dp3073
g93
g94
ssg75
g3062
sg68
(lp3074
S':'
asbag61
(g82
g63
NtRp3075
(dp3076
g66
(dp3077
sg75
g3062
sg68
(lp3078
g61
(g62
g63
NtRp3079
(dp3080
g66
(dp3081
g74
I3
ssg75
g3075
sg68
(lp3082
g1866
asbasbasbag61
(g77
g63
NtRp3083
(dp3084
g66
(dp3085
sg75
g2572
sg68
(lp3086
g61
(g82
g63
NtRp3087
(dp3088
g66
(dp3089
g86
g87
ssg75
g3083
sg68
(lp3090
S'wsgi.version'
p3091
asbag61
(g82
g63
NtRp3092
(dp3093
g66
(dp3094
g93
g94
ssg75
g3083
sg68
(lp3095
S':'
asbag61
(g82
g63
NtRp3096
(dp3097
g66
(dp3098
sg75
g3083
sg68
(lp3099
g61
(g62
g63
NtRp3100
(dp3101
g66
(dp3102
g74
I3
ssg75
g3096
sg68
(lp3103
S'1'
asbasbasbasbasbasbasbasbasbasbasbasbasbsS'frames'
p3104
(lp3105
(dp3106
S'file'
p3107
S'C:\\Documents and Settings\\agrover\\Desktop\\previous crawler\\web2py\\gluon\\restricted.py'
p3108
sS'dump'
p3109
(dp3110
S'environment'
p3111
S"{'A': <class 'gluon.html.A'>, 'Auth': <class 'gluon.tools.Auth'>, 'B': <class 'gluon.html.B'>, 'BEAUTIFY': <class 'gluon.html.BEAUTIFY'>, 'BODY': <class 'gluon.html.BODY'>, 'BR': <class 'gluon.html.BR'>, 'BUTTON': <class 'gluon.html.BUTTON'>, 'CAT': <class 'gluon.html.CAT'>, 'CENTER': <class 'gluon.html.CENTER'>, 'CLEANUP': <class 'gluon.validators.CLEANUP'>, ...}"
p3112
sS'ccode'
p3113
S'<code object <module> at 01CCD5C0, file "C:\\Docu...tions\\mycrawler\\controllers/default.py", line 11>'
p3114
ssS'lnum'
p3115
I205
sS'lines'
p3116
(dp3117
I200
S'    try:'
p3118
sI201
S'        if type(code) == types.CodeType:'
p3119
sI202
S'            ccode = code'
p3120
sI203
S'        else:'
p3121
sI204
S'            ccode = compile2(code,layer)'
p3122
sI205
S'        exec ccode in environment'
p3123
sI206
S'    except HTTP:'
p3124
sI207
S'        raise'
p3125
sI208
S'    except RestrictedError:'
p3126
sI209
S'        # do not encapsulate (obfuscate) the original RestrictedError'
p3127
ssS'call'
p3128
S"(code='# -*- coding: utf-8 -*-\\n# this file is released ...urrent)\\n\\nresponse._vars=response._caller(search)\\n', environment={'A': <class 'gluon.html.A'>, 'Auth': <class 'gluon.tools.Auth'>, 'B': <class 'gluon.html.B'>, 'BEAUTIFY': <class 'gluon.html.BEAUTIFY'>, 'BODY': <class 'gluon.html.BODY'>, 'BR': <class 'gluon.html.BR'>, 'BUTTON': <class 'gluon.html.BUTTON'>, 'CAT': <class 'gluon.html.CAT'>, 'CENTER': <class 'gluon.html.CENTER'>, 'CLEANUP': <class 'gluon.validators.CLEANUP'>, ...}, layer=r'C:\\Documents and Settings\\agrover\\Desktop\\previo...2py\\applications\\mycrawler\\controllers/default.py')"
p3129
sS'func'
p3130
S'restricted'
p3131
sa(dp3132
g3107
S'C:\\Documents and Settings\\agrover\\Desktop\\previous crawler\\web2py\\applications\\mycrawler\\controllers\\default.py'
p3133
sg3109
(dp3134
sg3115
I291
sg3116
(dp3135
I288
S''
sI289
S'    return dict(view_profile=view_profile,name=name,location=location,industry=industry,titl=titl,current=current)'
p3136
sI280
S"    #response.headers['Content-Type'] = 'text/csv'"
p3137
sI281
S"    #response.headers['Content-Disposition'] = 'attachment; filename=%s' % request.vars.File_Name"
p3138
sI282
S''
sI283
S'    #print view_profile'
p3139
sI284
S'    #print name'
p3140
sI285
S'    #print location'
p3141
sI286
S'    #print industry'
p3142
sI287
S'    #print titl'
p3143
ssg3128
S'()'
p3144
sg3130
S'<module>'
p3145
sa(dp3146
g3107
S'C:\\Documents and Settings\\agrover\\Desktop\\previous crawler\\web2py\\gluon\\globals.py'
p3147
sg3109
(dp3148
S'self'
p3149
S'undefined'
p3150
sS'f'
S'<function search>'
p3151
ssg3115
I173
sg3116
(dp3152
I168
S'        self.menu = []             # used by the default view layout'
p3153
sI169
S'        self.files = []            # used by web2py_ajax.html'
p3154
sI170
S'        self.generic_patterns = [] # patterns to allow generic views'
p3155
sI171
S"        self.delimiters = ('{{','}}')"
p3156
sI172
S'        self._vars = None'
p3157
sI173
S'        self._caller = lambda f: f()'
p3158
sI174
S'        self._view_environment = None'
p3159
sI175
S'        self._custom_commit = None'
p3160
sI176
S'        self._custom_rollback = None'
p3161
sI177
S''
ssg3128
S'(f=<function search>)'
p3162
sg3130
S'<lambda>'
p3163
sa(dp3164
g3107
S'C:\\Documents and Settings\\agrover\\Desktop\\previous crawler\\web2py\\applications\\mycrawler\\controllers\\default.py'
p3165
sg3109
(dp3166
S'nr'
p3167
g3150
sS'br.select_form'
p3168
S'<bound method Browser.select_form of <mechanize._mechanize.Browser instance>>'
p3169
sS'br'
p3170
S'<mechanize._mechanize.Browser instance>'
p3171
ssg3115
I171
sg3116
(dp3172
I166
S''
sI167
S'    # Login'
p3173
sI168
S'    br.submit()'
p3174
sI169
S''
sI170
S"    br.open('http://www.linkedin.com/search?trk=advsrch')"
p3175
sI171
S'    br.select_form(nr=1)'
p3176
sI172
S'    #print br'
p3177
sI173
S''
sI174
S'    if request.vars.Last_Name:'
p3178
sI175
S'        br["lname"]=request.vars.Last_Name'
p3179
ssg3128
S'()'
p3180
sg3130
S'search'
p3181
sa(dp3182
g3107
S'C:\\Documents and Settings\\agrover\\Desktop\\previous crawler\\web2py\\build\\bdist.win32\\egg\\mechanize\\_mechanize.py'
p3183
sg3109
(dp3184
sg3115
I524
sg3116
(dp3185
I519
S'            if name is not None: description.append("name \'%s\'" % name)'
p3186
sI520
S'            if predicate is not None:'
p3187
sI521
S'                description.append("predicate %s" % predicate)'
p3188
sI522
S'            if orig_nr is not None: description.append("nr %d" % orig_nr)'
p3189
sI523
S'            description = ", ".join(description)'
p3190
sI524
S'            raise FormNotFoundError("no form matching "+description)'
p3191
sI525
S''
sI526
S'    def click(self, *args, **kwds):'
p3192
sI527
S'        """See mechanize.HTMLForm.click for documentation."""'
p3193
sI528
S'        if not self.viewing_html():'
p3194
ssg3128
S'(self=<mechanize._mechanize.Browser instance>, name=None, predicate=None, nr=0)'
p3195
sg3130
S'select_form'
p3196
sasS'pyver'
p3197
S'Python 2.7.3: C:\\Python27\\python.exe'
p3198
sS'session'
p3199
g61
(g62
g63
NtRp3200
(dp3201
g66
(dp3202
sg68
(lp3203
g61
(g70
g63
NtRp3204
(dp3205
g66
(dp3206
g74
I5
ssg75
Nsg68
(lp3207
sbasbsS'etype'
p3208
S"<class 'mechanize._mechanize.FormNotFoundError'>"
p3209
sS'date'
p3210
S'Fri Jun 08 10:38:43 2012'
p3211
sS'response'
p3212
g61
(g62
g63
NtRp3213
(dp3214
g66
(dp3215
sg68
(lp3216
g61
(g70
g63
NtRp3217
(dp3218
g66
(dp3219
g74
I5
ssg75
Nsg68
(lp3220
g61
(g77
g63
NtRp3221
(dp3222
g66
(dp3223
sg75
g3217
sg68
(lp3224
g61
(g82
g63
NtRp3225
(dp3226
g66
(dp3227
g86
g87
ssg75
g3221
sg68
(lp3228
g159
asbag61
(g82
g63
NtRp3229
(dp3230
g66
(dp3231
g93
g94
ssg75
g3221
sg68
(lp3232
S':'
asbag61
(g82
g63
NtRp3233
(dp3234
g66
(dp3235
sg75
g3221
sg68
(lp3236
g61
(g62
g63
NtRp3237
(dp3238
g66
(dp3239
g74
I5
ssg75
g3233
sg68
(lp3240
S'<cStringIO.StringO object at 0x04A0B020>'
p3241
asbasbasbag61
(g77
g63
NtRp3242
(dp3243
g66
(dp3244
sg75
g3217
sg68
(lp3245
g61
(g82
g63
NtRp3246
(dp3247
g66
(dp3248
g86
g87
ssg75
g3242
sg68
(lp3249
g225
asbag61
(g82
g63
NtRp3250
(dp3251
g66
(dp3252
g93
g94
ssg75
g3242
sg68
(lp3253
S':'
asbag61
(g82
g63
NtRp3254
(dp3255
g66
(dp3256
sg75
g3242
sg68
(lp3257
g61
(g62
g63
NtRp3258
(dp3259
g66
(dp3260
g74
I5
ssg75
g3254
sg68
(lp3261
g61
(g70
g63
NtRp3262
(dp3263
g66
(dp3264
g74
I4
ssg75
Nsg68
(lp3265
g61
(g77
g63
NtRp3266
(dp3267
g66
(dp3268
sg75
g3262
sg68
(lp3269
g61
(g82
g63
NtRp3270
(dp3271
g66
(dp3272
g86
g87
ssg75
g3266
sg68
(lp3273
S'session_id_mycrawler'
p3274
asbag61
(g82
g63
NtRp3275
(dp3276
g66
(dp3277
g93
g94
ssg75
g3266
sg68
(lp3278
S':'
asbag61
(g82
g63
NtRp3279
(dp3280
g66
(dp3281
sg75
g3266
sg68
(lp3282
g61
(g62
g63
NtRp3283
(dp3284
g66
(dp3285
g74
I4
ssg75
g3279
sg68
(lp3286
g61
(g70
g63
NtRp3287
(dp3288
g66
(dp3289
g74
I3
ssg75
Nsg68
(lp3290
g61
(g77
g63
NtRp3291
(dp3292
g66
(dp3293
sg75
g3287
sg68
(lp3294
g61
(g82
g63
NtRp3295
(dp3296
g66
(dp3297
g86
g87
ssg75
g3291
sg68
(lp3298
g275
asbag61
(g82
g63
NtRp3299
(dp3300
g66
(dp3301
g93
g94
ssg75
g3291
sg68
(lp3302
S':'
asbag61
(g82
g63
NtRp3303
(dp3304
g66
(dp3305
sg75
g3291
sg68
(lp3306
g61
(g62
g63
NtRp3307
(dp3308
g66
(dp3309
g74
I3
ssg75
g3303
sg68
(lp3310
S''
asbasbasbag61
(g77
g63
NtRp3311
(dp3312
g66
(dp3313
sg75
g3287
sg68
(lp3314
g61
(g82
g63
NtRp3315
(dp3316
g66
(dp3317
g86
g87
ssg75
g3311
sg68
(lp3318
g296
asbag61
(g82
g63
NtRp3319
(dp3320
g66
(dp3321
g93
g94
ssg75
g3311
sg68
(lp3322
S':'
asbag61
(g82
g63
NtRp3323
(dp3324
g66
(dp3325
sg75
g3311
sg68
(lp3326
g61
(g62
g63
NtRp3327
(dp3328
g66
(dp3329
g74
I3
ssg75
g3323
sg68
(lp3330
S''
asbasbasbag61
(g77
g63
NtRp3331
(dp3332
g66
(dp3333
sg75
g3287
sg68
(lp3334
g61
(g82
g63
NtRp3335
(dp3336
g66
(dp3337
g86
g87
ssg75
g3331
sg68
(lp3338
g317
asbag61
(g82
g63
NtRp3339
(dp3340
g66
(dp3341
g93
g94
ssg75
g3331
sg68
(lp3342
S':'
asbag61
(g82
g63
NtRp3343
(dp3344
g66
(dp3345
sg75
g3331
sg68
(lp3346
g61
(g62
g63
NtRp3347
(dp3348
g66
(dp3349
g74
I3
ssg75
g3343
sg68
(lp3350
S''
asbasbasbag61
(g77
g63
NtRp3351
(dp3352
g66
(dp3353
sg75
g3287
sg68
(lp3354
g61
(g82
g63
NtRp3355
(dp3356
g66
(dp3357
g86
g87
ssg75
g3351
sg68
(lp3358
g338
asbag61
(g82
g63
NtRp3359
(dp3360
g66
(dp3361
g93
g94
ssg75
g3351
sg68
(lp3362
S':'
asbag61
(g82
g63
NtRp3363
(dp3364
g66
(dp3365
sg75
g3351
sg68
(lp3366
g61
(g62
g63
NtRp3367
(dp3368
g66
(dp3369
g74
I3
ssg75
g3363
sg68
(lp3370
S''
asbasbasbag61
(g77
g63
NtRp3371
(dp3372
g66
(dp3373
sg75
g3287
sg68
(lp3374
g61
(g82
g63
NtRp3375
(dp3376
g66
(dp3377
g86
g87
ssg75
g3371
sg68
(lp3378
g359
asbag61
(g82
g63
NtRp3379
(dp3380
g66
(dp3381
g93
g94
ssg75
g3371
sg68
(lp3382
S':'
asbag61
(g82
g63
NtRp3383
(dp3384
g66
(dp3385
sg75
g3371
sg68
(lp3386
g61
(g62
g63
NtRp3387
(dp3388
g66
(dp3389
g74
I3
ssg75
g3383
sg68
(lp3390
S''
asbasbasbag61
(g77
g63
NtRp3391
(dp3392
g66
(dp3393
sg75
g3287
sg68
(lp3394
g61
(g82
g63
NtRp3395
(dp3396
g66
(dp3397
g86
g87
ssg75
g3391
sg68
(lp3398
g380
asbag61
(g82
g63
NtRp3399
(dp3400
g66
(dp3401
g93
g94
ssg75
g3391
sg68
(lp3402
S':'
asbag61
(g82
g63
NtRp3403
(dp3404
g66
(dp3405
sg75
g3391
sg68
(lp3406
g61
(g62
g63
NtRp3407
(dp3408
g66
(dp3409
g74
I3
ssg75
g3403
sg68
(lp3410
S'/'
asbasbasbag61
(g77
g63
NtRp3411
(dp3412
g66
(dp3413
sg75
g3287
sg68
(lp3414
g61
(g82
g63
NtRp3415
(dp3416
g66
(dp3417
g86
g87
ssg75
g3411
sg68
(lp3418
g401
asbag61
(g82
g63
NtRp3419
(dp3420
g66
(dp3421
g93
g94
ssg75
g3411
sg68
(lp3422
S':'
asbag61
(g82
g63
NtRp3423
(dp3424
g66
(dp3425
sg75
g3411
sg68
(lp3426
g61
(g62
g63
NtRp3427
(dp3428
g66
(dp3429
g74
I3
ssg75
g3423
sg68
(lp3430
S''
asbasbasbag61
(g77
g63
NtRp3431
(dp3432
g66
(dp3433
sg75
g3287
sg68
(lp3434
g61
(g82
g63
NtRp3435
(dp3436
g66
(dp3437
g86
g87
ssg75
g3431
sg68
(lp3438
g422
asbag61
(g82
g63
NtRp3439
(dp3440
g66
(dp3441
g93
g94
ssg75
g3431
sg68
(lp3442
S':'
asbag61
(g82
g63
NtRp3443
(dp3444
g66
(dp3445
sg75
g3431
sg68
(lp3446
g61
(g62
g63
NtRp3447
(dp3448
g66
(dp3449
g74
I3
ssg75
g3443
sg68
(lp3450
S''
asbasbasbasbasbasbasbasbasbasbasbag61
(g77
g63
NtRp3451
(dp3452
g66
(dp3453
sg75
g3217
sg68
(lp3454
g61
(g82
g63
NtRp3455
(dp3456
g66
(dp3457
g86
g87
ssg75
g3451
sg68
(lp3458
S'delimiters'
p3459
asbag61
(g82
g63
NtRp3460
(dp3461
g66
(dp3462
g93
g94
ssg75
g3451
sg68
(lp3463
S':'
asbag61
(g82
g63
NtRp3464
(dp3465
g66
(dp3466
sg75
g3451
sg68
(lp3467
g61
(g62
g63
NtRp3468
(dp3469
g66
(dp3470
g74
I5
ssg75
g3464
sg68
(lp3471
g61
(g70
g63
NtRp3472
(dp3473
g66
(dp3474
g74
I4
ssg75
Nsg68
(lp3475
g61
(g77
g63
NtRp3476
(dp3477
g66
(dp3478
sg75
g3472
sg68
(lp3479
g61
(g82
g63
NtRp3480
(dp3481
g66
(dp3482
sg75
g3476
sg68
(lp3483
g61
(g62
g63
NtRp3484
(dp3485
g66
(dp3486
g74
I4
ssg75
g3480
sg68
(lp3487
S'{{'
p3488
asbasbasbag61
(g77
g63
NtRp3489
(dp3490
g66
(dp3491
sg75
g3472
sg68
(lp3492
g61
(g82
g63
NtRp3493
(dp3494
g66
(dp3495
sg75
g3489
sg68
(lp3496
g61
(g62
g63
NtRp3497
(dp3498
g66
(dp3499
g74
I4
ssg75
g3493
sg68
(lp3500
S'}}'
p3501
asbasbasbasbasbasbasbag61
(g77
g63
NtRp3502
(dp3503
g66
(dp3504
sg75
g3217
sg68
(lp3505
g61
(g82
g63
NtRp3506
(dp3507
g66
(dp3508
g86
g87
ssg75
g3502
sg68
(lp3509
S'files'
p3510
asbag61
(g82
g63
NtRp3511
(dp3512
g66
(dp3513
g93
g94
ssg75
g3502
sg68
(lp3514
S':'
asbag61
(g82
g63
NtRp3515
(dp3516
g66
(dp3517
sg75
g3502
sg68
(lp3518
g61
(g62
g63
NtRp3519
(dp3520
g66
(dp3521
g74
I5
ssg75
g3515
sg68
(lp3522
g61
(g70
g63
NtRp3523
(dp3524
g66
(dp3525
g74
I4
ssg75
Nsg68
(lp3526
sbasbasbasbag61
(g77
g63
NtRp3527
(dp3528
g66
(dp3529
sg75
g3217
sg68
(lp3530
g61
(g82
g63
NtRp3531
(dp3532
g66
(dp3533
g86
g87
ssg75
g3527
sg68
(lp3534
S'flash'
p3535
asbag61
(g82
g63
NtRp3536
(dp3537
g66
(dp3538
g93
g94
ssg75
g3527
sg68
(lp3539
S':'
asbag61
(g82
g63
NtRp3540
(dp3541
g66
(dp3542
sg75
g3527
sg68
(lp3543
g61
(g62
g63
NtRp3544
(dp3545
g66
(dp3546
g74
I5
ssg75
g3540
sg68
(lp3547
S''
asbasbasbag61
(g77
g63
NtRp3548
(dp3549
g66
(dp3550
sg75
g3217
sg68
(lp3551
g61
(g82
g63
NtRp3552
(dp3553
g66
(dp3554
g86
g87
ssg75
g3548
sg68
(lp3555
S'generic_patterns'
p3556
asbag61
(g82
g63
NtRp3557
(dp3558
g66
(dp3559
g93
g94
ssg75
g3548
sg68
(lp3560
S':'
asbag61
(g82
g63
NtRp3561
(dp3562
g66
(dp3563
sg75
g3548
sg68
(lp3564
g61
(g62
g63
NtRp3565
(dp3566
g66
(dp3567
g74
I5
ssg75
g3561
sg68
(lp3568
g61
(g70
g63
NtRp3569
(dp3570
g66
(dp3571
g74
I4
ssg75
Nsg68
(lp3572
g61
(g77
g63
NtRp3573
(dp3574
g66
(dp3575
sg75
g3569
sg68
(lp3576
g61
(g82
g63
NtRp3577
(dp3578
g66
(dp3579
sg75
g3573
sg68
(lp3580
g61
(g62
g63
NtRp3581
(dp3582
g66
(dp3583
g74
I4
ssg75
g3577
sg68
(lp3584
S'*'
asbasbasbasbasbasbasbag61
(g77
g63
NtRp3585
(dp3586
g66
(dp3587
sg75
g3217
sg68
(lp3588
g61
(g82
g63
NtRp3589
(dp3590
g66
(dp3591
g86
g87
ssg75
g3585
sg68
(lp3592
S'headers'
p3593
asbag61
(g82
g63
NtRp3594
(dp3595
g66
(dp3596
g93
g94
ssg75
g3585
sg68
(lp3597
S':'
asbag61
(g82
g63
NtRp3598
(dp3599
g66
(dp3600
sg75
g3585
sg68
(lp3601
g61
(g62
g63
NtRp3602
(dp3603
g66
(dp3604
g74
I5
ssg75
g3598
sg68
(lp3605
g61
(g70
g63
NtRp3606
(dp3607
g66
(dp3608
g74
I4
ssg75
Nsg68
(lp3609
g61
(g77
g63
NtRp3610
(dp3611
g66
(dp3612
sg75
g3606
sg68
(lp3613
g61
(g82
g63
NtRp3614
(dp3615
g66
(dp3616
g86
g87
ssg75
g3610
sg68
(lp3617
S'Cache-Control'
p3618
asbag61
(g82
g63
NtRp3619
(dp3620
g66
(dp3621
g93
g94
ssg75
g3610
sg68
(lp3622
S':'
asbag61
(g82
g63
NtRp3623
(dp3624
g66
(dp3625
sg75
g3610
sg68
(lp3626
g61
(g62
g63
NtRp3627
(dp3628
g66
(dp3629
g74
I4
ssg75
g3623
sg68
(lp3630
S'no-store, no-cache, must-revalidate, post-check=0, pre-check=0'
p3631
asbasbasbag61
(g77
g63
NtRp3632
(dp3633
g66
(dp3634
sg75
g3606
sg68
(lp3635
g61
(g82
g63
NtRp3636
(dp3637
g66
(dp3638
g86
g87
ssg75
g3632
sg68
(lp3639
S'Content-Type'
p3640
asbag61
(g82
g63
NtRp3641
(dp3642
g66
(dp3643
g93
g94
ssg75
g3632
sg68
(lp3644
S':'
asbag61
(g82
g63
NtRp3645
(dp3646
g66
(dp3647
sg75
g3632
sg68
(lp3648
g61
(g62
g63
NtRp3649
(dp3650
g66
(dp3651
g74
I4
ssg75
g3645
sg68
(lp3652
S'text/html; charset=utf-8'
p3653
asbasbasbag61
(g77
g63
NtRp3654
(dp3655
g66
(dp3656
sg75
g3606
sg68
(lp3657
g61
(g82
g63
NtRp3658
(dp3659
g66
(dp3660
g86
g87
ssg75
g3654
sg68
(lp3661
S'Expires'
p3662
asbag61
(g82
g63
NtRp3663
(dp3664
g66
(dp3665
g93
g94
ssg75
g3654
sg68
(lp3666
S':'
asbag61
(g82
g63
NtRp3667
(dp3668
g66
(dp3669
sg75
g3654
sg68
(lp3670
g61
(g62
g63
NtRp3671
(dp3672
g66
(dp3673
g74
I4
ssg75
g3667
sg68
(lp3674
S'Fri, 08 Jun 2012 17:38:34 GMT'
p3675
asbasbasbag61
(g77
g63
NtRp3676
(dp3677
g66
(dp3678
sg75
g3606
sg68
(lp3679
g61
(g82
g63
NtRp3680
(dp3681
g66
(dp3682
g86
g87
ssg75
g3676
sg68
(lp3683
S'Pragma'
p3684
asbag61
(g82
g63
NtRp3685
(dp3686
g66
(dp3687
g93
g94
ssg75
g3676
sg68
(lp3688
S':'
asbag61
(g82
g63
NtRp3689
(dp3690
g66
(dp3691
sg75
g3676
sg68
(lp3692
g61
(g62
g63
NtRp3693
(dp3694
g66
(dp3695
g74
I4
ssg75
g3689
sg68
(lp3696
S'no-cache'
p3697
asbasbasbag61
(g77
g63
NtRp3698
(dp3699
g66
(dp3700
sg75
g3606
sg68
(lp3701
g61
(g82
g63
NtRp3702
(dp3703
g66
(dp3704
g86
g87
ssg75
g3698
sg68
(lp3705
S'X-Powered-By'
p3706
asbag61
(g82
g63
NtRp3707
(dp3708
g66
(dp3709
g93
g94
ssg75
g3698
sg68
(lp3710
S':'
asbag61
(g82
g63
NtRp3711
(dp3712
g66
(dp3713
sg75
g3698
sg68
(lp3714
g61
(g62
g63
NtRp3715
(dp3716
g66
(dp3717
g74
I4
ssg75
g3711
sg68
(lp3718
S'web2py'
p3719
asbasbasbasbasbasbasbag61
(g77
g63
NtRp3720
(dp3721
g66
(dp3722
sg75
g3217
sg68
(lp3723
g61
(g82
g63
NtRp3724
(dp3725
g66
(dp3726
g86
g87
ssg75
g3720
sg68
(lp3727
S'menu'
p3728
asbag61
(g82
g63
NtRp3729
(dp3730
g66
(dp3731
g93
g94
ssg75
g3720
sg68
(lp3732
S':'
asbag61
(g82
g63
NtRp3733
(dp3734
g66
(dp3735
sg75
g3720
sg68
(lp3736
g61
(g62
g63
NtRp3737
(dp3738
g66
(dp3739
g74
I5
ssg75
g3733
sg68
(lp3740
g61
(g70
g63
NtRp3741
(dp3742
g66
(dp3743
g74
I4
ssg75
Nsg68
(lp3744
g61
(g77
g63
NtRp3745
(dp3746
g66
(dp3747
sg75
g3741
sg68
(lp3748
g61
(g82
g63
NtRp3749
(dp3750
g66
(dp3751
sg75
g3745
sg68
(lp3752
g61
(g62
g63
NtRp3753
(dp3754
g66
(dp3755
g74
I4
ssg75
g3749
sg68
(lp3756
g61
(g70
g63
NtRp3757
(dp3758
g66
(dp3759
g74
I3
ssg75
Nsg68
(lp3760
g61
(g77
g63
NtRp3761
(dp3762
g66
(dp3763
sg75
g3757
sg68
(lp3764
g61
(g82
g63
NtRp3765
(dp3766
g66
(dp3767
sg75
g3761
sg68
(lp3768
g61
(g62
g63
NtRp3769
(dp3770
g66
(dp3771
g74
I3
ssg75
g3765
sg68
(lp3772
cgluon.languages
lazyT_unpickle
p3773
(S't\x04\x00\x00\x00Home'
tRp3774
asbasbasbag61
(g77
g63
NtRp3775
(dp3776
g66
(dp3777
sg75
g3757
sg68
(lp3778
g61
(g82
g63
NtRp3779
(dp3780
g66
(dp3781
sg75
g3775
sg68
(lp3782
g61
(g62
g63
NtRp3783
(dp3784
g66
(dp3785
g74
I3
ssg75
g3779
sg68
(lp3786
g104
asbasbasbag61
(g77
g63
NtRp3787
(dp3788
g66
(dp3789
sg75
g3757
sg68
(lp3790
g61
(g82
g63
NtRp3791
(dp3792
g66
(dp3793
sg75
g3787
sg68
(lp3794
g61
(g62
g63
NtRp3795
(dp3796
g66
(dp3797
g74
I3
ssg75
g3791
sg68
(lp3798
S'/mycrawler/default/index'
p3799
asbasbasbag61
(g77
g63
NtRp3800
(dp3801
g66
(dp3802
sg75
g3757
sg68
(lp3803
g61
(g82
g63
NtRp3804
(dp3805
g66
(dp3806
sg75
g3800
sg68
(lp3807
g61
(g62
g63
NtRp3808
(dp3809
g66
(dp3810
g74
I3
ssg75
g3804
sg68
(lp3811
g61
(g70
g63
NtRp3812
(dp3813
g66
(dp3814
g74
I2
ssg75
Nsg68
(lp3815
sbasbasbasbasbasbasbasbag61
(g77
g63
NtRp3816
(dp3817
g66
(dp3818
sg75
g3741
sg68
(lp3819
g61
(g82
g63
NtRp3820
(dp3821
g66
(dp3822
sg75
g3816
sg68
(lp3823
g61
(g62
g63
NtRp3824
(dp3825
g66
(dp3826
g74
I4
ssg75
g3820
sg68
(lp3827
g61
(g70
g63
NtRp3828
(dp3829
g66
(dp3830
g74
I3
ssg75
Nsg68
(lp3831
g61
(g77
g63
NtRp3832
(dp3833
g66
(dp3834
sg75
g3828
sg68
(lp3835
g61
(g82
g63
NtRp3836
(dp3837
g66
(dp3838
sg75
g3832
sg68
(lp3839
g61
(g62
g63
NtRp3840
(dp3841
g66
(dp3842
g74
I3
ssg75
g3836
sg68
(lp3843
g61
(cgluon.html
SPAN
p3844
g63
NtRp3845
(dp3846
g66
(dp3847
g86
S'color:yellow'
p3848
ssg75
Nsg68
(lp3849
g3719
asbasbasbasbag61
(g77
g63
NtRp3850
(dp3851
g66
(dp3852
sg75
g3828
sg68
(lp3853
g61
(g82
g63
NtRp3854
(dp3855
g66
(dp3856
sg75
g3850
sg68
(lp3857
g61
(g62
g63
NtRp3858
(dp3859
g66
(dp3860
g74
I3
ssg75
g3854
sg68
(lp3861
g104
asbasbasbag61
(g77
g63
NtRp3862
(dp3863
g66
(dp3864
sg75
g3828
sg68
(lp3865
g61
(g82
g63
NtRp3866
(dp3867
g66
(dp3868
sg75
g3862
sg68
(lp3869
g61
(g62
g63
NtRp3870
(dp3871
g66
(dp3872
g74
I3
ssg75
g3866
sg68
(lp3873
S'None'
p3874
asbasbasbag61
(g77
g63
NtRp3875
(dp3876
g66
(dp3877
sg75
g3828
sg68
(lp3878
g61
(g82
g63
NtRp3879
(dp3880
g66
(dp3881
sg75
g3875
sg68
(lp3882
g61
(g62
g63
NtRp3883
(dp3884
g66
(dp3885
g74
I3
ssg75
g3879
sg68
(lp3886
g61
(g70
g63
NtRp3887
(dp3888
g66
(dp3889
g74
I2
ssg75
Nsg68
(lp3890
g61
(g77
g63
NtRp3891
(dp3892
g66
(dp3893
sg75
g3887
sg68
(lp3894
g61
(g82
g63
NtRp3895
(dp3896
g66
(dp3897
sg75
g3891
sg68
(lp3898
g61
(g62
g63
NtRp3899
(dp3900
g66
(dp3901
g74
I2
ssg75
g3895
sg68
(lp3902
g61
(g70
g63
NtRp3903
(dp3904
g66
(dp3905
g74
I1
ssg75
Nsg68
(lp3906
g61
(g77
g63
NtRp3907
(dp3908
g66
(dp3909
sg75
g3903
sg68
(lp3910
g61
(g82
g63
NtRp3911
(dp3912
g66
(dp3913
sg75
g3907
sg68
(lp3914
g61
(g62
g63
NtRp3915
(dp3916
g66
(dp3917
g74
I1
ssg75
g3911
sg68
(lp3918
g3773
(S's\x08\x00\x00\x00My Sites'
tRp3919
asbasbasbag61
(g77
g63
NtRp3920
(dp3921
g66
(dp3922
sg75
g3903
sg68
(lp3923
g61
(g82
g63
NtRp3924
(dp3925
g66
(dp3926
sg75
g3920
sg68
(lp3927
g61
(g62
g63
NtRp3928
(dp3929
g66
(dp3930
g74
I1
ssg75
g3924
sg68
(lp3931
I00
asbasbasbag61
(g77
g63
NtRp3932
(dp3933
g66
(dp3934
sg75
g3903
sg68
(lp3935
g61
(g82
g63
NtRp3936
(dp3937
g66
(dp3938
sg75
g3932
sg68
(lp3939
g61
(g62
g63
NtRp3940
(dp3941
g66
(dp3942
g74
I1
ssg75
g3936
sg68
(lp3943
S'/admin/default/site'
p3944
asbasbasbasbasbasbasbag61
(g77
g63
NtRp3945
(dp3946
g66
(dp3947
sg75
g3887
sg68
(lp3948
g61
(g82
g63
NtRp3949
(dp3950
g66
(dp3951
sg75
g3945
sg68
(lp3952
g61
(g62
g63
NtRp3953
(dp3954
g66
(dp3955
g74
I2
ssg75
g3949
sg68
(lp3956
g61
(g70
g63
NtRp3957
(dp3958
g66
(dp3959
g74
I1
ssg75
Nsg68
(lp3960
g61
(g77
g63
NtRp3961
(dp3962
g66
(dp3963
sg75
g3957
sg68
(lp3964
g61
(g82
g63
NtRp3965
(dp3966
g66
(dp3967
sg75
g3961
sg68
(lp3968
g61
(g62
g63
NtRp3969
(dp3970
g66
(dp3971
g74
I1
ssg75
g3965
sg68
(lp3972
g3773
(S's\x08\x00\x00\x00This App'
tRp3973
asbasbasbag61
(g77
g63
NtRp3974
(dp3975
g66
(dp3976
sg75
g3957
sg68
(lp3977
g61
(g82
g63
NtRp3978
(dp3979
g66
(dp3980
sg75
g3974
sg68
(lp3981
g61
(g62
g63
NtRp3982
(dp3983
g66
(dp3984
g74
I1
ssg75
g3978
sg68
(lp3985
I00
asbasbasbag61
(g77
g63
NtRp3986
(dp3987
g66
(dp3988
sg75
g3957
sg68
(lp3989
g61
(g82
g63
NtRp3990
(dp3991
g66
(dp3992
sg75
g3986
sg68
(lp3993
g61
(g62
g63
NtRp3994
(dp3995
g66
(dp3996
g74
I1
ssg75
g3990
sg68
(lp3997
S'/admin/default/design/mycrawler'
p3998
asbasbasbag61
(g77
g63
NtRp3999
(dp4000
g66
(dp4001
sg75
g3957
sg68
(lp4002
g61
(g82
g63
NtRp4003
(dp4004
g66
(dp4005
sg75
g3999
sg68
(lp4006
g61
(g62
g63
NtRp4007
(dp4008
g66
(dp4009
g74
I1
ssg75
g4003
sg68
(lp4010
(lp4011
(g3773
(S't\n\x00\x00\x00Controller'
tRp4012
I00
S'/admin/default/edit/mycrawler/controllers/default.py'
tp4013
a(g3773
(S't\x04\x00\x00\x00View'
tRp4014
I00
S'/admin/default/edit/mycrawler/views/default/search.html'
tp4015
a(g3773
(S't\x06\x00\x00\x00Layout'
tRp4016
I00
S'/admin/default/edit/mycrawler/views/layout.html'
tp4017
a(g3773
(S't\n\x00\x00\x00Stylesheet'
tRp4018
I00
S'/admin/default/edit/mycrawler/static/css/web2py.css'
tp4019
a(g3773
(S's\x08\x00\x00\x00DB Model'
tRp4020
I00
S'/admin/default/edit/mycrawler/models/db.py'
tp4021
a(g3773
(S's\n\x00\x00\x00Menu Model'
tRp4022
I00
S'/admin/default/edit/mycrawler/models/menu.py'
tp4023
a(g3773
(S't\x08\x00\x00\x00Database'
tRp4024
I00
S'/mycrawler/appadmin/index'
tp4025
a(g3773
(S't\x06\x00\x00\x00Errors'
tRp4026
I00
S'/admin/default/errors/mycrawler'
tp4027
a(g3773
(S't\x05\x00\x00\x00About'
tRp4028
I00
S'/admin/default/about/mycrawler'
tp4029
aasbasbasbasbasbasbasbag61
(g77
g63
NtRp4030
(dp4031
g66
(dp4032
sg75
g3887
sg68
(lp4033
g61
(g82
g63
NtRp4034
(dp4035
g66
(dp4036
sg75
g4030
sg68
(lp4037
g61
(g62
g63
NtRp4038
(dp4039
g66
(dp4040
g74
I2
ssg75
g4034
sg68
(lp4041
g61
(g70
g63
NtRp4042
(dp4043
g66
(dp4044
g74
I1
ssg75
Nsg68
(lp4045
g61
(g77
g63
NtRp4046
(dp4047
g66
(dp4048
sg75
g4042
sg68
(lp4049
g61
(g82
g63
NtRp4050
(dp4051
g66
(dp4052
sg75
g4046
sg68
(lp4053
g61
(g62
g63
NtRp4054
(dp4055
g66
(dp4056
g74
I1
ssg75
g4050
sg68
(lp4057
S'web2py.com'
p4058
asbasbasbag61
(g77
g63
NtRp4059
(dp4060
g66
(dp4061
sg75
g4042
sg68
(lp4062
g61
(g82
g63
NtRp4063
(dp4064
g66
(dp4065
sg75
g4059
sg68
(lp4066
g61
(g62
g63
NtRp4067
(dp4068
g66
(dp4069
g74
I1
ssg75
g4063
sg68
(lp4070
I00
asbasbasbag61
(g77
g63
NtRp4071
(dp4072
g66
(dp4073
sg75
g4042
sg68
(lp4074
g61
(g82
g63
NtRp4075
(dp4076
g66
(dp4077
sg75
g4071
sg68
(lp4078
g61
(g62
g63
NtRp4079
(dp4080
g66
(dp4081
g74
I1
ssg75
g4075
sg68
(lp4082
S'http://www.web2py.com'
p4083
asbasbasbag61
(g77
g63
NtRp4084
(dp4085
g66
(dp4086
sg75
g4042
sg68
(lp4087
g61
(g82
g63
NtRp4088
(dp4089
g66
(dp4090
sg75
g4084
sg68
(lp4091
g61
(g62
g63
NtRp4092
(dp4093
g66
(dp4094
g74
I1
ssg75
g4088
sg68
(lp4095
(lp4096
(g3773
(S't\x08\x00\x00\x00Download'
tRp4097
I00
S'http://www.web2py.com/examples/default/download'
p4098
tp4099
a(g3773
(S't\x07\x00\x00\x00Support'
tRp4100
I00
S'http://www.web2py.com/examples/default/support'
p4101
tp4102
a(g3773
(S't\x04\x00\x00\x00Demo'
tRp4103
I00
S'http://web2py.com/demo_admin'
p4104
tp4105
a(g3773
(S's\x0e\x00\x00\x00Quick Examples'
tRp4106
I00
S'http://web2py.com/examples/default/examples'
p4107
tp4108
a(g3773
(S't\x03\x00\x00\x00FAQ'
tRp4109
I00
S'http://web2py.com/AlterEgo'
p4110
tp4111
a(g3773
(S't\x06\x00\x00\x00Videos'
tRp4112
I00
S'http://www.web2py.com/examples/default/videos/'
p4113
tp4114
a(g3773
(S's\x11\x00\x00\x00Free Applications'
tRp4115
I00
S'http://web2py.com/appliances'
p4116
tp4117
a(g3773
(S't\x07\x00\x00\x00Plugins'
tRp4118
I00
S'http://web2py.com/plugins'
p4119
tp4120
a(g3773
(S't\x07\x00\x00\x00Layouts'
tRp4121
I00
S'http://web2py.com/layouts'
p4122
tp4123
a(g3773
(S't\x07\x00\x00\x00Recipes'
tRp4124
I00
S'http://web2pyslices.com/'
p4125
tp4126
a(g3773
(S't\x08\x00\x00\x00Semantic'
tRp4127
I00
S'http://web2py.com/semantic'
p4128
tp4129
aasbasbasbasbasbasbasbag61
(g77
g63
NtRp4130
(dp4131
g66
(dp4132
sg75
g3887
sg68
(lp4133
g61
(g82
g63
NtRp4134
(dp4135
g66
(dp4136
sg75
g4130
sg68
(lp4137
g61
(g62
g63
NtRp4138
(dp4139
g66
(dp4140
g74
I2
ssg75
g4134
sg68
(lp4141
g61
(g70
g63
NtRp4142
(dp4143
g66
(dp4144
g74
I1
ssg75
Nsg68
(lp4145
g61
(g77
g63
NtRp4146
(dp4147
g66
(dp4148
sg75
g4142
sg68
(lp4149
g61
(g82
g63
NtRp4150
(dp4151
g66
(dp4152
sg75
g4146
sg68
(lp4153
g61
(g62
g63
NtRp4154
(dp4155
g66
(dp4156
g74
I1
ssg75
g4150
sg68
(lp4157
g3773
(S't\r\x00\x00\x00Documentation'
tRp4158
asbasbasbag61
(g77
g63
NtRp4159
(dp4160
g66
(dp4161
sg75
g4142
sg68
(lp4162
g61
(g82
g63
NtRp4163
(dp4164
g66
(dp4165
sg75
g4159
sg68
(lp4166
g61
(g62
g63
NtRp4167
(dp4168
g66
(dp4169
g74
I1
ssg75
g4163
sg68
(lp4170
I00
asbasbasbag61
(g77
g63
NtRp4171
(dp4172
g66
(dp4173
sg75
g4142
sg68
(lp4174
g61
(g82
g63
NtRp4175
(dp4176
g66
(dp4177
sg75
g4171
sg68
(lp4178
g61
(g62
g63
NtRp4179
(dp4180
g66
(dp4181
g74
I1
ssg75
g4175
sg68
(lp4182
S'http://www.web2py.com/book'
p4183
asbasbasbag61
(g77
g63
NtRp4184
(dp4185
g66
(dp4186
sg75
g4142
sg68
(lp4187
g61
(g82
g63
NtRp4188
(dp4189
g66
(dp4190
sg75
g4184
sg68
(lp4191
g61
(g62
g63
NtRp4192
(dp4193
g66
(dp4194
g74
I1
ssg75
g4188
sg68
(lp4195
(lp4196
(g3773
(S't\x07\x00\x00\x00Preface'
tRp4197
I00
S'http://www.web2py.com/book/default/chapter/00'
p4198
tp4199
a(g3773
(S't\x0c\x00\x00\x00Introduction'
tRp4200
I00
S'http://www.web2py.com/book/default/chapter/01'
p4201
tp4202
a(g3773
(S't\x06\x00\x00\x00Python'
tRp4203
I00
S'http://www.web2py.com/book/default/chapter/02'
p4204
tp4205
a(g3773
(S't\x08\x00\x00\x00Overview'
tRp4206
I00
S'http://www.web2py.com/book/default/chapter/03'
p4207
tp4208
a(g3773
(S's\x08\x00\x00\x00The Core'
tRp4209
I00
S'http://www.web2py.com/book/default/chapter/04'
p4210
tp4211
a(g3773
(S's\t\x00\x00\x00The Views'
tRp4212
I00
S'http://www.web2py.com/book/default/chapter/05'
p4213
tp4214
a(g3773
(S't\x08\x00\x00\x00Database'
tRp4215
I00
S'http://www.web2py.com/book/default/chapter/06'
p4216
tp4217
a(g3773
(S's\x14\x00\x00\x00Forms and Validators'
tRp4218
I00
S'http://www.web2py.com/book/default/chapter/07'
p4219
tp4220
a(g3773
(S's\r\x00\x00\x00Email and SMS'
tRp4221
I00
S'http://www.web2py.com/book/default/chapter/08'
p4222
tp4223
a(g3773
(S's\x0e\x00\x00\x00Access Control'
tRp4224
I00
S'http://www.web2py.com/book/default/chapter/09'
p4225
tp4226
a(g3773
(S't\x08\x00\x00\x00Services'
tRp4227
I00
S'http://www.web2py.com/book/default/chapter/10'
p4228
tp4229
a(g3773
(S's\x0c\x00\x00\x00Ajax Recipes'
tRp4230
I00
S'http://www.web2py.com/book/default/chapter/11'
p4231
tp4232
a(g3773
(S's\x16\x00\x00\x00Components and Plugins'
tRp4233
I00
S'http://www.web2py.com/book/default/chapter/12'
p4234
tp4235
a(g3773
(S's\x12\x00\x00\x00Deployment Recipes'
tRp4236
I00
S'http://www.web2py.com/book/default/chapter/13'
p4237
tp4238
a(g3773
(S's\r\x00\x00\x00Other Recipes'
tRp4239
I00
S'http://www.web2py.com/book/default/chapter/14'
p4240
tp4241
a(g3773
(S's\r\x00\x00\x00Buy this book'
tRp4242
I00
S'http://stores.lulu.com/web2py'
p4243
tp4244
aasbasbasbasbasbasbasbag61
(g77
g63
NtRp4245
(dp4246
g66
(dp4247
sg75
g3887
sg68
(lp4248
g61
(g82
g63
NtRp4249
(dp4250
g66
(dp4251
sg75
g4245
sg68
(lp4252
g61
(g62
g63
NtRp4253
(dp4254
g66
(dp4255
g74
I2
ssg75
g4249
sg68
(lp4256
g61
(g70
g63
NtRp4257
(dp4258
g66
(dp4259
g74
I1
ssg75
Nsg68
(lp4260
g61
(g77
g63
NtRp4261
(dp4262
g66
(dp4263
sg75
g4257
sg68
(lp4264
g61
(g82
g63
NtRp4265
(dp4266
g66
(dp4267
sg75
g4261
sg68
(lp4268
g61
(g62
g63
NtRp4269
(dp4270
g66
(dp4271
g74
I1
ssg75
g4265
sg68
(lp4272
g3773
(S't\t\x00\x00\x00Community'
tRp4273
asbasbasbag61
(g77
g63
NtRp4274
(dp4275
g66
(dp4276
sg75
g4257
sg68
(lp4277
g61
(g82
g63
NtRp4278
(dp4279
g66
(dp4280
sg75
g4274
sg68
(lp4281
g61
(g62
g63
NtRp4282
(dp4283
g66
(dp4284
g74
I1
ssg75
g4278
sg68
(lp4285
I00
asbasbasbag61
(g77
g63
NtRp4286
(dp4287
g66
(dp4288
sg75
g4257
sg68
(lp4289
g61
(g82
g63
NtRp4290
(dp4291
g66
(dp4292
sg75
g4286
sg68
(lp4293
g61
(g62
g63
NtRp4294
(dp4295
g66
(dp4296
g74
I1
ssg75
g4290
sg68
(lp4297
Nasbasbasbag61
(g77
g63
NtRp4298
(dp4299
g66
(dp4300
sg75
g4257
sg68
(lp4301
g61
(g82
g63
NtRp4302
(dp4303
g66
(dp4304
sg75
g4298
sg68
(lp4305
g61
(g62
g63
NtRp4306
(dp4307
g66
(dp4308
g74
I1
ssg75
g4302
sg68
(lp4309
(lp4310
(g3773
(S't\x06\x00\x00\x00Groups'
tRp4311
I00
S'http://www.web2py.com/examples/default/usergroups'
p4312
tp4313
a(g3773
(S't\x07\x00\x00\x00Twitter'
tRp4314
I00
S'http://twitter.com/web2py'
p4315
tp4316
a(g3773
(S's\t\x00\x00\x00Live Chat'
tRp4317
I00
S'http://webchat.freenode.net/?channels=web2py'
p4318
tp4319
aasbasbasbasbasbasbasbag61
(g77
g63
NtRp4320
(dp4321
g66
(dp4322
sg75
g3887
sg68
(lp4323
g61
(g82
g63
NtRp4324
(dp4325
g66
(dp4326
sg75
g4320
sg68
(lp4327
g61
(g62
g63
NtRp4328
(dp4329
g66
(dp4330
g74
I2
ssg75
g4324
sg68
(lp4331
g61
(g70
g63
NtRp4332
(dp4333
g66
(dp4334
g74
I1
ssg75
Nsg68
(lp4335
g61
(g77
g63
NtRp4336
(dp4337
g66
(dp4338
sg75
g4332
sg68
(lp4339
g61
(g82
g63
NtRp4340
(dp4341
g66
(dp4342
sg75
g4336
sg68
(lp4343
g61
(g62
g63
NtRp4344
(dp4345
g66
(dp4346
g74
I1
ssg75
g4340
sg68
(lp4347
g3773
(S't\x07\x00\x00\x00Plugins'
tRp4348
asbasbasbag61
(g77
g63
NtRp4349
(dp4350
g66
(dp4351
sg75
g4332
sg68
(lp4352
g61
(g82
g63
NtRp4353
(dp4354
g66
(dp4355
sg75
g4349
sg68
(lp4356
g61
(g62
g63
NtRp4357
(dp4358
g66
(dp4359
g74
I1
ssg75
g4353
sg68
(lp4360
I00
asbasbasbag61
(g77
g63
NtRp4361
(dp4362
g66
(dp4363
sg75
g4332
sg68
(lp4364
g61
(g82
g63
NtRp4365
(dp4366
g66
(dp4367
sg75
g4361
sg68
(lp4368
g61
(g62
g63
NtRp4369
(dp4370
g66
(dp4371
g74
I1
ssg75
g4365
sg68
(lp4372
Nasbasbasbag61
(g77
g63
NtRp4373
(dp4374
g66
(dp4375
sg75
g4332
sg68
(lp4376
g61
(g82
g63
NtRp4377
(dp4378
g66
(dp4379
sg75
g4373
sg68
(lp4380
g61
(g62
g63
NtRp4381
(dp4382
g66
(dp4383
g74
I1
ssg75
g4377
sg68
(lp4384
(lp4385
(S'plugin_wiki'
p4386
I00
S'http://web2py.com/examples/default/download'
p4387
tp4388
a(g3773
(S's\r\x00\x00\x00Other Plugins'
tRp4389
I00
g4119
tp4390
a(g3773
(S's\x0e\x00\x00\x00Layout Plugins'
tRp4391
I00
g4122
tp4392
aasbasbasbasbasbasbasbasbasbasbasbasbasbasbasbasbasbasbasbag61
(g77
g63
NtRp4393
(dp4394
g66
(dp4395
sg75
g3217
sg68
(lp4396
g61
(g82
g63
NtRp4397
(dp4398
g66
(dp4399
g86
g87
ssg75
g4393
sg68
(lp4400
S'meta'
p4401
asbag61
(g82
g63
NtRp4402
(dp4403
g66
(dp4404
g93
g94
ssg75
g4393
sg68
(lp4405
S':'
asbag61
(g82
g63
NtRp4406
(dp4407
g66
(dp4408
sg75
g4393
sg68
(lp4409
g61
(g62
g63
NtRp4410
(dp4411
g66
(dp4412
g74
I5
ssg75
g4406
sg68
(lp4413
g61
(g70
g63
NtRp4414
(dp4415
g66
(dp4416
g74
I4
ssg75
Nsg68
(lp4417
g61
(g77
g63
NtRp4418
(dp4419
g66
(dp4420
sg75
g4414
sg68
(lp4421
g61
(g82
g63
NtRp4422
(dp4423
g66
(dp4424
g86
g87
ssg75
g4418
sg68
(lp4425
S'author'
p4426
asbag61
(g82
g63
NtRp4427
(dp4428
g66
(dp4429
g93
g94
ssg75
g4418
sg68
(lp4430
S':'
asbag61
(g82
g63
NtRp4431
(dp4432
g66
(dp4433
sg75
g4418
sg68
(lp4434
g61
(g62
g63
NtRp4435
(dp4436
g66
(dp4437
g74
I4
ssg75
g4431
sg68
(lp4438
S'Your Name <you@example.com>'
p4439
asbasbasbag61
(g77
g63
NtRp4440
(dp4441
g66
(dp4442
sg75
g4414
sg68
(lp4443
g61
(g82
g63
NtRp4444
(dp4445
g66
(dp4446
g86
g87
ssg75
g4440
sg68
(lp4447
S'copyright'
p4448
asbag61
(g82
g63
NtRp4449
(dp4450
g66
(dp4451
g93
g94
ssg75
g4440
sg68
(lp4452
S':'
asbag61
(g82
g63
NtRp4453
(dp4454
g66
(dp4455
sg75
g4440
sg68
(lp4456
g61
(g62
g63
NtRp4457
(dp4458
g66
(dp4459
g74
I4
ssg75
g4453
sg68
(lp4460
S'Copyright 2011'
p4461
asbasbasbag61
(g77
g63
NtRp4462
(dp4463
g66
(dp4464
sg75
g4414
sg68
(lp4465
g61
(g82
g63
NtRp4466
(dp4467
g66
(dp4468
g86
g87
ssg75
g4462
sg68
(lp4469
S'description'
p4470
asbag61
(g82
g63
NtRp4471
(dp4472
g66
(dp4473
g93
g94
ssg75
g4462
sg68
(lp4474
S':'
asbag61
(g82
g63
NtRp4475
(dp4476
g66
(dp4477
sg75
g4462
sg68
(lp4478
g61
(g62
g63
NtRp4479
(dp4480
g66
(dp4481
g74
I4
ssg75
g4475
sg68
(lp4482
S'a cool new app'
p4483
asbasbasbag61
(g77
g63
NtRp4484
(dp4485
g66
(dp4486
sg75
g4414
sg68
(lp4487
g61
(g82
g63
NtRp4488
(dp4489
g66
(dp4490
g86
g87
ssg75
g4484
sg68
(lp4491
S'generator'
p4492
asbag61
(g82
g63
NtRp4493
(dp4494
g66
(dp4495
g93
g94
ssg75
g4484
sg68
(lp4496
S':'
asbag61
(g82
g63
NtRp4497
(dp4498
g66
(dp4499
sg75
g4484
sg68
(lp4500
g61
(g62
g63
NtRp4501
(dp4502
g66
(dp4503
g74
I4
ssg75
g4497
sg68
(lp4504
S'Web2py Web Framework'
p4505
asbasbasbag61
(g77
g63
NtRp4506
(dp4507
g66
(dp4508
sg75
g4414
sg68
(lp4509
g61
(g82
g63
NtRp4510
(dp4511
g66
(dp4512
g86
g87
ssg75
g4506
sg68
(lp4513
S'keywords'
p4514
asbag61
(g82
g63
NtRp4515
(dp4516
g66
(dp4517
g93
g94
ssg75
g4506
sg68
(lp4518
S':'
asbag61
(g82
g63
NtRp4519
(dp4520
g66
(dp4521
sg75
g4506
sg68
(lp4522
g61
(g62
g63
NtRp4523
(dp4524
g66
(dp4525
g74
I4
ssg75
g4519
sg68
(lp4526
S'web2py, python, framework'
p4527
asbasbasbasbasbasbasbag61
(g77
g63
NtRp4528
(dp4529
g66
(dp4530
sg75
g3217
sg68
(lp4531
g61
(g82
g63
NtRp4532
(dp4533
g66
(dp4534
g86
g87
ssg75
g4528
sg68
(lp4535
S'postprocessing'
p4536
asbag61
(g82
g63
NtRp4537
(dp4538
g66
(dp4539
g93
g94
ssg75
g4528
sg68
(lp4540
S':'
asbag61
(g82
g63
NtRp4541
(dp4542
g66
(dp4543
sg75
g4528
sg68
(lp4544
g61
(g62
g63
NtRp4545
(dp4546
g66
(dp4547
g74
I5
ssg75
g4541
sg68
(lp4548
g61
(g70
g63
NtRp4549
(dp4550
g66
(dp4551
g74
I4
ssg75
Nsg68
(lp4552
sbasbasbasbag61
(g77
g63
NtRp4553
(dp4554
g66
(dp4555
sg75
g3217
sg68
(lp4556
g61
(g82
g63
NtRp4557
(dp4558
g66
(dp4559
g86
g87
ssg75
g4553
sg68
(lp4560
S'session_file'
p4561
asbag61
(g82
g63
NtRp4562
(dp4563
g66
(dp4564
g93
g94
ssg75
g4553
sg68
(lp4565
S':'
asbag61
(g82
g63
NtRp4566
(dp4567
g66
(dp4568
sg75
g4553
sg68
(lp4569
g61
(g62
g63
NtRp4570
(dp4571
g66
(dp4572
g74
I5
ssg75
g4566
sg68
(lp4573
S"<open file 'C:\\Documents and Settings\\agrover\\Desktop\\previous crawler\\web2py\\applications\\mycrawler\\sessions\\127.0.0.1-05d302d9-dfe2-4e60-ab26-5eeb721fac09', mode 'rb+' at 0x013D1F40>"
p4574
asbasbasbag61
(g77
g63
NtRp4575
(dp4576
g66
(dp4577
sg75
g3217
sg68
(lp4578
g61
(g82
g63
NtRp4579
(dp4580
g66
(dp4581
g86
g87
ssg75
g4575
sg68
(lp4582
S'session_filename'
p4583
asbag61
(g82
g63
NtRp4584
(dp4585
g66
(dp4586
g93
g94
ssg75
g4575
sg68
(lp4587
S':'
asbag61
(g82
g63
NtRp4588
(dp4589
g66
(dp4590
sg75
g4575
sg68
(lp4591
g61
(g62
g63
NtRp4592
(dp4593
g66
(dp4594
g74
I5
ssg75
g4588
sg68
(lp4595
S'C:\\Documents and Settings\\agrover\\Desktop\\previous crawler\\web2py\\applications\\mycrawler\\sessions\\127.0.0.1-05d302d9-dfe2-4e60-ab26-5eeb721fac09'
p4596
asbasbasbag61
(g77
g63
NtRp4597
(dp4598
g66
(dp4599
sg75
g3217
sg68
(lp4600
g61
(g82
g63
NtRp4601
(dp4602
g66
(dp4603
g86
g87
ssg75
g4597
sg68
(lp4604
S'session_id'
p4605
asbag61
(g82
g63
NtRp4606
(dp4607
g66
(dp4608
g93
g94
ssg75
g4597
sg68
(lp4609
S':'
asbag61
(g82
g63
NtRp4610
(dp4611
g66
(dp4612
sg75
g4597
sg68
(lp4613
g61
(g62
g63
NtRp4614
(dp4615
g66
(dp4616
g74
I5
ssg75
g4610
sg68
(lp4617
S'127.0.0.1-05d302d9-dfe2-4e60-ab26-5eeb721fac09'
p4618
asbasbasbag61
(g77
g63
NtRp4619
(dp4620
g66
(dp4621
sg75
g3217
sg68
(lp4622
g61
(g82
g63
NtRp4623
(dp4624
g66
(dp4625
g86
g87
ssg75
g4619
sg68
(lp4626
S'session_id_name'
p4627
asbag61
(g82
g63
NtRp4628
(dp4629
g66
(dp4630
g93
g94
ssg75
g4619
sg68
(lp4631
S':'
asbag61
(g82
g63
NtRp4632
(dp4633
g66
(dp4634
sg75
g4619
sg68
(lp4635
g61
(g62
g63
NtRp4636
(dp4637
g66
(dp4638
g74
I5
ssg75
g4632
sg68
(lp4639
g3274
asbasbasbag61
(g77
g63
NtRp4640
(dp4641
g66
(dp4642
sg75
g3217
sg68
(lp4643
g61
(g82
g63
NtRp4644
(dp4645
g66
(dp4646
g86
g87
ssg75
g4640
sg68
(lp4647
S'session_locked'
p4648
asbag61
(g82
g63
NtRp4649
(dp4650
g66
(dp4651
g93
g94
ssg75
g4640
sg68
(lp4652
S':'
asbag61
(g82
g63
NtRp4653
(dp4654
g66
(dp4655
sg75
g4640
sg68
(lp4656
g61
(g62
g63
NtRp4657
(dp4658
g66
(dp4659
g74
I5
ssg75
g4653
sg68
(lp4660
g1823
asbasbasbag61
(g77
g63
NtRp4661
(dp4662
g66
(dp4663
sg75
g3217
sg68
(lp4664
g61
(g82
g63
NtRp4665
(dp4666
g66
(dp4667
g86
g87
ssg75
g4661
sg68
(lp4668
S'session_new'
p4669
asbag61
(g82
g63
NtRp4670
(dp4671
g66
(dp4672
g93
g94
ssg75
g4661
sg68
(lp4673
S':'
asbag61
(g82
g63
NtRp4674
(dp4675
g66
(dp4676
sg75
g4661
sg68
(lp4677
g61
(g62
g63
NtRp4678
(dp4679
g66
(dp4680
g74
I5
ssg75
g4674
sg68
(lp4681
g104
asbasbasbag61
(g77
g63
NtRp4682
(dp4683
g66
(dp4684
sg75
g3217
sg68
(lp4685
g61
(g82
g63
NtRp4686
(dp4687
g66
(dp4688
g86
g87
ssg75
g4682
sg68
(lp4689
S'status'
p4690
asbag61
(g82
g63
NtRp4691
(dp4692
g66
(dp4693
g93
g94
ssg75
g4682
sg68
(lp4694
S':'
asbag61
(g82
g63
NtRp4695
(dp4696
g66
(dp4697
sg75
g4682
sg68
(lp4698
g61
(g62
g63
NtRp4699
(dp4700
g66
(dp4701
g74
I5
ssg75
g4695
sg68
(lp4702
S'200'
p4703
asbasbasbag61
(g77
g63
NtRp4704
(dp4705
g66
(dp4706
sg75
g3217
sg68
(lp4707
g61
(g82
g63
NtRp4708
(dp4709
g66
(dp4710
g86
g87
ssg75
g4704
sg68
(lp4711
S'subtitle'
p4712
asbag61
(g82
g63
NtRp4713
(dp4714
g66
(dp4715
g93
g94
ssg75
g4704
sg68
(lp4716
S':'
asbag61
(g82
g63
NtRp4717
(dp4718
g66
(dp4719
sg75
g4704
sg68
(lp4720
g61
(g62
g63
NtRp4721
(dp4722
g66
(dp4723
g74
I5
ssg75
g4717
sg68
(lp4724
g3773
(S's\r\x00\x00\x00customize me!'
tRp4725
asbasbasbag61
(g77
g63
NtRp4726
(dp4727
g66
(dp4728
sg75
g3217
sg68
(lp4729
g61
(g82
g63
NtRp4730
(dp4731
g66
(dp4732
g86
g87
ssg75
g4726
sg68
(lp4733
S'title'
p4734
asbag61
(g82
g63
NtRp4735
(dp4736
g66
(dp4737
g93
g94
ssg75
g4726
sg68
(lp4738
S':'
asbag61
(g82
g63
NtRp4739
(dp4740
g66
(dp4741
sg75
g4726
sg68
(lp4742
g61
(g62
g63
NtRp4743
(dp4744
g66
(dp4745
g74
I5
ssg75
g4739
sg68
(lp4746
S'Mycrawler'
p4747
asbasbasbag61
(g77
g63
NtRp4748
(dp4749
g66
(dp4750
sg75
g3217
sg68
(lp4751
g61
(g82
g63
NtRp4752
(dp4753
g66
(dp4754
g86
g87
ssg75
g4748
sg68
(lp4755
g2487
asbag61
(g82
g63
NtRp4756
(dp4757
g66
(dp4758
g93
g94
ssg75
g4748
sg68
(lp4759
S':'
asbag61
(g82
g63
NtRp4760
(dp4761
g66
(dp4762
sg75
g4748
sg68
(lp4763
g61
(g62
g63
NtRp4764
(dp4765
g66
(dp4766
g74
I5
ssg75
g4760
sg68
(lp4767
g2500
asbasbasbag61
(g77
g63
NtRp4768
(dp4769
g66
(dp4770
sg75
g3217
sg68
(lp4771
g61
(g82
g63
NtRp4772
(dp4773
g66
(dp4774
g86
g87
ssg75
g4768
sg68
(lp4775
S'view'
p4776
asbag61
(g82
g63
NtRp4777
(dp4778
g66
(dp4779
g93
g94
ssg75
g4768
sg68
(lp4780
S':'
asbag61
(g82
g63
NtRp4781
(dp4782
g66
(dp4783
sg75
g4768
sg68
(lp4784
g61
(g62
g63
NtRp4785
(dp4786
g66
(dp4787
g74
I5
ssg75
g4781
sg68
(lp4788
S'default/search.html'
p4789
asbasbasbasbasbsS'locals'
p4790
(dp4791
S'predicate'
p4792
S'None'
p4793
sg4470
S"'nr 1'"
p4794
sS'form'
p4795
S'<mechanize._form.HTMLForm instance>'
p4796
sS'self'
p4797
S'<mechanize._mechanize.Browser instance>'
p4798
sS'global_form'
p4799
S'<mechanize._form.HTMLForm instance>'
p4800
sS'orig_nr'
p4801
S'1'
sS'nr'
p4802
S'0'
sS'name'
p4803
S'None'
p4804
sssS'traceback'
p4805
S'Traceback (most recent call last):\n  File "C:\\Documents and Settings\\agrover\\Desktop\\previous crawler\\web2py\\gluon\\restricted.py", line 205, in restricted\n    exec ccode in environment\n  File "C:\\Documents and Settings\\agrover\\Desktop\\previous crawler\\web2py\\applications\\mycrawler\\controllers/default.py", line 291, in <module>\n  File "C:\\Documents and Settings\\agrover\\Desktop\\previous crawler\\web2py\\gluon\\globals.py", line 173, in <lambda>\n    self._caller = lambda f: f()\n  File "C:\\Documents and Settings\\agrover\\Desktop\\previous crawler\\web2py\\applications\\mycrawler\\controllers/default.py", line 171, in search\n    br.select_form(nr=1)\n  File "build\\bdist.win32\\egg\\mechanize\\_mechanize.py", line 524, in select_form\n    raise FormNotFoundError("no form matching "+description)\nFormNotFoundError: no form matching nr 1\n'
p4806
s.