(dp1
S'output'
p2
S"<class 'mechanize._mechanize.FormNotFoundError'> no form matching nr 1"
p3
sS'layer'
p4
S'C:\\Documents and Settings\\agrover\\Desktop\\previous crawler\\web2py\\applications\\mycrawler\\controllers/default.py'
p5
sS'code'
p6
S'# -*- coding: utf-8 -*-\n# this file is released under public domain and you can use without limitations\n\n#########################################################################\n## This is a samples controller\n## - index is the default action of any application\n## - user is required for authentication and authorization\n## - download is for downloading files uploaded in the db (does streaming)\n## - call exposes all registered services (none by default)\n#########################################################################\nimport cStringIO\nimport csv\nimport re\ncountry=[\'United States\', \'Afghanistan\', \'Aland Islands\', \'Albania\', \'Algeria\', \'American Samoa\', \'Andorra\', \'Angola\', \'Anguilla\', \'Antarctica\', \'Antigua and Barbuda\', \'Argentina\', \'Armenia\', \'Aruba\', \'Australia\', \'Austria\', \'Azerbaijan\', \'Bahamas\', \'Bahrain\', \'Bangladesh\', \'Barbados\', \'Belarus\', \'Belgium\', \'Belize\', \'Benin\', \'Bermuda\', \'Bhutan\', \'Bolivia\', \'Bosnia and Herzegovina\', \'Botswana\', \'Brazil\', \'British Indian Ocean Territory\', \'Brunei Darussalam\', \'Bulgaria\', \'Burkina Faso\', \'Burundi\', \'Cambodia\', \'Cameroon\', \'Canada\', \'Cape Verde\', \'Caribbean Nations\', \'Cayman Islands\', \'Central African Republic\', \'Chad\', \'Chile\', \'China\', \'Christmas Island\', \'Cocos (Keeling) Islands\', \'Colombia\', \'Comoros\', \'Congo\', \'Cook Islands\', \'Costa Rica\', "Cote D\'Ivoire (Ivory Coast)", \'Croatia\', \'Cuba\', \'Cyprus\', \'Czech Republic\', \'Democratic Republic of the Congo\', \'Denmark\', \'Djibouti\', \'Dominica\', \'Dominican Republic\', \'East Timor\', \'Ecuador\', \'Egypt\', \'El Salvador\', \'Equatorial Guinea\', \'Eritrea\', \'Estonia\', \'Ethiopia\', \'Falkland Islands (Malvinas)\', \'Faroe Islands\', \'Federated States of Micronesia\', \'Fiji\', \'Finland\', \'France\', \'French Guiana\', \'French Polynesia\', \'French Southern Territories\', \'Gabon\', \'Gambia\', \'Georgia\', \'Germany\', \'Ghana\', \'Gibraltar\', \'Greece\', \'Greenland\', \'Grenada\', \'Guadeloupe\', \'Guam\', \'Guatemala\', \'Guernsey\', \'Guinea\', \'Guinea-Bissau\', \'Guyana\', \'Haiti\', \'Honduras\', \'Hong Kong\', \'Hungary\', \'Iceland\', \'India\', \'Indonesia\', \'Iran\', \'Iraq\', \'Ireland\', \'Isle of Man\', \'Israel\', \'Italy\', \'Jamaica\', \'Japan\', \'Jersey\', \'Jordan\', \'Kazakhstan\', \'Kenya\', \'Kiribati\', \'Korea\', \'Korea (North)\', \'Kuwait\', \'Kyrgyzstan\', \'Laos\', \'Latvia\', \'Lebanon\', \'Lesotho\', \'Liberia\', \'Libya\', \'Liechtenstein\', \'Lithuania\', \'Luxembourg\', \'Macao\', \'Macedonia\', \'Madagascar\', \'Malawi\', \'Malaysia\', \'Maldives\', \'Mali\', \'Malta\', \'Marshall Islands\', \'Martinique\', \'Mauritania\', \'Mauritius\', \'Mayotte\', \'Mexico\', \'Moldova\', \'Monaco\', \'Mongolia\', \'Montenegro\', \'Montserrat\', \'Morocco\', \'Mozambique\', \'Myanmar\', \'Namibia\', \'Nauru\', \'Nepal\', \'Netherlands\', \'Netherlands Antilles\', \'New Caledonia\', \'New Zealand\', \'Nicaragua\', \'Niger\', \'Nigeria\', \'Niue\', \'Norfolk Island\', \'Northern Mariana Islands\', \'Norway\', \'Oman\', \'Pakistan\', \'Palau\', \'Palestinian Territory\', \'Panama\', \'Papua New Guinea\', \'Paraguay\', \'Peru\', \'Philippines\', \'Pitcairn\', \'Poland\', \'Portugal\', \'Puerto Rico\', \'Qatar\', \'Reunion\', \'Romania\', \'Russian Federation\', \'Rwanda\', \'Saint Helena\', \'Saint Kitts and Nevis\', \'Saint Lucia\', \'Saint Pierre and Miquelon\', \'Saint Vincent and the Grenadines\', \'Samoa\', \'San Marino\', \'Sao Tome and Principe\', \'Saudi Arabia\', \'Senegal\', \'Serbia\', \'Seychelles\', \'Sierra Leone\', \'Singapore\', \'Slovak Republic\', \'Slovenia\', \'Solomon Islands\', \'Somalia\', \'South Africa\', \'Spain\', \'Sri Lanka\', \'Sudan\', \'Suriname\', \'Svalbard and Jan Mayen\', \'Swaziland\', \'Sweden\', \'Switzerland\', \'Syria\', \'Taiwan\', \'Tajikistan\', \'Tanzania\', \'Thailand\', \'Timor-Leste\', \'Togo\', \'Tokelau\', \'Tonga\', \'Trinidad and Tobago\', \'Tunisia\', \'Turkey\', \'Turkmenistan\', \'Turks and Caicos Islands\', \'Tuvalu\', \'Uganda\', \'Ukraine\', \'United Arab Emirates\', \'United Kingdom\', \'Uruguay\', \'Uzbekistan\', \'Vanuatu\', \'Vatican City State (Holy See)\', \'Venezuela\', \'Vietnam\', \'Virgin Islands (British)\', \'Virgin Islands (U.S.)\', \'Wallis and Futuna\', \'Western Sahara\', \'Yemen\', \'Zambia\', \'Zimbabwe\', \'Other\']\n    \ncountryid=[\'us\', \'af\', \'ax\', \'al\', \'dz\', \'as\', \'ad\', \'ao\', \'ai\', \'aq\', \'ag\', \'ar\', \'am\', \'aw\', \'au\', \'at\', \'az\', \'bs\', \'bh\', \'bd\', \'bb\', \'by\', \'be\', \'bz\', \'bj\', \'bm\', \'bt\', \'bo\', \'ba\', \'bw\', \'br\', \'io\', \'bn\', \'bg\', \'bf\', \'bi\', \'kh\', \'cm\', \'ca\', \'cv\', \'cb\', \'ky\', \'cf\', \'td\', \'cl\', \'cn\', \'cx\', \'cc\', \'co\', \'km\', \'cg\', \'ck\', \'cr\', \'ci\', \'hr\', \'cu\', \'cy\', \'cz\', \'cd\', \'dk\', \'dj\', \'dm\', \'do\', \'tp\', \'ec\', \'eg\', \'sv\', \'gq\', \'er\', \'ee\', \'et\', \'fk\', \'fo\', \'fm\', \'fj\', \'fi\', \'fr\', \'gf\', \'pf\', \'tf\', \'ga\', \'gm\', \'ge\', \'de\', \'gh\', \'gi\', \'gr\', \'gl\', \'gd\', \'gp\', \'gu\', \'gt\', \'gg\', \'gn\', \'gw\', \'gy\', \'ht\', \'hn\', \'hk\', \'hu\', \'is\', \'in\', \'id\', \'ir\', \'iq\', \'ie\', \'im\', \'il\', \'it\', \'jm\', \'jp\', \'je\', \'jo\', \'kz\', \'ke\', \'ki\', \'kr\', \'kp\', \'kw\', \'kg\', \'la\', \'lv\', \'lb\', \'ls\', \'lr\', \'ly\', \'li\', \'lt\', \'lu\', \'mo\', \'mk\', \'mg\', \'mw\', \'my\', \'mv\', \'ml\', \'mt\', \'mh\', \'mq\', \'mr\', \'mu\', \'yt\', \'mx\', \'md\', \'mc\', \'mn\', \'me\', \'ms\', \'ma\', \'mz\', \'mm\', \'na\', \'nr\', \'np\', \'nl\', \'an\', \'nc\', \'nz\', \'ni\', \'ne\', \'ng\', \'nu\', \'nf\', \'mp\', \'no\', \'om\', \'pk\', \'pw\', \'ps\', \'pa\', \'pg\', \'py\', \'pe\', \'ph\', \'pn\', \'pl\', \'pt\', \'pr\', \'qa\', \'re\', \'ro\', \'ru\', \'rw\', \'sh\', \'kn\', \'lc\', \'pm\', \'vc\', \'ws\', \'sm\', \'st\', \'sa\', \'sn\', \'rs\', \'sc\', \'sl\', \'sg\', \'sk\', \'si\', \'sb\', \'so\', \'za\', \'es\', \'lk\', \'sd\', \'sr\', \'sj\', \'sz\', \'se\', \'ch\', \'sy\', \'tw\', \'tj\', \'tz\', \'th\', \'tl\', \'tg\', \'tk\', \'to\', \'tt\', \'tn\', \'tr\', \'tm\', \'tc\', \'tv\', \'ug\', \'ua\', \'ae\', \'gb\', \'uy\', \'uz\', \'vu\', \'va\', \'ve\', \'vn\', \'vg\', \'vi\', \'wf\', \'eh\', \'ye\', \'zm\', \'zw\', \'oo\']\n\nindustries=[\'All Industries\',\'Accounting\', \'Airlines/Aviation\', \'Alternative Dispute Resolution\', \'Alternative Medicine\', \'Animation\', \'Apparel & Fashion\', \'Architecture & Planning\', \'Arts and Crafts\', \'Automotive\', \'Aviation & Aerospace\', \'Banking\', \'Biotechnology\', \'Broadcast Media\', \'Building Materials\', \'Business Supplies and Equipment\', \'Capital Markets\', \'Chemicals\', \'Civic & Social Organization\', \'Civil Engineering\', \'Commercial Real Estate\', \'Computer & Network Security\', \'Computer Games\', \'Computer Hardware\', \'Computer Networking\', \'Computer Software\', \'Construction\', \'Consumer Electronics\', \'Consumer Goods\', \'Consumer Services\', \'Cosmetics\', \'Dairy\', \'Defense & Space\', \'Design\', \'Education Management\', \'E-Learning\', \'Electrical/Electronic Manufacturing\', \'Entertainment\', \'Environmental Services\', \'Events Services\', \'Executive Office\', \'Facilities Services\', \'Farming\', \'Financial Services\', \'Fine Art\', \'Fishery\', \'Food & Beverages\', \'Food Production\', \'Fund-Raising\', \'Furniture\', \'Gambling & Casinos\', \'Glass, Ceramics & Concrete\', \'Government Administration\', \'Government Relations\', \'Graphic Design\', \'Health, Wellness and Fitness\', \'Higher Education\', \'Hospital & Health Care\', \'Hospitality\', \'Human Resources\', \'Import and Export\', \'Individual & Family Services\', \'Industrial Automation\', \'Information Services\', \'Information Technology and Services\', \'Insurance\', \'International Affairs\', \'International Trade and Development\', \'Internet\', \'Investment Banking\', \'Investment Management\', \'Judiciary\', \'Law Enforcement\', \'Law Practice\', \'Legal Services\', \'Legislative Office\', \'Leisure, Travel & Tourism\', \'Libraries\', \'Logistics and Supply Chain\', \'Luxury Goods & Jewelry\', \'Machinery\', \'Management Consulting\', \'Maritime\', \'Marketing and Advertising\', \'Market Research\', \'Mechanical or Industrial Engineering\', \'Media Production\', \'Medical Devices\', \'Medical Practice\', \'Mental Health Care\', \'Military\', \'Mining & Metals\', \'Motion Pictures and Film\', \'Museums and Institutions\', \'Music\', \'Nanotechnology\', \'Newspapers\', \'Nonprofit Organization Management\', \'Oil & Energy\', \'Online Media\', \'Outsourcing/Offshoring\', \'Package/Freight Delivery\', \'Packaging and Containers\', \'Paper & Forest Products\', \'Performing Arts\', \'Pharmaceuticals\', \'Philanthropy\', \'Photography\', \'Plastics\', \'Political Organization\', \'Primary/Secondary Education\', \'Printing\', \'Professional Training & Coaching\', \'Program Development\', \'Public Policy\', \'Public Relations and Communications\', \'Public Safety\', \'Publishing\', \'Railroad Manufacture\', \'Ranching\', \'Real Estate\', \'Recreational Facilities and Services\', \'Religious Institutions\', \'Renewables & Environment\', \'Research\', \'Restaurants\', \'Retail\', \'Security and Investigations\', \'Semiconductors\', \'Shipbuilding\', \'Sporting Goods\', \'Sports\', \'Staffing and Recruiting\', \'Supermarkets\', \'Telecommunications\', \'Textiles\', \'Think Tanks\', \'Tobacco\', \'Translation and Localization\', \'Transportation/Trucking/Railroad\', \'Utilities\', \'Venture Capital & Private Equity\', \'Veterinary\', \'Warehousing\', \'Wholesale\', \'Wine and Spirits\', \'Wireless\', \'Writing and Editing\']\n\nseniority=[\'All Seniority Levels\', \'Manager\', \'Owner\', \'Partner\', \'CXO\', \'VP\', \'Director\', \'Senior\', \'Entry\', \'Students & Interns\', \'Volunteer\']\n\nfunctions=[\'All Functions\', \'Academics\', \'Accounting\', \'Administrative\', \'Business development\', \'Buyer\', \'Consultant\', \'Creative\', \'Engineering\', \'Entrepreneur\', \'Finance\', \'Human resources\', \'Information technology\', \'Legal\', \'Marketing\', \'Medical\', \'Operations\', \'Product\', \'Public relations\', \'Real estate\', \'Sales\', \'Support\']\n\nimport mechanize\nimport cookielib\nimport html2text\nfrom bs4 import BeautifulSoup\n    \n    # Browser    \nbr = mechanize.Browser()\n\ndef index():\n    """\n    example action using the internationalization operator T and flash\n    rendered by views/default/index.html or views/generic.html\n    """\n    #response.flash = "Welcome to web2py!"\n    #return dict(message=T(\'Hello World\'))\n    \n    \n    #import mechanize\n    #import cookielib\n    #import html2text\n    #from bs4 import BeautifulSoup\n    \n    # Browser    \n   # br = mechanize.Browser()\n\n    # Cookie Jar\n    cj = cookielib.LWPCookieJar()\n    br.set_cookiejar(cj)\n\n    # Browser options\n    br.set_handle_equiv(True)\n    br.set_handle_gzip(True)\n    br.set_handle_redirect(True)\n    br.set_handle_referer(True)\n    br.set_handle_robots(False)\n\n    # Follows refresh 0 but not hangs on refresh > 0\n    br.set_handle_refresh(mechanize._http.HTTPRefreshProcessor(), max_time=1)\n\n    # User-Agent (this is cheating, ok?)\n    br.addheaders = [(\'User-agent\', \'Mozilla/5.0 (X11; U; Linux i686; en-US; rv:1.9.0.1) Gecko/2008071615 Fedora/3.0.1-1.fc9 Firefox/3.0.1\')]\n\n\n    # The site we will navigate into, handling it\'s session    \n    br.open(\'https://www.linkedin.com\')\n\n    # Select the first (index zero) form\n    br.select_form(nr=0)\n\n    # User credentials\n    br.form[\'session_key\'] = \'mrigeshgaurav@gmail.com\'\n    br.form[\'session_password\'] = \'modeln@1234\'\n\n\n    # Login by submitting form br\n    br.submit()\n    redirect(URL(r=request,f=\'enter_info\')) \n    \n\ndef user():\n    """\n    exposes:\n    http://..../[app]/default/user/login\n    http://..../[app]/default/user/logout\n    http://..../[app]/default/user/register\n    http://..../[app]/default/user/profile\n    http://..../[app]/default/user/retrieve_password\n    http://..../[app]/default/user/change_password\n    use @auth.requires_login()\n        @auth.requires_membership(\'group name\')\n        @auth.requires_permission(\'read\',\'table name\',record_id)\n    to decorate functions that need access control\n    """\n    return dict(form=auth())\n\n\ndef download():\n    """\n    allows downloading of uploaded files\n    http://..../[app]/default/download/[filename]\n    """\n    return response.download(request,db)\n\n\ndef call():\n    """\n    exposes services. for example:\n    http://..../[app]/default/call/jsonrpc\n    decorate with @services.jsonrpc the functions to expose\n    supports xml, json, xmlrpc, jsonrpc, amfrpc, rss, csv\n    """\n    return service()\n\n\n@auth.requires_signature()\ndef data():\n    """\n    http://..../[app]/default/data/tables\n    http://..../[app]/default/data/create/[table]\n    http://..../[app]/default/data/read/[table]/[id]\n    http://..../[app]/default/data/update/[table]/[id]\n    http://..../[app]/default/data/delete/[table]/[id]\n    http://..../[app]/default/data/select/[table]\n    http://..../[app]/default/data/search/[table]\n    but URLs must be signed, i.e. linked with\n      A(\'table\',_href=URL(\'data/tables\',user_signature=True))\n    or with the signed load operator\n      LOAD(\'default\',\'data.load\',args=\'tables\',ajax=True,user_signature=True)\n    """\n    return dict(form=crud())\n\n#def enter_info():\n\n#     form = SQLFORM.factory(\n#         Field(\'First_Name\'),\n#         Field(\'Last_Name\'),\n#         Field(\'Keywords\'),\n#         Field(\'Title\'),\n#         Field(\'Company\'),\n#         Field(\'School\'))\n         #Field(\'Submit\',\'submit\'))\n#    if form.process().accepted:\n#        response.flash = \'form accepted\'\n#    elif form.errors:\n#        response.flash = \'form has errors\'\n    \n    #form=FORM(\'First Name:\',INPUT(_name=\'fname\',_id=\'fname\'),\n     #         \'Last Name:\',INPUT(_name=\'lname\',_id=\'lname\'),\n      #        \'Keywords:\',INPUT(_name=\'keywords\',_id=\'keywords\'),\n       #       \'Title:\',INPUT(_name=\'title\',_id=\'title\'),\n       #       \'Company:\',INPUT(_name=\'company\',_id=\'company\'),\n       #       \'School:\',INPUT(_name=\'school\',_id=\'school\'),\n              \n        #      INPUT(_type=\'submit\',_value=\'Submit\',_id=\'submit\'))\n    #if form.accepts(request,session):\n    #    response.flash = \'form accepted\'\n    #    redirect(URL(r=request,f=\'search\',vars=request.vars))\n#    return dict(form=form\n    \ndef enter_info():\n    \n    form = SQLFORM.factory(\n       Field(\'First_Name\'),\n       Field(\'Last_Name\'),\n       Field(\'Keywords\'),\n       Field(\'Title\'),\n       Field(\'Company\'),\n       Field(\'School\'),\n       Field(\'File_Name\',requires=IS_NOT_EMPTY()),\n       Field(\'Country\',requires=IS_IN_SET(country),default=\'India\'),\n       Field(\'Industry\',requires=IS_IN_SET(industries,multiple=\'multiple\'),default=\'All Industries\'),\n       Field(\'Seniority_Levels\',requires=IS_IN_SET(seniority,multiple=\'multiple\'),default=\'All Seniority Levels\'),\n       Field(\'Functions\',requires=IS_IN_SET(functions,multiple=\'multiple\'),default=\'All Functions\'))\n    \n    if form.process().accepted:\n        response.flash = \'form accepted\'\n        redirect(URL(r=request,f=\'search\',vars=request.vars))\n    elif form.errors:\n        response.flash = \'form has errors\'\n    return dict(form=form)\n    \n\ndef search():\n    """\n    import mechanize\n    import cookielib\n    import html2text\n    from bs4 import BeautifulSoup\n    \n    # Browser    \n    br = mechanize.Browser()\n\n    # Cookie Jar\n    cj = cookielib.LWPCookieJar()\n    br.set_cookiejar(cj)\n\n    # Browser options\n    br.set_handle_equiv(True)\n    br.set_handle_gzip(True)\n    br.set_handle_redirect(True)\n    br.set_handle_referer(True)\n    br.set_handle_robots(False)\n\n    # Follows refresh 0 but not hangs on refresh > 0\n    br.set_handle_refresh(mechanize._http.HTTPRefreshProcessor(), max_time=1)\n\n    # User-Agent (this is cheating, ok?)\n    br.addheaders = [(\'User-agent\', \'Mozilla/5.0 (X11; U; Linux i686; en-US; rv:1.9.0.1) Gecko/2008071615 Fedora/3.0.1-1.fc9 Firefox/3.0.1\')]\n\n\n    # The site we will navigate into, handling it\'s session    \n    br.open(\'https://www.linkedin.com\')\n\n    # Select the first (index zero) form\n    br.select_form(nr=0)\n\n    # User credentials\n    br.form[\'session_key\'] = \'mrigeshgaurav@gmail.com\'\n    br.form[\'session_password\'] = \'modeln@1234\'\n\n\n    # Login by submitting form br\n    br.submit()\n    """\n    #opening the advanced search page straight away\n    br.open(\'http://www.linkedin.com/search?trk=advsrch\')\n    #selecting the 1st form\n    br.select_form(nr=1)\n\n    #entering various fields and filters\n    if request.vars.Last_Name:\n        br["lname"]=request.vars.Last_Name\n\n    if request.vars.First_Name:\n        br["fname"]=request.vars.First_Name\n    \n    if request.vars.Keywords:\n        br["keywords"]=request.vars.Keywords\n\n    if request.vars.Company:\n        br["company"]=request.vars.Company\n\n    if request.vars.School:\n        br["school"]=request.vars.School\n\n    if request.vars.Title:\n        br["title"]=request.vars.Title\n        \n    if request.vars.Country:\n        br["countryCode"]=[countryid[country.index(request.vars.Country)]]\n    \n    if request.vars.Industry and request.vars.Industry!=\'All Industries\':\n        if isinstance(request.vars.Industry,list):\n            for i in request.vars.Industry:\n                br.find_control("facet_I").items[industries.index(i)-1].selected=True\n        else:\n            br.find_control("facet_I").items[industries.index(request.vars.Industry)-1].selected=True\n            \n    if request.vars.Seniority_Levels and request.vars.Seniority_Levels!=\'All Seniority Levels\':\n        if isinstance(request.vars.Seniority_Levels,list):\n            for i in request.vars.Seniority_Levels:\n                br.find_control("facet_SE").items[seniority.index(i)-1].selected=True\n        else:\n            br.find_control("facet_SE").items[seniority.index(request.vars.Seniority_Levels)-1].selected=True\n            \n    if request.vars.Functions and request.vars.Functions!=\'All Functions\':\n        if isinstance(request.vars.Functions,list):\n            for i in request.vars.Functions:\n                br.find_control("facet_FA").items[functions.index(i)-1].selected=True\n        else:\n            br.find_control("facet_FA").items[functions.index(request.vars.Functions)-1].selected=True\n    \n    #submitting the form\n    br.submit()\n    \n    #lists for retreiving the required data\n    view_profile=[]\n    name=[]\n    titl=[]\n    location=[]\n    industry=[]\n    current=[]\n    \n    #flag to make sure we get entries on 1st page\n    flag=1\n    \n    #writing into file with given filename\n    spamWriter = csv.writer(open(request.vars.File_Name+\'.csv\', \'wb\'), delimiter=\',\')\n    soup = BeautifulSoup(br.response().read())\n    spamWriter.writerow([\'NAME\',\'JOB-TITLE\',\'Current\',\'LOCATION\',\'INDUSTRY\',\'PROFLE-URL\'])\n    \n    #scans till there is a link to "next page"\n    while soup.find(\'a\',{"class" : "paginator-next"}) or flag==1:\n        flag=0\n        soup = BeautifulSoup(br.response().read())\n        view_profile=[]\n        name=[]\n        titl=[]\n        location=[]\n        industry=[]\n        current=[]\n        \n        #parsing for the html response to get information\n        for k in soup.find_all(\'dl\',{"class" : "vcard-basic"}):\n            if k.find(\'dd\',{"class" : "title"}):\n                    titl.append(k.find(\'dd\',{"class" : "title"}).get_text())\n            else:\n                    titl.append(\'NONE\')\n                            \n            if k.find(\'span\',{"class" : "location"}):\n                    location.append(k.find(\'span\',{"class" : "location"}).get_text())\n            else:\n                    location.append(\'NONE\')\n            if k.find(\'span\',{"class" : "industry"}):\n                    industry.append(k.find(\'span\',{"class" : "industry"}).get_text())\n            else:\n                    industry.append(\'NONE\')\n                \n        for k in soup.find_all(\'dl\',{"class" : "vcard-expanded"}):\n            if k.find(\'span\',{"class" : "current-details more-text"}):\n                    current.append(k.find(\'span\',{"class" : "current-details more-text"}).get_text())\n            elif k.find(\'span\',{"class" : "current-details"}):\n                    current.append(k.find(\'span\',{"class" : "current-details"}).get_text())\n            else:\n                    current.append(\'NONE\')\n                \n        for l in soup.find_all(\'a\',{"title" : "View Profile"}):\n            view_profile.append(\'http://www.linkedin.com\'+l.get(\'href\'))\n            name.append(l.get_text().encode(\'utf-8\'))\n        \n        for i in range(0,len(name)):\n            try:\n                spamWriter.writerow([name[i][1:len(name[i])-1].encode(\'utf-8\'),titl[i].encode(\'utf-8\'),current[i].encode(\'utf-8\'),location[i][1:len(location[i])-1].encode(\'utf-8\'),industry[i][1:len(industry[i])-1].encode(\'utf-8\'),view_profile[i].encode(\'utf-8\')])\n            except:\n                continue\n        if soup.find(\'a\',{"class" : "paginator-next"}):\n            br.open(\'http://www.linkedin.com\'+ soup.find(\'a\',{"class" : "paginator-next"}).get(\'href\'))\n        #soup = BeautifulSoup(br.response().read())\n     \n    redirect(URL(r=request,f=\'enter_info\'))       \n\n    #for link in soup.find_all(\'a\'):\n    #    if link.get(\'title\')==\'View Profile\':\n    #        #print(link.get(\'href\'))\n    #        #print link.get_text()\n    #        view_profile.append(\'http://www.linkedin.com\'+link.get(\'href\'))\n    #        name.append(link.get_text())\n#for l in soup.find_all("span", { "class" : "given-name" }):\n    #print l.get_text()\n\n        \n\n#    for l in soup.find_all(\'dd\',{"class" : "title"}):\n        #print l.get_text()\n#        titl.append(l.get_text())\n    \n#    for l in soup.find_all(\'span\',{"class" : "location"}):\n        #print l.get_text()\n#        location.append(l.get_text())\n\n#    for l in soup.find_all(\'span\',{"class" : "industry"}):\n        #print l.get_text()\n#        industry.append(l.get_text())\n        \n#    for l in soup.find_all(\'span\', {"class" : "current-details"}):\n#        k=l.get_text()\n#        if k[len(k)-4:len(k)]!=\'more\':\n#            current.append(k)\n        #elif(l.get["class"]==\'current-details more text\'):\n        #    current.append(l.get_text())\n    #for l in soup.find_all(\'span\',{"class" : "current-details"}):\n        #print l.get_text()\n        #current.append(l.get_text())\n\n    \n    #global filename,csv_response\n\n    #csv_response = cStringIO.StringIO()\n    \n    #spamWriter = csv.writer(csv_response, delimiter=\',\')\n    \n    #spamWriter.writerow([\'NAME\',\'JOB-TITLE\',\'COMPANY-NAME\',\'LOCATION\',\'INDUSTRY\',\'PROFLE-URL\'])\n   \n    #spamWriter = csv.writer(open(request.vars.File_Name+\'.csv\', \'wb\'), delimiter=\',\')\n    #spamWriter.writerow([\'NAME\',\'JOB-TITLE\',\'Current\',\'LOCATION\',\'INDUSTRY\',\'PROFLE-URL\'])\n    #for i in range(1,10):\n    #    spamWriter.writerow([name[i].encode(\'utf-8\'),titl[i],current[i],location[i],industry[i],view_profile[i]])\n        \n        \n    #,titl[i],current[i],location[i],industry[i],view_profile[i]\n    #response.headers[\'Content-Type\'] = \'text/csv\'\n    #response.headers[\'Content-Disposition\'] = \'attachment; filename=%s\' % request.vars.File_Name\n\n    #print view_profile\n    #print name\n    #print location\n    #print industry\n    #print titl\n    \n    return dict(view_profile=view_profile,name=name,location=location,industry=industry,titl=titl,current=current)\n\nresponse._vars=response._caller(search)\n'
p7
sS'snapshot'
p8
(dp9
S'exception'
p10
(dp11
S'__module__'
p12
S"'mechanize._mechanize'"
p13
sS'__getslice__'
p14
S"<method-wrapper '__getslice__' of FormNotFoundError object>"
p15
sS'__str__'
p16
S"<method-wrapper '__str__' of FormNotFoundError object>"
p17
sS'__reduce__'
p18
S'<built-in method __reduce__ of FormNotFoundError object>'
p19
sS'__dict__'
p20
S'{}'
p21
sS'__sizeof__'
p22
S'<built-in method __sizeof__ of FormNotFoundError object>'
p23
sS'__weakref__'
p24
S'None'
p25
sS'__init__'
p26
S"<method-wrapper '__init__' of FormNotFoundError object>"
p27
sS'__setattr__'
p28
S"<method-wrapper '__setattr__' of FormNotFoundError object>"
p29
sS'__reduce_ex__'
p30
S'<built-in method __reduce_ex__ of FormNotFoundError object>'
p31
sS'__new__'
p32
S'<built-in method __new__ of type object>'
p33
sS'__format__'
p34
S'<built-in method __format__ of FormNotFoundError object>'
p35
sS'__class__'
p36
S"<class 'mechanize._mechanize.FormNotFoundError'>"
p37
sS'__doc__'
p38
S'None'
p39
sS'__getitem__'
p40
S"<method-wrapper '__getitem__' of FormNotFoundError object>"
p41
sS'__setstate__'
p42
S'<built-in method __setstate__ of FormNotFoundError object>'
p43
sS'__getattribute__'
p44
S"<method-wrapper '__getattribute__' of FormNotFoundError object>"
p45
sS'args'
p46
S"('no form matching nr 1',)"
p47
sS'__subclasshook__'
p48
S'<built-in method __subclasshook__ of type object>'
p49
sS'__unicode__'
p50
S'<built-in method __unicode__ of FormNotFoundError object>'
p51
sS'__delattr__'
p52
S"<method-wrapper '__delattr__' of FormNotFoundError object>"
p53
sS'__repr__'
p54
S"<method-wrapper '__repr__' of FormNotFoundError object>"
p55
sS'__hash__'
p56
S"<method-wrapper '__hash__' of FormNotFoundError object>"
p57
ssS'evalue'
p58
S'no form matching nr 1'
p59
sS'request'
p60
ccopy_reg
_reconstructor
p61
(cgluon.html
BEAUTIFY
p62
c__builtin__
object
p63
NtRp64
(dp65
S'attributes'
p66
(dp67
sS'components'
p68
(lp69
g61
(cgluon.html
TABLE
p70
g63
NtRp71
(dp72
g66
(dp73
S'level'
p74
I5
ssS'parent'
p75
Nsg68
(lp76
g61
(cgluon.html
TR
p77
g63
NtRp78
(dp79
g66
(dp80
sg75
g71
sg68
(lp81
g61
(cgluon.html
TD
p82
g63
NtRp83
(dp84
g66
(dp85
S'_style'
p86
S'font-weight:bold;vertical-align:top'
p87
ssg75
g78
sg68
(lp88
S'ajax'
p89
asbag61
(g82
g63
NtRp90
(dp91
g66
(dp92
S'_valign'
p93
S'top'
p94
ssg75
g78
sg68
(lp95
S':'
asbag61
(g82
g63
NtRp96
(dp97
g66
(dp98
sg75
g78
sg68
(lp99
g61
(g62
g63
NtRp100
(dp101
g66
(dp102
g74
I5
ssg75
g96
sg68
(lp103
S'False'
p104
asbasbasbag61
(g77
g63
NtRp105
(dp106
g66
(dp107
sg75
g71
sg68
(lp108
g61
(g82
g63
NtRp109
(dp110
g66
(dp111
g86
g87
ssg75
g105
sg68
(lp112
S'application'
p113
asbag61
(g82
g63
NtRp114
(dp115
g66
(dp116
g93
g94
ssg75
g105
sg68
(lp117
S':'
asbag61
(g82
g63
NtRp118
(dp119
g66
(dp120
sg75
g105
sg68
(lp121
g61
(g62
g63
NtRp122
(dp123
g66
(dp124
g74
I5
ssg75
g118
sg68
(lp125
S'mycrawler'
p126
asbasbasbag61
(g77
g63
NtRp127
(dp128
g66
(dp129
sg75
g71
sg68
(lp130
g61
(g82
g63
NtRp131
(dp132
g66
(dp133
g86
g87
ssg75
g127
sg68
(lp134
g46
asbag61
(g82
g63
NtRp135
(dp136
g66
(dp137
g93
g94
ssg75
g127
sg68
(lp138
S':'
asbag61
(g82
g63
NtRp139
(dp140
g66
(dp141
sg75
g127
sg68
(lp142
g61
(g62
g63
NtRp143
(dp144
g66
(dp145
g74
I5
ssg75
g139
sg68
(lp146
g61
(g70
g63
NtRp147
(dp148
g66
(dp149
g74
I4
ssg75
Nsg68
(lp150
sbasbasbasbag61
(g77
g63
NtRp151
(dp152
g66
(dp153
sg75
g71
sg68
(lp154
g61
(g82
g63
NtRp155
(dp156
g66
(dp157
g86
g87
ssg75
g151
sg68
(lp158
S'body'
p159
asbag61
(g82
g63
NtRp160
(dp161
g66
(dp162
g93
g94
ssg75
g151
sg68
(lp163
S':'
asbag61
(g82
g63
NtRp164
(dp165
g66
(dp166
sg75
g151
sg68
(lp167
g61
(g62
g63
NtRp168
(dp169
g66
(dp170
g74
I5
ssg75
g164
sg68
(lp171
S'<cStringIO.StringO object at 0x057BC120>'
p172
asbasbasbag61
(g77
g63
NtRp173
(dp174
g66
(dp175
sg75
g71
sg68
(lp176
g61
(g82
g63
NtRp177
(dp178
g66
(dp179
g86
g87
ssg75
g173
sg68
(lp180
S'client'
p181
asbag61
(g82
g63
NtRp182
(dp183
g66
(dp184
g93
g94
ssg75
g173
sg68
(lp185
S':'
asbag61
(g82
g63
NtRp186
(dp187
g66
(dp188
sg75
g173
sg68
(lp189
g61
(g62
g63
NtRp190
(dp191
g66
(dp192
g74
I5
ssg75
g186
sg68
(lp193
S'127.0.0.1'
p194
asbasbasbag61
(g77
g63
NtRp195
(dp196
g66
(dp197
sg75
g71
sg68
(lp198
g61
(g82
g63
NtRp199
(dp200
g66
(dp201
g86
g87
ssg75
g195
sg68
(lp202
S'controller'
p203
asbag61
(g82
g63
NtRp204
(dp205
g66
(dp206
g93
g94
ssg75
g195
sg68
(lp207
S':'
asbag61
(g82
g63
NtRp208
(dp209
g66
(dp210
sg75
g195
sg68
(lp211
g61
(g62
g63
NtRp212
(dp213
g66
(dp214
g74
I5
ssg75
g208
sg68
(lp215
S'default'
p216
asbasbasbag61
(g77
g63
NtRp217
(dp218
g66
(dp219
sg75
g71
sg68
(lp220
g61
(g82
g63
NtRp221
(dp222
g66
(dp223
g86
g87
ssg75
g217
sg68
(lp224
S'cookies'
p225
asbag61
(g82
g63
NtRp226
(dp227
g66
(dp228
g93
g94
ssg75
g217
sg68
(lp229
S':'
asbag61
(g82
g63
NtRp230
(dp231
g66
(dp232
sg75
g217
sg68
(lp233
g61
(g62
g63
NtRp234
(dp235
g66
(dp236
g74
I5
ssg75
g230
sg68
(lp237
g61
(g70
g63
NtRp238
(dp239
g66
(dp240
g74
I4
ssg75
Nsg68
(lp241
g61
(g77
g63
NtRp242
(dp243
g66
(dp244
sg75
g238
sg68
(lp245
g61
(g82
g63
NtRp246
(dp247
g66
(dp248
g86
g87
ssg75
g242
sg68
(lp249
S'session_id_admin'
p250
asbag61
(g82
g63
NtRp251
(dp252
g66
(dp253
g93
g94
ssg75
g242
sg68
(lp254
S':'
asbag61
(g82
g63
NtRp255
(dp256
g66
(dp257
sg75
g242
sg68
(lp258
g61
(g62
g63
NtRp259
(dp260
g66
(dp261
g74
I4
ssg75
g255
sg68
(lp262
g61
(g70
g63
NtRp263
(dp264
g66
(dp265
g74
I3
ssg75
Nsg68
(lp266
g61
(g77
g63
NtRp267
(dp268
g66
(dp269
sg75
g263
sg68
(lp270
g61
(g82
g63
NtRp271
(dp272
g66
(dp273
g86
g87
ssg75
g267
sg68
(lp274
S'comment'
p275
asbag61
(g82
g63
NtRp276
(dp277
g66
(dp278
g93
g94
ssg75
g267
sg68
(lp279
S':'
asbag61
(g82
g63
NtRp280
(dp281
g66
(dp282
sg75
g267
sg68
(lp283
g61
(g62
g63
NtRp284
(dp285
g66
(dp286
g74
I3
ssg75
g280
sg68
(lp287
S''
asbasbasbag61
(g77
g63
NtRp288
(dp289
g66
(dp290
sg75
g263
sg68
(lp291
g61
(g82
g63
NtRp292
(dp293
g66
(dp294
g86
g87
ssg75
g288
sg68
(lp295
S'domain'
p296
asbag61
(g82
g63
NtRp297
(dp298
g66
(dp299
g93
g94
ssg75
g288
sg68
(lp300
S':'
asbag61
(g82
g63
NtRp301
(dp302
g66
(dp303
sg75
g288
sg68
(lp304
g61
(g62
g63
NtRp305
(dp306
g66
(dp307
g74
I3
ssg75
g301
sg68
(lp308
S''
asbasbasbag61
(g77
g63
NtRp309
(dp310
g66
(dp311
sg75
g263
sg68
(lp312
g61
(g82
g63
NtRp313
(dp314
g66
(dp315
g86
g87
ssg75
g309
sg68
(lp316
S'expires'
p317
asbag61
(g82
g63
NtRp318
(dp319
g66
(dp320
g93
g94
ssg75
g309
sg68
(lp321
S':'
asbag61
(g82
g63
NtRp322
(dp323
g66
(dp324
sg75
g309
sg68
(lp325
g61
(g62
g63
NtRp326
(dp327
g66
(dp328
g74
I3
ssg75
g322
sg68
(lp329
S''
asbasbasbag61
(g77
g63
NtRp330
(dp331
g66
(dp332
sg75
g263
sg68
(lp333
g61
(g82
g63
NtRp334
(dp335
g66
(dp336
g86
g87
ssg75
g330
sg68
(lp337
S'httponly'
p338
asbag61
(g82
g63
NtRp339
(dp340
g66
(dp341
g93
g94
ssg75
g330
sg68
(lp342
S':'
asbag61
(g82
g63
NtRp343
(dp344
g66
(dp345
sg75
g330
sg68
(lp346
g61
(g62
g63
NtRp347
(dp348
g66
(dp349
g74
I3
ssg75
g343
sg68
(lp350
S''
asbasbasbag61
(g77
g63
NtRp351
(dp352
g66
(dp353
sg75
g263
sg68
(lp354
g61
(g82
g63
NtRp355
(dp356
g66
(dp357
g86
g87
ssg75
g351
sg68
(lp358
S'max-age'
p359
asbag61
(g82
g63
NtRp360
(dp361
g66
(dp362
g93
g94
ssg75
g351
sg68
(lp363
S':'
asbag61
(g82
g63
NtRp364
(dp365
g66
(dp366
sg75
g351
sg68
(lp367
g61
(g62
g63
NtRp368
(dp369
g66
(dp370
g74
I3
ssg75
g364
sg68
(lp371
S''
asbasbasbag61
(g77
g63
NtRp372
(dp373
g66
(dp374
sg75
g263
sg68
(lp375
g61
(g82
g63
NtRp376
(dp377
g66
(dp378
g86
g87
ssg75
g372
sg68
(lp379
S'path'
p380
asbag61
(g82
g63
NtRp381
(dp382
g66
(dp383
g93
g94
ssg75
g372
sg68
(lp384
S':'
asbag61
(g82
g63
NtRp385
(dp386
g66
(dp387
sg75
g372
sg68
(lp388
g61
(g62
g63
NtRp389
(dp390
g66
(dp391
g74
I3
ssg75
g385
sg68
(lp392
S''
asbasbasbag61
(g77
g63
NtRp393
(dp394
g66
(dp395
sg75
g263
sg68
(lp396
g61
(g82
g63
NtRp397
(dp398
g66
(dp399
g86
g87
ssg75
g393
sg68
(lp400
S'secure'
p401
asbag61
(g82
g63
NtRp402
(dp403
g66
(dp404
g93
g94
ssg75
g393
sg68
(lp405
S':'
asbag61
(g82
g63
NtRp406
(dp407
g66
(dp408
sg75
g393
sg68
(lp409
g61
(g62
g63
NtRp410
(dp411
g66
(dp412
g74
I3
ssg75
g406
sg68
(lp413
S''
asbasbasbag61
(g77
g63
NtRp414
(dp415
g66
(dp416
sg75
g263
sg68
(lp417
g61
(g82
g63
NtRp418
(dp419
g66
(dp420
g86
g87
ssg75
g414
sg68
(lp421
S'version'
p422
asbag61
(g82
g63
NtRp423
(dp424
g66
(dp425
g93
g94
ssg75
g414
sg68
(lp426
S':'
asbag61
(g82
g63
NtRp427
(dp428
g66
(dp429
sg75
g414
sg68
(lp430
g61
(g62
g63
NtRp431
(dp432
g66
(dp433
g74
I3
ssg75
g427
sg68
(lp434
S''
asbasbasbasbasbasbasbag61
(g77
g63
NtRp435
(dp436
g66
(dp437
sg75
g238
sg68
(lp438
g61
(g82
g63
NtRp439
(dp440
g66
(dp441
g86
g87
ssg75
g435
sg68
(lp442
S'session_id_crawler'
p443
asbag61
(g82
g63
NtRp444
(dp445
g66
(dp446
g93
g94
ssg75
g435
sg68
(lp447
S':'
asbag61
(g82
g63
NtRp448
(dp449
g66
(dp450
sg75
g435
sg68
(lp451
g61
(g62
g63
NtRp452
(dp453
g66
(dp454
g74
I4
ssg75
g448
sg68
(lp455
g61
(g70
g63
NtRp456
(dp457
g66
(dp458
g74
I3
ssg75
Nsg68
(lp459
g61
(g77
g63
NtRp460
(dp461
g66
(dp462
sg75
g456
sg68
(lp463
g61
(g82
g63
NtRp464
(dp465
g66
(dp466
g86
g87
ssg75
g460
sg68
(lp467
g275
asbag61
(g82
g63
NtRp468
(dp469
g66
(dp470
g93
g94
ssg75
g460
sg68
(lp471
S':'
asbag61
(g82
g63
NtRp472
(dp473
g66
(dp474
sg75
g460
sg68
(lp475
g61
(g62
g63
NtRp476
(dp477
g66
(dp478
g74
I3
ssg75
g472
sg68
(lp479
S''
asbasbasbag61
(g77
g63
NtRp480
(dp481
g66
(dp482
sg75
g456
sg68
(lp483
g61
(g82
g63
NtRp484
(dp485
g66
(dp486
g86
g87
ssg75
g480
sg68
(lp487
g296
asbag61
(g82
g63
NtRp488
(dp489
g66
(dp490
g93
g94
ssg75
g480
sg68
(lp491
S':'
asbag61
(g82
g63
NtRp492
(dp493
g66
(dp494
sg75
g480
sg68
(lp495
g61
(g62
g63
NtRp496
(dp497
g66
(dp498
g74
I3
ssg75
g492
sg68
(lp499
S''
asbasbasbag61
(g77
g63
NtRp500
(dp501
g66
(dp502
sg75
g456
sg68
(lp503
g61
(g82
g63
NtRp504
(dp505
g66
(dp506
g86
g87
ssg75
g500
sg68
(lp507
g317
asbag61
(g82
g63
NtRp508
(dp509
g66
(dp510
g93
g94
ssg75
g500
sg68
(lp511
S':'
asbag61
(g82
g63
NtRp512
(dp513
g66
(dp514
sg75
g500
sg68
(lp515
g61
(g62
g63
NtRp516
(dp517
g66
(dp518
g74
I3
ssg75
g512
sg68
(lp519
S''
asbasbasbag61
(g77
g63
NtRp520
(dp521
g66
(dp522
sg75
g456
sg68
(lp523
g61
(g82
g63
NtRp524
(dp525
g66
(dp526
g86
g87
ssg75
g520
sg68
(lp527
g338
asbag61
(g82
g63
NtRp528
(dp529
g66
(dp530
g93
g94
ssg75
g520
sg68
(lp531
S':'
asbag61
(g82
g63
NtRp532
(dp533
g66
(dp534
sg75
g520
sg68
(lp535
g61
(g62
g63
NtRp536
(dp537
g66
(dp538
g74
I3
ssg75
g532
sg68
(lp539
S''
asbasbasbag61
(g77
g63
NtRp540
(dp541
g66
(dp542
sg75
g456
sg68
(lp543
g61
(g82
g63
NtRp544
(dp545
g66
(dp546
g86
g87
ssg75
g540
sg68
(lp547
g359
asbag61
(g82
g63
NtRp548
(dp549
g66
(dp550
g93
g94
ssg75
g540
sg68
(lp551
S':'
asbag61
(g82
g63
NtRp552
(dp553
g66
(dp554
sg75
g540
sg68
(lp555
g61
(g62
g63
NtRp556
(dp557
g66
(dp558
g74
I3
ssg75
g552
sg68
(lp559
S''
asbasbasbag61
(g77
g63
NtRp560
(dp561
g66
(dp562
sg75
g456
sg68
(lp563
g61
(g82
g63
NtRp564
(dp565
g66
(dp566
g86
g87
ssg75
g560
sg68
(lp567
g380
asbag61
(g82
g63
NtRp568
(dp569
g66
(dp570
g93
g94
ssg75
g560
sg68
(lp571
S':'
asbag61
(g82
g63
NtRp572
(dp573
g66
(dp574
sg75
g560
sg68
(lp575
g61
(g62
g63
NtRp576
(dp577
g66
(dp578
g74
I3
ssg75
g572
sg68
(lp579
S''
asbasbasbag61
(g77
g63
NtRp580
(dp581
g66
(dp582
sg75
g456
sg68
(lp583
g61
(g82
g63
NtRp584
(dp585
g66
(dp586
g86
g87
ssg75
g580
sg68
(lp587
g401
asbag61
(g82
g63
NtRp588
(dp589
g66
(dp590
g93
g94
ssg75
g580
sg68
(lp591
S':'
asbag61
(g82
g63
NtRp592
(dp593
g66
(dp594
sg75
g580
sg68
(lp595
g61
(g62
g63
NtRp596
(dp597
g66
(dp598
g74
I3
ssg75
g592
sg68
(lp599
S''
asbasbasbag61
(g77
g63
NtRp600
(dp601
g66
(dp602
sg75
g456
sg68
(lp603
g61
(g82
g63
NtRp604
(dp605
g66
(dp606
g86
g87
ssg75
g600
sg68
(lp607
g422
asbag61
(g82
g63
NtRp608
(dp609
g66
(dp610
g93
g94
ssg75
g600
sg68
(lp611
S':'
asbag61
(g82
g63
NtRp612
(dp613
g66
(dp614
sg75
g600
sg68
(lp615
g61
(g62
g63
NtRp616
(dp617
g66
(dp618
g74
I3
ssg75
g612
sg68
(lp619
S''
asbasbasbasbasbasbasbag61
(g77
g63
NtRp620
(dp621
g66
(dp622
sg75
g238
sg68
(lp623
g61
(g82
g63
NtRp624
(dp625
g66
(dp626
g86
g87
ssg75
g620
sg68
(lp627
S'session_id_mycrawler'
p628
asbag61
(g82
g63
NtRp629
(dp630
g66
(dp631
g93
g94
ssg75
g620
sg68
(lp632
S':'
asbag61
(g82
g63
NtRp633
(dp634
g66
(dp635
sg75
g620
sg68
(lp636
g61
(g62
g63
NtRp637
(dp638
g66
(dp639
g74
I4
ssg75
g633
sg68
(lp640
g61
(g70
g63
NtRp641
(dp642
g66
(dp643
g74
I3
ssg75
Nsg68
(lp644
g61
(g77
g63
NtRp645
(dp646
g66
(dp647
sg75
g641
sg68
(lp648
g61
(g82
g63
NtRp649
(dp650
g66
(dp651
g86
g87
ssg75
g645
sg68
(lp652
g275
asbag61
(g82
g63
NtRp653
(dp654
g66
(dp655
g93
g94
ssg75
g645
sg68
(lp656
S':'
asbag61
(g82
g63
NtRp657
(dp658
g66
(dp659
sg75
g645
sg68
(lp660
g61
(g62
g63
NtRp661
(dp662
g66
(dp663
g74
I3
ssg75
g657
sg68
(lp664
S''
asbasbasbag61
(g77
g63
NtRp665
(dp666
g66
(dp667
sg75
g641
sg68
(lp668
g61
(g82
g63
NtRp669
(dp670
g66
(dp671
g86
g87
ssg75
g665
sg68
(lp672
g296
asbag61
(g82
g63
NtRp673
(dp674
g66
(dp675
g93
g94
ssg75
g665
sg68
(lp676
S':'
asbag61
(g82
g63
NtRp677
(dp678
g66
(dp679
sg75
g665
sg68
(lp680
g61
(g62
g63
NtRp681
(dp682
g66
(dp683
g74
I3
ssg75
g677
sg68
(lp684
S''
asbasbasbag61
(g77
g63
NtRp685
(dp686
g66
(dp687
sg75
g641
sg68
(lp688
g61
(g82
g63
NtRp689
(dp690
g66
(dp691
g86
g87
ssg75
g685
sg68
(lp692
g317
asbag61
(g82
g63
NtRp693
(dp694
g66
(dp695
g93
g94
ssg75
g685
sg68
(lp696
S':'
asbag61
(g82
g63
NtRp697
(dp698
g66
(dp699
sg75
g685
sg68
(lp700
g61
(g62
g63
NtRp701
(dp702
g66
(dp703
g74
I3
ssg75
g697
sg68
(lp704
S''
asbasbasbag61
(g77
g63
NtRp705
(dp706
g66
(dp707
sg75
g641
sg68
(lp708
g61
(g82
g63
NtRp709
(dp710
g66
(dp711
g86
g87
ssg75
g705
sg68
(lp712
g338
asbag61
(g82
g63
NtRp713
(dp714
g66
(dp715
g93
g94
ssg75
g705
sg68
(lp716
S':'
asbag61
(g82
g63
NtRp717
(dp718
g66
(dp719
sg75
g705
sg68
(lp720
g61
(g62
g63
NtRp721
(dp722
g66
(dp723
g74
I3
ssg75
g717
sg68
(lp724
S''
asbasbasbag61
(g77
g63
NtRp725
(dp726
g66
(dp727
sg75
g641
sg68
(lp728
g61
(g82
g63
NtRp729
(dp730
g66
(dp731
g86
g87
ssg75
g725
sg68
(lp732
g359
asbag61
(g82
g63
NtRp733
(dp734
g66
(dp735
g93
g94
ssg75
g725
sg68
(lp736
S':'
asbag61
(g82
g63
NtRp737
(dp738
g66
(dp739
sg75
g725
sg68
(lp740
g61
(g62
g63
NtRp741
(dp742
g66
(dp743
g74
I3
ssg75
g737
sg68
(lp744
S''
asbasbasbag61
(g77
g63
NtRp745
(dp746
g66
(dp747
sg75
g641
sg68
(lp748
g61
(g82
g63
NtRp749
(dp750
g66
(dp751
g86
g87
ssg75
g745
sg68
(lp752
g380
asbag61
(g82
g63
NtRp753
(dp754
g66
(dp755
g93
g94
ssg75
g745
sg68
(lp756
S':'
asbag61
(g82
g63
NtRp757
(dp758
g66
(dp759
sg75
g745
sg68
(lp760
g61
(g62
g63
NtRp761
(dp762
g66
(dp763
g74
I3
ssg75
g757
sg68
(lp764
S''
asbasbasbag61
(g77
g63
NtRp765
(dp766
g66
(dp767
sg75
g641
sg68
(lp768
g61
(g82
g63
NtRp769
(dp770
g66
(dp771
g86
g87
ssg75
g765
sg68
(lp772
g401
asbag61
(g82
g63
NtRp773
(dp774
g66
(dp775
g93
g94
ssg75
g765
sg68
(lp776
S':'
asbag61
(g82
g63
NtRp777
(dp778
g66
(dp779
sg75
g765
sg68
(lp780
g61
(g62
g63
NtRp781
(dp782
g66
(dp783
g74
I3
ssg75
g777
sg68
(lp784
S''
asbasbasbag61
(g77
g63
NtRp785
(dp786
g66
(dp787
sg75
g641
sg68
(lp788
g61
(g82
g63
NtRp789
(dp790
g66
(dp791
g86
g87
ssg75
g785
sg68
(lp792
g422
asbag61
(g82
g63
NtRp793
(dp794
g66
(dp795
g93
g94
ssg75
g785
sg68
(lp796
S':'
asbag61
(g82
g63
NtRp797
(dp798
g66
(dp799
sg75
g785
sg68
(lp800
g61
(g62
g63
NtRp801
(dp802
g66
(dp803
g74
I3
ssg75
g797
sg68
(lp804
S''
asbasbasbasbasbasbasbag61
(g77
g63
NtRp805
(dp806
g66
(dp807
sg75
g238
sg68
(lp808
g61
(g82
g63
NtRp809
(dp810
g66
(dp811
g86
g87
ssg75
g805
sg68
(lp812
S'session_id_mycrawler_2'
p813
asbag61
(g82
g63
NtRp814
(dp815
g66
(dp816
g93
g94
ssg75
g805
sg68
(lp817
S':'
asbag61
(g82
g63
NtRp818
(dp819
g66
(dp820
sg75
g805
sg68
(lp821
g61
(g62
g63
NtRp822
(dp823
g66
(dp824
g74
I4
ssg75
g818
sg68
(lp825
g61
(g70
g63
NtRp826
(dp827
g66
(dp828
g74
I3
ssg75
Nsg68
(lp829
g61
(g77
g63
NtRp830
(dp831
g66
(dp832
sg75
g826
sg68
(lp833
g61
(g82
g63
NtRp834
(dp835
g66
(dp836
g86
g87
ssg75
g830
sg68
(lp837
g275
asbag61
(g82
g63
NtRp838
(dp839
g66
(dp840
g93
g94
ssg75
g830
sg68
(lp841
S':'
asbag61
(g82
g63
NtRp842
(dp843
g66
(dp844
sg75
g830
sg68
(lp845
g61
(g62
g63
NtRp846
(dp847
g66
(dp848
g74
I3
ssg75
g842
sg68
(lp849
S''
asbasbasbag61
(g77
g63
NtRp850
(dp851
g66
(dp852
sg75
g826
sg68
(lp853
g61
(g82
g63
NtRp854
(dp855
g66
(dp856
g86
g87
ssg75
g850
sg68
(lp857
g296
asbag61
(g82
g63
NtRp858
(dp859
g66
(dp860
g93
g94
ssg75
g850
sg68
(lp861
S':'
asbag61
(g82
g63
NtRp862
(dp863
g66
(dp864
sg75
g850
sg68
(lp865
g61
(g62
g63
NtRp866
(dp867
g66
(dp868
g74
I3
ssg75
g862
sg68
(lp869
S''
asbasbasbag61
(g77
g63
NtRp870
(dp871
g66
(dp872
sg75
g826
sg68
(lp873
g61
(g82
g63
NtRp874
(dp875
g66
(dp876
g86
g87
ssg75
g870
sg68
(lp877
g317
asbag61
(g82
g63
NtRp878
(dp879
g66
(dp880
g93
g94
ssg75
g870
sg68
(lp881
S':'
asbag61
(g82
g63
NtRp882
(dp883
g66
(dp884
sg75
g870
sg68
(lp885
g61
(g62
g63
NtRp886
(dp887
g66
(dp888
g74
I3
ssg75
g882
sg68
(lp889
S''
asbasbasbag61
(g77
g63
NtRp890
(dp891
g66
(dp892
sg75
g826
sg68
(lp893
g61
(g82
g63
NtRp894
(dp895
g66
(dp896
g86
g87
ssg75
g890
sg68
(lp897
g338
asbag61
(g82
g63
NtRp898
(dp899
g66
(dp900
g93
g94
ssg75
g890
sg68
(lp901
S':'
asbag61
(g82
g63
NtRp902
(dp903
g66
(dp904
sg75
g890
sg68
(lp905
g61
(g62
g63
NtRp906
(dp907
g66
(dp908
g74
I3
ssg75
g902
sg68
(lp909
S''
asbasbasbag61
(g77
g63
NtRp910
(dp911
g66
(dp912
sg75
g826
sg68
(lp913
g61
(g82
g63
NtRp914
(dp915
g66
(dp916
g86
g87
ssg75
g910
sg68
(lp917
g359
asbag61
(g82
g63
NtRp918
(dp919
g66
(dp920
g93
g94
ssg75
g910
sg68
(lp921
S':'
asbag61
(g82
g63
NtRp922
(dp923
g66
(dp924
sg75
g910
sg68
(lp925
g61
(g62
g63
NtRp926
(dp927
g66
(dp928
g74
I3
ssg75
g922
sg68
(lp929
S''
asbasbasbag61
(g77
g63
NtRp930
(dp931
g66
(dp932
sg75
g826
sg68
(lp933
g61
(g82
g63
NtRp934
(dp935
g66
(dp936
g86
g87
ssg75
g930
sg68
(lp937
g380
asbag61
(g82
g63
NtRp938
(dp939
g66
(dp940
g93
g94
ssg75
g930
sg68
(lp941
S':'
asbag61
(g82
g63
NtRp942
(dp943
g66
(dp944
sg75
g930
sg68
(lp945
g61
(g62
g63
NtRp946
(dp947
g66
(dp948
g74
I3
ssg75
g942
sg68
(lp949
S''
asbasbasbag61
(g77
g63
NtRp950
(dp951
g66
(dp952
sg75
g826
sg68
(lp953
g61
(g82
g63
NtRp954
(dp955
g66
(dp956
g86
g87
ssg75
g950
sg68
(lp957
g401
asbag61
(g82
g63
NtRp958
(dp959
g66
(dp960
g93
g94
ssg75
g950
sg68
(lp961
S':'
asbag61
(g82
g63
NtRp962
(dp963
g66
(dp964
sg75
g950
sg68
(lp965
g61
(g62
g63
NtRp966
(dp967
g66
(dp968
g74
I3
ssg75
g962
sg68
(lp969
S''
asbasbasbag61
(g77
g63
NtRp970
(dp971
g66
(dp972
sg75
g826
sg68
(lp973
g61
(g82
g63
NtRp974
(dp975
g66
(dp976
g86
g87
ssg75
g970
sg68
(lp977
g422
asbag61
(g82
g63
NtRp978
(dp979
g66
(dp980
g93
g94
ssg75
g970
sg68
(lp981
S':'
asbag61
(g82
g63
NtRp982
(dp983
g66
(dp984
sg75
g970
sg68
(lp985
g61
(g62
g63
NtRp986
(dp987
g66
(dp988
g74
I3
ssg75
g982
sg68
(lp989
S''
asbasbasbasbasbasbasbag61
(g77
g63
NtRp990
(dp991
g66
(dp992
sg75
g238
sg68
(lp993
g61
(g82
g63
NtRp994
(dp995
g66
(dp996
g86
g87
ssg75
g990
sg68
(lp997
S'session_id_welcome'
p998
asbag61
(g82
g63
NtRp999
(dp1000
g66
(dp1001
g93
g94
ssg75
g990
sg68
(lp1002
S':'
asbag61
(g82
g63
NtRp1003
(dp1004
g66
(dp1005
sg75
g990
sg68
(lp1006
g61
(g62
g63
NtRp1007
(dp1008
g66
(dp1009
g74
I4
ssg75
g1003
sg68
(lp1010
g61
(g70
g63
NtRp1011
(dp1012
g66
(dp1013
g74
I3
ssg75
Nsg68
(lp1014
g61
(g77
g63
NtRp1015
(dp1016
g66
(dp1017
sg75
g1011
sg68
(lp1018
g61
(g82
g63
NtRp1019
(dp1020
g66
(dp1021
g86
g87
ssg75
g1015
sg68
(lp1022
g275
asbag61
(g82
g63
NtRp1023
(dp1024
g66
(dp1025
g93
g94
ssg75
g1015
sg68
(lp1026
S':'
asbag61
(g82
g63
NtRp1027
(dp1028
g66
(dp1029
sg75
g1015
sg68
(lp1030
g61
(g62
g63
NtRp1031
(dp1032
g66
(dp1033
g74
I3
ssg75
g1027
sg68
(lp1034
S''
asbasbasbag61
(g77
g63
NtRp1035
(dp1036
g66
(dp1037
sg75
g1011
sg68
(lp1038
g61
(g82
g63
NtRp1039
(dp1040
g66
(dp1041
g86
g87
ssg75
g1035
sg68
(lp1042
g296
asbag61
(g82
g63
NtRp1043
(dp1044
g66
(dp1045
g93
g94
ssg75
g1035
sg68
(lp1046
S':'
asbag61
(g82
g63
NtRp1047
(dp1048
g66
(dp1049
sg75
g1035
sg68
(lp1050
g61
(g62
g63
NtRp1051
(dp1052
g66
(dp1053
g74
I3
ssg75
g1047
sg68
(lp1054
S''
asbasbasbag61
(g77
g63
NtRp1055
(dp1056
g66
(dp1057
sg75
g1011
sg68
(lp1058
g61
(g82
g63
NtRp1059
(dp1060
g66
(dp1061
g86
g87
ssg75
g1055
sg68
(lp1062
g317
asbag61
(g82
g63
NtRp1063
(dp1064
g66
(dp1065
g93
g94
ssg75
g1055
sg68
(lp1066
S':'
asbag61
(g82
g63
NtRp1067
(dp1068
g66
(dp1069
sg75
g1055
sg68
(lp1070
g61
(g62
g63
NtRp1071
(dp1072
g66
(dp1073
g74
I3
ssg75
g1067
sg68
(lp1074
S''
asbasbasbag61
(g77
g63
NtRp1075
(dp1076
g66
(dp1077
sg75
g1011
sg68
(lp1078
g61
(g82
g63
NtRp1079
(dp1080
g66
(dp1081
g86
g87
ssg75
g1075
sg68
(lp1082
g338
asbag61
(g82
g63
NtRp1083
(dp1084
g66
(dp1085
g93
g94
ssg75
g1075
sg68
(lp1086
S':'
asbag61
(g82
g63
NtRp1087
(dp1088
g66
(dp1089
sg75
g1075
sg68
(lp1090
g61
(g62
g63
NtRp1091
(dp1092
g66
(dp1093
g74
I3
ssg75
g1087
sg68
(lp1094
S''
asbasbasbag61
(g77
g63
NtRp1095
(dp1096
g66
(dp1097
sg75
g1011
sg68
(lp1098
g61
(g82
g63
NtRp1099
(dp1100
g66
(dp1101
g86
g87
ssg75
g1095
sg68
(lp1102
g359
asbag61
(g82
g63
NtRp1103
(dp1104
g66
(dp1105
g93
g94
ssg75
g1095
sg68
(lp1106
S':'
asbag61
(g82
g63
NtRp1107
(dp1108
g66
(dp1109
sg75
g1095
sg68
(lp1110
g61
(g62
g63
NtRp1111
(dp1112
g66
(dp1113
g74
I3
ssg75
g1107
sg68
(lp1114
S''
asbasbasbag61
(g77
g63
NtRp1115
(dp1116
g66
(dp1117
sg75
g1011
sg68
(lp1118
g61
(g82
g63
NtRp1119
(dp1120
g66
(dp1121
g86
g87
ssg75
g1115
sg68
(lp1122
g380
asbag61
(g82
g63
NtRp1123
(dp1124
g66
(dp1125
g93
g94
ssg75
g1115
sg68
(lp1126
S':'
asbag61
(g82
g63
NtRp1127
(dp1128
g66
(dp1129
sg75
g1115
sg68
(lp1130
g61
(g62
g63
NtRp1131
(dp1132
g66
(dp1133
g74
I3
ssg75
g1127
sg68
(lp1134
S''
asbasbasbag61
(g77
g63
NtRp1135
(dp1136
g66
(dp1137
sg75
g1011
sg68
(lp1138
g61
(g82
g63
NtRp1139
(dp1140
g66
(dp1141
g86
g87
ssg75
g1135
sg68
(lp1142
g401
asbag61
(g82
g63
NtRp1143
(dp1144
g66
(dp1145
g93
g94
ssg75
g1135
sg68
(lp1146
S':'
asbag61
(g82
g63
NtRp1147
(dp1148
g66
(dp1149
sg75
g1135
sg68
(lp1150
g61
(g62
g63
NtRp1151
(dp1152
g66
(dp1153
g74
I3
ssg75
g1147
sg68
(lp1154
S''
asbasbasbag61
(g77
g63
NtRp1155
(dp1156
g66
(dp1157
sg75
g1011
sg68
(lp1158
g61
(g82
g63
NtRp1159
(dp1160
g66
(dp1161
g86
g87
ssg75
g1155
sg68
(lp1162
g422
asbag61
(g82
g63
NtRp1163
(dp1164
g66
(dp1165
g93
g94
ssg75
g1155
sg68
(lp1166
S':'
asbag61
(g82
g63
NtRp1167
(dp1168
g66
(dp1169
sg75
g1155
sg68
(lp1170
g61
(g62
g63
NtRp1171
(dp1172
g66
(dp1173
g74
I3
ssg75
g1167
sg68
(lp1174
S''
asbasbasbasbasbasbasbasbasbasbasbag61
(g77
g63
NtRp1175
(dp1176
g66
(dp1177
sg75
g71
sg68
(lp1178
g61
(g82
g63
NtRp1179
(dp1180
g66
(dp1181
g86
g87
ssg75
g1175
sg68
(lp1182
S'env'
p1183
asbag61
(g82
g63
NtRp1184
(dp1185
g66
(dp1186
g93
g94
ssg75
g1175
sg68
(lp1187
S':'
asbag61
(g82
g63
NtRp1188
(dp1189
g66
(dp1190
sg75
g1175
sg68
(lp1191
g61
(g62
g63
NtRp1192
(dp1193
g66
(dp1194
g74
I5
ssg75
g1188
sg68
(lp1195
g61
(g70
g63
NtRp1196
(dp1197
g66
(dp1198
g74
I4
ssg75
Nsg68
(lp1199
g61
(g77
g63
NtRp1200
(dp1201
g66
(dp1202
sg75
g1196
sg68
(lp1203
g61
(g82
g63
NtRp1204
(dp1205
g66
(dp1206
g86
g87
ssg75
g1200
sg68
(lp1207
S'app_folders'
p1208
asbag61
(g82
g63
NtRp1209
(dp1210
g66
(dp1211
g93
g94
ssg75
g1200
sg68
(lp1212
S':'
asbag61
(g82
g63
NtRp1213
(dp1214
g66
(dp1215
sg75
g1200
sg68
(lp1216
g61
(g62
g63
NtRp1217
(dp1218
g66
(dp1219
g74
I4
ssg75
g1213
sg68
(lp1220
S"set(['C:\\\\Documents and Settings\\\\agrover\\\\Desktop\\\\previous crawler\\\\web2py\\\\applications\\\\admin\\\\', 'C:\\\\Documents and Settings\\\\agrover\\\\Desktop\\\\previous crawler\\\\web2py\\\\applications\\\\mycrawler\\\\', 'C:\\\\Documents and Settings\\\\agrover\\\\Desktop\\\\previous crawler\\\\web2py\\\\applications\\\\welcome\\\\', 'C:\\\\Documents and Settings\\\\agrover\\\\Desktop\\\\previous crawler\\\\web2py\\\\applications\\\\final\\\\'])"
p1221
asbasbasbag61
(g77
g63
NtRp1222
(dp1223
g66
(dp1224
sg75
g1196
sg68
(lp1225
g61
(g82
g63
NtRp1226
(dp1227
g66
(dp1228
g86
g87
ssg75
g1222
sg68
(lp1229
S'applications_parent'
p1230
asbag61
(g82
g63
NtRp1231
(dp1232
g66
(dp1233
g93
g94
ssg75
g1222
sg68
(lp1234
S':'
asbag61
(g82
g63
NtRp1235
(dp1236
g66
(dp1237
sg75
g1222
sg68
(lp1238
g61
(g62
g63
NtRp1239
(dp1240
g66
(dp1241
g74
I4
ssg75
g1235
sg68
(lp1242
S'C:\\Documents and Settings\\agrover\\Desktop\\previous crawler\\web2py'
p1243
asbasbasbag61
(g77
g63
NtRp1244
(dp1245
g66
(dp1246
sg75
g1196
sg68
(lp1247
g61
(g82
g63
NtRp1248
(dp1249
g66
(dp1250
g86
g87
ssg75
g1244
sg68
(lp1251
S'cmd_args'
p1252
asbag61
(g82
g63
NtRp1253
(dp1254
g66
(dp1255
g93
g94
ssg75
g1244
sg68
(lp1256
S':'
asbag61
(g82
g63
NtRp1257
(dp1258
g66
(dp1259
sg75
g1244
sg68
(lp1260
g61
(g62
g63
NtRp1261
(dp1262
g66
(dp1263
g74
I4
ssg75
g1257
sg68
(lp1264
g61
(g70
g63
NtRp1265
(dp1266
g66
(dp1267
g74
I3
ssg75
Nsg68
(lp1268
sbasbasbasbag61
(g77
g63
NtRp1269
(dp1270
g66
(dp1271
sg75
g1196
sg68
(lp1272
g61
(g82
g63
NtRp1273
(dp1274
g66
(dp1275
g86
g87
ssg75
g1269
sg68
(lp1276
S'cmd_options'
p1277
asbag61
(g82
g63
NtRp1278
(dp1279
g66
(dp1280
g93
g94
ssg75
g1269
sg68
(lp1281
S':'
asbag61
(g82
g63
NtRp1282
(dp1283
g66
(dp1284
sg75
g1269
sg68
(lp1285
g61
(g62
g63
NtRp1286
(dp1287
g66
(dp1288
g74
I4
ssg75
g1282
sg68
(lp1289
S"<Values at 0x16d63f0: {'verbose': False, 'ip': '127.0.0.1', 'shutdown_timeout': 5, 'taskbar': False, 'nocron': False, 'pid_filename': 'httpserver.pid', 'maxthreads': None, 'softcron': False, 'server_name': 'mniagrover', 'bpython': False, 'nogui': False, 'port': 8000, 'extcron': False, 'debuglevel': 30, 'test': None, 'folder': 'C:\\\\Documents and Settings\\\\agrover\\\\Desktop\\\\previous crawler\\\\web2py', 'config': '', 'import_models': False, 'winservice': '', 'shell': None, 'run': '', 'log_filename': 'httpserver.log', 'args': [''], 'socket_timeout': 5, 'ssl_ca_certificate': None, 'scheduler': None, 'profiler_filename': None, 'ssl_private_key': '', 'password': '<ask>', 'request_queue_size': 5, 'ssl_certificate': '', 'cronjob': False, 'numthreads': None, 'quiet': False, 'interfaces': None, 'minthreads': None, 'timeout': 10, 'plain': False, 'nobanner': False}>"
p1290
asbasbasbag61
(g77
g63
NtRp1291
(dp1292
g66
(dp1293
sg75
g1196
sg68
(lp1294
g61
(g82
g63
NtRp1295
(dp1296
g66
(dp1297
g86
g87
ssg75
g1291
sg68
(lp1298
S'db_sessions'
p1299
asbag61
(g82
g63
NtRp1300
(dp1301
g66
(dp1302
g93
g94
ssg75
g1291
sg68
(lp1303
S':'
asbag61
(g82
g63
NtRp1304
(dp1305
g66
(dp1306
sg75
g1291
sg68
(lp1307
g61
(g62
g63
NtRp1308
(dp1309
g66
(dp1310
g74
I4
ssg75
g1304
sg68
(lp1311
S'set([])'
p1312
asbasbasbag61
(g77
g63
NtRp1313
(dp1314
g66
(dp1315
sg75
g1196
sg68
(lp1316
g61
(g82
g63
NtRp1317
(dp1318
g66
(dp1319
g86
g87
ssg75
g1313
sg68
(lp1320
S'debugging'
p1321
asbag61
(g82
g63
NtRp1322
(dp1323
g66
(dp1324
g93
g94
ssg75
g1313
sg68
(lp1325
S':'
asbag61
(g82
g63
NtRp1326
(dp1327
g66
(dp1328
sg75
g1313
sg68
(lp1329
g61
(g62
g63
NtRp1330
(dp1331
g66
(dp1332
g74
I4
ssg75
g1326
sg68
(lp1333
g104
asbasbasbag61
(g77
g63
NtRp1334
(dp1335
g66
(dp1336
sg75
g1196
sg68
(lp1337
g61
(g82
g63
NtRp1338
(dp1339
g66
(dp1340
g86
g87
ssg75
g1334
sg68
(lp1341
S'gluon_parent'
p1342
asbag61
(g82
g63
NtRp1343
(dp1344
g66
(dp1345
g93
g94
ssg75
g1334
sg68
(lp1346
S':'
asbag61
(g82
g63
NtRp1347
(dp1348
g66
(dp1349
sg75
g1334
sg68
(lp1350
g61
(g62
g63
NtRp1351
(dp1352
g66
(dp1353
g74
I4
ssg75
g1347
sg68
(lp1354
S'C:\\Documents and Settings\\agrover\\Desktop\\previous crawler\\web2py'
p1355
asbasbasbag61
(g77
g63
NtRp1356
(dp1357
g66
(dp1358
sg75
g1196
sg68
(lp1359
g61
(g82
g63
NtRp1360
(dp1361
g66
(dp1362
g86
g87
ssg75
g1356
sg68
(lp1363
S'http_accept'
p1364
asbag61
(g82
g63
NtRp1365
(dp1366
g66
(dp1367
g93
g94
ssg75
g1356
sg68
(lp1368
S':'
asbag61
(g82
g63
NtRp1369
(dp1370
g66
(dp1371
sg75
g1356
sg68
(lp1372
g61
(g62
g63
NtRp1373
(dp1374
g66
(dp1375
g74
I4
ssg75
g1369
sg68
(lp1376
S'text/html,application/xhtml+xml,application/xml;q=0.9,*/*;q=0.8'
p1377
asbasbasbag61
(g77
g63
NtRp1378
(dp1379
g66
(dp1380
sg75
g1196
sg68
(lp1381
g61
(g82
g63
NtRp1382
(dp1383
g66
(dp1384
g86
g87
ssg75
g1378
sg68
(lp1385
S'http_accept_encoding'
p1386
asbag61
(g82
g63
NtRp1387
(dp1388
g66
(dp1389
g93
g94
ssg75
g1378
sg68
(lp1390
S':'
asbag61
(g82
g63
NtRp1391
(dp1392
g66
(dp1393
sg75
g1378
sg68
(lp1394
g61
(g62
g63
NtRp1395
(dp1396
g66
(dp1397
g74
I4
ssg75
g1391
sg68
(lp1398
S'gzip, deflate'
p1399
asbasbasbag61
(g77
g63
NtRp1400
(dp1401
g66
(dp1402
sg75
g1196
sg68
(lp1403
g61
(g82
g63
NtRp1404
(dp1405
g66
(dp1406
g86
g87
ssg75
g1400
sg68
(lp1407
S'http_accept_language'
p1408
asbag61
(g82
g63
NtRp1409
(dp1410
g66
(dp1411
g93
g94
ssg75
g1400
sg68
(lp1412
S':'
asbag61
(g82
g63
NtRp1413
(dp1414
g66
(dp1415
sg75
g1400
sg68
(lp1416
g61
(g62
g63
NtRp1417
(dp1418
g66
(dp1419
g74
I4
ssg75
g1413
sg68
(lp1420
S'en-us,en;q=0.5'
p1421
asbasbasbag61
(g77
g63
NtRp1422
(dp1423
g66
(dp1424
sg75
g1196
sg68
(lp1425
g61
(g82
g63
NtRp1426
(dp1427
g66
(dp1428
g86
g87
ssg75
g1422
sg68
(lp1429
S'http_connection'
p1430
asbag61
(g82
g63
NtRp1431
(dp1432
g66
(dp1433
g93
g94
ssg75
g1422
sg68
(lp1434
S':'
asbag61
(g82
g63
NtRp1435
(dp1436
g66
(dp1437
sg75
g1422
sg68
(lp1438
g61
(g62
g63
NtRp1439
(dp1440
g66
(dp1441
g74
I4
ssg75
g1435
sg68
(lp1442
S'keep-alive'
p1443
asbasbasbag61
(g77
g63
NtRp1444
(dp1445
g66
(dp1446
sg75
g1196
sg68
(lp1447
g61
(g82
g63
NtRp1448
(dp1449
g66
(dp1450
g86
g87
ssg75
g1444
sg68
(lp1451
S'http_cookie'
p1452
asbag61
(g82
g63
NtRp1453
(dp1454
g66
(dp1455
g93
g94
ssg75
g1444
sg68
(lp1456
S':'
asbag61
(g82
g63
NtRp1457
(dp1458
g66
(dp1459
sg75
g1444
sg68
(lp1460
g61
(g62
g63
NtRp1461
(dp1462
g66
(dp1463
g74
I4
ssg75
g1457
sg68
(lp1464
S'session_id_mycrawler=127.0.0.1-32a946d8-ad2c-43d8-be0f-c8249d02766a; session_id_welcome=127.0.0.1-73caaae4-ee5b-4ac4-b73c-0ff18efdb3ae; session_id_mycrawler_2=127.0.0.1-98a9ea69-51ec-42be-9710-06bc291f7746; session_id_admin=127.0.0.1-009fc510-0f0d-40b6-8d37-931711bfe1b4; session_id_crawler=127.0.0.1-b1c96db0-4cef-48f5-a53b-5d185261332f'
p1465
asbasbasbag61
(g77
g63
NtRp1466
(dp1467
g66
(dp1468
sg75
g1196
sg68
(lp1469
g61
(g82
g63
NtRp1470
(dp1471
g66
(dp1472
g86
g87
ssg75
g1466
sg68
(lp1473
S'http_host'
p1474
asbag61
(g82
g63
NtRp1475
(dp1476
g66
(dp1477
g93
g94
ssg75
g1466
sg68
(lp1478
S':'
asbag61
(g82
g63
NtRp1479
(dp1480
g66
(dp1481
sg75
g1466
sg68
(lp1482
g61
(g62
g63
NtRp1483
(dp1484
g66
(dp1485
g74
I4
ssg75
g1479
sg68
(lp1486
S'127.0.0.1:8000'
p1487
asbasbasbag61
(g77
g63
NtRp1488
(dp1489
g66
(dp1490
sg75
g1196
sg68
(lp1491
g61
(g82
g63
NtRp1492
(dp1493
g66
(dp1494
g86
g87
ssg75
g1488
sg68
(lp1495
S'http_referer'
p1496
asbag61
(g82
g63
NtRp1497
(dp1498
g66
(dp1499
g93
g94
ssg75
g1488
sg68
(lp1500
S':'
asbag61
(g82
g63
NtRp1501
(dp1502
g66
(dp1503
sg75
g1488
sg68
(lp1504
g61
(g62
g63
NtRp1505
(dp1506
g66
(dp1507
g74
I4
ssg75
g1501
sg68
(lp1508
S'http://127.0.0.1:8000/mycrawler/default/enter_info'
p1509
asbasbasbag61
(g77
g63
NtRp1510
(dp1511
g66
(dp1512
sg75
g1196
sg68
(lp1513
g61
(g82
g63
NtRp1514
(dp1515
g66
(dp1516
g86
g87
ssg75
g1510
sg68
(lp1517
S'http_user_agent'
p1518
asbag61
(g82
g63
NtRp1519
(dp1520
g66
(dp1521
g93
g94
ssg75
g1510
sg68
(lp1522
S':'
asbag61
(g82
g63
NtRp1523
(dp1524
g66
(dp1525
sg75
g1510
sg68
(lp1526
g61
(g62
g63
NtRp1527
(dp1528
g66
(dp1529
g74
I4
ssg75
g1523
sg68
(lp1530
S'Mozilla/5.0 (Windows NT 5.1; rv:12.0) Gecko/20100101 Firefox/12.0'
p1531
asbasbasbag61
(g77
g63
NtRp1532
(dp1533
g66
(dp1534
sg75
g1196
sg68
(lp1535
g61
(g82
g63
NtRp1536
(dp1537
g66
(dp1538
g86
g87
ssg75
g1532
sg68
(lp1539
S'is_jython'
p1540
asbag61
(g82
g63
NtRp1541
(dp1542
g66
(dp1543
g93
g94
ssg75
g1532
sg68
(lp1544
S':'
asbag61
(g82
g63
NtRp1545
(dp1546
g66
(dp1547
sg75
g1532
sg68
(lp1548
g61
(g62
g63
NtRp1549
(dp1550
g66
(dp1551
g74
I4
ssg75
g1545
sg68
(lp1552
g104
asbasbasbag61
(g77
g63
NtRp1553
(dp1554
g66
(dp1555
sg75
g1196
sg68
(lp1556
g61
(g82
g63
NtRp1557
(dp1558
g66
(dp1559
g86
g87
ssg75
g1553
sg68
(lp1560
S'is_pypy'
p1561
asbag61
(g82
g63
NtRp1562
(dp1563
g66
(dp1564
g93
g94
ssg75
g1553
sg68
(lp1565
S':'
asbag61
(g82
g63
NtRp1566
(dp1567
g66
(dp1568
sg75
g1553
sg68
(lp1569
g61
(g62
g63
NtRp1570
(dp1571
g66
(dp1572
g74
I4
ssg75
g1566
sg68
(lp1573
g104
asbasbasbag61
(g77
g63
NtRp1574
(dp1575
g66
(dp1576
sg75
g1196
sg68
(lp1577
g61
(g82
g63
NtRp1578
(dp1579
g66
(dp1580
g86
g87
ssg75
g1574
sg68
(lp1581
S'path_info'
p1582
asbag61
(g82
g63
NtRp1583
(dp1584
g66
(dp1585
g93
g94
ssg75
g1574
sg68
(lp1586
S':'
asbag61
(g82
g63
NtRp1587
(dp1588
g66
(dp1589
sg75
g1574
sg68
(lp1590
g61
(g62
g63
NtRp1591
(dp1592
g66
(dp1593
g74
I4
ssg75
g1587
sg68
(lp1594
S'/mycrawler/default/search'
p1595
asbasbasbag61
(g77
g63
NtRp1596
(dp1597
g66
(dp1598
sg75
g1196
sg68
(lp1599
g61
(g82
g63
NtRp1600
(dp1601
g66
(dp1602
g86
g87
ssg75
g1596
sg68
(lp1603
S'query_string'
p1604
asbag61
(g82
g63
NtRp1605
(dp1606
g66
(dp1607
g93
g94
ssg75
g1596
sg68
(lp1608
S':'
asbag61
(g82
g63
NtRp1609
(dp1610
g66
(dp1611
sg75
g1596
sg68
(lp1612
g61
(g62
g63
NtRp1613
(dp1614
g66
(dp1615
g74
I4
ssg75
g1609
sg68
(lp1616
S'Company=&Country=India&File_Name=32&First_Name=&Functions=All+Functions&Industry=Accounting&Industry=Airlines%2FAviation&Keywords=&Last_Name=pai&School=&Seniority_Levels=Manager&Seniority_Levels=Owner&Title=&_formkey=e62c645a-b7f9-4b2f-bea1-5dee226ea13e&_formname=no_table%2Fcreate'
p1617
asbasbasbag61
(g77
g63
NtRp1618
(dp1619
g66
(dp1620
sg75
g1196
sg68
(lp1621
g61
(g82
g63
NtRp1622
(dp1623
g66
(dp1624
g86
g87
ssg75
g1618
sg68
(lp1625
S'remote_addr'
p1626
asbag61
(g82
g63
NtRp1627
(dp1628
g66
(dp1629
g93
g94
ssg75
g1618
sg68
(lp1630
S':'
asbag61
(g82
g63
NtRp1631
(dp1632
g66
(dp1633
sg75
g1618
sg68
(lp1634
g61
(g62
g63
NtRp1635
(dp1636
g66
(dp1637
g74
I4
ssg75
g1631
sg68
(lp1638
g194
asbasbasbag61
(g77
g63
NtRp1639
(dp1640
g66
(dp1641
sg75
g1196
sg68
(lp1642
g61
(g82
g63
NtRp1643
(dp1644
g66
(dp1645
g86
g87
ssg75
g1639
sg68
(lp1646
S'remote_port'
p1647
asbag61
(g82
g63
NtRp1648
(dp1649
g66
(dp1650
g93
g94
ssg75
g1639
sg68
(lp1651
S':'
asbag61
(g82
g63
NtRp1652
(dp1653
g66
(dp1654
sg75
g1639
sg68
(lp1655
g61
(g62
g63
NtRp1656
(dp1657
g66
(dp1658
g74
I4
ssg75
g1652
sg68
(lp1659
S'1994'
p1660
asbasbasbag61
(g77
g63
NtRp1661
(dp1662
g66
(dp1663
sg75
g1196
sg68
(lp1664
g61
(g82
g63
NtRp1665
(dp1666
g66
(dp1667
g86
g87
ssg75
g1661
sg68
(lp1668
S'request_method'
p1669
asbag61
(g82
g63
NtRp1670
(dp1671
g66
(dp1672
g93
g94
ssg75
g1661
sg68
(lp1673
S':'
asbag61
(g82
g63
NtRp1674
(dp1675
g66
(dp1676
sg75
g1661
sg68
(lp1677
g61
(g62
g63
NtRp1678
(dp1679
g66
(dp1680
g74
I4
ssg75
g1674
sg68
(lp1681
S'GET'
p1682
asbasbasbag61
(g77
g63
NtRp1683
(dp1684
g66
(dp1685
sg75
g1196
sg68
(lp1686
g61
(g82
g63
NtRp1687
(dp1688
g66
(dp1689
g86
g87
ssg75
g1683
sg68
(lp1690
S'script_name'
p1691
asbag61
(g82
g63
NtRp1692
(dp1693
g66
(dp1694
g93
g94
ssg75
g1683
sg68
(lp1695
S':'
asbag61
(g82
g63
NtRp1696
(dp1697
g66
(dp1698
sg75
g1683
sg68
(lp1699
g61
(g62
g63
NtRp1700
(dp1701
g66
(dp1702
g74
I4
ssg75
g1696
sg68
(lp1703
S''
asbasbasbag61
(g77
g63
NtRp1704
(dp1705
g66
(dp1706
sg75
g1196
sg68
(lp1707
g61
(g82
g63
NtRp1708
(dp1709
g66
(dp1710
g86
g87
ssg75
g1704
sg68
(lp1711
S'server_name'
p1712
asbag61
(g82
g63
NtRp1713
(dp1714
g66
(dp1715
g93
g94
ssg75
g1704
sg68
(lp1716
S':'
asbag61
(g82
g63
NtRp1717
(dp1718
g66
(dp1719
sg75
g1704
sg68
(lp1720
g61
(g62
g63
NtRp1721
(dp1722
g66
(dp1723
g74
I4
ssg75
g1717
sg68
(lp1724
S'mniagrover'
p1725
asbasbasbag61
(g77
g63
NtRp1726
(dp1727
g66
(dp1728
sg75
g1196
sg68
(lp1729
g61
(g82
g63
NtRp1730
(dp1731
g66
(dp1732
g86
g87
ssg75
g1726
sg68
(lp1733
S'server_port'
p1734
asbag61
(g82
g63
NtRp1735
(dp1736
g66
(dp1737
g93
g94
ssg75
g1726
sg68
(lp1738
S':'
asbag61
(g82
g63
NtRp1739
(dp1740
g66
(dp1741
sg75
g1726
sg68
(lp1742
g61
(g62
g63
NtRp1743
(dp1744
g66
(dp1745
g74
I4
ssg75
g1739
sg68
(lp1746
S'8000'
p1747
asbasbasbag61
(g77
g63
NtRp1748
(dp1749
g66
(dp1750
sg75
g1196
sg68
(lp1751
g61
(g82
g63
NtRp1752
(dp1753
g66
(dp1754
g86
g87
ssg75
g1748
sg68
(lp1755
S'server_protocol'
p1756
asbag61
(g82
g63
NtRp1757
(dp1758
g66
(dp1759
g93
g94
ssg75
g1748
sg68
(lp1760
S':'
asbag61
(g82
g63
NtRp1761
(dp1762
g66
(dp1763
sg75
g1748
sg68
(lp1764
g61
(g62
g63
NtRp1765
(dp1766
g66
(dp1767
g74
I4
ssg75
g1761
sg68
(lp1768
S'HTTP/1.1'
p1769
asbasbasbag61
(g77
g63
NtRp1770
(dp1771
g66
(dp1772
sg75
g1196
sg68
(lp1773
g61
(g82
g63
NtRp1774
(dp1775
g66
(dp1776
g86
g87
ssg75
g1770
sg68
(lp1777
S'server_software'
p1778
asbag61
(g82
g63
NtRp1779
(dp1780
g66
(dp1781
g93
g94
ssg75
g1770
sg68
(lp1782
S':'
asbag61
(g82
g63
NtRp1783
(dp1784
g66
(dp1785
sg75
g1770
sg68
(lp1786
g61
(g62
g63
NtRp1787
(dp1788
g66
(dp1789
g74
I4
ssg75
g1783
sg68
(lp1790
S'Rocket 1.2.4'
p1791
asbasbasbag61
(g77
g63
NtRp1792
(dp1793
g66
(dp1794
sg75
g1196
sg68
(lp1795
g61
(g82
g63
NtRp1796
(dp1797
g66
(dp1798
g86
g87
ssg75
g1792
sg68
(lp1799
S'web2py_crontype'
p1800
asbag61
(g82
g63
NtRp1801
(dp1802
g66
(dp1803
g93
g94
ssg75
g1792
sg68
(lp1804
S':'
asbag61
(g82
g63
NtRp1805
(dp1806
g66
(dp1807
sg75
g1792
sg68
(lp1808
g61
(g62
g63
NtRp1809
(dp1810
g66
(dp1811
g74
I4
ssg75
g1805
sg68
(lp1812
S'hard'
p1813
asbasbasbag61
(g77
g63
NtRp1814
(dp1815
g66
(dp1816
sg75
g1196
sg68
(lp1817
g61
(g82
g63
NtRp1818
(dp1819
g66
(dp1820
g86
g87
ssg75
g1814
sg68
(lp1821
S'web2py_path'
p1822
asbag61
(g82
g63
NtRp1823
(dp1824
g66
(dp1825
g93
g94
ssg75
g1814
sg68
(lp1826
S':'
asbag61
(g82
g63
NtRp1827
(dp1828
g66
(dp1829
sg75
g1814
sg68
(lp1830
g61
(g62
g63
NtRp1831
(dp1832
g66
(dp1833
g74
I4
ssg75
g1827
sg68
(lp1834
g1243
asbasbasbag61
(g77
g63
NtRp1835
(dp1836
g66
(dp1837
sg75
g1196
sg68
(lp1838
g61
(g82
g63
NtRp1839
(dp1840
g66
(dp1841
g86
g87
ssg75
g1835
sg68
(lp1842
S'web2py_version'
p1843
asbag61
(g82
g63
NtRp1844
(dp1845
g66
(dp1846
g93
g94
ssg75
g1835
sg68
(lp1847
S':'
asbag61
(g82
g63
NtRp1848
(dp1849
g66
(dp1850
sg75
g1835
sg68
(lp1851
g61
(g62
g63
NtRp1852
(dp1853
g66
(dp1854
g74
I4
ssg75
g1848
sg68
(lp1855
g61
(g70
g63
NtRp1856
(dp1857
g66
(dp1858
g74
I3
ssg75
Nsg68
(lp1859
g61
(g77
g63
NtRp1860
(dp1861
g66
(dp1862
sg75
g1856
sg68
(lp1863
g61
(g82
g63
NtRp1864
(dp1865
g66
(dp1866
sg75
g1860
sg68
(lp1867
g61
(g62
g63
NtRp1868
(dp1869
g66
(dp1870
g74
I3
ssg75
g1864
sg68
(lp1871
S'1'
asbasbasbag61
(g77
g63
NtRp1872
(dp1873
g66
(dp1874
sg75
g1856
sg68
(lp1875
g61
(g82
g63
NtRp1876
(dp1877
g66
(dp1878
sg75
g1872
sg68
(lp1879
g61
(g62
g63
NtRp1880
(dp1881
g66
(dp1882
g74
I3
ssg75
g1876
sg68
(lp1883
S'99'
p1884
asbasbasbag61
(g77
g63
NtRp1885
(dp1886
g66
(dp1887
sg75
g1856
sg68
(lp1888
g61
(g82
g63
NtRp1889
(dp1890
g66
(dp1891
sg75
g1885
sg68
(lp1892
g61
(g62
g63
NtRp1893
(dp1894
g66
(dp1895
g74
I3
ssg75
g1889
sg68
(lp1896
S'7'
asbasbasbag61
(g77
g63
NtRp1897
(dp1898
g66
(dp1899
sg75
g1856
sg68
(lp1900
g61
(g82
g63
NtRp1901
(dp1902
g66
(dp1903
sg75
g1897
sg68
(lp1904
g61
(g62
g63
NtRp1905
(dp1906
g66
(dp1907
g74
I3
ssg75
g1901
sg68
(lp1908
S'datetime.datetime(2012, 3, 4, 22, 12, 8)'
p1909
asbasbasbag61
(g77
g63
NtRp1910
(dp1911
g66
(dp1912
sg75
g1856
sg68
(lp1913
g61
(g82
g63
NtRp1914
(dp1915
g66
(dp1916
sg75
g1910
sg68
(lp1917
g61
(g62
g63
NtRp1918
(dp1919
g66
(dp1920
g74
I3
ssg75
g1914
sg68
(lp1921
S'stable'
p1922
asbasbasbasbasbasbasbag61
(g77
g63
NtRp1923
(dp1924
g66
(dp1925
sg75
g1196
sg68
(lp1926
g61
(g82
g63
NtRp1927
(dp1928
g66
(dp1929
g86
g87
ssg75
g1923
sg68
(lp1930
S'wsgi_errors'
p1931
asbag61
(g82
g63
NtRp1932
(dp1933
g66
(dp1934
g93
g94
ssg75
g1923
sg68
(lp1935
S':'
asbag61
(g82
g63
NtRp1936
(dp1937
g66
(dp1938
sg75
g1923
sg68
(lp1939
g61
(g62
g63
NtRp1940
(dp1941
g66
(dp1942
g74
I4
ssg75
g1936
sg68
(lp1943
S"<open file '<stderr>', mode 'w' at 0x00A550D0>"
p1944
asbasbasbag61
(g77
g63
NtRp1945
(dp1946
g66
(dp1947
sg75
g1196
sg68
(lp1948
g61
(g82
g63
NtRp1949
(dp1950
g66
(dp1951
g86
g87
ssg75
g1945
sg68
(lp1952
S'wsgi_file_wrapper'
p1953
asbag61
(g82
g63
NtRp1954
(dp1955
g66
(dp1956
g93
g94
ssg75
g1945
sg68
(lp1957
S':'
asbag61
(g82
g63
NtRp1958
(dp1959
g66
(dp1960
sg75
g1945
sg68
(lp1961
g61
(g62
g63
NtRp1962
(dp1963
g66
(dp1964
g74
I4
ssg75
g1958
sg68
(lp1965
S'<class wsgiref.util.FileWrapper at 0x015E8AB0>'
p1966
asbasbasbag61
(g77
g63
NtRp1967
(dp1968
g66
(dp1969
sg75
g1196
sg68
(lp1970
g61
(g82
g63
NtRp1971
(dp1972
g66
(dp1973
g86
g87
ssg75
g1967
sg68
(lp1974
S'wsgi_input'
p1975
asbag61
(g82
g63
NtRp1976
(dp1977
g66
(dp1978
g93
g94
ssg75
g1967
sg68
(lp1979
S':'
asbag61
(g82
g63
NtRp1980
(dp1981
g66
(dp1982
sg75
g1967
sg68
(lp1983
g61
(g62
g63
NtRp1984
(dp1985
g66
(dp1986
g74
I4
ssg75
g1980
sg68
(lp1987
S'<socket._fileobject object at 0x058FEE30>'
p1988
asbasbasbag61
(g77
g63
NtRp1989
(dp1990
g66
(dp1991
sg75
g1196
sg68
(lp1992
g61
(g82
g63
NtRp1993
(dp1994
g66
(dp1995
g86
g87
ssg75
g1989
sg68
(lp1996
S'wsgi_multiprocess'
p1997
asbag61
(g82
g63
NtRp1998
(dp1999
g66
(dp2000
g93
g94
ssg75
g1989
sg68
(lp2001
S':'
asbag61
(g82
g63
NtRp2002
(dp2003
g66
(dp2004
sg75
g1989
sg68
(lp2005
g61
(g62
g63
NtRp2006
(dp2007
g66
(dp2008
g74
I4
ssg75
g2002
sg68
(lp2009
g104
asbasbasbag61
(g77
g63
NtRp2010
(dp2011
g66
(dp2012
sg75
g1196
sg68
(lp2013
g61
(g82
g63
NtRp2014
(dp2015
g66
(dp2016
g86
g87
ssg75
g2010
sg68
(lp2017
S'wsgi_multithread'
p2018
asbag61
(g82
g63
NtRp2019
(dp2020
g66
(dp2021
g93
g94
ssg75
g2010
sg68
(lp2022
S':'
asbag61
(g82
g63
NtRp2023
(dp2024
g66
(dp2025
sg75
g2010
sg68
(lp2026
g61
(g62
g63
NtRp2027
(dp2028
g66
(dp2029
g74
I4
ssg75
g2023
sg68
(lp2030
S'True'
p2031
asbasbasbag61
(g77
g63
NtRp2032
(dp2033
g66
(dp2034
sg75
g1196
sg68
(lp2035
g61
(g82
g63
NtRp2036
(dp2037
g66
(dp2038
g86
g87
ssg75
g2032
sg68
(lp2039
S'wsgi_run_once'
p2040
asbag61
(g82
g63
NtRp2041
(dp2042
g66
(dp2043
g93
g94
ssg75
g2032
sg68
(lp2044
S':'
asbag61
(g82
g63
NtRp2045
(dp2046
g66
(dp2047
sg75
g2032
sg68
(lp2048
g61
(g62
g63
NtRp2049
(dp2050
g66
(dp2051
g74
I4
ssg75
g2045
sg68
(lp2052
g104
asbasbasbag61
(g77
g63
NtRp2053
(dp2054
g66
(dp2055
sg75
g1196
sg68
(lp2056
g61
(g82
g63
NtRp2057
(dp2058
g66
(dp2059
g86
g87
ssg75
g2053
sg68
(lp2060
S'wsgi_url_scheme'
p2061
asbag61
(g82
g63
NtRp2062
(dp2063
g66
(dp2064
g93
g94
ssg75
g2053
sg68
(lp2065
S':'
asbag61
(g82
g63
NtRp2066
(dp2067
g66
(dp2068
sg75
g2053
sg68
(lp2069
g61
(g62
g63
NtRp2070
(dp2071
g66
(dp2072
g74
I4
ssg75
g2066
sg68
(lp2073
S'http'
p2074
asbasbasbag61
(g77
g63
NtRp2075
(dp2076
g66
(dp2077
sg75
g1196
sg68
(lp2078
g61
(g82
g63
NtRp2079
(dp2080
g66
(dp2081
g86
g87
ssg75
g2075
sg68
(lp2082
S'wsgi_version'
p2083
asbag61
(g82
g63
NtRp2084
(dp2085
g66
(dp2086
g93
g94
ssg75
g2075
sg68
(lp2087
S':'
asbag61
(g82
g63
NtRp2088
(dp2089
g66
(dp2090
sg75
g2075
sg68
(lp2091
g61
(g62
g63
NtRp2092
(dp2093
g66
(dp2094
g74
I4
ssg75
g2088
sg68
(lp2095
g61
(g70
g63
NtRp2096
(dp2097
g66
(dp2098
g74
I3
ssg75
Nsg68
(lp2099
g61
(g77
g63
NtRp2100
(dp2101
g66
(dp2102
sg75
g2096
sg68
(lp2103
g61
(g82
g63
NtRp2104
(dp2105
g66
(dp2106
sg75
g2100
sg68
(lp2107
g61
(g62
g63
NtRp2108
(dp2109
g66
(dp2110
g74
I3
ssg75
g2104
sg68
(lp2111
S'1'
asbasbasbag61
(g77
g63
NtRp2112
(dp2113
g66
(dp2114
sg75
g2096
sg68
(lp2115
g61
(g82
g63
NtRp2116
(dp2117
g66
(dp2118
sg75
g2112
sg68
(lp2119
g61
(g62
g63
NtRp2120
(dp2121
g66
(dp2122
g74
I3
ssg75
g2116
sg68
(lp2123
S'0'
asbasbasbasbasbasbasbasbasbasbasbag61
(g77
g63
NtRp2124
(dp2125
g66
(dp2126
sg75
g71
sg68
(lp2127
g61
(g82
g63
NtRp2128
(dp2129
g66
(dp2130
g86
g87
ssg75
g2124
sg68
(lp2131
S'extension'
p2132
asbag61
(g82
g63
NtRp2133
(dp2134
g66
(dp2135
g93
g94
ssg75
g2124
sg68
(lp2136
S':'
asbag61
(g82
g63
NtRp2137
(dp2138
g66
(dp2139
sg75
g2124
sg68
(lp2140
g61
(g62
g63
NtRp2141
(dp2142
g66
(dp2143
g74
I5
ssg75
g2137
sg68
(lp2144
S'html'
p2145
asbasbasbag61
(g77
g63
NtRp2146
(dp2147
g66
(dp2148
sg75
g71
sg68
(lp2149
g61
(g82
g63
NtRp2150
(dp2151
g66
(dp2152
g86
g87
ssg75
g2146
sg68
(lp2153
S'folder'
p2154
asbag61
(g82
g63
NtRp2155
(dp2156
g66
(dp2157
g93
g94
ssg75
g2146
sg68
(lp2158
S':'
asbag61
(g82
g63
NtRp2159
(dp2160
g66
(dp2161
sg75
g2146
sg68
(lp2162
g61
(g62
g63
NtRp2163
(dp2164
g66
(dp2165
g74
I5
ssg75
g2159
sg68
(lp2166
S'C:\\Documents and Settings\\agrover\\Desktop\\previous crawler\\web2py\\applications\\mycrawler\\'
p2167
asbasbasbag61
(g77
g63
NtRp2168
(dp2169
g66
(dp2170
sg75
g71
sg68
(lp2171
g61
(g82
g63
NtRp2172
(dp2173
g66
(dp2174
g86
g87
ssg75
g2168
sg68
(lp2175
S'function'
p2176
asbag61
(g82
g63
NtRp2177
(dp2178
g66
(dp2179
g93
g94
ssg75
g2168
sg68
(lp2180
S':'
asbag61
(g82
g63
NtRp2181
(dp2182
g66
(dp2183
sg75
g2168
sg68
(lp2184
g61
(g62
g63
NtRp2185
(dp2186
g66
(dp2187
g74
I5
ssg75
g2181
sg68
(lp2188
S'search'
p2189
asbasbasbag61
(g77
g63
NtRp2190
(dp2191
g66
(dp2192
sg75
g71
sg68
(lp2193
g61
(g82
g63
NtRp2194
(dp2195
g66
(dp2196
g86
g87
ssg75
g2190
sg68
(lp2197
S'get_vars'
p2198
asbag61
(g82
g63
NtRp2199
(dp2200
g66
(dp2201
g93
g94
ssg75
g2190
sg68
(lp2202
S':'
asbag61
(g82
g63
NtRp2203
(dp2204
g66
(dp2205
sg75
g2190
sg68
(lp2206
g61
(g62
g63
NtRp2207
(dp2208
g66
(dp2209
g74
I5
ssg75
g2203
sg68
(lp2210
g61
(g70
g63
NtRp2211
(dp2212
g66
(dp2213
g74
I4
ssg75
Nsg68
(lp2214
g61
(g77
g63
NtRp2215
(dp2216
g66
(dp2217
sg75
g2211
sg68
(lp2218
g61
(g82
g63
NtRp2219
(dp2220
g66
(dp2221
g86
g87
ssg75
g2215
sg68
(lp2222
S'Company'
p2223
asbag61
(g82
g63
NtRp2224
(dp2225
g66
(dp2226
g93
g94
ssg75
g2215
sg68
(lp2227
S':'
asbag61
(g82
g63
NtRp2228
(dp2229
g66
(dp2230
sg75
g2215
sg68
(lp2231
g61
(g62
g63
NtRp2232
(dp2233
g66
(dp2234
g74
I4
ssg75
g2228
sg68
(lp2235
S''
asbasbasbag61
(g77
g63
NtRp2236
(dp2237
g66
(dp2238
sg75
g2211
sg68
(lp2239
g61
(g82
g63
NtRp2240
(dp2241
g66
(dp2242
g86
g87
ssg75
g2236
sg68
(lp2243
S'Country'
p2244
asbag61
(g82
g63
NtRp2245
(dp2246
g66
(dp2247
g93
g94
ssg75
g2236
sg68
(lp2248
S':'
asbag61
(g82
g63
NtRp2249
(dp2250
g66
(dp2251
sg75
g2236
sg68
(lp2252
g61
(g62
g63
NtRp2253
(dp2254
g66
(dp2255
g74
I4
ssg75
g2249
sg68
(lp2256
S'India'
p2257
asbasbasbag61
(g77
g63
NtRp2258
(dp2259
g66
(dp2260
sg75
g2211
sg68
(lp2261
g61
(g82
g63
NtRp2262
(dp2263
g66
(dp2264
g86
g87
ssg75
g2258
sg68
(lp2265
S'File_Name'
p2266
asbag61
(g82
g63
NtRp2267
(dp2268
g66
(dp2269
g93
g94
ssg75
g2258
sg68
(lp2270
S':'
asbag61
(g82
g63
NtRp2271
(dp2272
g66
(dp2273
sg75
g2258
sg68
(lp2274
g61
(g62
g63
NtRp2275
(dp2276
g66
(dp2277
g74
I4
ssg75
g2271
sg68
(lp2278
S'32'
p2279
asbasbasbag61
(g77
g63
NtRp2280
(dp2281
g66
(dp2282
sg75
g2211
sg68
(lp2283
g61
(g82
g63
NtRp2284
(dp2285
g66
(dp2286
g86
g87
ssg75
g2280
sg68
(lp2287
S'First_Name'
p2288
asbag61
(g82
g63
NtRp2289
(dp2290
g66
(dp2291
g93
g94
ssg75
g2280
sg68
(lp2292
S':'
asbag61
(g82
g63
NtRp2293
(dp2294
g66
(dp2295
sg75
g2280
sg68
(lp2296
g61
(g62
g63
NtRp2297
(dp2298
g66
(dp2299
g74
I4
ssg75
g2293
sg68
(lp2300
S''
asbasbasbag61
(g77
g63
NtRp2301
(dp2302
g66
(dp2303
sg75
g2211
sg68
(lp2304
g61
(g82
g63
NtRp2305
(dp2306
g66
(dp2307
g86
g87
ssg75
g2301
sg68
(lp2308
S'Functions'
p2309
asbag61
(g82
g63
NtRp2310
(dp2311
g66
(dp2312
g93
g94
ssg75
g2301
sg68
(lp2313
S':'
asbag61
(g82
g63
NtRp2314
(dp2315
g66
(dp2316
sg75
g2301
sg68
(lp2317
g61
(g62
g63
NtRp2318
(dp2319
g66
(dp2320
g74
I4
ssg75
g2314
sg68
(lp2321
S'All Functions'
p2322
asbasbasbag61
(g77
g63
NtRp2323
(dp2324
g66
(dp2325
sg75
g2211
sg68
(lp2326
g61
(g82
g63
NtRp2327
(dp2328
g66
(dp2329
g86
g87
ssg75
g2323
sg68
(lp2330
S'Industry'
p2331
asbag61
(g82
g63
NtRp2332
(dp2333
g66
(dp2334
g93
g94
ssg75
g2323
sg68
(lp2335
S':'
asbag61
(g82
g63
NtRp2336
(dp2337
g66
(dp2338
sg75
g2323
sg68
(lp2339
g61
(g62
g63
NtRp2340
(dp2341
g66
(dp2342
g74
I4
ssg75
g2336
sg68
(lp2343
g61
(g70
g63
NtRp2344
(dp2345
g66
(dp2346
g74
I3
ssg75
Nsg68
(lp2347
g61
(g77
g63
NtRp2348
(dp2349
g66
(dp2350
sg75
g2344
sg68
(lp2351
g61
(g82
g63
NtRp2352
(dp2353
g66
(dp2354
sg75
g2348
sg68
(lp2355
g61
(g62
g63
NtRp2356
(dp2357
g66
(dp2358
g74
I3
ssg75
g2352
sg68
(lp2359
S'Accounting'
p2360
asbasbasbag61
(g77
g63
NtRp2361
(dp2362
g66
(dp2363
sg75
g2344
sg68
(lp2364
g61
(g82
g63
NtRp2365
(dp2366
g66
(dp2367
sg75
g2361
sg68
(lp2368
g61
(g62
g63
NtRp2369
(dp2370
g66
(dp2371
g74
I3
ssg75
g2365
sg68
(lp2372
S'Airlines/Aviation'
p2373
asbasbasbasbasbasbasbag61
(g77
g63
NtRp2374
(dp2375
g66
(dp2376
sg75
g2211
sg68
(lp2377
g61
(g82
g63
NtRp2378
(dp2379
g66
(dp2380
g86
g87
ssg75
g2374
sg68
(lp2381
S'Keywords'
p2382
asbag61
(g82
g63
NtRp2383
(dp2384
g66
(dp2385
g93
g94
ssg75
g2374
sg68
(lp2386
S':'
asbag61
(g82
g63
NtRp2387
(dp2388
g66
(dp2389
sg75
g2374
sg68
(lp2390
g61
(g62
g63
NtRp2391
(dp2392
g66
(dp2393
g74
I4
ssg75
g2387
sg68
(lp2394
S''
asbasbasbag61
(g77
g63
NtRp2395
(dp2396
g66
(dp2397
sg75
g2211
sg68
(lp2398
g61
(g82
g63
NtRp2399
(dp2400
g66
(dp2401
g86
g87
ssg75
g2395
sg68
(lp2402
S'Last_Name'
p2403
asbag61
(g82
g63
NtRp2404
(dp2405
g66
(dp2406
g93
g94
ssg75
g2395
sg68
(lp2407
S':'
asbag61
(g82
g63
NtRp2408
(dp2409
g66
(dp2410
sg75
g2395
sg68
(lp2411
g61
(g62
g63
NtRp2412
(dp2413
g66
(dp2414
g74
I4
ssg75
g2408
sg68
(lp2415
S'pai'
p2416
asbasbasbag61
(g77
g63
NtRp2417
(dp2418
g66
(dp2419
sg75
g2211
sg68
(lp2420
g61
(g82
g63
NtRp2421
(dp2422
g66
(dp2423
g86
g87
ssg75
g2417
sg68
(lp2424
S'School'
p2425
asbag61
(g82
g63
NtRp2426
(dp2427
g66
(dp2428
g93
g94
ssg75
g2417
sg68
(lp2429
S':'
asbag61
(g82
g63
NtRp2430
(dp2431
g66
(dp2432
sg75
g2417
sg68
(lp2433
g61
(g62
g63
NtRp2434
(dp2435
g66
(dp2436
g74
I4
ssg75
g2430
sg68
(lp2437
S''
asbasbasbag61
(g77
g63
NtRp2438
(dp2439
g66
(dp2440
sg75
g2211
sg68
(lp2441
g61
(g82
g63
NtRp2442
(dp2443
g66
(dp2444
g86
g87
ssg75
g2438
sg68
(lp2445
S'Seniority_Levels'
p2446
asbag61
(g82
g63
NtRp2447
(dp2448
g66
(dp2449
g93
g94
ssg75
g2438
sg68
(lp2450
S':'
asbag61
(g82
g63
NtRp2451
(dp2452
g66
(dp2453
sg75
g2438
sg68
(lp2454
g61
(g62
g63
NtRp2455
(dp2456
g66
(dp2457
g74
I4
ssg75
g2451
sg68
(lp2458
g61
(g70
g63
NtRp2459
(dp2460
g66
(dp2461
g74
I3
ssg75
Nsg68
(lp2462
g61
(g77
g63
NtRp2463
(dp2464
g66
(dp2465
sg75
g2459
sg68
(lp2466
g61
(g82
g63
NtRp2467
(dp2468
g66
(dp2469
sg75
g2463
sg68
(lp2470
g61
(g62
g63
NtRp2471
(dp2472
g66
(dp2473
g74
I3
ssg75
g2467
sg68
(lp2474
S'Manager'
p2475
asbasbasbag61
(g77
g63
NtRp2476
(dp2477
g66
(dp2478
sg75
g2459
sg68
(lp2479
g61
(g82
g63
NtRp2480
(dp2481
g66
(dp2482
sg75
g2476
sg68
(lp2483
g61
(g62
g63
NtRp2484
(dp2485
g66
(dp2486
g74
I3
ssg75
g2480
sg68
(lp2487
S'Owner'
p2488
asbasbasbasbasbasbasbag61
(g77
g63
NtRp2489
(dp2490
g66
(dp2491
sg75
g2211
sg68
(lp2492
g61
(g82
g63
NtRp2493
(dp2494
g66
(dp2495
g86
g87
ssg75
g2489
sg68
(lp2496
S'Title'
p2497
asbag61
(g82
g63
NtRp2498
(dp2499
g66
(dp2500
g93
g94
ssg75
g2489
sg68
(lp2501
S':'
asbag61
(g82
g63
NtRp2502
(dp2503
g66
(dp2504
sg75
g2489
sg68
(lp2505
g61
(g62
g63
NtRp2506
(dp2507
g66
(dp2508
g74
I4
ssg75
g2502
sg68
(lp2509
S''
asbasbasbasbasbasbasbag61
(g77
g63
NtRp2510
(dp2511
g66
(dp2512
sg75
g71
sg68
(lp2513
g61
(g82
g63
NtRp2514
(dp2515
g66
(dp2516
g86
g87
ssg75
g2510
sg68
(lp2517
S'global_settings'
p2518
asbag61
(g82
g63
NtRp2519
(dp2520
g66
(dp2521
g93
g94
ssg75
g2510
sg68
(lp2522
S':'
asbag61
(g82
g63
NtRp2523
(dp2524
g66
(dp2525
sg75
g2510
sg68
(lp2526
g61
(g62
g63
NtRp2527
(dp2528
g66
(dp2529
g74
I5
ssg75
g2523
sg68
(lp2530
g61
(g70
g63
NtRp2531
(dp2532
g66
(dp2533
g74
I4
ssg75
Nsg68
(lp2534
g61
(g77
g63
NtRp2535
(dp2536
g66
(dp2537
sg75
g2531
sg68
(lp2538
g61
(g82
g63
NtRp2539
(dp2540
g66
(dp2541
g86
g87
ssg75
g2535
sg68
(lp2542
g1208
asbag61
(g82
g63
NtRp2543
(dp2544
g66
(dp2545
g93
g94
ssg75
g2535
sg68
(lp2546
S':'
asbag61
(g82
g63
NtRp2547
(dp2548
g66
(dp2549
sg75
g2535
sg68
(lp2550
g61
(g62
g63
NtRp2551
(dp2552
g66
(dp2553
g74
I4
ssg75
g2547
sg68
(lp2554
S"set(['C:\\\\Documents and Settings\\\\agrover\\\\Desktop\\\\previous crawler\\\\web2py\\\\applications\\\\admin\\\\', 'C:\\\\Documents and Settings\\\\agrover\\\\Desktop\\\\previous crawler\\\\web2py\\\\applications\\\\mycrawler\\\\', 'C:\\\\Documents and Settings\\\\agrover\\\\Desktop\\\\previous crawler\\\\web2py\\\\applications\\\\welcome\\\\', 'C:\\\\Documents and Settings\\\\agrover\\\\Desktop\\\\previous crawler\\\\web2py\\\\applications\\\\final\\\\'])"
p2555
asbasbasbag61
(g77
g63
NtRp2556
(dp2557
g66
(dp2558
sg75
g2531
sg68
(lp2559
g61
(g82
g63
NtRp2560
(dp2561
g66
(dp2562
g86
g87
ssg75
g2556
sg68
(lp2563
g1230
asbag61
(g82
g63
NtRp2564
(dp2565
g66
(dp2566
g93
g94
ssg75
g2556
sg68
(lp2567
S':'
asbag61
(g82
g63
NtRp2568
(dp2569
g66
(dp2570
sg75
g2556
sg68
(lp2571
g61
(g62
g63
NtRp2572
(dp2573
g66
(dp2574
g74
I4
ssg75
g2568
sg68
(lp2575
g1243
asbasbasbag61
(g77
g63
NtRp2576
(dp2577
g66
(dp2578
sg75
g2531
sg68
(lp2579
g61
(g82
g63
NtRp2580
(dp2581
g66
(dp2582
g86
g87
ssg75
g2576
sg68
(lp2583
g1252
asbag61
(g82
g63
NtRp2584
(dp2585
g66
(dp2586
g93
g94
ssg75
g2576
sg68
(lp2587
S':'
asbag61
(g82
g63
NtRp2588
(dp2589
g66
(dp2590
sg75
g2576
sg68
(lp2591
g61
(g62
g63
NtRp2592
(dp2593
g66
(dp2594
g74
I4
ssg75
g2588
sg68
(lp2595
g61
(g70
g63
NtRp2596
(dp2597
g66
(dp2598
g74
I3
ssg75
Nsg68
(lp2599
sbasbasbasbag61
(g77
g63
NtRp2600
(dp2601
g66
(dp2602
sg75
g2531
sg68
(lp2603
g61
(g82
g63
NtRp2604
(dp2605
g66
(dp2606
g86
g87
ssg75
g2600
sg68
(lp2607
g1277
asbag61
(g82
g63
NtRp2608
(dp2609
g66
(dp2610
g93
g94
ssg75
g2600
sg68
(lp2611
S':'
asbag61
(g82
g63
NtRp2612
(dp2613
g66
(dp2614
sg75
g2600
sg68
(lp2615
g61
(g62
g63
NtRp2616
(dp2617
g66
(dp2618
g74
I4
ssg75
g2612
sg68
(lp2619
S"<Values at 0x16d63f0: {'verbose': False, 'ip': '127.0.0.1', 'shutdown_timeout': 5, 'taskbar': False, 'nocron': False, 'pid_filename': 'httpserver.pid', 'maxthreads': None, 'softcron': False, 'server_name': 'mniagrover', 'bpython': False, 'nogui': False, 'port': 8000, 'extcron': False, 'debuglevel': 30, 'test': None, 'folder': 'C:\\\\Documents and Settings\\\\agrover\\\\Desktop\\\\previous crawler\\\\web2py', 'config': '', 'import_models': False, 'winservice': '', 'shell': None, 'run': '', 'log_filename': 'httpserver.log', 'args': [''], 'socket_timeout': 5, 'ssl_ca_certificate': None, 'scheduler': None, 'profiler_filename': None, 'ssl_private_key': '', 'password': '<ask>', 'request_queue_size': 5, 'ssl_certificate': '', 'cronjob': False, 'numthreads': None, 'quiet': False, 'interfaces': None, 'minthreads': None, 'timeout': 10, 'plain': False, 'nobanner': False}>"
p2620
asbasbasbag61
(g77
g63
NtRp2621
(dp2622
g66
(dp2623
sg75
g2531
sg68
(lp2624
g61
(g82
g63
NtRp2625
(dp2626
g66
(dp2627
g86
g87
ssg75
g2621
sg68
(lp2628
g1299
asbag61
(g82
g63
NtRp2629
(dp2630
g66
(dp2631
g93
g94
ssg75
g2621
sg68
(lp2632
S':'
asbag61
(g82
g63
NtRp2633
(dp2634
g66
(dp2635
sg75
g2621
sg68
(lp2636
g61
(g62
g63
NtRp2637
(dp2638
g66
(dp2639
g74
I4
ssg75
g2633
sg68
(lp2640
S'set([])'
p2641
asbasbasbag61
(g77
g63
NtRp2642
(dp2643
g66
(dp2644
sg75
g2531
sg68
(lp2645
g61
(g82
g63
NtRp2646
(dp2647
g66
(dp2648
g86
g87
ssg75
g2642
sg68
(lp2649
g1321
asbag61
(g82
g63
NtRp2650
(dp2651
g66
(dp2652
g93
g94
ssg75
g2642
sg68
(lp2653
S':'
asbag61
(g82
g63
NtRp2654
(dp2655
g66
(dp2656
sg75
g2642
sg68
(lp2657
g61
(g62
g63
NtRp2658
(dp2659
g66
(dp2660
g74
I4
ssg75
g2654
sg68
(lp2661
g104
asbasbasbag61
(g77
g63
NtRp2662
(dp2663
g66
(dp2664
sg75
g2531
sg68
(lp2665
g61
(g82
g63
NtRp2666
(dp2667
g66
(dp2668
g86
g87
ssg75
g2662
sg68
(lp2669
g1342
asbag61
(g82
g63
NtRp2670
(dp2671
g66
(dp2672
g93
g94
ssg75
g2662
sg68
(lp2673
S':'
asbag61
(g82
g63
NtRp2674
(dp2675
g66
(dp2676
sg75
g2662
sg68
(lp2677
g61
(g62
g63
NtRp2678
(dp2679
g66
(dp2680
g74
I4
ssg75
g2674
sg68
(lp2681
g1355
asbasbasbag61
(g77
g63
NtRp2682
(dp2683
g66
(dp2684
sg75
g2531
sg68
(lp2685
g61
(g82
g63
NtRp2686
(dp2687
g66
(dp2688
g86
g87
ssg75
g2682
sg68
(lp2689
g1540
asbag61
(g82
g63
NtRp2690
(dp2691
g66
(dp2692
g93
g94
ssg75
g2682
sg68
(lp2693
S':'
asbag61
(g82
g63
NtRp2694
(dp2695
g66
(dp2696
sg75
g2682
sg68
(lp2697
g61
(g62
g63
NtRp2698
(dp2699
g66
(dp2700
g74
I4
ssg75
g2694
sg68
(lp2701
g104
asbasbasbag61
(g77
g63
NtRp2702
(dp2703
g66
(dp2704
sg75
g2531
sg68
(lp2705
g61
(g82
g63
NtRp2706
(dp2707
g66
(dp2708
g86
g87
ssg75
g2702
sg68
(lp2709
g1561
asbag61
(g82
g63
NtRp2710
(dp2711
g66
(dp2712
g93
g94
ssg75
g2702
sg68
(lp2713
S':'
asbag61
(g82
g63
NtRp2714
(dp2715
g66
(dp2716
sg75
g2702
sg68
(lp2717
g61
(g62
g63
NtRp2718
(dp2719
g66
(dp2720
g74
I4
ssg75
g2714
sg68
(lp2721
g104
asbasbasbag61
(g77
g63
NtRp2722
(dp2723
g66
(dp2724
sg75
g2531
sg68
(lp2725
g61
(g82
g63
NtRp2726
(dp2727
g66
(dp2728
g86
g87
ssg75
g2722
sg68
(lp2729
g1800
asbag61
(g82
g63
NtRp2730
(dp2731
g66
(dp2732
g93
g94
ssg75
g2722
sg68
(lp2733
S':'
asbag61
(g82
g63
NtRp2734
(dp2735
g66
(dp2736
sg75
g2722
sg68
(lp2737
g61
(g62
g63
NtRp2738
(dp2739
g66
(dp2740
g74
I4
ssg75
g2734
sg68
(lp2741
g1813
asbasbasbag61
(g77
g63
NtRp2742
(dp2743
g66
(dp2744
sg75
g2531
sg68
(lp2745
g61
(g82
g63
NtRp2746
(dp2747
g66
(dp2748
g86
g87
ssg75
g2742
sg68
(lp2749
g1843
asbag61
(g82
g63
NtRp2750
(dp2751
g66
(dp2752
g93
g94
ssg75
g2742
sg68
(lp2753
S':'
asbag61
(g82
g63
NtRp2754
(dp2755
g66
(dp2756
sg75
g2742
sg68
(lp2757
g61
(g62
g63
NtRp2758
(dp2759
g66
(dp2760
g74
I4
ssg75
g2754
sg68
(lp2761
g61
(g70
g63
NtRp2762
(dp2763
g66
(dp2764
g74
I3
ssg75
Nsg68
(lp2765
g61
(g77
g63
NtRp2766
(dp2767
g66
(dp2768
sg75
g2762
sg68
(lp2769
g61
(g82
g63
NtRp2770
(dp2771
g66
(dp2772
sg75
g2766
sg68
(lp2773
g61
(g62
g63
NtRp2774
(dp2775
g66
(dp2776
g74
I3
ssg75
g2770
sg68
(lp2777
S'1'
asbasbasbag61
(g77
g63
NtRp2778
(dp2779
g66
(dp2780
sg75
g2762
sg68
(lp2781
g61
(g82
g63
NtRp2782
(dp2783
g66
(dp2784
sg75
g2778
sg68
(lp2785
g61
(g62
g63
NtRp2786
(dp2787
g66
(dp2788
g74
I3
ssg75
g2782
sg68
(lp2789
S'99'
p2790
asbasbasbag61
(g77
g63
NtRp2791
(dp2792
g66
(dp2793
sg75
g2762
sg68
(lp2794
g61
(g82
g63
NtRp2795
(dp2796
g66
(dp2797
sg75
g2791
sg68
(lp2798
g61
(g62
g63
NtRp2799
(dp2800
g66
(dp2801
g74
I3
ssg75
g2795
sg68
(lp2802
S'7'
asbasbasbag61
(g77
g63
NtRp2803
(dp2804
g66
(dp2805
sg75
g2762
sg68
(lp2806
g61
(g82
g63
NtRp2807
(dp2808
g66
(dp2809
sg75
g2803
sg68
(lp2810
g61
(g62
g63
NtRp2811
(dp2812
g66
(dp2813
g74
I3
ssg75
g2807
sg68
(lp2814
S'datetime.datetime(2012, 3, 4, 22, 12, 8)'
p2815
asbasbasbag61
(g77
g63
NtRp2816
(dp2817
g66
(dp2818
sg75
g2762
sg68
(lp2819
g61
(g82
g63
NtRp2820
(dp2821
g66
(dp2822
sg75
g2816
sg68
(lp2823
g61
(g62
g63
NtRp2824
(dp2825
g66
(dp2826
g74
I3
ssg75
g2820
sg68
(lp2827
g1922
asbasbasbasbasbasbasbasbasbasbasbag61
(g77
g63
NtRp2828
(dp2829
g66
(dp2830
sg75
g71
sg68
(lp2831
g61
(g82
g63
NtRp2832
(dp2833
g66
(dp2834
g86
g87
ssg75
g2828
sg68
(lp2835
S'is_https'
p2836
asbag61
(g82
g63
NtRp2837
(dp2838
g66
(dp2839
g93
g94
ssg75
g2828
sg68
(lp2840
S':'
asbag61
(g82
g63
NtRp2841
(dp2842
g66
(dp2843
sg75
g2828
sg68
(lp2844
g61
(g62
g63
NtRp2845
(dp2846
g66
(dp2847
g74
I5
ssg75
g2841
sg68
(lp2848
g104
asbasbasbag61
(g77
g63
NtRp2849
(dp2850
g66
(dp2851
sg75
g71
sg68
(lp2852
g61
(g82
g63
NtRp2853
(dp2854
g66
(dp2855
g86
g87
ssg75
g2849
sg68
(lp2856
S'is_local'
p2857
asbag61
(g82
g63
NtRp2858
(dp2859
g66
(dp2860
g93
g94
ssg75
g2849
sg68
(lp2861
S':'
asbag61
(g82
g63
NtRp2862
(dp2863
g66
(dp2864
sg75
g2849
sg68
(lp2865
g61
(g62
g63
NtRp2866
(dp2867
g66
(dp2868
g74
I5
ssg75
g2862
sg68
(lp2869
g2031
asbasbasbag61
(g77
g63
NtRp2870
(dp2871
g66
(dp2872
sg75
g71
sg68
(lp2873
g61
(g82
g63
NtRp2874
(dp2875
g66
(dp2876
g86
g87
ssg75
g2870
sg68
(lp2877
S'is_restful'
p2878
asbag61
(g82
g63
NtRp2879
(dp2880
g66
(dp2881
g93
g94
ssg75
g2870
sg68
(lp2882
S':'
asbag61
(g82
g63
NtRp2883
(dp2884
g66
(dp2885
sg75
g2870
sg68
(lp2886
g61
(g62
g63
NtRp2887
(dp2888
g66
(dp2889
g74
I5
ssg75
g2883
sg68
(lp2890
g104
asbasbasbag61
(g77
g63
NtRp2891
(dp2892
g66
(dp2893
sg75
g71
sg68
(lp2894
g61
(g82
g63
NtRp2895
(dp2896
g66
(dp2897
g86
g87
ssg75
g2891
sg68
(lp2898
S'now'
p2899
asbag61
(g82
g63
NtRp2900
(dp2901
g66
(dp2902
g93
g94
ssg75
g2891
sg68
(lp2903
S':'
asbag61
(g82
g63
NtRp2904
(dp2905
g66
(dp2906
sg75
g2891
sg68
(lp2907
g61
(g62
g63
NtRp2908
(dp2909
g66
(dp2910
g74
I5
ssg75
g2904
sg68
(lp2911
S'datetime.datetime(2012, 6, 11, 16, 2, 3, 593000)'
p2912
asbasbasbag61
(g77
g63
NtRp2913
(dp2914
g66
(dp2915
sg75
g71
sg68
(lp2916
g61
(g82
g63
NtRp2917
(dp2918
g66
(dp2919
g86
g87
ssg75
g2913
sg68
(lp2920
S'post_vars'
p2921
asbag61
(g82
g63
NtRp2922
(dp2923
g66
(dp2924
g93
g94
ssg75
g2913
sg68
(lp2925
S':'
asbag61
(g82
g63
NtRp2926
(dp2927
g66
(dp2928
sg75
g2913
sg68
(lp2929
g61
(g62
g63
NtRp2930
(dp2931
g66
(dp2932
g74
I5
ssg75
g2926
sg68
(lp2933
g61
(g70
g63
NtRp2934
(dp2935
g66
(dp2936
g74
I4
ssg75
Nsg68
(lp2937
sbasbasbasbag61
(g77
g63
NtRp2938
(dp2939
g66
(dp2940
sg75
g71
sg68
(lp2941
g61
(g82
g63
NtRp2942
(dp2943
g66
(dp2944
g86
g87
ssg75
g2938
sg68
(lp2945
S'url'
p2946
asbag61
(g82
g63
NtRp2947
(dp2948
g66
(dp2949
g93
g94
ssg75
g2938
sg68
(lp2950
S':'
asbag61
(g82
g63
NtRp2951
(dp2952
g66
(dp2953
sg75
g2938
sg68
(lp2954
g61
(g62
g63
NtRp2955
(dp2956
g66
(dp2957
g74
I5
ssg75
g2951
sg68
(lp2958
S'/mycrawler/default/search'
p2959
asbasbasbag61
(g77
g63
NtRp2960
(dp2961
g66
(dp2962
sg75
g71
sg68
(lp2963
g61
(g82
g63
NtRp2964
(dp2965
g66
(dp2966
g86
g87
ssg75
g2960
sg68
(lp2967
S'utcnow'
p2968
asbag61
(g82
g63
NtRp2969
(dp2970
g66
(dp2971
g93
g94
ssg75
g2960
sg68
(lp2972
S':'
asbag61
(g82
g63
NtRp2973
(dp2974
g66
(dp2975
sg75
g2960
sg68
(lp2976
g61
(g62
g63
NtRp2977
(dp2978
g66
(dp2979
g74
I5
ssg75
g2973
sg68
(lp2980
S'datetime.datetime(2012, 6, 11, 23, 2, 3, 593000)'
p2981
asbasbasbag61
(g77
g63
NtRp2982
(dp2983
g66
(dp2984
sg75
g71
sg68
(lp2985
g61
(g82
g63
NtRp2986
(dp2987
g66
(dp2988
g86
g87
ssg75
g2982
sg68
(lp2989
S'uuid'
p2990
asbag61
(g82
g63
NtRp2991
(dp2992
g66
(dp2993
g93
g94
ssg75
g2982
sg68
(lp2994
S':'
asbag61
(g82
g63
NtRp2995
(dp2996
g66
(dp2997
sg75
g2982
sg68
(lp2998
g61
(g62
g63
NtRp2999
(dp3000
g66
(dp3001
g74
I5
ssg75
g2995
sg68
(lp3002
S'mycrawler/127.0.0.1.2012-06-11.16-02-03.9a3c7ceb-dacf-4e06-905b-bc1976212054'
p3003
asbasbasbag61
(g77
g63
NtRp3004
(dp3005
g66
(dp3006
sg75
g71
sg68
(lp3007
g61
(g82
g63
NtRp3008
(dp3009
g66
(dp3010
g86
g87
ssg75
g3004
sg68
(lp3011
S'vars'
p3012
asbag61
(g82
g63
NtRp3013
(dp3014
g66
(dp3015
g93
g94
ssg75
g3004
sg68
(lp3016
S':'
asbag61
(g82
g63
NtRp3017
(dp3018
g66
(dp3019
sg75
g3004
sg68
(lp3020
g61
(g62
g63
NtRp3021
(dp3022
g66
(dp3023
g74
I5
ssg75
g3017
sg68
(lp3024
g61
(g70
g63
NtRp3025
(dp3026
g66
(dp3027
g74
I4
ssg75
Nsg68
(lp3028
g61
(g77
g63
NtRp3029
(dp3030
g66
(dp3031
sg75
g3025
sg68
(lp3032
g61
(g82
g63
NtRp3033
(dp3034
g66
(dp3035
g86
g87
ssg75
g3029
sg68
(lp3036
g2223
asbag61
(g82
g63
NtRp3037
(dp3038
g66
(dp3039
g93
g94
ssg75
g3029
sg68
(lp3040
S':'
asbag61
(g82
g63
NtRp3041
(dp3042
g66
(dp3043
sg75
g3029
sg68
(lp3044
g61
(g62
g63
NtRp3045
(dp3046
g66
(dp3047
g74
I4
ssg75
g3041
sg68
(lp3048
S''
asbasbasbag61
(g77
g63
NtRp3049
(dp3050
g66
(dp3051
sg75
g3025
sg68
(lp3052
g61
(g82
g63
NtRp3053
(dp3054
g66
(dp3055
g86
g87
ssg75
g3049
sg68
(lp3056
g2244
asbag61
(g82
g63
NtRp3057
(dp3058
g66
(dp3059
g93
g94
ssg75
g3049
sg68
(lp3060
S':'
asbag61
(g82
g63
NtRp3061
(dp3062
g66
(dp3063
sg75
g3049
sg68
(lp3064
g61
(g62
g63
NtRp3065
(dp3066
g66
(dp3067
g74
I4
ssg75
g3061
sg68
(lp3068
g2257
asbasbasbag61
(g77
g63
NtRp3069
(dp3070
g66
(dp3071
sg75
g3025
sg68
(lp3072
g61
(g82
g63
NtRp3073
(dp3074
g66
(dp3075
g86
g87
ssg75
g3069
sg68
(lp3076
g2266
asbag61
(g82
g63
NtRp3077
(dp3078
g66
(dp3079
g93
g94
ssg75
g3069
sg68
(lp3080
S':'
asbag61
(g82
g63
NtRp3081
(dp3082
g66
(dp3083
sg75
g3069
sg68
(lp3084
g61
(g62
g63
NtRp3085
(dp3086
g66
(dp3087
g74
I4
ssg75
g3081
sg68
(lp3088
g2279
asbasbasbag61
(g77
g63
NtRp3089
(dp3090
g66
(dp3091
sg75
g3025
sg68
(lp3092
g61
(g82
g63
NtRp3093
(dp3094
g66
(dp3095
g86
g87
ssg75
g3089
sg68
(lp3096
g2288
asbag61
(g82
g63
NtRp3097
(dp3098
g66
(dp3099
g93
g94
ssg75
g3089
sg68
(lp3100
S':'
asbag61
(g82
g63
NtRp3101
(dp3102
g66
(dp3103
sg75
g3089
sg68
(lp3104
g61
(g62
g63
NtRp3105
(dp3106
g66
(dp3107
g74
I4
ssg75
g3101
sg68
(lp3108
S''
asbasbasbag61
(g77
g63
NtRp3109
(dp3110
g66
(dp3111
sg75
g3025
sg68
(lp3112
g61
(g82
g63
NtRp3113
(dp3114
g66
(dp3115
g86
g87
ssg75
g3109
sg68
(lp3116
g2309
asbag61
(g82
g63
NtRp3117
(dp3118
g66
(dp3119
g93
g94
ssg75
g3109
sg68
(lp3120
S':'
asbag61
(g82
g63
NtRp3121
(dp3122
g66
(dp3123
sg75
g3109
sg68
(lp3124
g61
(g62
g63
NtRp3125
(dp3126
g66
(dp3127
g74
I4
ssg75
g3121
sg68
(lp3128
g2322
asbasbasbag61
(g77
g63
NtRp3129
(dp3130
g66
(dp3131
sg75
g3025
sg68
(lp3132
g61
(g82
g63
NtRp3133
(dp3134
g66
(dp3135
g86
g87
ssg75
g3129
sg68
(lp3136
g2331
asbag61
(g82
g63
NtRp3137
(dp3138
g66
(dp3139
g93
g94
ssg75
g3129
sg68
(lp3140
S':'
asbag61
(g82
g63
NtRp3141
(dp3142
g66
(dp3143
sg75
g3129
sg68
(lp3144
g61
(g62
g63
NtRp3145
(dp3146
g66
(dp3147
g74
I4
ssg75
g3141
sg68
(lp3148
g61
(g70
g63
NtRp3149
(dp3150
g66
(dp3151
g74
I3
ssg75
Nsg68
(lp3152
g61
(g77
g63
NtRp3153
(dp3154
g66
(dp3155
sg75
g3149
sg68
(lp3156
g61
(g82
g63
NtRp3157
(dp3158
g66
(dp3159
sg75
g3153
sg68
(lp3160
g61
(g62
g63
NtRp3161
(dp3162
g66
(dp3163
g74
I3
ssg75
g3157
sg68
(lp3164
g2360
asbasbasbag61
(g77
g63
NtRp3165
(dp3166
g66
(dp3167
sg75
g3149
sg68
(lp3168
g61
(g82
g63
NtRp3169
(dp3170
g66
(dp3171
sg75
g3165
sg68
(lp3172
g61
(g62
g63
NtRp3173
(dp3174
g66
(dp3175
g74
I3
ssg75
g3169
sg68
(lp3176
g2373
asbasbasbasbasbasbasbag61
(g77
g63
NtRp3177
(dp3178
g66
(dp3179
sg75
g3025
sg68
(lp3180
g61
(g82
g63
NtRp3181
(dp3182
g66
(dp3183
g86
g87
ssg75
g3177
sg68
(lp3184
g2382
asbag61
(g82
g63
NtRp3185
(dp3186
g66
(dp3187
g93
g94
ssg75
g3177
sg68
(lp3188
S':'
asbag61
(g82
g63
NtRp3189
(dp3190
g66
(dp3191
sg75
g3177
sg68
(lp3192
g61
(g62
g63
NtRp3193
(dp3194
g66
(dp3195
g74
I4
ssg75
g3189
sg68
(lp3196
S''
asbasbasbag61
(g77
g63
NtRp3197
(dp3198
g66
(dp3199
sg75
g3025
sg68
(lp3200
g61
(g82
g63
NtRp3201
(dp3202
g66
(dp3203
g86
g87
ssg75
g3197
sg68
(lp3204
g2403
asbag61
(g82
g63
NtRp3205
(dp3206
g66
(dp3207
g93
g94
ssg75
g3197
sg68
(lp3208
S':'
asbag61
(g82
g63
NtRp3209
(dp3210
g66
(dp3211
sg75
g3197
sg68
(lp3212
g61
(g62
g63
NtRp3213
(dp3214
g66
(dp3215
g74
I4
ssg75
g3209
sg68
(lp3216
g2416
asbasbasbag61
(g77
g63
NtRp3217
(dp3218
g66
(dp3219
sg75
g3025
sg68
(lp3220
g61
(g82
g63
NtRp3221
(dp3222
g66
(dp3223
g86
g87
ssg75
g3217
sg68
(lp3224
g2425
asbag61
(g82
g63
NtRp3225
(dp3226
g66
(dp3227
g93
g94
ssg75
g3217
sg68
(lp3228
S':'
asbag61
(g82
g63
NtRp3229
(dp3230
g66
(dp3231
sg75
g3217
sg68
(lp3232
g61
(g62
g63
NtRp3233
(dp3234
g66
(dp3235
g74
I4
ssg75
g3229
sg68
(lp3236
S''
asbasbasbag61
(g77
g63
NtRp3237
(dp3238
g66
(dp3239
sg75
g3025
sg68
(lp3240
g61
(g82
g63
NtRp3241
(dp3242
g66
(dp3243
g86
g87
ssg75
g3237
sg68
(lp3244
g2446
asbag61
(g82
g63
NtRp3245
(dp3246
g66
(dp3247
g93
g94
ssg75
g3237
sg68
(lp3248
S':'
asbag61
(g82
g63
NtRp3249
(dp3250
g66
(dp3251
sg75
g3237
sg68
(lp3252
g61
(g62
g63
NtRp3253
(dp3254
g66
(dp3255
g74
I4
ssg75
g3249
sg68
(lp3256
g61
(g70
g63
NtRp3257
(dp3258
g66
(dp3259
g74
I3
ssg75
Nsg68
(lp3260
g61
(g77
g63
NtRp3261
(dp3262
g66
(dp3263
sg75
g3257
sg68
(lp3264
g61
(g82
g63
NtRp3265
(dp3266
g66
(dp3267
sg75
g3261
sg68
(lp3268
g61
(g62
g63
NtRp3269
(dp3270
g66
(dp3271
g74
I3
ssg75
g3265
sg68
(lp3272
g2475
asbasbasbag61
(g77
g63
NtRp3273
(dp3274
g66
(dp3275
sg75
g3257
sg68
(lp3276
g61
(g82
g63
NtRp3277
(dp3278
g66
(dp3279
sg75
g3273
sg68
(lp3280
g61
(g62
g63
NtRp3281
(dp3282
g66
(dp3283
g74
I3
ssg75
g3277
sg68
(lp3284
g2488
asbasbasbasbasbasbasbag61
(g77
g63
NtRp3285
(dp3286
g66
(dp3287
sg75
g3025
sg68
(lp3288
g61
(g82
g63
NtRp3289
(dp3290
g66
(dp3291
g86
g87
ssg75
g3285
sg68
(lp3292
g2497
asbag61
(g82
g63
NtRp3293
(dp3294
g66
(dp3295
g93
g94
ssg75
g3285
sg68
(lp3296
S':'
asbag61
(g82
g63
NtRp3297
(dp3298
g66
(dp3299
sg75
g3285
sg68
(lp3300
g61
(g62
g63
NtRp3301
(dp3302
g66
(dp3303
g74
I4
ssg75
g3297
sg68
(lp3304
S''
asbasbasbasbasbasbasbag61
(g77
g63
NtRp3305
(dp3306
g66
(dp3307
sg75
g71
sg68
(lp3308
g61
(g82
g63
NtRp3309
(dp3310
g66
(dp3311
g86
g87
ssg75
g3305
sg68
(lp3312
S'wsgi'
p3313
asbag61
(g82
g63
NtRp3314
(dp3315
g66
(dp3316
g93
g94
ssg75
g3305
sg68
(lp3317
S':'
asbag61
(g82
g63
NtRp3318
(dp3319
g66
(dp3320
sg75
g3305
sg68
(lp3321
g61
(g62
g63
NtRp3322
(dp3323
g66
(dp3324
g74
I5
ssg75
g3318
sg68
(lp3325
g61
(g70
g63
NtRp3326
(dp3327
g66
(dp3328
g74
I4
ssg75
Nsg68
(lp3329
g61
(g77
g63
NtRp3330
(dp3331
g66
(dp3332
sg75
g3326
sg68
(lp3333
g61
(g82
g63
NtRp3334
(dp3335
g66
(dp3336
g86
g87
ssg75
g3330
sg68
(lp3337
S'environ'
p3338
asbag61
(g82
g63
NtRp3339
(dp3340
g66
(dp3341
g93
g94
ssg75
g3330
sg68
(lp3342
S':'
asbag61
(g82
g63
NtRp3343
(dp3344
g66
(dp3345
sg75
g3330
sg68
(lp3346
g61
(g62
g63
NtRp3347
(dp3348
g66
(dp3349
g74
I4
ssg75
g3343
sg68
(lp3350
g61
(g70
g63
NtRp3351
(dp3352
g66
(dp3353
g74
I3
ssg75
Nsg68
(lp3354
g61
(g77
g63
NtRp3355
(dp3356
g66
(dp3357
sg75
g3351
sg68
(lp3358
g61
(g82
g63
NtRp3359
(dp3360
g66
(dp3361
g86
g87
ssg75
g3355
sg68
(lp3362
S'HTTP_ACCEPT'
p3363
asbag61
(g82
g63
NtRp3364
(dp3365
g66
(dp3366
g93
g94
ssg75
g3355
sg68
(lp3367
S':'
asbag61
(g82
g63
NtRp3368
(dp3369
g66
(dp3370
sg75
g3355
sg68
(lp3371
g61
(g62
g63
NtRp3372
(dp3373
g66
(dp3374
g74
I3
ssg75
g3368
sg68
(lp3375
g1377
asbasbasbag61
(g77
g63
NtRp3376
(dp3377
g66
(dp3378
sg75
g3351
sg68
(lp3379
g61
(g82
g63
NtRp3380
(dp3381
g66
(dp3382
g86
g87
ssg75
g3376
sg68
(lp3383
S'HTTP_ACCEPT_ENCODING'
p3384
asbag61
(g82
g63
NtRp3385
(dp3386
g66
(dp3387
g93
g94
ssg75
g3376
sg68
(lp3388
S':'
asbag61
(g82
g63
NtRp3389
(dp3390
g66
(dp3391
sg75
g3376
sg68
(lp3392
g61
(g62
g63
NtRp3393
(dp3394
g66
(dp3395
g74
I3
ssg75
g3389
sg68
(lp3396
g1399
asbasbasbag61
(g77
g63
NtRp3397
(dp3398
g66
(dp3399
sg75
g3351
sg68
(lp3400
g61
(g82
g63
NtRp3401
(dp3402
g66
(dp3403
g86
g87
ssg75
g3397
sg68
(lp3404
S'HTTP_ACCEPT_LANGUAGE'
p3405
asbag61
(g82
g63
NtRp3406
(dp3407
g66
(dp3408
g93
g94
ssg75
g3397
sg68
(lp3409
S':'
asbag61
(g82
g63
NtRp3410
(dp3411
g66
(dp3412
sg75
g3397
sg68
(lp3413
g61
(g62
g63
NtRp3414
(dp3415
g66
(dp3416
g74
I3
ssg75
g3410
sg68
(lp3417
g1421
asbasbasbag61
(g77
g63
NtRp3418
(dp3419
g66
(dp3420
sg75
g3351
sg68
(lp3421
g61
(g82
g63
NtRp3422
(dp3423
g66
(dp3424
g86
g87
ssg75
g3418
sg68
(lp3425
S'HTTP_CONNECTION'
p3426
asbag61
(g82
g63
NtRp3427
(dp3428
g66
(dp3429
g93
g94
ssg75
g3418
sg68
(lp3430
S':'
asbag61
(g82
g63
NtRp3431
(dp3432
g66
(dp3433
sg75
g3418
sg68
(lp3434
g61
(g62
g63
NtRp3435
(dp3436
g66
(dp3437
g74
I3
ssg75
g3431
sg68
(lp3438
g1443
asbasbasbag61
(g77
g63
NtRp3439
(dp3440
g66
(dp3441
sg75
g3351
sg68
(lp3442
g61
(g82
g63
NtRp3443
(dp3444
g66
(dp3445
g86
g87
ssg75
g3439
sg68
(lp3446
S'HTTP_COOKIE'
p3447
asbag61
(g82
g63
NtRp3448
(dp3449
g66
(dp3450
g93
g94
ssg75
g3439
sg68
(lp3451
S':'
asbag61
(g82
g63
NtRp3452
(dp3453
g66
(dp3454
sg75
g3439
sg68
(lp3455
g61
(g62
g63
NtRp3456
(dp3457
g66
(dp3458
g74
I3
ssg75
g3452
sg68
(lp3459
g1465
asbasbasbag61
(g77
g63
NtRp3460
(dp3461
g66
(dp3462
sg75
g3351
sg68
(lp3463
g61
(g82
g63
NtRp3464
(dp3465
g66
(dp3466
g86
g87
ssg75
g3460
sg68
(lp3467
S'HTTP_HOST'
p3468
asbag61
(g82
g63
NtRp3469
(dp3470
g66
(dp3471
g93
g94
ssg75
g3460
sg68
(lp3472
S':'
asbag61
(g82
g63
NtRp3473
(dp3474
g66
(dp3475
sg75
g3460
sg68
(lp3476
g61
(g62
g63
NtRp3477
(dp3478
g66
(dp3479
g74
I3
ssg75
g3473
sg68
(lp3480
g1487
asbasbasbag61
(g77
g63
NtRp3481
(dp3482
g66
(dp3483
sg75
g3351
sg68
(lp3484
g61
(g82
g63
NtRp3485
(dp3486
g66
(dp3487
g86
g87
ssg75
g3481
sg68
(lp3488
S'HTTP_REFERER'
p3489
asbag61
(g82
g63
NtRp3490
(dp3491
g66
(dp3492
g93
g94
ssg75
g3481
sg68
(lp3493
S':'
asbag61
(g82
g63
NtRp3494
(dp3495
g66
(dp3496
sg75
g3481
sg68
(lp3497
g61
(g62
g63
NtRp3498
(dp3499
g66
(dp3500
g74
I3
ssg75
g3494
sg68
(lp3501
g1509
asbasbasbag61
(g77
g63
NtRp3502
(dp3503
g66
(dp3504
sg75
g3351
sg68
(lp3505
g61
(g82
g63
NtRp3506
(dp3507
g66
(dp3508
g86
g87
ssg75
g3502
sg68
(lp3509
S'HTTP_USER_AGENT'
p3510
asbag61
(g82
g63
NtRp3511
(dp3512
g66
(dp3513
g93
g94
ssg75
g3502
sg68
(lp3514
S':'
asbag61
(g82
g63
NtRp3515
(dp3516
g66
(dp3517
sg75
g3502
sg68
(lp3518
g61
(g62
g63
NtRp3519
(dp3520
g66
(dp3521
g74
I3
ssg75
g3515
sg68
(lp3522
g1531
asbasbasbag61
(g77
g63
NtRp3523
(dp3524
g66
(dp3525
sg75
g3351
sg68
(lp3526
g61
(g82
g63
NtRp3527
(dp3528
g66
(dp3529
g86
g87
ssg75
g3523
sg68
(lp3530
S'PATH_INFO'
p3531
asbag61
(g82
g63
NtRp3532
(dp3533
g66
(dp3534
g93
g94
ssg75
g3523
sg68
(lp3535
S':'
asbag61
(g82
g63
NtRp3536
(dp3537
g66
(dp3538
sg75
g3523
sg68
(lp3539
g61
(g62
g63
NtRp3540
(dp3541
g66
(dp3542
g74
I3
ssg75
g3536
sg68
(lp3543
g1595
asbasbasbag61
(g77
g63
NtRp3544
(dp3545
g66
(dp3546
sg75
g3351
sg68
(lp3547
g61
(g82
g63
NtRp3548
(dp3549
g66
(dp3550
g86
g87
ssg75
g3544
sg68
(lp3551
S'QUERY_STRING'
p3552
asbag61
(g82
g63
NtRp3553
(dp3554
g66
(dp3555
g93
g94
ssg75
g3544
sg68
(lp3556
S':'
asbag61
(g82
g63
NtRp3557
(dp3558
g66
(dp3559
sg75
g3544
sg68
(lp3560
g61
(g62
g63
NtRp3561
(dp3562
g66
(dp3563
g74
I3
ssg75
g3557
sg68
(lp3564
g1617
asbasbasbag61
(g77
g63
NtRp3565
(dp3566
g66
(dp3567
sg75
g3351
sg68
(lp3568
g61
(g82
g63
NtRp3569
(dp3570
g66
(dp3571
g86
g87
ssg75
g3565
sg68
(lp3572
S'REMOTE_ADDR'
p3573
asbag61
(g82
g63
NtRp3574
(dp3575
g66
(dp3576
g93
g94
ssg75
g3565
sg68
(lp3577
S':'
asbag61
(g82
g63
NtRp3578
(dp3579
g66
(dp3580
sg75
g3565
sg68
(lp3581
g61
(g62
g63
NtRp3582
(dp3583
g66
(dp3584
g74
I3
ssg75
g3578
sg68
(lp3585
g194
asbasbasbag61
(g77
g63
NtRp3586
(dp3587
g66
(dp3588
sg75
g3351
sg68
(lp3589
g61
(g82
g63
NtRp3590
(dp3591
g66
(dp3592
g86
g87
ssg75
g3586
sg68
(lp3593
S'REMOTE_PORT'
p3594
asbag61
(g82
g63
NtRp3595
(dp3596
g66
(dp3597
g93
g94
ssg75
g3586
sg68
(lp3598
S':'
asbag61
(g82
g63
NtRp3599
(dp3600
g66
(dp3601
sg75
g3586
sg68
(lp3602
g61
(g62
g63
NtRp3603
(dp3604
g66
(dp3605
g74
I3
ssg75
g3599
sg68
(lp3606
g1660
asbasbasbag61
(g77
g63
NtRp3607
(dp3608
g66
(dp3609
sg75
g3351
sg68
(lp3610
g61
(g82
g63
NtRp3611
(dp3612
g66
(dp3613
g86
g87
ssg75
g3607
sg68
(lp3614
S'REQUEST_METHOD'
p3615
asbag61
(g82
g63
NtRp3616
(dp3617
g66
(dp3618
g93
g94
ssg75
g3607
sg68
(lp3619
S':'
asbag61
(g82
g63
NtRp3620
(dp3621
g66
(dp3622
sg75
g3607
sg68
(lp3623
g61
(g62
g63
NtRp3624
(dp3625
g66
(dp3626
g74
I3
ssg75
g3620
sg68
(lp3627
g1682
asbasbasbag61
(g77
g63
NtRp3628
(dp3629
g66
(dp3630
sg75
g3351
sg68
(lp3631
g61
(g82
g63
NtRp3632
(dp3633
g66
(dp3634
g86
g87
ssg75
g3628
sg68
(lp3635
S'SCRIPT_NAME'
p3636
asbag61
(g82
g63
NtRp3637
(dp3638
g66
(dp3639
g93
g94
ssg75
g3628
sg68
(lp3640
S':'
asbag61
(g82
g63
NtRp3641
(dp3642
g66
(dp3643
sg75
g3628
sg68
(lp3644
g61
(g62
g63
NtRp3645
(dp3646
g66
(dp3647
g74
I3
ssg75
g3641
sg68
(lp3648
S''
asbasbasbag61
(g77
g63
NtRp3649
(dp3650
g66
(dp3651
sg75
g3351
sg68
(lp3652
g61
(g82
g63
NtRp3653
(dp3654
g66
(dp3655
g86
g87
ssg75
g3649
sg68
(lp3656
S'SERVER_NAME'
p3657
asbag61
(g82
g63
NtRp3658
(dp3659
g66
(dp3660
g93
g94
ssg75
g3649
sg68
(lp3661
S':'
asbag61
(g82
g63
NtRp3662
(dp3663
g66
(dp3664
sg75
g3649
sg68
(lp3665
g61
(g62
g63
NtRp3666
(dp3667
g66
(dp3668
g74
I3
ssg75
g3662
sg68
(lp3669
g1725
asbasbasbag61
(g77
g63
NtRp3670
(dp3671
g66
(dp3672
sg75
g3351
sg68
(lp3673
g61
(g82
g63
NtRp3674
(dp3675
g66
(dp3676
g86
g87
ssg75
g3670
sg68
(lp3677
S'SERVER_PORT'
p3678
asbag61
(g82
g63
NtRp3679
(dp3680
g66
(dp3681
g93
g94
ssg75
g3670
sg68
(lp3682
S':'
asbag61
(g82
g63
NtRp3683
(dp3684
g66
(dp3685
sg75
g3670
sg68
(lp3686
g61
(g62
g63
NtRp3687
(dp3688
g66
(dp3689
g74
I3
ssg75
g3683
sg68
(lp3690
g1747
asbasbasbag61
(g77
g63
NtRp3691
(dp3692
g66
(dp3693
sg75
g3351
sg68
(lp3694
g61
(g82
g63
NtRp3695
(dp3696
g66
(dp3697
g86
g87
ssg75
g3691
sg68
(lp3698
S'SERVER_PROTOCOL'
p3699
asbag61
(g82
g63
NtRp3700
(dp3701
g66
(dp3702
g93
g94
ssg75
g3691
sg68
(lp3703
S':'
asbag61
(g82
g63
NtRp3704
(dp3705
g66
(dp3706
sg75
g3691
sg68
(lp3707
g61
(g62
g63
NtRp3708
(dp3709
g66
(dp3710
g74
I3
ssg75
g3704
sg68
(lp3711
g1769
asbasbasbag61
(g77
g63
NtRp3712
(dp3713
g66
(dp3714
sg75
g3351
sg68
(lp3715
g61
(g82
g63
NtRp3716
(dp3717
g66
(dp3718
g86
g87
ssg75
g3712
sg68
(lp3719
S'SERVER_SOFTWARE'
p3720
asbag61
(g82
g63
NtRp3721
(dp3722
g66
(dp3723
g93
g94
ssg75
g3712
sg68
(lp3724
S':'
asbag61
(g82
g63
NtRp3725
(dp3726
g66
(dp3727
sg75
g3712
sg68
(lp3728
g61
(g62
g63
NtRp3729
(dp3730
g66
(dp3731
g74
I3
ssg75
g3725
sg68
(lp3732
g1791
asbasbasbag61
(g77
g63
NtRp3733
(dp3734
g66
(dp3735
sg75
g3351
sg68
(lp3736
g61
(g82
g63
NtRp3737
(dp3738
g66
(dp3739
g86
g87
ssg75
g3733
sg68
(lp3740
S'wsgi.errors'
p3741
asbag61
(g82
g63
NtRp3742
(dp3743
g66
(dp3744
g93
g94
ssg75
g3733
sg68
(lp3745
S':'
asbag61
(g82
g63
NtRp3746
(dp3747
g66
(dp3748
sg75
g3733
sg68
(lp3749
g61
(g62
g63
NtRp3750
(dp3751
g66
(dp3752
g74
I3
ssg75
g3746
sg68
(lp3753
S"<open file '<stderr>', mode 'w' at 0x00A550D0>"
p3754
asbasbasbag61
(g77
g63
NtRp3755
(dp3756
g66
(dp3757
sg75
g3351
sg68
(lp3758
g61
(g82
g63
NtRp3759
(dp3760
g66
(dp3761
g86
g87
ssg75
g3755
sg68
(lp3762
S'wsgi.file_wrapper'
p3763
asbag61
(g82
g63
NtRp3764
(dp3765
g66
(dp3766
g93
g94
ssg75
g3755
sg68
(lp3767
S':'
asbag61
(g82
g63
NtRp3768
(dp3769
g66
(dp3770
sg75
g3755
sg68
(lp3771
g61
(g62
g63
NtRp3772
(dp3773
g66
(dp3774
g74
I3
ssg75
g3768
sg68
(lp3775
S'<class wsgiref.util.FileWrapper at 0x015E8AB0>'
p3776
asbasbasbag61
(g77
g63
NtRp3777
(dp3778
g66
(dp3779
sg75
g3351
sg68
(lp3780
g61
(g82
g63
NtRp3781
(dp3782
g66
(dp3783
g86
g87
ssg75
g3777
sg68
(lp3784
S'wsgi.input'
p3785
asbag61
(g82
g63
NtRp3786
(dp3787
g66
(dp3788
g93
g94
ssg75
g3777
sg68
(lp3789
S':'
asbag61
(g82
g63
NtRp3790
(dp3791
g66
(dp3792
sg75
g3777
sg68
(lp3793
g61
(g62
g63
NtRp3794
(dp3795
g66
(dp3796
g74
I3
ssg75
g3790
sg68
(lp3797
S'<cStringIO.StringO object at 0x057BC120>'
p3798
asbasbasbag61
(g77
g63
NtRp3799
(dp3800
g66
(dp3801
sg75
g3351
sg68
(lp3802
g61
(g82
g63
NtRp3803
(dp3804
g66
(dp3805
g86
g87
ssg75
g3799
sg68
(lp3806
S'wsgi.multiprocess'
p3807
asbag61
(g82
g63
NtRp3808
(dp3809
g66
(dp3810
g93
g94
ssg75
g3799
sg68
(lp3811
S':'
asbag61
(g82
g63
NtRp3812
(dp3813
g66
(dp3814
sg75
g3799
sg68
(lp3815
g61
(g62
g63
NtRp3816
(dp3817
g66
(dp3818
g74
I3
ssg75
g3812
sg68
(lp3819
g104
asbasbasbag61
(g77
g63
NtRp3820
(dp3821
g66
(dp3822
sg75
g3351
sg68
(lp3823
g61
(g82
g63
NtRp3824
(dp3825
g66
(dp3826
g86
g87
ssg75
g3820
sg68
(lp3827
S'wsgi.multithread'
p3828
asbag61
(g82
g63
NtRp3829
(dp3830
g66
(dp3831
g93
g94
ssg75
g3820
sg68
(lp3832
S':'
asbag61
(g82
g63
NtRp3833
(dp3834
g66
(dp3835
sg75
g3820
sg68
(lp3836
g61
(g62
g63
NtRp3837
(dp3838
g66
(dp3839
g74
I3
ssg75
g3833
sg68
(lp3840
g2031
asbasbasbag61
(g77
g63
NtRp3841
(dp3842
g66
(dp3843
sg75
g3351
sg68
(lp3844
g61
(g82
g63
NtRp3845
(dp3846
g66
(dp3847
g86
g87
ssg75
g3841
sg68
(lp3848
S'wsgi.run_once'
p3849
asbag61
(g82
g63
NtRp3850
(dp3851
g66
(dp3852
g93
g94
ssg75
g3841
sg68
(lp3853
S':'
asbag61
(g82
g63
NtRp3854
(dp3855
g66
(dp3856
sg75
g3841
sg68
(lp3857
g61
(g62
g63
NtRp3858
(dp3859
g66
(dp3860
g74
I3
ssg75
g3854
sg68
(lp3861
g104
asbasbasbag61
(g77
g63
NtRp3862
(dp3863
g66
(dp3864
sg75
g3351
sg68
(lp3865
g61
(g82
g63
NtRp3866
(dp3867
g66
(dp3868
g86
g87
ssg75
g3862
sg68
(lp3869
S'wsgi.url_scheme'
p3870
asbag61
(g82
g63
NtRp3871
(dp3872
g66
(dp3873
g93
g94
ssg75
g3862
sg68
(lp3874
S':'
asbag61
(g82
g63
NtRp3875
(dp3876
g66
(dp3877
sg75
g3862
sg68
(lp3878
g61
(g62
g63
NtRp3879
(dp3880
g66
(dp3881
g74
I3
ssg75
g3875
sg68
(lp3882
g2074
asbasbasbag61
(g77
g63
NtRp3883
(dp3884
g66
(dp3885
sg75
g3351
sg68
(lp3886
g61
(g82
g63
NtRp3887
(dp3888
g66
(dp3889
g86
g87
ssg75
g3883
sg68
(lp3890
S'wsgi.version'
p3891
asbag61
(g82
g63
NtRp3892
(dp3893
g66
(dp3894
g93
g94
ssg75
g3883
sg68
(lp3895
S':'
asbag61
(g82
g63
NtRp3896
(dp3897
g66
(dp3898
sg75
g3883
sg68
(lp3899
g61
(g62
g63
NtRp3900
(dp3901
g66
(dp3902
g74
I3
ssg75
g3896
sg68
(lp3903
S'1'
asbasbasbasbasbasbasbasbasbasbasbasbasbsS'frames'
p3904
(lp3905
(dp3906
S'file'
p3907
S'C:\\Documents and Settings\\agrover\\Desktop\\previous crawler\\web2py\\gluon\\restricted.py'
p3908
sS'dump'
p3909
(dp3910
S'environment'
p3911
S"{'A': <class 'gluon.html.A'>, 'Auth': <class 'gluon.tools.Auth'>, 'B': <class 'gluon.html.B'>, 'BEAUTIFY': <class 'gluon.html.BEAUTIFY'>, 'BODY': <class 'gluon.html.BODY'>, 'BR': <class 'gluon.html.BR'>, 'BUTTON': <class 'gluon.html.BUTTON'>, 'BeautifulSoup': <class 'bs4.BeautifulSoup'>, 'CAT': <class 'gluon.html.CAT'>, 'CENTER': <class 'gluon.html.CENTER'>, ...}"
p3912
sS'ccode'
p3913
S'<code object <module> at 04C87650, file "C:\\Docu...tions\\mycrawler\\controllers/default.py", line 11>'
p3914
ssS'lnum'
p3915
I205
sS'lines'
p3916
(dp3917
I200
S'    try:'
p3918
sI201
S'        if type(code) == types.CodeType:'
p3919
sI202
S'            ccode = code'
p3920
sI203
S'        else:'
p3921
sI204
S'            ccode = compile2(code,layer)'
p3922
sI205
S'        exec ccode in environment'
p3923
sI206
S'    except HTTP:'
p3924
sI207
S'        raise'
p3925
sI208
S'    except RestrictedError:'
p3926
sI209
S'        # do not encapsulate (obfuscate) the original RestrictedError'
p3927
ssS'call'
p3928
S"(code='# -*- coding: utf-8 -*-\\n# this file is released ...urrent)\\n\\nresponse._vars=response._caller(search)\\n', environment={'A': <class 'gluon.html.A'>, 'Auth': <class 'gluon.tools.Auth'>, 'B': <class 'gluon.html.B'>, 'BEAUTIFY': <class 'gluon.html.BEAUTIFY'>, 'BODY': <class 'gluon.html.BODY'>, 'BR': <class 'gluon.html.BR'>, 'BUTTON': <class 'gluon.html.BUTTON'>, 'BeautifulSoup': <class 'bs4.BeautifulSoup'>, 'CAT': <class 'gluon.html.CAT'>, 'CENTER': <class 'gluon.html.CENTER'>, ...}, layer=r'C:\\Documents and Settings\\agrover\\Desktop\\previo...2py\\applications\\mycrawler\\controllers/default.py')"
p3929
sS'func'
p3930
S'restricted'
p3931
sa(dp3932
g3907
S'C:\\Documents and Settings\\agrover\\Desktop\\previous crawler\\web2py\\applications\\mycrawler\\controllers\\default.py'
p3933
sg3909
(dp3934
sg3915
I405
sg3916
(dp3935
I394
S"    #response.headers['Content-Type'] = 'text/csv'"
p3936
sI395
S"    #response.headers['Content-Disposition'] = 'attachment; filename=%s' % request.vars.File_Name"
p3937
sI396
S''
sI397
S'    #print view_profile'
p3938
sI398
S'    #print name'
p3939
sI399
S'    #print location'
p3940
sI400
S'    #print industry'
p3941
sI401
S'    #print titl'
p3942
sI402
S''
sI403
S'    return dict(view_profile=view_profile,name=name,location=location,industry=industry,titl=titl,current=current)'
p3943
ssg3928
S'()'
p3944
sg3930
S'<module>'
p3945
sa(dp3946
g3907
S'C:\\Documents and Settings\\agrover\\Desktop\\previous crawler\\web2py\\gluon\\globals.py'
p3947
sg3909
(dp3948
S'self'
p3949
S'undefined'
p3950
sS'f'
S'<function search>'
p3951
ssg3915
I173
sg3916
(dp3952
I168
S'        self.menu = []             # used by the default view layout'
p3953
sI169
S'        self.files = []            # used by web2py_ajax.html'
p3954
sI170
S'        self.generic_patterns = [] # patterns to allow generic views'
p3955
sI171
S"        self.delimiters = ('{{','}}')"
p3956
sI172
S'        self._vars = None'
p3957
sI173
S'        self._caller = lambda f: f()'
p3958
sI174
S'        self._view_environment = None'
p3959
sI175
S'        self._custom_commit = None'
p3960
sI176
S'        self._custom_rollback = None'
p3961
sI177
S''
ssg3928
S'(f=<function search>)'
p3962
sg3930
S'<lambda>'
p3963
sa(dp3964
g3907
S'C:\\Documents and Settings\\agrover\\Desktop\\previous crawler\\web2py\\applications\\mycrawler\\controllers\\default.py'
p3965
sg3909
(dp3966
S'soup'
p3967
g3950
ssg3915
I231
sg3916
(dp3968
I226
S'    br.submit()'
p3969
sI227
S'    """'
p3970
sI228
S'    #opening the advanced search page straight away'
p3971
sI229
S"    br.open('http://www.linkedin.com/search?trk=advsrch')"
p3972
sI230
S'    #selecting the 1st form'
p3973
sI231
S'    br.select_form(nr=1)'
p3974
sI232
S''
sI233
S'    #entering various fields and filters'
p3975
sI234
S'    if request.vars.Last_Name:'
p3976
sI235
S'        br["lname"]=request.vars.Last_Name'
p3977
ssg3928
S'()'
p3978
sg3930
S'search'
p3979
sa(dp3980
g3907
S'C:\\Documents and Settings\\agrover\\Desktop\\previous crawler\\web2py\\build\\bdist.win32\\egg\\mechanize\\_mechanize.py'
p3981
sg3909
(dp3982
sg3915
I524
sg3916
(dp3983
I519
S'            if name is not None: description.append("name \'%s\'" % name)'
p3984
sI520
S'            if predicate is not None:'
p3985
sI521
S'                description.append("predicate %s" % predicate)'
p3986
sI522
S'            if orig_nr is not None: description.append("nr %d" % orig_nr)'
p3987
sI523
S'            description = ", ".join(description)'
p3988
sI524
S'            raise FormNotFoundError("no form matching "+description)'
p3989
sI525
S''
sI526
S'    def click(self, *args, **kwds):'
p3990
sI527
S'        """See mechanize.HTMLForm.click for documentation."""'
p3991
sI528
S'        if not self.viewing_html():'
p3992
ssg3928
S'(self=<mechanize._mechanize.Browser instance>, name=None, predicate=None, nr=0)'
p3993
sg3930
S'select_form'
p3994
sasS'pyver'
p3995
S'Python 2.7.3: C:\\Python27\\python.exe'
p3996
sS'session'
p3997
g61
(g62
g63
NtRp3998
(dp3999
g66
(dp4000
sg68
(lp4001
g61
(g70
g63
NtRp4002
(dp4003
g66
(dp4004
g74
I5
ssg75
Nsg68
(lp4005
g61
(g77
g63
NtRp4006
(dp4007
g66
(dp4008
sg75
g4002
sg68
(lp4009
g61
(g82
g63
NtRp4010
(dp4011
g66
(dp4012
g86
g87
ssg75
g4006
sg68
(lp4013
S'last_query'
p4014
asbag61
(g82
g63
NtRp4015
(dp4016
g66
(dp4017
g93
g94
ssg75
g4006
sg68
(lp4018
S':'
asbag61
(g82
g63
NtRp4019
(dp4020
g66
(dp4021
sg75
g4006
sg68
(lp4022
g61
(g62
g63
NtRp4023
(dp4024
g66
(dp4025
g74
I5
ssg75
g4019
sg68
(lp4026
S'db.auth_user.id>0'
p4027
asbasbasbasbasbsS'etype'
p4028
S"<class 'mechanize._mechanize.FormNotFoundError'>"
p4029
sS'date'
p4030
S'Mon Jun 11 16:02:07 2012'
p4031
sS'response'
p4032
g61
(g62
g63
NtRp4033
(dp4034
g66
(dp4035
sg68
(lp4036
g61
(g70
g63
NtRp4037
(dp4038
g66
(dp4039
g74
I5
ssg75
Nsg68
(lp4040
g61
(g77
g63
NtRp4041
(dp4042
g66
(dp4043
sg75
g4037
sg68
(lp4044
g61
(g82
g63
NtRp4045
(dp4046
g66
(dp4047
g86
g87
ssg75
g4041
sg68
(lp4048
g159
asbag61
(g82
g63
NtRp4049
(dp4050
g66
(dp4051
g93
g94
ssg75
g4041
sg68
(lp4052
S':'
asbag61
(g82
g63
NtRp4053
(dp4054
g66
(dp4055
sg75
g4041
sg68
(lp4056
g61
(g62
g63
NtRp4057
(dp4058
g66
(dp4059
g74
I5
ssg75
g4053
sg68
(lp4060
S'<cStringIO.StringO object at 0x04AB5CE0>'
p4061
asbasbasbag61
(g77
g63
NtRp4062
(dp4063
g66
(dp4064
sg75
g4037
sg68
(lp4065
g61
(g82
g63
NtRp4066
(dp4067
g66
(dp4068
g86
g87
ssg75
g4062
sg68
(lp4069
g225
asbag61
(g82
g63
NtRp4070
(dp4071
g66
(dp4072
g93
g94
ssg75
g4062
sg68
(lp4073
S':'
asbag61
(g82
g63
NtRp4074
(dp4075
g66
(dp4076
sg75
g4062
sg68
(lp4077
g61
(g62
g63
NtRp4078
(dp4079
g66
(dp4080
g74
I5
ssg75
g4074
sg68
(lp4081
g61
(g70
g63
NtRp4082
(dp4083
g66
(dp4084
g74
I4
ssg75
Nsg68
(lp4085
g61
(g77
g63
NtRp4086
(dp4087
g66
(dp4088
sg75
g4082
sg68
(lp4089
g61
(g82
g63
NtRp4090
(dp4091
g66
(dp4092
g86
g87
ssg75
g4086
sg68
(lp4093
S'session_id_mycrawler'
p4094
asbag61
(g82
g63
NtRp4095
(dp4096
g66
(dp4097
g93
g94
ssg75
g4086
sg68
(lp4098
S':'
asbag61
(g82
g63
NtRp4099
(dp4100
g66
(dp4101
sg75
g4086
sg68
(lp4102
g61
(g62
g63
NtRp4103
(dp4104
g66
(dp4105
g74
I4
ssg75
g4099
sg68
(lp4106
g61
(g70
g63
NtRp4107
(dp4108
g66
(dp4109
g74
I3
ssg75
Nsg68
(lp4110
g61
(g77
g63
NtRp4111
(dp4112
g66
(dp4113
sg75
g4107
sg68
(lp4114
g61
(g82
g63
NtRp4115
(dp4116
g66
(dp4117
g86
g87
ssg75
g4111
sg68
(lp4118
g275
asbag61
(g82
g63
NtRp4119
(dp4120
g66
(dp4121
g93
g94
ssg75
g4111
sg68
(lp4122
S':'
asbag61
(g82
g63
NtRp4123
(dp4124
g66
(dp4125
sg75
g4111
sg68
(lp4126
g61
(g62
g63
NtRp4127
(dp4128
g66
(dp4129
g74
I3
ssg75
g4123
sg68
(lp4130
S''
asbasbasbag61
(g77
g63
NtRp4131
(dp4132
g66
(dp4133
sg75
g4107
sg68
(lp4134
g61
(g82
g63
NtRp4135
(dp4136
g66
(dp4137
g86
g87
ssg75
g4131
sg68
(lp4138
g296
asbag61
(g82
g63
NtRp4139
(dp4140
g66
(dp4141
g93
g94
ssg75
g4131
sg68
(lp4142
S':'
asbag61
(g82
g63
NtRp4143
(dp4144
g66
(dp4145
sg75
g4131
sg68
(lp4146
g61
(g62
g63
NtRp4147
(dp4148
g66
(dp4149
g74
I3
ssg75
g4143
sg68
(lp4150
S''
asbasbasbag61
(g77
g63
NtRp4151
(dp4152
g66
(dp4153
sg75
g4107
sg68
(lp4154
g61
(g82
g63
NtRp4155
(dp4156
g66
(dp4157
g86
g87
ssg75
g4151
sg68
(lp4158
g317
asbag61
(g82
g63
NtRp4159
(dp4160
g66
(dp4161
g93
g94
ssg75
g4151
sg68
(lp4162
S':'
asbag61
(g82
g63
NtRp4163
(dp4164
g66
(dp4165
sg75
g4151
sg68
(lp4166
g61
(g62
g63
NtRp4167
(dp4168
g66
(dp4169
g74
I3
ssg75
g4163
sg68
(lp4170
S''
asbasbasbag61
(g77
g63
NtRp4171
(dp4172
g66
(dp4173
sg75
g4107
sg68
(lp4174
g61
(g82
g63
NtRp4175
(dp4176
g66
(dp4177
g86
g87
ssg75
g4171
sg68
(lp4178
g338
asbag61
(g82
g63
NtRp4179
(dp4180
g66
(dp4181
g93
g94
ssg75
g4171
sg68
(lp4182
S':'
asbag61
(g82
g63
NtRp4183
(dp4184
g66
(dp4185
sg75
g4171
sg68
(lp4186
g61
(g62
g63
NtRp4187
(dp4188
g66
(dp4189
g74
I3
ssg75
g4183
sg68
(lp4190
S''
asbasbasbag61
(g77
g63
NtRp4191
(dp4192
g66
(dp4193
sg75
g4107
sg68
(lp4194
g61
(g82
g63
NtRp4195
(dp4196
g66
(dp4197
g86
g87
ssg75
g4191
sg68
(lp4198
g359
asbag61
(g82
g63
NtRp4199
(dp4200
g66
(dp4201
g93
g94
ssg75
g4191
sg68
(lp4202
S':'
asbag61
(g82
g63
NtRp4203
(dp4204
g66
(dp4205
sg75
g4191
sg68
(lp4206
g61
(g62
g63
NtRp4207
(dp4208
g66
(dp4209
g74
I3
ssg75
g4203
sg68
(lp4210
S''
asbasbasbag61
(g77
g63
NtRp4211
(dp4212
g66
(dp4213
sg75
g4107
sg68
(lp4214
g61
(g82
g63
NtRp4215
(dp4216
g66
(dp4217
g86
g87
ssg75
g4211
sg68
(lp4218
g380
asbag61
(g82
g63
NtRp4219
(dp4220
g66
(dp4221
g93
g94
ssg75
g4211
sg68
(lp4222
S':'
asbag61
(g82
g63
NtRp4223
(dp4224
g66
(dp4225
sg75
g4211
sg68
(lp4226
g61
(g62
g63
NtRp4227
(dp4228
g66
(dp4229
g74
I3
ssg75
g4223
sg68
(lp4230
S'/'
asbasbasbag61
(g77
g63
NtRp4231
(dp4232
g66
(dp4233
sg75
g4107
sg68
(lp4234
g61
(g82
g63
NtRp4235
(dp4236
g66
(dp4237
g86
g87
ssg75
g4231
sg68
(lp4238
g401
asbag61
(g82
g63
NtRp4239
(dp4240
g66
(dp4241
g93
g94
ssg75
g4231
sg68
(lp4242
S':'
asbag61
(g82
g63
NtRp4243
(dp4244
g66
(dp4245
sg75
g4231
sg68
(lp4246
g61
(g62
g63
NtRp4247
(dp4248
g66
(dp4249
g74
I3
ssg75
g4243
sg68
(lp4250
S''
asbasbasbag61
(g77
g63
NtRp4251
(dp4252
g66
(dp4253
sg75
g4107
sg68
(lp4254
g61
(g82
g63
NtRp4255
(dp4256
g66
(dp4257
g86
g87
ssg75
g4251
sg68
(lp4258
g422
asbag61
(g82
g63
NtRp4259
(dp4260
g66
(dp4261
g93
g94
ssg75
g4251
sg68
(lp4262
S':'
asbag61
(g82
g63
NtRp4263
(dp4264
g66
(dp4265
sg75
g4251
sg68
(lp4266
g61
(g62
g63
NtRp4267
(dp4268
g66
(dp4269
g74
I3
ssg75
g4263
sg68
(lp4270
S''
asbasbasbasbasbasbasbasbasbasbasbag61
(g77
g63
NtRp4271
(dp4272
g66
(dp4273
sg75
g4037
sg68
(lp4274
g61
(g82
g63
NtRp4275
(dp4276
g66
(dp4277
g86
g87
ssg75
g4271
sg68
(lp4278
S'delimiters'
p4279
asbag61
(g82
g63
NtRp4280
(dp4281
g66
(dp4282
g93
g94
ssg75
g4271
sg68
(lp4283
S':'
asbag61
(g82
g63
NtRp4284
(dp4285
g66
(dp4286
sg75
g4271
sg68
(lp4287
g61
(g62
g63
NtRp4288
(dp4289
g66
(dp4290
g74
I5
ssg75
g4284
sg68
(lp4291
g61
(g70
g63
NtRp4292
(dp4293
g66
(dp4294
g74
I4
ssg75
Nsg68
(lp4295
g61
(g77
g63
NtRp4296
(dp4297
g66
(dp4298
sg75
g4292
sg68
(lp4299
g61
(g82
g63
NtRp4300
(dp4301
g66
(dp4302
sg75
g4296
sg68
(lp4303
g61
(g62
g63
NtRp4304
(dp4305
g66
(dp4306
g74
I4
ssg75
g4300
sg68
(lp4307
S'{{'
p4308
asbasbasbag61
(g77
g63
NtRp4309
(dp4310
g66
(dp4311
sg75
g4292
sg68
(lp4312
g61
(g82
g63
NtRp4313
(dp4314
g66
(dp4315
sg75
g4309
sg68
(lp4316
g61
(g62
g63
NtRp4317
(dp4318
g66
(dp4319
g74
I4
ssg75
g4313
sg68
(lp4320
S'}}'
p4321
asbasbasbasbasbasbasbag61
(g77
g63
NtRp4322
(dp4323
g66
(dp4324
sg75
g4037
sg68
(lp4325
g61
(g82
g63
NtRp4326
(dp4327
g66
(dp4328
g86
g87
ssg75
g4322
sg68
(lp4329
S'files'
p4330
asbag61
(g82
g63
NtRp4331
(dp4332
g66
(dp4333
g93
g94
ssg75
g4322
sg68
(lp4334
S':'
asbag61
(g82
g63
NtRp4335
(dp4336
g66
(dp4337
sg75
g4322
sg68
(lp4338
g61
(g62
g63
NtRp4339
(dp4340
g66
(dp4341
g74
I5
ssg75
g4335
sg68
(lp4342
g61
(g70
g63
NtRp4343
(dp4344
g66
(dp4345
g74
I4
ssg75
Nsg68
(lp4346
sbasbasbasbag61
(g77
g63
NtRp4347
(dp4348
g66
(dp4349
sg75
g4037
sg68
(lp4350
g61
(g82
g63
NtRp4351
(dp4352
g66
(dp4353
g86
g87
ssg75
g4347
sg68
(lp4354
S'flash'
p4355
asbag61
(g82
g63
NtRp4356
(dp4357
g66
(dp4358
g93
g94
ssg75
g4347
sg68
(lp4359
S':'
asbag61
(g82
g63
NtRp4360
(dp4361
g66
(dp4362
sg75
g4347
sg68
(lp4363
g61
(g62
g63
NtRp4364
(dp4365
g66
(dp4366
g74
I5
ssg75
g4360
sg68
(lp4367
S''
asbasbasbag61
(g77
g63
NtRp4368
(dp4369
g66
(dp4370
sg75
g4037
sg68
(lp4371
g61
(g82
g63
NtRp4372
(dp4373
g66
(dp4374
g86
g87
ssg75
g4368
sg68
(lp4375
S'generic_patterns'
p4376
asbag61
(g82
g63
NtRp4377
(dp4378
g66
(dp4379
g93
g94
ssg75
g4368
sg68
(lp4380
S':'
asbag61
(g82
g63
NtRp4381
(dp4382
g66
(dp4383
sg75
g4368
sg68
(lp4384
g61
(g62
g63
NtRp4385
(dp4386
g66
(dp4387
g74
I5
ssg75
g4381
sg68
(lp4388
g61
(g70
g63
NtRp4389
(dp4390
g66
(dp4391
g74
I4
ssg75
Nsg68
(lp4392
g61
(g77
g63
NtRp4393
(dp4394
g66
(dp4395
sg75
g4389
sg68
(lp4396
g61
(g82
g63
NtRp4397
(dp4398
g66
(dp4399
sg75
g4393
sg68
(lp4400
g61
(g62
g63
NtRp4401
(dp4402
g66
(dp4403
g74
I4
ssg75
g4397
sg68
(lp4404
S'*'
asbasbasbasbasbasbasbag61
(g77
g63
NtRp4405
(dp4406
g66
(dp4407
sg75
g4037
sg68
(lp4408
g61
(g82
g63
NtRp4409
(dp4410
g66
(dp4411
g86
g87
ssg75
g4405
sg68
(lp4412
S'headers'
p4413
asbag61
(g82
g63
NtRp4414
(dp4415
g66
(dp4416
g93
g94
ssg75
g4405
sg68
(lp4417
S':'
asbag61
(g82
g63
NtRp4418
(dp4419
g66
(dp4420
sg75
g4405
sg68
(lp4421
g61
(g62
g63
NtRp4422
(dp4423
g66
(dp4424
g74
I5
ssg75
g4418
sg68
(lp4425
g61
(g70
g63
NtRp4426
(dp4427
g66
(dp4428
g74
I4
ssg75
Nsg68
(lp4429
g61
(g77
g63
NtRp4430
(dp4431
g66
(dp4432
sg75
g4426
sg68
(lp4433
g61
(g82
g63
NtRp4434
(dp4435
g66
(dp4436
g86
g87
ssg75
g4430
sg68
(lp4437
S'Cache-Control'
p4438
asbag61
(g82
g63
NtRp4439
(dp4440
g66
(dp4441
g93
g94
ssg75
g4430
sg68
(lp4442
S':'
asbag61
(g82
g63
NtRp4443
(dp4444
g66
(dp4445
sg75
g4430
sg68
(lp4446
g61
(g62
g63
NtRp4447
(dp4448
g66
(dp4449
g74
I4
ssg75
g4443
sg68
(lp4450
S'no-store, no-cache, must-revalidate, post-check=0, pre-check=0'
p4451
asbasbasbag61
(g77
g63
NtRp4452
(dp4453
g66
(dp4454
sg75
g4426
sg68
(lp4455
g61
(g82
g63
NtRp4456
(dp4457
g66
(dp4458
g86
g87
ssg75
g4452
sg68
(lp4459
S'Content-Type'
p4460
asbag61
(g82
g63
NtRp4461
(dp4462
g66
(dp4463
g93
g94
ssg75
g4452
sg68
(lp4464
S':'
asbag61
(g82
g63
NtRp4465
(dp4466
g66
(dp4467
sg75
g4452
sg68
(lp4468
g61
(g62
g63
NtRp4469
(dp4470
g66
(dp4471
g74
I4
ssg75
g4465
sg68
(lp4472
S'text/html; charset=utf-8'
p4473
asbasbasbag61
(g77
g63
NtRp4474
(dp4475
g66
(dp4476
sg75
g4426
sg68
(lp4477
g61
(g82
g63
NtRp4478
(dp4479
g66
(dp4480
g86
g87
ssg75
g4474
sg68
(lp4481
S'Expires'
p4482
asbag61
(g82
g63
NtRp4483
(dp4484
g66
(dp4485
g93
g94
ssg75
g4474
sg68
(lp4486
S':'
asbag61
(g82
g63
NtRp4487
(dp4488
g66
(dp4489
sg75
g4474
sg68
(lp4490
g61
(g62
g63
NtRp4491
(dp4492
g66
(dp4493
g74
I4
ssg75
g4487
sg68
(lp4494
S'Mon, 11 Jun 2012 23:02:03 GMT'
p4495
asbasbasbag61
(g77
g63
NtRp4496
(dp4497
g66
(dp4498
sg75
g4426
sg68
(lp4499
g61
(g82
g63
NtRp4500
(dp4501
g66
(dp4502
g86
g87
ssg75
g4496
sg68
(lp4503
S'Pragma'
p4504
asbag61
(g82
g63
NtRp4505
(dp4506
g66
(dp4507
g93
g94
ssg75
g4496
sg68
(lp4508
S':'
asbag61
(g82
g63
NtRp4509
(dp4510
g66
(dp4511
sg75
g4496
sg68
(lp4512
g61
(g62
g63
NtRp4513
(dp4514
g66
(dp4515
g74
I4
ssg75
g4509
sg68
(lp4516
S'no-cache'
p4517
asbasbasbag61
(g77
g63
NtRp4518
(dp4519
g66
(dp4520
sg75
g4426
sg68
(lp4521
g61
(g82
g63
NtRp4522
(dp4523
g66
(dp4524
g86
g87
ssg75
g4518
sg68
(lp4525
S'X-Powered-By'
p4526
asbag61
(g82
g63
NtRp4527
(dp4528
g66
(dp4529
g93
g94
ssg75
g4518
sg68
(lp4530
S':'
asbag61
(g82
g63
NtRp4531
(dp4532
g66
(dp4533
sg75
g4518
sg68
(lp4534
g61
(g62
g63
NtRp4535
(dp4536
g66
(dp4537
g74
I4
ssg75
g4531
sg68
(lp4538
S'web2py'
p4539
asbasbasbasbasbasbasbag61
(g77
g63
NtRp4540
(dp4541
g66
(dp4542
sg75
g4037
sg68
(lp4543
g61
(g82
g63
NtRp4544
(dp4545
g66
(dp4546
g86
g87
ssg75
g4540
sg68
(lp4547
S'menu'
p4548
asbag61
(g82
g63
NtRp4549
(dp4550
g66
(dp4551
g93
g94
ssg75
g4540
sg68
(lp4552
S':'
asbag61
(g82
g63
NtRp4553
(dp4554
g66
(dp4555
sg75
g4540
sg68
(lp4556
g61
(g62
g63
NtRp4557
(dp4558
g66
(dp4559
g74
I5
ssg75
g4553
sg68
(lp4560
g61
(g70
g63
NtRp4561
(dp4562
g66
(dp4563
g74
I4
ssg75
Nsg68
(lp4564
g61
(g77
g63
NtRp4565
(dp4566
g66
(dp4567
sg75
g4561
sg68
(lp4568
g61
(g82
g63
NtRp4569
(dp4570
g66
(dp4571
sg75
g4565
sg68
(lp4572
g61
(g62
g63
NtRp4573
(dp4574
g66
(dp4575
g74
I4
ssg75
g4569
sg68
(lp4576
g61
(g70
g63
NtRp4577
(dp4578
g66
(dp4579
g74
I3
ssg75
Nsg68
(lp4580
g61
(g77
g63
NtRp4581
(dp4582
g66
(dp4583
sg75
g4577
sg68
(lp4584
g61
(g82
g63
NtRp4585
(dp4586
g66
(dp4587
sg75
g4581
sg68
(lp4588
g61
(g62
g63
NtRp4589
(dp4590
g66
(dp4591
g74
I3
ssg75
g4585
sg68
(lp4592
cgluon.languages
lazyT_unpickle
p4593
(S't\x04\x00\x00\x00Home'
tRp4594
asbasbasbag61
(g77
g63
NtRp4595
(dp4596
g66
(dp4597
sg75
g4577
sg68
(lp4598
g61
(g82
g63
NtRp4599
(dp4600
g66
(dp4601
sg75
g4595
sg68
(lp4602
g61
(g62
g63
NtRp4603
(dp4604
g66
(dp4605
g74
I3
ssg75
g4599
sg68
(lp4606
g104
asbasbasbag61
(g77
g63
NtRp4607
(dp4608
g66
(dp4609
sg75
g4577
sg68
(lp4610
g61
(g82
g63
NtRp4611
(dp4612
g66
(dp4613
sg75
g4607
sg68
(lp4614
g61
(g62
g63
NtRp4615
(dp4616
g66
(dp4617
g74
I3
ssg75
g4611
sg68
(lp4618
S'/mycrawler/default/index'
p4619
asbasbasbag61
(g77
g63
NtRp4620
(dp4621
g66
(dp4622
sg75
g4577
sg68
(lp4623
g61
(g82
g63
NtRp4624
(dp4625
g66
(dp4626
sg75
g4620
sg68
(lp4627
g61
(g62
g63
NtRp4628
(dp4629
g66
(dp4630
g74
I3
ssg75
g4624
sg68
(lp4631
g61
(g70
g63
NtRp4632
(dp4633
g66
(dp4634
g74
I2
ssg75
Nsg68
(lp4635
sbasbasbasbasbasbasbasbag61
(g77
g63
NtRp4636
(dp4637
g66
(dp4638
sg75
g4561
sg68
(lp4639
g61
(g82
g63
NtRp4640
(dp4641
g66
(dp4642
sg75
g4636
sg68
(lp4643
g61
(g62
g63
NtRp4644
(dp4645
g66
(dp4646
g74
I4
ssg75
g4640
sg68
(lp4647
g61
(g70
g63
NtRp4648
(dp4649
g66
(dp4650
g74
I3
ssg75
Nsg68
(lp4651
g61
(g77
g63
NtRp4652
(dp4653
g66
(dp4654
sg75
g4648
sg68
(lp4655
g61
(g82
g63
NtRp4656
(dp4657
g66
(dp4658
sg75
g4652
sg68
(lp4659
g61
(g62
g63
NtRp4660
(dp4661
g66
(dp4662
g74
I3
ssg75
g4656
sg68
(lp4663
g61
(cgluon.html
SPAN
p4664
g63
NtRp4665
(dp4666
g66
(dp4667
g86
S'color:yellow'
p4668
ssg75
Nsg68
(lp4669
g4539
asbasbasbasbag61
(g77
g63
NtRp4670
(dp4671
g66
(dp4672
sg75
g4648
sg68
(lp4673
g61
(g82
g63
NtRp4674
(dp4675
g66
(dp4676
sg75
g4670
sg68
(lp4677
g61
(g62
g63
NtRp4678
(dp4679
g66
(dp4680
g74
I3
ssg75
g4674
sg68
(lp4681
g104
asbasbasbag61
(g77
g63
NtRp4682
(dp4683
g66
(dp4684
sg75
g4648
sg68
(lp4685
g61
(g82
g63
NtRp4686
(dp4687
g66
(dp4688
sg75
g4682
sg68
(lp4689
g61
(g62
g63
NtRp4690
(dp4691
g66
(dp4692
g74
I3
ssg75
g4686
sg68
(lp4693
S'None'
p4694
asbasbasbag61
(g77
g63
NtRp4695
(dp4696
g66
(dp4697
sg75
g4648
sg68
(lp4698
g61
(g82
g63
NtRp4699
(dp4700
g66
(dp4701
sg75
g4695
sg68
(lp4702
g61
(g62
g63
NtRp4703
(dp4704
g66
(dp4705
g74
I3
ssg75
g4699
sg68
(lp4706
g61
(g70
g63
NtRp4707
(dp4708
g66
(dp4709
g74
I2
ssg75
Nsg68
(lp4710
g61
(g77
g63
NtRp4711
(dp4712
g66
(dp4713
sg75
g4707
sg68
(lp4714
g61
(g82
g63
NtRp4715
(dp4716
g66
(dp4717
sg75
g4711
sg68
(lp4718
g61
(g62
g63
NtRp4719
(dp4720
g66
(dp4721
g74
I2
ssg75
g4715
sg68
(lp4722
g61
(g70
g63
NtRp4723
(dp4724
g66
(dp4725
g74
I1
ssg75
Nsg68
(lp4726
g61
(g77
g63
NtRp4727
(dp4728
g66
(dp4729
sg75
g4723
sg68
(lp4730
g61
(g82
g63
NtRp4731
(dp4732
g66
(dp4733
sg75
g4727
sg68
(lp4734
g61
(g62
g63
NtRp4735
(dp4736
g66
(dp4737
g74
I1
ssg75
g4731
sg68
(lp4738
g4593
(S's\x08\x00\x00\x00My Sites'
tRp4739
asbasbasbag61
(g77
g63
NtRp4740
(dp4741
g66
(dp4742
sg75
g4723
sg68
(lp4743
g61
(g82
g63
NtRp4744
(dp4745
g66
(dp4746
sg75
g4740
sg68
(lp4747
g61
(g62
g63
NtRp4748
(dp4749
g66
(dp4750
g74
I1
ssg75
g4744
sg68
(lp4751
I00
asbasbasbag61
(g77
g63
NtRp4752
(dp4753
g66
(dp4754
sg75
g4723
sg68
(lp4755
g61
(g82
g63
NtRp4756
(dp4757
g66
(dp4758
sg75
g4752
sg68
(lp4759
g61
(g62
g63
NtRp4760
(dp4761
g66
(dp4762
g74
I1
ssg75
g4756
sg68
(lp4763
S'/admin/default/site'
p4764
asbasbasbasbasbasbasbag61
(g77
g63
NtRp4765
(dp4766
g66
(dp4767
sg75
g4707
sg68
(lp4768
g61
(g82
g63
NtRp4769
(dp4770
g66
(dp4771
sg75
g4765
sg68
(lp4772
g61
(g62
g63
NtRp4773
(dp4774
g66
(dp4775
g74
I2
ssg75
g4769
sg68
(lp4776
g61
(g70
g63
NtRp4777
(dp4778
g66
(dp4779
g74
I1
ssg75
Nsg68
(lp4780
g61
(g77
g63
NtRp4781
(dp4782
g66
(dp4783
sg75
g4777
sg68
(lp4784
g61
(g82
g63
NtRp4785
(dp4786
g66
(dp4787
sg75
g4781
sg68
(lp4788
g61
(g62
g63
NtRp4789
(dp4790
g66
(dp4791
g74
I1
ssg75
g4785
sg68
(lp4792
g4593
(S's\x08\x00\x00\x00This App'
tRp4793
asbasbasbag61
(g77
g63
NtRp4794
(dp4795
g66
(dp4796
sg75
g4777
sg68
(lp4797
g61
(g82
g63
NtRp4798
(dp4799
g66
(dp4800
sg75
g4794
sg68
(lp4801
g61
(g62
g63
NtRp4802
(dp4803
g66
(dp4804
g74
I1
ssg75
g4798
sg68
(lp4805
I00
asbasbasbag61
(g77
g63
NtRp4806
(dp4807
g66
(dp4808
sg75
g4777
sg68
(lp4809
g61
(g82
g63
NtRp4810
(dp4811
g66
(dp4812
sg75
g4806
sg68
(lp4813
g61
(g62
g63
NtRp4814
(dp4815
g66
(dp4816
g74
I1
ssg75
g4810
sg68
(lp4817
S'/admin/default/design/mycrawler'
p4818
asbasbasbag61
(g77
g63
NtRp4819
(dp4820
g66
(dp4821
sg75
g4777
sg68
(lp4822
g61
(g82
g63
NtRp4823
(dp4824
g66
(dp4825
sg75
g4819
sg68
(lp4826
g61
(g62
g63
NtRp4827
(dp4828
g66
(dp4829
g74
I1
ssg75
g4823
sg68
(lp4830
(lp4831
(g4593
(S't\n\x00\x00\x00Controller'
tRp4832
I00
S'/admin/default/edit/mycrawler/controllers/default.py'
tp4833
a(g4593
(S't\x04\x00\x00\x00View'
tRp4834
I00
S'/admin/default/edit/mycrawler/views/default/search.html'
tp4835
a(g4593
(S't\x06\x00\x00\x00Layout'
tRp4836
I00
S'/admin/default/edit/mycrawler/views/layout.html'
tp4837
a(g4593
(S't\n\x00\x00\x00Stylesheet'
tRp4838
I00
S'/admin/default/edit/mycrawler/static/css/web2py.css'
tp4839
a(g4593
(S's\x08\x00\x00\x00DB Model'
tRp4840
I00
S'/admin/default/edit/mycrawler/models/db.py'
tp4841
a(g4593
(S's\n\x00\x00\x00Menu Model'
tRp4842
I00
S'/admin/default/edit/mycrawler/models/menu.py'
tp4843
a(g4593
(S't\x08\x00\x00\x00Database'
tRp4844
I00
S'/mycrawler/appadmin/index'
tp4845
a(g4593
(S't\x06\x00\x00\x00Errors'
tRp4846
I00
S'/admin/default/errors/mycrawler'
tp4847
a(g4593
(S't\x05\x00\x00\x00About'
tRp4848
I00
S'/admin/default/about/mycrawler'
tp4849
aasbasbasbasbasbasbasbag61
(g77
g63
NtRp4850
(dp4851
g66
(dp4852
sg75
g4707
sg68
(lp4853
g61
(g82
g63
NtRp4854
(dp4855
g66
(dp4856
sg75
g4850
sg68
(lp4857
g61
(g62
g63
NtRp4858
(dp4859
g66
(dp4860
g74
I2
ssg75
g4854
sg68
(lp4861
g61
(g70
g63
NtRp4862
(dp4863
g66
(dp4864
g74
I1
ssg75
Nsg68
(lp4865
g61
(g77
g63
NtRp4866
(dp4867
g66
(dp4868
sg75
g4862
sg68
(lp4869
g61
(g82
g63
NtRp4870
(dp4871
g66
(dp4872
sg75
g4866
sg68
(lp4873
g61
(g62
g63
NtRp4874
(dp4875
g66
(dp4876
g74
I1
ssg75
g4870
sg68
(lp4877
S'web2py.com'
p4878
asbasbasbag61
(g77
g63
NtRp4879
(dp4880
g66
(dp4881
sg75
g4862
sg68
(lp4882
g61
(g82
g63
NtRp4883
(dp4884
g66
(dp4885
sg75
g4879
sg68
(lp4886
g61
(g62
g63
NtRp4887
(dp4888
g66
(dp4889
g74
I1
ssg75
g4883
sg68
(lp4890
I00
asbasbasbag61
(g77
g63
NtRp4891
(dp4892
g66
(dp4893
sg75
g4862
sg68
(lp4894
g61
(g82
g63
NtRp4895
(dp4896
g66
(dp4897
sg75
g4891
sg68
(lp4898
g61
(g62
g63
NtRp4899
(dp4900
g66
(dp4901
g74
I1
ssg75
g4895
sg68
(lp4902
S'http://www.web2py.com'
p4903
asbasbasbag61
(g77
g63
NtRp4904
(dp4905
g66
(dp4906
sg75
g4862
sg68
(lp4907
g61
(g82
g63
NtRp4908
(dp4909
g66
(dp4910
sg75
g4904
sg68
(lp4911
g61
(g62
g63
NtRp4912
(dp4913
g66
(dp4914
g74
I1
ssg75
g4908
sg68
(lp4915
(lp4916
(g4593
(S't\x08\x00\x00\x00Download'
tRp4917
I00
S'http://www.web2py.com/examples/default/download'
p4918
tp4919
a(g4593
(S't\x07\x00\x00\x00Support'
tRp4920
I00
S'http://www.web2py.com/examples/default/support'
p4921
tp4922
a(g4593
(S't\x04\x00\x00\x00Demo'
tRp4923
I00
S'http://web2py.com/demo_admin'
p4924
tp4925
a(g4593
(S's\x0e\x00\x00\x00Quick Examples'
tRp4926
I00
S'http://web2py.com/examples/default/examples'
p4927
tp4928
a(g4593
(S't\x03\x00\x00\x00FAQ'
tRp4929
I00
S'http://web2py.com/AlterEgo'
p4930
tp4931
a(g4593
(S't\x06\x00\x00\x00Videos'
tRp4932
I00
S'http://www.web2py.com/examples/default/videos/'
p4933
tp4934
a(g4593
(S's\x11\x00\x00\x00Free Applications'
tRp4935
I00
S'http://web2py.com/appliances'
p4936
tp4937
a(g4593
(S't\x07\x00\x00\x00Plugins'
tRp4938
I00
S'http://web2py.com/plugins'
p4939
tp4940
a(g4593
(S't\x07\x00\x00\x00Layouts'
tRp4941
I00
S'http://web2py.com/layouts'
p4942
tp4943
a(g4593
(S't\x07\x00\x00\x00Recipes'
tRp4944
I00
S'http://web2pyslices.com/'
p4945
tp4946
a(g4593
(S't\x08\x00\x00\x00Semantic'
tRp4947
I00
S'http://web2py.com/semantic'
p4948
tp4949
aasbasbasbasbasbasbasbag61
(g77
g63
NtRp4950
(dp4951
g66
(dp4952
sg75
g4707
sg68
(lp4953
g61
(g82
g63
NtRp4954
(dp4955
g66
(dp4956
sg75
g4950
sg68
(lp4957
g61
(g62
g63
NtRp4958
(dp4959
g66
(dp4960
g74
I2
ssg75
g4954
sg68
(lp4961
g61
(g70
g63
NtRp4962
(dp4963
g66
(dp4964
g74
I1
ssg75
Nsg68
(lp4965
g61
(g77
g63
NtRp4966
(dp4967
g66
(dp4968
sg75
g4962
sg68
(lp4969
g61
(g82
g63
NtRp4970
(dp4971
g66
(dp4972
sg75
g4966
sg68
(lp4973
g61
(g62
g63
NtRp4974
(dp4975
g66
(dp4976
g74
I1
ssg75
g4970
sg68
(lp4977
g4593
(S't\r\x00\x00\x00Documentation'
tRp4978
asbasbasbag61
(g77
g63
NtRp4979
(dp4980
g66
(dp4981
sg75
g4962
sg68
(lp4982
g61
(g82
g63
NtRp4983
(dp4984
g66
(dp4985
sg75
g4979
sg68
(lp4986
g61
(g62
g63
NtRp4987
(dp4988
g66
(dp4989
g74
I1
ssg75
g4983
sg68
(lp4990
I00
asbasbasbag61
(g77
g63
NtRp4991
(dp4992
g66
(dp4993
sg75
g4962
sg68
(lp4994
g61
(g82
g63
NtRp4995
(dp4996
g66
(dp4997
sg75
g4991
sg68
(lp4998
g61
(g62
g63
NtRp4999
(dp5000
g66
(dp5001
g74
I1
ssg75
g4995
sg68
(lp5002
S'http://www.web2py.com/book'
p5003
asbasbasbag61
(g77
g63
NtRp5004
(dp5005
g66
(dp5006
sg75
g4962
sg68
(lp5007
g61
(g82
g63
NtRp5008
(dp5009
g66
(dp5010
sg75
g5004
sg68
(lp5011
g61
(g62
g63
NtRp5012
(dp5013
g66
(dp5014
g74
I1
ssg75
g5008
sg68
(lp5015
(lp5016
(g4593
(S't\x07\x00\x00\x00Preface'
tRp5017
I00
S'http://www.web2py.com/book/default/chapter/00'
p5018
tp5019
a(g4593
(S't\x0c\x00\x00\x00Introduction'
tRp5020
I00
S'http://www.web2py.com/book/default/chapter/01'
p5021
tp5022
a(g4593
(S't\x06\x00\x00\x00Python'
tRp5023
I00
S'http://www.web2py.com/book/default/chapter/02'
p5024
tp5025
a(g4593
(S't\x08\x00\x00\x00Overview'
tRp5026
I00
S'http://www.web2py.com/book/default/chapter/03'
p5027
tp5028
a(g4593
(S's\x08\x00\x00\x00The Core'
tRp5029
I00
S'http://www.web2py.com/book/default/chapter/04'
p5030
tp5031
a(g4593
(S's\t\x00\x00\x00The Views'
tRp5032
I00
S'http://www.web2py.com/book/default/chapter/05'
p5033
tp5034
a(g4593
(S't\x08\x00\x00\x00Database'
tRp5035
I00
S'http://www.web2py.com/book/default/chapter/06'
p5036
tp5037
a(g4593
(S's\x14\x00\x00\x00Forms and Validators'
tRp5038
I00
S'http://www.web2py.com/book/default/chapter/07'
p5039
tp5040
a(g4593
(S's\r\x00\x00\x00Email and SMS'
tRp5041
I00
S'http://www.web2py.com/book/default/chapter/08'
p5042
tp5043
a(g4593
(S's\x0e\x00\x00\x00Access Control'
tRp5044
I00
S'http://www.web2py.com/book/default/chapter/09'
p5045
tp5046
a(g4593
(S't\x08\x00\x00\x00Services'
tRp5047
I00
S'http://www.web2py.com/book/default/chapter/10'
p5048
tp5049
a(g4593
(S's\x0c\x00\x00\x00Ajax Recipes'
tRp5050
I00
S'http://www.web2py.com/book/default/chapter/11'
p5051
tp5052
a(g4593
(S's\x16\x00\x00\x00Components and Plugins'
tRp5053
I00
S'http://www.web2py.com/book/default/chapter/12'
p5054
tp5055
a(g4593
(S's\x12\x00\x00\x00Deployment Recipes'
tRp5056
I00
S'http://www.web2py.com/book/default/chapter/13'
p5057
tp5058
a(g4593
(S's\r\x00\x00\x00Other Recipes'
tRp5059
I00
S'http://www.web2py.com/book/default/chapter/14'
p5060
tp5061
a(g4593
(S's\r\x00\x00\x00Buy this book'
tRp5062
I00
S'http://stores.lulu.com/web2py'
p5063
tp5064
aasbasbasbasbasbasbasbag61
(g77
g63
NtRp5065
(dp5066
g66
(dp5067
sg75
g4707
sg68
(lp5068
g61
(g82
g63
NtRp5069
(dp5070
g66
(dp5071
sg75
g5065
sg68
(lp5072
g61
(g62
g63
NtRp5073
(dp5074
g66
(dp5075
g74
I2
ssg75
g5069
sg68
(lp5076
g61
(g70
g63
NtRp5077
(dp5078
g66
(dp5079
g74
I1
ssg75
Nsg68
(lp5080
g61
(g77
g63
NtRp5081
(dp5082
g66
(dp5083
sg75
g5077
sg68
(lp5084
g61
(g82
g63
NtRp5085
(dp5086
g66
(dp5087
sg75
g5081
sg68
(lp5088
g61
(g62
g63
NtRp5089
(dp5090
g66
(dp5091
g74
I1
ssg75
g5085
sg68
(lp5092
g4593
(S't\t\x00\x00\x00Community'
tRp5093
asbasbasbag61
(g77
g63
NtRp5094
(dp5095
g66
(dp5096
sg75
g5077
sg68
(lp5097
g61
(g82
g63
NtRp5098
(dp5099
g66
(dp5100
sg75
g5094
sg68
(lp5101
g61
(g62
g63
NtRp5102
(dp5103
g66
(dp5104
g74
I1
ssg75
g5098
sg68
(lp5105
I00
asbasbasbag61
(g77
g63
NtRp5106
(dp5107
g66
(dp5108
sg75
g5077
sg68
(lp5109
g61
(g82
g63
NtRp5110
(dp5111
g66
(dp5112
sg75
g5106
sg68
(lp5113
g61
(g62
g63
NtRp5114
(dp5115
g66
(dp5116
g74
I1
ssg75
g5110
sg68
(lp5117
Nasbasbasbag61
(g77
g63
NtRp5118
(dp5119
g66
(dp5120
sg75
g5077
sg68
(lp5121
g61
(g82
g63
NtRp5122
(dp5123
g66
(dp5124
sg75
g5118
sg68
(lp5125
g61
(g62
g63
NtRp5126
(dp5127
g66
(dp5128
g74
I1
ssg75
g5122
sg68
(lp5129
(lp5130
(g4593
(S't\x06\x00\x00\x00Groups'
tRp5131
I00
S'http://www.web2py.com/examples/default/usergroups'
p5132
tp5133
a(g4593
(S't\x07\x00\x00\x00Twitter'
tRp5134
I00
S'http://twitter.com/web2py'
p5135
tp5136
a(g4593
(S's\t\x00\x00\x00Live Chat'
tRp5137
I00
S'http://webchat.freenode.net/?channels=web2py'
p5138
tp5139
aasbasbasbasbasbasbasbag61
(g77
g63
NtRp5140
(dp5141
g66
(dp5142
sg75
g4707
sg68
(lp5143
g61
(g82
g63
NtRp5144
(dp5145
g66
(dp5146
sg75
g5140
sg68
(lp5147
g61
(g62
g63
NtRp5148
(dp5149
g66
(dp5150
g74
I2
ssg75
g5144
sg68
(lp5151
g61
(g70
g63
NtRp5152
(dp5153
g66
(dp5154
g74
I1
ssg75
Nsg68
(lp5155
g61
(g77
g63
NtRp5156
(dp5157
g66
(dp5158
sg75
g5152
sg68
(lp5159
g61
(g82
g63
NtRp5160
(dp5161
g66
(dp5162
sg75
g5156
sg68
(lp5163
g61
(g62
g63
NtRp5164
(dp5165
g66
(dp5166
g74
I1
ssg75
g5160
sg68
(lp5167
g4593
(S't\x07\x00\x00\x00Plugins'
tRp5168
asbasbasbag61
(g77
g63
NtRp5169
(dp5170
g66
(dp5171
sg75
g5152
sg68
(lp5172
g61
(g82
g63
NtRp5173
(dp5174
g66
(dp5175
sg75
g5169
sg68
(lp5176
g61
(g62
g63
NtRp5177
(dp5178
g66
(dp5179
g74
I1
ssg75
g5173
sg68
(lp5180
I00
asbasbasbag61
(g77
g63
NtRp5181
(dp5182
g66
(dp5183
sg75
g5152
sg68
(lp5184
g61
(g82
g63
NtRp5185
(dp5186
g66
(dp5187
sg75
g5181
sg68
(lp5188
g61
(g62
g63
NtRp5189
(dp5190
g66
(dp5191
g74
I1
ssg75
g5185
sg68
(lp5192
Nasbasbasbag61
(g77
g63
NtRp5193
(dp5194
g66
(dp5195
sg75
g5152
sg68
(lp5196
g61
(g82
g63
NtRp5197
(dp5198
g66
(dp5199
sg75
g5193
sg68
(lp5200
g61
(g62
g63
NtRp5201
(dp5202
g66
(dp5203
g74
I1
ssg75
g5197
sg68
(lp5204
(lp5205
(S'plugin_wiki'
p5206
I00
S'http://web2py.com/examples/default/download'
p5207
tp5208
a(g4593
(S's\r\x00\x00\x00Other Plugins'
tRp5209
I00
g4939
tp5210
a(g4593
(S's\x0e\x00\x00\x00Layout Plugins'
tRp5211
I00
g4942
tp5212
aasbasbasbasbasbasbasbasbasbasbasbasbasbasbasbasbasbasbasbag61
(g77
g63
NtRp5213
(dp5214
g66
(dp5215
sg75
g4037
sg68
(lp5216
g61
(g82
g63
NtRp5217
(dp5218
g66
(dp5219
g86
g87
ssg75
g5213
sg68
(lp5220
S'meta'
p5221
asbag61
(g82
g63
NtRp5222
(dp5223
g66
(dp5224
g93
g94
ssg75
g5213
sg68
(lp5225
S':'
asbag61
(g82
g63
NtRp5226
(dp5227
g66
(dp5228
sg75
g5213
sg68
(lp5229
g61
(g62
g63
NtRp5230
(dp5231
g66
(dp5232
g74
I5
ssg75
g5226
sg68
(lp5233
g61
(g70
g63
NtRp5234
(dp5235
g66
(dp5236
g74
I4
ssg75
Nsg68
(lp5237
g61
(g77
g63
NtRp5238
(dp5239
g66
(dp5240
sg75
g5234
sg68
(lp5241
g61
(g82
g63
NtRp5242
(dp5243
g66
(dp5244
g86
g87
ssg75
g5238
sg68
(lp5245
S'author'
p5246
asbag61
(g82
g63
NtRp5247
(dp5248
g66
(dp5249
g93
g94
ssg75
g5238
sg68
(lp5250
S':'
asbag61
(g82
g63
NtRp5251
(dp5252
g66
(dp5253
sg75
g5238
sg68
(lp5254
g61
(g62
g63
NtRp5255
(dp5256
g66
(dp5257
g74
I4
ssg75
g5251
sg68
(lp5258
S'Your Name <you@example.com>'
p5259
asbasbasbag61
(g77
g63
NtRp5260
(dp5261
g66
(dp5262
sg75
g5234
sg68
(lp5263
g61
(g82
g63
NtRp5264
(dp5265
g66
(dp5266
g86
g87
ssg75
g5260
sg68
(lp5267
S'copyright'
p5268
asbag61
(g82
g63
NtRp5269
(dp5270
g66
(dp5271
g93
g94
ssg75
g5260
sg68
(lp5272
S':'
asbag61
(g82
g63
NtRp5273
(dp5274
g66
(dp5275
sg75
g5260
sg68
(lp5276
g61
(g62
g63
NtRp5277
(dp5278
g66
(dp5279
g74
I4
ssg75
g5273
sg68
(lp5280
S'Copyright 2011'
p5281
asbasbasbag61
(g77
g63
NtRp5282
(dp5283
g66
(dp5284
sg75
g5234
sg68
(lp5285
g61
(g82
g63
NtRp5286
(dp5287
g66
(dp5288
g86
g87
ssg75
g5282
sg68
(lp5289
S'description'
p5290
asbag61
(g82
g63
NtRp5291
(dp5292
g66
(dp5293
g93
g94
ssg75
g5282
sg68
(lp5294
S':'
asbag61
(g82
g63
NtRp5295
(dp5296
g66
(dp5297
sg75
g5282
sg68
(lp5298
g61
(g62
g63
NtRp5299
(dp5300
g66
(dp5301
g74
I4
ssg75
g5295
sg68
(lp5302
S'a cool new app'
p5303
asbasbasbag61
(g77
g63
NtRp5304
(dp5305
g66
(dp5306
sg75
g5234
sg68
(lp5307
g61
(g82
g63
NtRp5308
(dp5309
g66
(dp5310
g86
g87
ssg75
g5304
sg68
(lp5311
S'generator'
p5312
asbag61
(g82
g63
NtRp5313
(dp5314
g66
(dp5315
g93
g94
ssg75
g5304
sg68
(lp5316
S':'
asbag61
(g82
g63
NtRp5317
(dp5318
g66
(dp5319
sg75
g5304
sg68
(lp5320
g61
(g62
g63
NtRp5321
(dp5322
g66
(dp5323
g74
I4
ssg75
g5317
sg68
(lp5324
S'Web2py Web Framework'
p5325
asbasbasbag61
(g77
g63
NtRp5326
(dp5327
g66
(dp5328
sg75
g5234
sg68
(lp5329
g61
(g82
g63
NtRp5330
(dp5331
g66
(dp5332
g86
g87
ssg75
g5326
sg68
(lp5333
S'keywords'
p5334
asbag61
(g82
g63
NtRp5335
(dp5336
g66
(dp5337
g93
g94
ssg75
g5326
sg68
(lp5338
S':'
asbag61
(g82
g63
NtRp5339
(dp5340
g66
(dp5341
sg75
g5326
sg68
(lp5342
g61
(g62
g63
NtRp5343
(dp5344
g66
(dp5345
g74
I4
ssg75
g5339
sg68
(lp5346
S'web2py, python, framework'
p5347
asbasbasbasbasbasbasbag61
(g77
g63
NtRp5348
(dp5349
g66
(dp5350
sg75
g4037
sg68
(lp5351
g61
(g82
g63
NtRp5352
(dp5353
g66
(dp5354
g86
g87
ssg75
g5348
sg68
(lp5355
S'postprocessing'
p5356
asbag61
(g82
g63
NtRp5357
(dp5358
g66
(dp5359
g93
g94
ssg75
g5348
sg68
(lp5360
S':'
asbag61
(g82
g63
NtRp5361
(dp5362
g66
(dp5363
sg75
g5348
sg68
(lp5364
g61
(g62
g63
NtRp5365
(dp5366
g66
(dp5367
g74
I5
ssg75
g5361
sg68
(lp5368
g61
(g70
g63
NtRp5369
(dp5370
g66
(dp5371
g74
I4
ssg75
Nsg68
(lp5372
sbasbasbasbag61
(g77
g63
NtRp5373
(dp5374
g66
(dp5375
sg75
g4037
sg68
(lp5376
g61
(g82
g63
NtRp5377
(dp5378
g66
(dp5379
g86
g87
ssg75
g5373
sg68
(lp5380
S'session_file'
p5381
asbag61
(g82
g63
NtRp5382
(dp5383
g66
(dp5384
g93
g94
ssg75
g5373
sg68
(lp5385
S':'
asbag61
(g82
g63
NtRp5386
(dp5387
g66
(dp5388
sg75
g5373
sg68
(lp5389
g61
(g62
g63
NtRp5390
(dp5391
g66
(dp5392
g74
I5
ssg75
g5386
sg68
(lp5393
S"<open file 'C:\\Documents and Settings\\agrover\\Desktop\\previous crawler\\web2py\\applications\\mycrawler\\sessions\\127.0.0.1-32a946d8-ad2c-43d8-be0f-c8249d02766a', mode 'rb+' at 0x050ECDE0>"
p5394
asbasbasbag61
(g77
g63
NtRp5395
(dp5396
g66
(dp5397
sg75
g4037
sg68
(lp5398
g61
(g82
g63
NtRp5399
(dp5400
g66
(dp5401
g86
g87
ssg75
g5395
sg68
(lp5402
S'session_filename'
p5403
asbag61
(g82
g63
NtRp5404
(dp5405
g66
(dp5406
g93
g94
ssg75
g5395
sg68
(lp5407
S':'
asbag61
(g82
g63
NtRp5408
(dp5409
g66
(dp5410
sg75
g5395
sg68
(lp5411
g61
(g62
g63
NtRp5412
(dp5413
g66
(dp5414
g74
I5
ssg75
g5408
sg68
(lp5415
S'C:\\Documents and Settings\\agrover\\Desktop\\previous crawler\\web2py\\applications\\mycrawler\\sessions\\127.0.0.1-32a946d8-ad2c-43d8-be0f-c8249d02766a'
p5416
asbasbasbag61
(g77
g63
NtRp5417
(dp5418
g66
(dp5419
sg75
g4037
sg68
(lp5420
g61
(g82
g63
NtRp5421
(dp5422
g66
(dp5423
g86
g87
ssg75
g5417
sg68
(lp5424
S'session_id'
p5425
asbag61
(g82
g63
NtRp5426
(dp5427
g66
(dp5428
g93
g94
ssg75
g5417
sg68
(lp5429
S':'
asbag61
(g82
g63
NtRp5430
(dp5431
g66
(dp5432
sg75
g5417
sg68
(lp5433
g61
(g62
g63
NtRp5434
(dp5435
g66
(dp5436
g74
I5
ssg75
g5430
sg68
(lp5437
S'127.0.0.1-32a946d8-ad2c-43d8-be0f-c8249d02766a'
p5438
asbasbasbag61
(g77
g63
NtRp5439
(dp5440
g66
(dp5441
sg75
g4037
sg68
(lp5442
g61
(g82
g63
NtRp5443
(dp5444
g66
(dp5445
g86
g87
ssg75
g5439
sg68
(lp5446
S'session_id_name'
p5447
asbag61
(g82
g63
NtRp5448
(dp5449
g66
(dp5450
g93
g94
ssg75
g5439
sg68
(lp5451
S':'
asbag61
(g82
g63
NtRp5452
(dp5453
g66
(dp5454
sg75
g5439
sg68
(lp5455
g61
(g62
g63
NtRp5456
(dp5457
g66
(dp5458
g74
I5
ssg75
g5452
sg68
(lp5459
g4094
asbasbasbag61
(g77
g63
NtRp5460
(dp5461
g66
(dp5462
sg75
g4037
sg68
(lp5463
g61
(g82
g63
NtRp5464
(dp5465
g66
(dp5466
g86
g87
ssg75
g5460
sg68
(lp5467
S'session_locked'
p5468
asbag61
(g82
g63
NtRp5469
(dp5470
g66
(dp5471
g93
g94
ssg75
g5460
sg68
(lp5472
S':'
asbag61
(g82
g63
NtRp5473
(dp5474
g66
(dp5475
sg75
g5460
sg68
(lp5476
g61
(g62
g63
NtRp5477
(dp5478
g66
(dp5479
g74
I5
ssg75
g5473
sg68
(lp5480
g2031
asbasbasbag61
(g77
g63
NtRp5481
(dp5482
g66
(dp5483
sg75
g4037
sg68
(lp5484
g61
(g82
g63
NtRp5485
(dp5486
g66
(dp5487
g86
g87
ssg75
g5481
sg68
(lp5488
S'session_new'
p5489
asbag61
(g82
g63
NtRp5490
(dp5491
g66
(dp5492
g93
g94
ssg75
g5481
sg68
(lp5493
S':'
asbag61
(g82
g63
NtRp5494
(dp5495
g66
(dp5496
sg75
g5481
sg68
(lp5497
g61
(g62
g63
NtRp5498
(dp5499
g66
(dp5500
g74
I5
ssg75
g5494
sg68
(lp5501
g104
asbasbasbag61
(g77
g63
NtRp5502
(dp5503
g66
(dp5504
sg75
g4037
sg68
(lp5505
g61
(g82
g63
NtRp5506
(dp5507
g66
(dp5508
g86
g87
ssg75
g5502
sg68
(lp5509
S'status'
p5510
asbag61
(g82
g63
NtRp5511
(dp5512
g66
(dp5513
g93
g94
ssg75
g5502
sg68
(lp5514
S':'
asbag61
(g82
g63
NtRp5515
(dp5516
g66
(dp5517
sg75
g5502
sg68
(lp5518
g61
(g62
g63
NtRp5519
(dp5520
g66
(dp5521
g74
I5
ssg75
g5515
sg68
(lp5522
S'200'
p5523
asbasbasbag61
(g77
g63
NtRp5524
(dp5525
g66
(dp5526
sg75
g4037
sg68
(lp5527
g61
(g82
g63
NtRp5528
(dp5529
g66
(dp5530
g86
g87
ssg75
g5524
sg68
(lp5531
S'subtitle'
p5532
asbag61
(g82
g63
NtRp5533
(dp5534
g66
(dp5535
g93
g94
ssg75
g5524
sg68
(lp5536
S':'
asbag61
(g82
g63
NtRp5537
(dp5538
g66
(dp5539
sg75
g5524
sg68
(lp5540
g61
(g62
g63
NtRp5541
(dp5542
g66
(dp5543
g74
I5
ssg75
g5537
sg68
(lp5544
g4593
(S's\r\x00\x00\x00customize me!'
tRp5545
asbasbasbag61
(g77
g63
NtRp5546
(dp5547
g66
(dp5548
sg75
g4037
sg68
(lp5549
g61
(g82
g63
NtRp5550
(dp5551
g66
(dp5552
g86
g87
ssg75
g5546
sg68
(lp5553
S'title'
p5554
asbag61
(g82
g63
NtRp5555
(dp5556
g66
(dp5557
g93
g94
ssg75
g5546
sg68
(lp5558
S':'
asbag61
(g82
g63
NtRp5559
(dp5560
g66
(dp5561
sg75
g5546
sg68
(lp5562
g61
(g62
g63
NtRp5563
(dp5564
g66
(dp5565
g74
I5
ssg75
g5559
sg68
(lp5566
S'Mycrawler'
p5567
asbasbasbag61
(g77
g63
NtRp5568
(dp5569
g66
(dp5570
sg75
g4037
sg68
(lp5571
g61
(g82
g63
NtRp5572
(dp5573
g66
(dp5574
g86
g87
ssg75
g5568
sg68
(lp5575
g2990
asbag61
(g82
g63
NtRp5576
(dp5577
g66
(dp5578
g93
g94
ssg75
g5568
sg68
(lp5579
S':'
asbag61
(g82
g63
NtRp5580
(dp5581
g66
(dp5582
sg75
g5568
sg68
(lp5583
g61
(g62
g63
NtRp5584
(dp5585
g66
(dp5586
g74
I5
ssg75
g5580
sg68
(lp5587
g3003
asbasbasbag61
(g77
g63
NtRp5588
(dp5589
g66
(dp5590
sg75
g4037
sg68
(lp5591
g61
(g82
g63
NtRp5592
(dp5593
g66
(dp5594
g86
g87
ssg75
g5588
sg68
(lp5595
S'view'
p5596
asbag61
(g82
g63
NtRp5597
(dp5598
g66
(dp5599
g93
g94
ssg75
g5588
sg68
(lp5600
S':'
asbag61
(g82
g63
NtRp5601
(dp5602
g66
(dp5603
sg75
g5588
sg68
(lp5604
g61
(g62
g63
NtRp5605
(dp5606
g66
(dp5607
g74
I5
ssg75
g5601
sg68
(lp5608
S'default/search.html'
p5609
asbasbasbasbasbsS'locals'
p5610
(dp5611
S'predicate'
p5612
S'None'
p5613
sg5290
S"'nr 1'"
p5614
sS'form'
p5615
S'<mechanize._form.HTMLForm instance>'
p5616
sS'self'
p5617
S'<mechanize._mechanize.Browser instance>'
p5618
sS'global_form'
p5619
S'<mechanize._form.HTMLForm instance>'
p5620
sS'orig_nr'
p5621
S'1'
sS'nr'
p5622
S'0'
sS'name'
p5623
S'None'
p5624
sssS'traceback'
p5625
S'Traceback (most recent call last):\n  File "C:\\Documents and Settings\\agrover\\Desktop\\previous crawler\\web2py\\gluon\\restricted.py", line 205, in restricted\n    exec ccode in environment\n  File "C:\\Documents and Settings\\agrover\\Desktop\\previous crawler\\web2py\\applications\\mycrawler\\controllers/default.py", line 405, in <module>\n  File "C:\\Documents and Settings\\agrover\\Desktop\\previous crawler\\web2py\\gluon\\globals.py", line 173, in <lambda>\n    self._caller = lambda f: f()\n  File "C:\\Documents and Settings\\agrover\\Desktop\\previous crawler\\web2py\\applications\\mycrawler\\controllers/default.py", line 231, in search\n    br.select_form(nr=1)\n  File "build\\bdist.win32\\egg\\mechanize\\_mechanize.py", line 524, in select_form\n    raise FormNotFoundError("no form matching "+description)\nFormNotFoundError: no form matching nr 1\n'
p5626
s.