(dp1
S'output'
p2
S"<type 'exceptions.IOError'> [Errno 2] No such file or directory: 'C:\\\\Documents and Settings\\\\agrover\\\\Desktop\\\\previous crawler\\\\web2py\\\\applications\\\\mycrawler\\\\uploads\\\\'"
p3
sS'layer'
p4
S'C:\\Documents and Settings\\agrover\\Desktop\\previous crawler\\web2py\\applications\\mycrawler\\controllers/default.py'
p5
sS'code'
p6
S'# -*- coding: utf-8 -*-\n# this file is released under public domain and you can use without limitations\n\n#########################################################################\n## This is a samples controller\n## - index is the default action of any application\n## - user is required for authentication and authorization\n## - download is for downloading files uploaded in the db (does streaming)\n## - call exposes all registered services (none by default)\n#########################################################################\nimport cStringIO\nimport csv\nimport re\nimport string\nimport subprocess\nimport time\ncountry=[\'United States\', \'Afghanistan\', \'Aland Islands\', \'Albania\', \'Algeria\', \'American Samoa\', \'Andorra\', \'Angola\', \'Anguilla\', \'Antarctica\', \'Antigua and Barbuda\', \'Argentina\', \'Armenia\', \'Aruba\', \'Australia\', \'Austria\', \'Azerbaijan\', \'Bahamas\', \'Bahrain\', \'Bangladesh\', \'Barbados\', \'Belarus\', \'Belgium\', \'Belize\', \'Benin\', \'Bermuda\', \'Bhutan\', \'Bolivia\', \'Bosnia and Herzegovina\', \'Botswana\', \'Brazil\', \'British Indian Ocean Territory\', \'Brunei Darussalam\', \'Bulgaria\', \'Burkina Faso\', \'Burundi\', \'Cambodia\', \'Cameroon\', \'Canada\', \'Cape Verde\', \'Caribbean Nations\', \'Cayman Islands\', \'Central African Republic\', \'Chad\', \'Chile\', \'China\', \'Christmas Island\', \'Cocos (Keeling) Islands\', \'Colombia\', \'Comoros\', \'Congo\', \'Cook Islands\', \'Costa Rica\', "Cote D\'Ivoire (Ivory Coast)", \'Croatia\', \'Cuba\', \'Cyprus\', \'Czech Republic\', \'Democratic Republic of the Congo\', \'Denmark\', \'Djibouti\', \'Dominica\', \'Dominican Republic\', \'East Timor\', \'Ecuador\', \'Egypt\', \'El Salvador\', \'Equatorial Guinea\', \'Eritrea\', \'Estonia\', \'Ethiopia\', \'Falkland Islands (Malvinas)\', \'Faroe Islands\', \'Federated States of Micronesia\', \'Fiji\', \'Finland\', \'France\', \'French Guiana\', \'French Polynesia\', \'French Southern Territories\', \'Gabon\', \'Gambia\', \'Georgia\', \'Germany\', \'Ghana\', \'Gibraltar\', \'Greece\', \'Greenland\', \'Grenada\', \'Guadeloupe\', \'Guam\', \'Guatemala\', \'Guernsey\', \'Guinea\', \'Guinea-Bissau\', \'Guyana\', \'Haiti\', \'Honduras\', \'Hong Kong\', \'Hungary\', \'Iceland\', \'India\', \'Indonesia\', \'Iran\', \'Iraq\', \'Ireland\', \'Isle of Man\', \'Israel\', \'Italy\', \'Jamaica\', \'Japan\', \'Jersey\', \'Jordan\', \'Kazakhstan\', \'Kenya\', \'Kiribati\', \'Korea\', \'Korea (North)\', \'Kuwait\', \'Kyrgyzstan\', \'Laos\', \'Latvia\', \'Lebanon\', \'Lesotho\', \'Liberia\', \'Libya\', \'Liechtenstein\', \'Lithuania\', \'Luxembourg\', \'Macao\', \'Macedonia\', \'Madagascar\', \'Malawi\', \'Malaysia\', \'Maldives\', \'Mali\', \'Malta\', \'Marshall Islands\', \'Martinique\', \'Mauritania\', \'Mauritius\', \'Mayotte\', \'Mexico\', \'Moldova\', \'Monaco\', \'Mongolia\', \'Montenegro\', \'Montserrat\', \'Morocco\', \'Mozambique\', \'Myanmar\', \'Namibia\', \'Nauru\', \'Nepal\', \'Netherlands\', \'Netherlands Antilles\', \'New Caledonia\', \'New Zealand\', \'Nicaragua\', \'Niger\', \'Nigeria\', \'Niue\', \'Norfolk Island\', \'Northern Mariana Islands\', \'Norway\', \'Oman\', \'Pakistan\', \'Palau\', \'Palestinian Territory\', \'Panama\', \'Papua New Guinea\', \'Paraguay\', \'Peru\', \'Philippines\', \'Pitcairn\', \'Poland\', \'Portugal\', \'Puerto Rico\', \'Qatar\', \'Reunion\', \'Romania\', \'Russian Federation\', \'Rwanda\', \'Saint Helena\', \'Saint Kitts and Nevis\', \'Saint Lucia\', \'Saint Pierre and Miquelon\', \'Saint Vincent and the Grenadines\', \'Samoa\', \'San Marino\', \'Sao Tome and Principe\', \'Saudi Arabia\', \'Senegal\', \'Serbia\', \'Seychelles\', \'Sierra Leone\', \'Singapore\', \'Slovak Republic\', \'Slovenia\', \'Solomon Islands\', \'Somalia\', \'South Africa\', \'Spain\', \'Sri Lanka\', \'Sudan\', \'Suriname\', \'Svalbard and Jan Mayen\', \'Swaziland\', \'Sweden\', \'Switzerland\', \'Syria\', \'Taiwan\', \'Tajikistan\', \'Tanzania\', \'Thailand\', \'Timor-Leste\', \'Togo\', \'Tokelau\', \'Tonga\', \'Trinidad and Tobago\', \'Tunisia\', \'Turkey\', \'Turkmenistan\', \'Turks and Caicos Islands\', \'Tuvalu\', \'Uganda\', \'Ukraine\', \'United Arab Emirates\', \'United Kingdom\', \'Uruguay\', \'Uzbekistan\', \'Vanuatu\', \'Vatican City State (Holy See)\', \'Venezuela\', \'Vietnam\', \'Virgin Islands (British)\', \'Virgin Islands (U.S.)\', \'Wallis and Futuna\', \'Western Sahara\', \'Yemen\', \'Zambia\', \'Zimbabwe\', \'Other\']\n    \ncountryid=[\'us\', \'af\', \'ax\', \'al\', \'dz\', \'as\', \'ad\', \'ao\', \'ai\', \'aq\', \'ag\', \'ar\', \'am\', \'aw\', \'au\', \'at\', \'az\', \'bs\', \'bh\', \'bd\', \'bb\', \'by\', \'be\', \'bz\', \'bj\', \'bm\', \'bt\', \'bo\', \'ba\', \'bw\', \'br\', \'io\', \'bn\', \'bg\', \'bf\', \'bi\', \'kh\', \'cm\', \'ca\', \'cv\', \'cb\', \'ky\', \'cf\', \'td\', \'cl\', \'cn\', \'cx\', \'cc\', \'co\', \'km\', \'cg\', \'ck\', \'cr\', \'ci\', \'hr\', \'cu\', \'cy\', \'cz\', \'cd\', \'dk\', \'dj\', \'dm\', \'do\', \'tp\', \'ec\', \'eg\', \'sv\', \'gq\', \'er\', \'ee\', \'et\', \'fk\', \'fo\', \'fm\', \'fj\', \'fi\', \'fr\', \'gf\', \'pf\', \'tf\', \'ga\', \'gm\', \'ge\', \'de\', \'gh\', \'gi\', \'gr\', \'gl\', \'gd\', \'gp\', \'gu\', \'gt\', \'gg\', \'gn\', \'gw\', \'gy\', \'ht\', \'hn\', \'hk\', \'hu\', \'is\', \'in\', \'id\', \'ir\', \'iq\', \'ie\', \'im\', \'il\', \'it\', \'jm\', \'jp\', \'je\', \'jo\', \'kz\', \'ke\', \'ki\', \'kr\', \'kp\', \'kw\', \'kg\', \'la\', \'lv\', \'lb\', \'ls\', \'lr\', \'ly\', \'li\', \'lt\', \'lu\', \'mo\', \'mk\', \'mg\', \'mw\', \'my\', \'mv\', \'ml\', \'mt\', \'mh\', \'mq\', \'mr\', \'mu\', \'yt\', \'mx\', \'md\', \'mc\', \'mn\', \'me\', \'ms\', \'ma\', \'mz\', \'mm\', \'na\', \'nr\', \'np\', \'nl\', \'an\', \'nc\', \'nz\', \'ni\', \'ne\', \'ng\', \'nu\', \'nf\', \'mp\', \'no\', \'om\', \'pk\', \'pw\', \'ps\', \'pa\', \'pg\', \'py\', \'pe\', \'ph\', \'pn\', \'pl\', \'pt\', \'pr\', \'qa\', \'re\', \'ro\', \'ru\', \'rw\', \'sh\', \'kn\', \'lc\', \'pm\', \'vc\', \'ws\', \'sm\', \'st\', \'sa\', \'sn\', \'rs\', \'sc\', \'sl\', \'sg\', \'sk\', \'si\', \'sb\', \'so\', \'za\', \'es\', \'lk\', \'sd\', \'sr\', \'sj\', \'sz\', \'se\', \'ch\', \'sy\', \'tw\', \'tj\', \'tz\', \'th\', \'tl\', \'tg\', \'tk\', \'to\', \'tt\', \'tn\', \'tr\', \'tm\', \'tc\', \'tv\', \'ug\', \'ua\', \'ae\', \'gb\', \'uy\', \'uz\', \'vu\', \'va\', \'ve\', \'vn\', \'vg\', \'vi\', \'wf\', \'eh\', \'ye\', \'zm\', \'zw\', \'oo\']\n\nindustries=[\'All Industries\',\'Accounting\', \'Airlines/Aviation\', \'Alternative Dispute Resolution\', \'Alternative Medicine\', \'Animation\', \'Apparel & Fashion\', \'Architecture & Planning\', \'Arts and Crafts\', \'Automotive\', \'Aviation & Aerospace\', \'Banking\', \'Biotechnology\', \'Broadcast Media\', \'Building Materials\', \'Business Supplies and Equipment\', \'Capital Markets\', \'Chemicals\', \'Civic & Social Organization\', \'Civil Engineering\', \'Commercial Real Estate\', \'Computer & Network Security\', \'Computer Games\', \'Computer Hardware\', \'Computer Networking\', \'Computer Software\', \'Construction\', \'Consumer Electronics\', \'Consumer Goods\', \'Consumer Services\', \'Cosmetics\', \'Dairy\', \'Defense & Space\', \'Design\', \'Education Management\', \'E-Learning\', \'Electrical/Electronic Manufacturing\', \'Entertainment\', \'Environmental Services\', \'Events Services\', \'Executive Office\', \'Facilities Services\', \'Farming\', \'Financial Services\', \'Fine Art\', \'Fishery\', \'Food & Beverages\', \'Food Production\', \'Fund-Raising\', \'Furniture\', \'Gambling & Casinos\', \'Glass, Ceramics & Concrete\', \'Government Administration\', \'Government Relations\', \'Graphic Design\', \'Health, Wellness and Fitness\', \'Higher Education\', \'Hospital & Health Care\', \'Hospitality\', \'Human Resources\', \'Import and Export\', \'Individual & Family Services\', \'Industrial Automation\', \'Information Services\', \'Information Technology and Services\', \'Insurance\', \'International Affairs\', \'International Trade and Development\', \'Internet\', \'Investment Banking\', \'Investment Management\', \'Judiciary\', \'Law Enforcement\', \'Law Practice\', \'Legal Services\', \'Legislative Office\', \'Leisure, Travel & Tourism\', \'Libraries\', \'Logistics and Supply Chain\', \'Luxury Goods & Jewelry\', \'Machinery\', \'Management Consulting\', \'Maritime\', \'Marketing and Advertising\', \'Market Research\', \'Mechanical or Industrial Engineering\', \'Media Production\', \'Medical Devices\', \'Medical Practice\', \'Mental Health Care\', \'Military\', \'Mining & Metals\', \'Motion Pictures and Film\', \'Museums and Institutions\', \'Music\', \'Nanotechnology\', \'Newspapers\', \'Nonprofit Organization Management\', \'Oil & Energy\', \'Online Media\', \'Outsourcing/Offshoring\', \'Package/Freight Delivery\', \'Packaging and Containers\', \'Paper & Forest Products\', \'Performing Arts\', \'Pharmaceuticals\', \'Philanthropy\', \'Photography\', \'Plastics\', \'Political Organization\', \'Primary/Secondary Education\', \'Printing\', \'Professional Training & Coaching\', \'Program Development\', \'Public Policy\', \'Public Relations and Communications\', \'Public Safety\', \'Publishing\', \'Railroad Manufacture\', \'Ranching\', \'Real Estate\', \'Recreational Facilities and Services\', \'Religious Institutions\', \'Renewables & Environment\', \'Research\', \'Restaurants\', \'Retail\', \'Security and Investigations\', \'Semiconductors\', \'Shipbuilding\', \'Sporting Goods\', \'Sports\', \'Staffing and Recruiting\', \'Supermarkets\', \'Telecommunications\', \'Textiles\', \'Think Tanks\', \'Tobacco\', \'Translation and Localization\', \'Transportation/Trucking/Railroad\', \'Utilities\', \'Venture Capital & Private Equity\', \'Veterinary\', \'Warehousing\', \'Wholesale\', \'Wine and Spirits\', \'Wireless\', \'Writing and Editing\']\n\nseniority=[\'All Seniority Levels\', \'Manager\', \'Owner\', \'Partner\', \'CXO\', \'VP\', \'Director\', \'Senior\', \'Entry\', \'Students & Interns\', \'Volunteer\']\n\nfunctions=[\'All Functions\', \'Academics\', \'Accounting\', \'Administrative\', \'Business development\', \'Buyer\', \'Consultant\', \'Creative\', \'Engineering\', \'Entrepreneur\', \'Finance\', \'Human resources\', \'Information technology\', \'Legal\', \'Marketing\', \'Medical\', \'Operations\', \'Product\', \'Public relations\', \'Real estate\', \'Sales\', \'Support\']\n\n#THIS IS THE LOGIN PAGE\ndef index():\n    """\n    example action using the internationalization operator T and flash\n    rendered by views/default/index.html or views/generic.html\n    """\n    #login form\n    form = SQLFORM.factory(\n       Field(\'LinkedIn_User_Id\'),\n       Field(\'Password\',type=\'password\'))\n       \n    #checking if there is already a user logged in,i.e. creating a session\n    if session.username:\n        session.flash =\'Login Successful\'\n        redirect(URL(r=request,f=\'enter_info\')) \n       \n\n    session.username=request.vars.LinkedIn_User_Id\n    session.password=request.vars.Password\n    #if form is accepted call enterinfo function\n    if form.process().accepted:\n        session.flash =T(\'Login Successful\')\n        redirect(URL(r=request,f=\'enter_info\')) \n    return dict(form=form)   \n\ndef user():\n    """\n    exposes:\n    http://..../[app]/default/user/login\n    http://..../[app]/default/user/logout\n    http://..../[app]/default/user/register\n    http://..../[app]/default/user/profile\n    http://..../[app]/default/user/retrieve_password\n    http://..../[app]/default/user/change_password\n    use @auth.requires_login()\n        @auth.requires_membership(\'group name\')\n        @auth.requires_permission(\'read\',\'table name\',record_id)\n    to decorate functions that need access control\n    """\n    return dict(form=auth())\n\n\ndef download():\n    """\n    allows downloading of uploaded files\n    http://..../[app]/default/download/[filename]\n    """\n    return response.download(request,db)\n\n\ndef call():\n    """\n    exposes services. for example:\n    http://..../[app]/default/call/jsonrpc\n    decorate with @services.jsonrpc the functions to expose\n    supports xml, json, xmlrpc, jsonrpc, amfrpc, rss, csv\n    """\n    return service()\n\n\n@auth.requires_signature()\ndef data():\n    """\n    http://..../[app]/default/data/tables\n    http://..../[app]/default/data/create/[table]\n    http://..../[app]/default/data/read/[table]/[id]\n    http://..../[app]/default/data/update/[table]/[id]\n    http://..../[app]/default/data/delete/[table]/[id]\n    http://..../[app]/default/data/select/[table]\n    http://..../[app]/default/data/search/[table]\n    but URLs must be signed, i.e. linked with\n      A(\'table\',_href=URL(\'data/tables\',user_signature=True))\n    or with the signed load operator\n      LOAD(\'default\',\'data.load\',args=\'tables\',ajax=True,user_signature=True)\n    """\n    return dict(form=crud())\n\n  \ndef enter_info():\n    #form for entering information\n    form = SQLFORM.factory(\n       Field(\'First_Name\'),\n       Field(\'Last_Name\'),\n       Field(\'Keywords\'),\n       Field(\'Title\'),\n       Field(\'Company\'),\n       Field(\'School\'),\n       Field(\'File_Name\',requires=IS_NOT_EMPTY()),\n       Field(\'Country\',requires=IS_IN_SET(country),default=\'United States\'),\n       Field(\'Industry\',requires=IS_IN_SET(industries,multiple=\'multiple\'),default=\'All Industries\'),\n       Field(\'Seniority_Levels\',requires=IS_IN_SET(seniority,multiple=\'multiple\'),default=\'All Seniority Levels\'),\n       Field(\'Functions\',requires=IS_IN_SET(functions,multiple=\'multiple\'),default=\'All Functions\'))\n\n    #response.flash = \'Refresh Page After Each Query\'\n    #if form accepted redirect to search function\n    if form.process().accepted:\n        response.flash = \'Refresh Page After Each Query\'\n        redirect(URL(r=request,f=\'search\',vars=request.vars))\n    elif form.errors:\n        response.flash = \'form has errors\'\n    return dict(form=form)\n    \n    \n\ndef search():\n    import mechanize\n    import cookielib\n    import html2text\n    from bs4 import BeautifulSoup\n    # Browser    \n    br = mechanize.Browser()\n\n    # Cookie Jar\n    cj = cookielib.LWPCookieJar()\n    br.set_cookiejar(cj)\n\n    # Browser options\n    br.set_handle_equiv(True)\n    br.set_handle_gzip(True)\n    br.set_handle_redirect(True)\n    br.set_handle_referer(True)\n    br.set_handle_robots(False)\n\n    # Follows refresh 0 but not hangs on refresh > 0\n    br.set_handle_refresh(mechanize._http.HTTPRefreshProcessor(), max_time=1)\n\n    # User-Agent (this is cheating, ok?)\n    br.addheaders = [(\'User-agent\', \'Mozilla/5.0 (X11; U; Linux i686; en-US; rv:1.9.0.1) Gecko/2008071615 Fedora/3.0.1-1.fc9 Firefox/3.0.1\')]\n\n\n    # The site we will navigate into, handling it\'s session    \n    br.open(\'https://www.linkedin.com\')\n\n    # Select the first (index zero) form\n    br.select_form(nr=0)\n\n    # User credentials\n    #br.form[\'session_key\'] = \'mrigeshgaurav@gmail.com\'\n    #br.form[\'session_password\'] = \'modeln@1234\'\n    \n    #entering username and password user provided at login\n    br.form[\'session_key\'] = session.username\n    br.form[\'session_password\'] = session.password\n    \n    \n    # Login by submitting form br\n    br.submit()\n    \n    #opening the advanced search page straight away\n    br.open(\'http://www.linkedin.com/search?trk=advsrch\')\n    \n    #selecting the 1st form\n    br.select_form(nr=1)\n\n    #entering various fields and filters\n    if request.vars.Last_Name:\n        br["lname"]=request.vars.Last_Name\n\n    if request.vars.First_Name:\n        br["fname"]=request.vars.First_Name\n    \n    if request.vars.Keywords:\n        br["keywords"]=request.vars.Keywords\n\n    if request.vars.Company:\n        br["company"]=request.vars.Company\n\n    if request.vars.School:\n        br["school"]=request.vars.School\n\n    if request.vars.Title:\n        br["title"]=request.vars.Title\n        \n    if request.vars.Country:\n        br["countryCode"]=[countryid[country.index(request.vars.Country)]]\n    \n    if request.vars.Industry and request.vars.Industry!=\'All Industries\':\n        if isinstance(request.vars.Industry,list):\n            for i in request.vars.Industry:\n                br.find_control("facet_I").items[industries.index(i)-1].selected=True\n        else:\n            br.find_control("facet_I").items[industries.index(request.vars.Industry)-1].selected=True\n    try:        \n        if request.vars.Seniority_Levels and request.vars.Seniority_Levels!=\'All Seniority Levels\':\n            if isinstance(request.vars.Seniority_Levels,list):\n                for i in request.vars.Seniority_Levels:\n                    br.find_control("facet_SE").items[seniority.index(i)-1].selected=True\n            else:\n                br.find_control("facet_SE").items[seniority.index(request.vars.Seniority_Levels)-1].selected=True\n            \n        if request.vars.Functions and request.vars.Functions!=\'All Functions\':\n            if isinstance(request.vars.Functions,list):\n                for i in request.vars.Functions:\n                    br.find_control("facet_FA").items[functions.index(i)-1].selected=True\n            else:\n                br.find_control("facet_FA").items[functions.index(request.vars.Functions)-1].selected=True\n    except:\n        flag=1\n        \n    #submitting the form\n    br.submit()\n    \n    #lists for retreiving the required data\n    view_profile=[]\n    firstname=[]\n    titl=[]\n    location=[]\n    industry=[]\n    current=[]\n    middlename=[]\n    lastname=[]\n    company=[]\n    emailid=[]\n    \n    #flag to make sure we get entries on 1st page\n    flag=1\n    \n    #writing into file with given filename\n    global csv_response\n\n    csv_response = cStringIO.StringIO()\n    \n    spamWriter = csv.writer(csv_response, delimiter=\',\')\n    \n    #spamWriter = csv.writer(open(request.vars.File_Name+\'.csv\', \'wb\'), delimiter=\',\')\n    soup = BeautifulSoup(br.response().read())\n    spamWriter.writerow([\'FIRSTNAME\',\'MIDDLENAME\',\'LASTNAME\',\'TITLE\',\'CURRENT\',\'LOCATION\',\'INDUSTRY\',\'PROFLEURL\',\'COMPANYNAME\',\'EMAIL\'])\n    \n    #scans till there is a link to "next page"\n    while soup.find(\'a\',{"class" : "paginator-next"}) or flag==1:\n        flag=0\n        soup = BeautifulSoup(br.response().read())\n        view_profile=[]\n        firstname=[]\n        titl=[]\n        location=[]\n        industry=[]\n        current=[]\n        middlename=[]\n        lastname=[]\n        company=[]\n        emailid=[]\n        \n        #parsing for the html response to get information\n        for k in soup.find_all(\'dl\',{"class" : "vcard-basic"}):\n            if k.find(\'dd\',{"class" : "title"}):\n                    titl.append(k.find(\'dd\',{"class" : "title"}).get_text())\n            else:\n                    titl.append(\'NONE\')\n                            \n            if k.find(\'span\',{"class" : "location"}):\n                    location.append(k.find(\'span\',{"class" : "location"}).get_text())\n            else:\n                    location.append(\'NONE\')\n            if k.find(\'span\',{"class" : "industry"}):\n                    industry.append(k.find(\'span\',{"class" : "industry"}).get_text())\n            else:\n                    industry.append(\'NONE\')\n                \n        for k in soup.find_all(\'dl\',{"class" : "vcard-expanded"}):\n            temp1=[]\n            temp2=[]\n            if k.find(\'span\',{"class" : "current-details more-text"}):\n                    less=k.find(\'span\',{"class" : "current-details more-text"}).get_text()\n                    temp1=less[0:len(less)-4].encode(\'utf-8\').split(\' at \',1)\n                    if(len(temp1)>1):\n                        try:\n                            temp2=temp1[1].encode(\'utf-8\').split(\',\',1)\n                        except:\n                            temp2=[\'NONE\']\n                    else:\n                        temp2=[\'NONE\']\n                    company.append(temp2[0])\n                    current.append(less[0:len(less)-4])\n            elif k.find(\'span\',{"class" : "current-details"}):\n                    less=k.find(\'span\',{"class" : "current-details"}).get_text()\n                    current.append(less)\n                    temp1=less.encode(\'utf-8\').split(\' at \',1)\n                    if(len(temp1)>1):\n                        try:\n                            temp2=temp1[1].encode(\'utf-8\').split(\',\',1)\n                        except:\n                            temp2=[\'NONE\']\n                    else:\n                        temp2=[\'NONE\']\n                    company.append(temp2[0])\n            else:\n                    current.append(\'NONE\')\n                    company.append(\'NONE\')\n               \n        for l in soup.find_all(\'a\',{"title" : "View Profile"}):\n            temp=[]\n            view_profile.append(\'http://www.linkedin.com\'+l.get(\'href\'))\n            temp.append(l.get_text().encode(\'utf-8\').split(None,2))\n            if temp[0][0]:\n                firstname.append(temp[0][0].strip())\n            else:\n                firstname.append(\'None\')\n            if temp[0][1] and (len(temp[0])-1)==1:\n                lastname.append(temp[0][1].strip())\n                middlename.append(\'None\')\n            else:\n                lastname.append(temp[0][len(temp[0])-1].strip())\n                middlename.append(temp[0][1])\n\n        \n        for i in range(0,len(firstname)):\n            e=\'\'\n            w=\'\'\n            for row in db(db.email_info.Company_Name==company[i]).select():\n                if row.First_String==\'firstname\':\n                    e=e+firstname[i]\n                if row.First_String==\'f\':    \n                    e=e+firstname[i][0]\n                if row.First_String==\'lastname\':\n                    e=e+lastname[i]\n                if row.First_String==\'l\':\n                    e=e+lastname[i][0]\n                \n                e=e+row.Delimiter\n                 \n                if row.Second_String==\'firstname\':\n                    e=e+firstname[i]\n                if row.Second_String==\'f\':    \n                    e=e+firstname[i][0]\n                if row.Second_String==\'lastname\':\n                    e=e+lastname[i]\n                if row.Second_String==\'l\':\n                    e=e+lastname[i][0]\n                e=e+\'@\'\n                e=e+row.Domain_Name\n                w=string.lower(e)                                    \n                emailid.append(w)\n                \n            if e==\'\':\n                for r in db(db.email_info.id > 0).select():\n                    if company[i].startswith(r.Company_Name):\n                        First_String=r.First_String\n                        Delimiter=r.Delimiter\n                        Second_String=r.Second_String\n                        Domain_Name=r.Domain_Name\n                    \n                        if First_String==\'firstname\':\n                            e=e+firstname[i]\n                        if First_String==\'f\':    \n                            e=e+firstname[i][0]\n                        if First_String==\'lastname\':\n                            e=e+lastname[i]\n                        if First_String==\'l\':\n                            e=e+lastname[i][0]\n                \n                        e=e+Delimiter\n                 \n                        if Second_String==\'firstname\':\n                            e=e+firstname[i]\n                        if Second_String==\'f\':    \n                            e=e+firstname[i][0]\n                        if Second_String==\'lastname\':\n                            e=e+lastname[i]\n                        if Second_String==\'l\':\n                            e=e+lastname[i][0]\n                        e=e+\'@\'\n                        e=e+Domain_Name\n                        w=string.lower(e)                                    \n                        emailid.append(w)\n                        break\n                  \n                    if r.Company_Name.startswith(company[i]):\n                        First_String=r.First_String\n                        Delimiter=r.Delimiter\n                        Second_String=r.Second_String\n                        Domain_Name=r.Domain_Name\n                    \n                        if First_String==\'firstname\':\n                            e=e+firstname[i]\n                        if First_String==\'f\':    \n                            e=e+firstname[i][0]\n                        if First_String==\'lastname\':\n                            e=e+lastname[i]\n                        if First_String==\'l\':\n                            e=e+lastname[i][0]\n                \n                        e=e+Delimiter\n                 \n                        if Second_String==\'firstname\':\n                            e=e+firstname[i]\n                        if Second_String==\'f\':    \n                            e=e+firstname[i][0]\n                        if Second_String==\'lastname\':\n                            e=e+lastname[i]\n                        if Second_String==\'l\':\n                            e=e+lastname[i][0]\n                        e=e+\'@\'\n                        e=e+Domain_Name\n                        w=string.lower(e)                                    \n                        emailid.append(w)\n                        break    \n                        \n            if e==\'\':\n                emailid.append(\'NONE\')        \n\n        \n        for i in range(0,len(firstname)):\n            try:\n                spamWriter.writerow([firstname[i].encode(\'utf-8\').strip(),middlename[i].encode(\'utf-8\').strip(),lastname[i].encode(\'utf-8\').strip(),titl[i].encode(\'utf-8\').strip(),current[i].encode(\'utf-8\').strip(),location[i].encode(\'utf-8\').strip(),industry[i].encode(\'utf-8\').strip(),view_profile[i].encode(\'utf-8\').strip(),company[i].encode(\'utf-8\').strip(),emailid[i].encode(\'utf-8\').strip()])\n            except:\n                continue\n        if soup.find(\'a\',{"class" : "paginator-next"}):\n            br.open(\'http://www.linkedin.com\'+ soup.find(\'a\',{"class" : "paginator-next"}).get(\'href\'))\n        #soup = BeautifulSoup(br.response().read())\n        \n    response.headers[\'Content-Type\'] = \'text/csv\'\n    response.headers[\'Content-Disposition\'] = \'attachment; filename=%s.csv\' % request.vars.File_Name\n    return csv_response.getvalue()\n    \ndef email_info():\n     name=SQLFORM(db.email_info)\n     if(name.accepts(request.vars,session)):\n         #db.playlist.insert(playlist_id=request.vars.id)\n         session.flash=\'New Entry Made\'\n         redirect(URL(r=request,f=\'email_info\'))\n     return dict(name=name)\n     \ndef list_companies():\n    return dict(companies=db(db.email_info.id>0).select())\n          \ndef logout():\n    session.username=[]\n    session.password=[]\n    session.flash =T(\'Logout Successful\')\n    redirect(URL(r=request,f=\'index\'))\n    \ndef delete():\n    db(db.email_info.id==request.args(0)).delete()\n    session.flash=\'Company Info Deleted\'\n    redirect(URL(r=request,f=\'list_companies\'))\n    \ndef extract():  \n    subprocess.call("java -cp \\"C:\\\\Program Files\\\\salesforce.com\\\\Data Loader\\\\*\\" -Dsalesforce.config.dir=\\"C:\\\\Documents and Settings\\\\agrover\\\\Desktop\\\\econtacts\\\\config\\" com.salesforce.dataloader.process.ProcessRunner process.name=econtacts")\n    \n    #this script is used for adding company name to the contacts extracted from the salesforce.com\n    #1st give the name of the file which is taken as input\n    #then give name of the file where you want new data with appended field to be stored\n    #then give the name of the file where all accounts are stored i.e. where company names(account names) are hashed to accountids\n\n\n    #opening input file which needs to be edited\n    #infile=raw_input(\'Enter Input Filename for Editing (eg extracted.csv):\')\n    o=open(\'C:\\\\Documents and Settings\\\\agrover\\\\Desktop\\\\econtacts.csv\', \'rb\')\n    inp = csv.reader(o, delimiter=\',\')\n\n    #opening new file for writing data\n    #newin=raw_input(\'Enter Input Filename for Newfile (eg extracted.csv):\')\n    w=open(\'C:\\\\Documents and Settings\\\\agrover\\\\Desktop\\\\contacts.csv\',\'wb\')\n    wri=csv.writer(w,delimiter=\',\')\n\n    #opening file from where company names will be matched to the accountids\n    #in1=raw_input(\'Enter accounts filename (eg allaccounts.csv):\')\n    a = open(\'C:\\\\Documents and Settings\\\\agrover\\\\Desktop\\\\allaccount.csv\', \'rb\')\n    acc = csv.reader(a, delimiter=\',\')\n\n    #stores header line\n    headers=inp.next()\n    head1=acc.next()\n\n    keys=set()\n\n    accid=dict()\n    \n    #finding index for field ID in accounts file\n    id=head1.index(\'ID\')\n    #finding index for field NAME in accounts file\n    accountname=head1.index(\'NAME\')\n\n    #finding index of accountid in the input file\n    accountid=headers.index(\'ACCOUNTID\')\n\n    #creating a dictionary where accountids are mapped to accountnames(companynames)\n    #acc means accessing accounts file\n\n    for entry in acc:\n        #search in a set is order 1 where as search in list is order N...\n        keys.add(entry[id])\n        accid[entry[id]]=entry[accountname]\n\n    #writing new header line in the new file generated\n    headers.append(\'COMPANYNAME\')\n    wri.writerow(headers)\n\n    #inp means accessing input file\n\n    for entry in inp:\n        #for each entry in input file we check if accountid is present in the set generated from accounts file\n        #if we use accid.keys() instead of set keys it will take N^2 time hence using set\n    \n        if(entry[accountid] in keys):\n            entry.append(accid[entry[accountid]])\n            wri.writerow(entry)\n        else:\n            entry.append(\'None\')\n            wri.writerow(entry)\n\n\n    w.close()\n    o.close()\n    a.close()\n\n    cpy()\n    #redirect(URL(r=request,f=\'enter_info\'))\n    return c_response.getvalue()\n\ndef cpy():\n    global c_response\n    c_response = cStringIO.StringIO()\n    writer = csv.writer(c_response, delimiter=\',\')\n    o=open(\'C:\\\\Documents and Settings\\\\agrover\\\\Desktop\\\\contacts.csv\', \'rb\')\n    reader = csv.reader(o, delimiter=\',\')\n    for row in reader:\n        writer.writerow(row)\n        \n    response.headers[\'Content-Type\'] = \'text/csv\'\n    response.headers[\'Content-Disposition\'] = \'attachment; filename=allcontacts.csv\'\n    \nfname=\'\'    \ndef upload():\n    global c_response\n    form = SQLFORM(db.files)\n    if form.process().accepted:\n       response.flash = form.vars.Upload_File\n       fname=form.vars.Upload_File\n       temp()\n    elif form.errors:\n       response.flash = \'form has errors\'\n       \n\n    return dict(form=form)\n    \ndef temp():\n    global c_response\n    c_response = cStringIO.StringIO()\n    writer = csv.writer(c_response, delimiter=\',\')\n    k=\'C:\\\\Documents and Settings\\\\agrover\\\\Desktop\\\\previous crawler\\\\web2py\\\\applications\\\\mycrawler\\\\uploads\\\\\'+fname\n    o=open(k, \'rb\')\n    reader = csv.reader(o, delimiter=\',\')\n    redirect(URL(r=request,f=\'temp\'))\n    for row in reader:\n       writer.writerow(row)\n        \n    response.headers[\'Content-Type\'] = \'text/csv\'\n    response.headers[\'Content-Disposition\'] = \'attachment; filename=allcontacts.csv\'\n    return c_response.getvalue()\n#finish\n###########################################################################################################    \n    #redirect(URL(r=request,f=\'enter_info\'))       \n    #for link in soup.find_all(\'a\'):\n    #    if link.get(\'title\')==\'View Profile\':\n    #        #print(link.get(\'href\'))\n    #        #print link.get_text()\n    #        view_profile.append(\'http://www.linkedin.com\'+link.get(\'href\'))\n    #        name.append(link.get_text())\n#for l in soup.find_all("span", { "class" : "given-name" }):\n    #print l.get_text()\n\n        \n\n#    for l in soup.find_all(\'dd\',{"class" : "title"}):\n        #print l.get_text()\n#        titl.append(l.get_text())\n    \n#    for l in soup.find_all(\'span\',{"class" : "location"}):\n        #print l.get_text()\n#        location.append(l.get_text())\n\n#    for l in soup.find_all(\'span\',{"class" : "industry"}):\n        #print l.get_text()\n#        industry.append(l.get_text())\n        \n#    for l in soup.find_all(\'span\', {"class" : "current-details"}):\n#        k=l.get_text()\n#        if k[len(k)-4:len(k)]!=\'more\':\n#            current.append(k)\n        #elif(l.get["class"]==\'current-details more text\'):\n        #    current.append(l.get_text())\n    #for l in soup.find_all(\'span\',{"class" : "current-details"}):\n        #print l.get_text()\n        #current.append(l.get_text())\n\n    \n    #global filename,csv_response\n\n    #csv_response = cStringIO.StringIO()\n    \n    #spamWriter = csv.writer(csv_response, delimiter=\',\')\n    \n    #spamWriter.writerow([\'NAME\',\'JOB-TITLE\',\'COMPANY-NAME\',\'LOCATION\',\'INDUSTRY\',\'PROFLE-URL\'])\n   \n    #spamWriter = csv.writer(open(request.vars.File_Name+\'.csv\', \'wb\'), delimiter=\',\')\n    #spamWriter.writerow([\'NAME\',\'JOB-TITLE\',\'Current\',\'LOCATION\',\'INDUSTRY\',\'PROFLE-URL\'])\n    #for i in range(1,10):\n    #    spamWriter.writerow([name[i].encode(\'utf-8\'),titl[i],current[i],location[i],industry[i],view_profile[i]])\n        \n        \n    #,titl[i],current[i],location[i],industry[i],view_profile[i]\n    #response.headers[\'Content-Type\'] = \'text/csv\'\n    #response.headers[\'Content-Disposition\'] = \'attachment; filename=%s\' % request.vars.File_Name\n\n    \n    #return dict(view_profile=view_profile,name=name,location=location,industry=industry,titl=titl,current=current)\n\nresponse._vars=response._caller(upload)\n'
p7
sS'snapshot'
p8
(dp9
S'exception'
p10
(dp11
S'__getslice__'
p12
S"<method-wrapper '__getslice__' of exceptions.IOError object>"
p13
sS'__str__'
p14
S"<method-wrapper '__str__' of exceptions.IOError object>"
p15
sS'__reduce__'
p16
S'<built-in method __reduce__ of exceptions.IOError object>'
p17
sS'__dict__'
p18
S'{}'
p19
sS'__sizeof__'
p20
S'<built-in method __sizeof__ of exceptions.IOError object>'
p21
sS'__init__'
p22
S"<method-wrapper '__init__' of exceptions.IOError object>"
p23
sS'__setattr__'
p24
S"<method-wrapper '__setattr__' of exceptions.IOError object>"
p25
sS'__reduce_ex__'
p26
S'<built-in method __reduce_ex__ of exceptions.IOError object>'
p27
sS'__new__'
p28
S'<built-in method __new__ of type object>'
p29
sS'errno'
p30
S'2'
sS'__format__'
p31
S'<built-in method __format__ of exceptions.IOError object>'
p32
sS'__class__'
p33
S"<type 'exceptions.IOError'>"
p34
sS'filename'
p35
S"r'C:\\Documents and Settings\\agrover\\Desktop\\previous crawler\\web2py\\applications\\mycrawler\\uploads\\'"
p36
sS'__doc__'
p37
S"'I/O operation failed.'"
p38
sS'__getitem__'
p39
S"<method-wrapper '__getitem__' of exceptions.IOError object>"
p40
sS'__setstate__'
p41
S'<built-in method __setstate__ of exceptions.IOError object>'
p42
sS'__getattribute__'
p43
S"<method-wrapper '__getattribute__' of exceptions.IOError object>"
p44
sS'args'
p45
S"(2, 'No such file or directory')"
p46
sS'__subclasshook__'
p47
S'<built-in method __subclasshook__ of type object>'
p48
sS'__unicode__'
p49
S'<built-in method __unicode__ of exceptions.IOError object>'
p50
sS'strerror'
p51
S"'No such file or directory'"
p52
sS'__delattr__'
p53
S"<method-wrapper '__delattr__' of exceptions.IOError object>"
p54
sS'__repr__'
p55
S"<method-wrapper '__repr__' of exceptions.IOError object>"
p56
sS'__hash__'
p57
S"<method-wrapper '__hash__' of exceptions.IOError object>"
p58
ssS'evalue'
p59
S"[Errno 2] No such file or directory: 'C:\\\\Documents and Settings\\\\agrover\\\\Desktop\\\\previous crawler\\\\web2py\\\\applications\\\\mycrawler\\\\uploads\\\\'"
p60
sS'request'
p61
ccopy_reg
_reconstructor
p62
(cgluon.html
BEAUTIFY
p63
c__builtin__
object
p64
NtRp65
(dp66
S'attributes'
p67
(dp68
sS'components'
p69
(lp70
g62
(cgluon.html
TABLE
p71
g64
NtRp72
(dp73
g67
(dp74
S'level'
p75
I5
ssS'parent'
p76
Nsg69
(lp77
g62
(cgluon.html
TR
p78
g64
NtRp79
(dp80
g67
(dp81
sg76
g72
sg69
(lp82
g62
(cgluon.html
TD
p83
g64
NtRp84
(dp85
g67
(dp86
S'_style'
p87
S'font-weight:bold;vertical-align:top'
p88
ssg76
g79
sg69
(lp89
S'ajax'
p90
asbag62
(g83
g64
NtRp91
(dp92
g67
(dp93
S'_valign'
p94
S'top'
p95
ssg76
g79
sg69
(lp96
S':'
asbag62
(g83
g64
NtRp97
(dp98
g67
(dp99
sg76
g79
sg69
(lp100
g62
(g63
g64
NtRp101
(dp102
g67
(dp103
g75
I5
ssg76
g97
sg69
(lp104
S'False'
p105
asbasbasbag62
(g78
g64
NtRp106
(dp107
g67
(dp108
sg76
g72
sg69
(lp109
g62
(g83
g64
NtRp110
(dp111
g67
(dp112
g87
g88
ssg76
g106
sg69
(lp113
S'application'
p114
asbag62
(g83
g64
NtRp115
(dp116
g67
(dp117
g94
g95
ssg76
g106
sg69
(lp118
S':'
asbag62
(g83
g64
NtRp119
(dp120
g67
(dp121
sg76
g106
sg69
(lp122
g62
(g63
g64
NtRp123
(dp124
g67
(dp125
g75
I5
ssg76
g119
sg69
(lp126
S'mycrawler'
p127
asbasbasbag62
(g78
g64
NtRp128
(dp129
g67
(dp130
sg76
g72
sg69
(lp131
g62
(g83
g64
NtRp132
(dp133
g67
(dp134
g87
g88
ssg76
g128
sg69
(lp135
g45
asbag62
(g83
g64
NtRp136
(dp137
g67
(dp138
g94
g95
ssg76
g128
sg69
(lp139
S':'
asbag62
(g83
g64
NtRp140
(dp141
g67
(dp142
sg76
g128
sg69
(lp143
g62
(g63
g64
NtRp144
(dp145
g67
(dp146
g75
I5
ssg76
g140
sg69
(lp147
g62
(g71
g64
NtRp148
(dp149
g67
(dp150
g75
I4
ssg76
Nsg69
(lp151
sbasbasbasbag62
(g78
g64
NtRp152
(dp153
g67
(dp154
sg76
g72
sg69
(lp155
g62
(g83
g64
NtRp156
(dp157
g67
(dp158
g87
g88
ssg76
g152
sg69
(lp159
S'body'
p160
asbag62
(g83
g64
NtRp161
(dp162
g67
(dp163
g94
g95
ssg76
g152
sg69
(lp164
S':'
asbag62
(g83
g64
NtRp165
(dp166
g67
(dp167
sg76
g152
sg69
(lp168
g62
(g63
g64
NtRp169
(dp170
g67
(dp171
g75
I5
ssg76
g165
sg69
(lp172
S"<open file '<fdopen>', mode 'w+b' at 0x051E09C0>"
p173
asbasbasbag62
(g78
g64
NtRp174
(dp175
g67
(dp176
sg76
g72
sg69
(lp177
g62
(g83
g64
NtRp178
(dp179
g67
(dp180
g87
g88
ssg76
g174
sg69
(lp181
S'client'
p182
asbag62
(g83
g64
NtRp183
(dp184
g67
(dp185
g94
g95
ssg76
g174
sg69
(lp186
S':'
asbag62
(g83
g64
NtRp187
(dp188
g67
(dp189
sg76
g174
sg69
(lp190
g62
(g63
g64
NtRp191
(dp192
g67
(dp193
g75
I5
ssg76
g187
sg69
(lp194
S'127.0.0.1'
p195
asbasbasbag62
(g78
g64
NtRp196
(dp197
g67
(dp198
sg76
g72
sg69
(lp199
g62
(g83
g64
NtRp200
(dp201
g67
(dp202
g87
g88
ssg76
g196
sg69
(lp203
S'controller'
p204
asbag62
(g83
g64
NtRp205
(dp206
g67
(dp207
g94
g95
ssg76
g196
sg69
(lp208
S':'
asbag62
(g83
g64
NtRp209
(dp210
g67
(dp211
sg76
g196
sg69
(lp212
g62
(g63
g64
NtRp213
(dp214
g67
(dp215
g75
I5
ssg76
g209
sg69
(lp216
S'default'
p217
asbasbasbag62
(g78
g64
NtRp218
(dp219
g67
(dp220
sg76
g72
sg69
(lp221
g62
(g83
g64
NtRp222
(dp223
g67
(dp224
g87
g88
ssg76
g218
sg69
(lp225
S'cookies'
p226
asbag62
(g83
g64
NtRp227
(dp228
g67
(dp229
g94
g95
ssg76
g218
sg69
(lp230
S':'
asbag62
(g83
g64
NtRp231
(dp232
g67
(dp233
sg76
g218
sg69
(lp234
g62
(g63
g64
NtRp235
(dp236
g67
(dp237
g75
I5
ssg76
g231
sg69
(lp238
g62
(g71
g64
NtRp239
(dp240
g67
(dp241
g75
I4
ssg76
Nsg69
(lp242
g62
(g78
g64
NtRp243
(dp244
g67
(dp245
sg76
g239
sg69
(lp246
g62
(g83
g64
NtRp247
(dp248
g67
(dp249
g87
g88
ssg76
g243
sg69
(lp250
S'session_id_admin'
p251
asbag62
(g83
g64
NtRp252
(dp253
g67
(dp254
g94
g95
ssg76
g243
sg69
(lp255
S':'
asbag62
(g83
g64
NtRp256
(dp257
g67
(dp258
sg76
g243
sg69
(lp259
g62
(g63
g64
NtRp260
(dp261
g67
(dp262
g75
I4
ssg76
g256
sg69
(lp263
g62
(g71
g64
NtRp264
(dp265
g67
(dp266
g75
I3
ssg76
Nsg69
(lp267
g62
(g78
g64
NtRp268
(dp269
g67
(dp270
sg76
g264
sg69
(lp271
g62
(g83
g64
NtRp272
(dp273
g67
(dp274
g87
g88
ssg76
g268
sg69
(lp275
S'comment'
p276
asbag62
(g83
g64
NtRp277
(dp278
g67
(dp279
g94
g95
ssg76
g268
sg69
(lp280
S':'
asbag62
(g83
g64
NtRp281
(dp282
g67
(dp283
sg76
g268
sg69
(lp284
g62
(g63
g64
NtRp285
(dp286
g67
(dp287
g75
I3
ssg76
g281
sg69
(lp288
S''
asbasbasbag62
(g78
g64
NtRp289
(dp290
g67
(dp291
sg76
g264
sg69
(lp292
g62
(g83
g64
NtRp293
(dp294
g67
(dp295
g87
g88
ssg76
g289
sg69
(lp296
S'domain'
p297
asbag62
(g83
g64
NtRp298
(dp299
g67
(dp300
g94
g95
ssg76
g289
sg69
(lp301
S':'
asbag62
(g83
g64
NtRp302
(dp303
g67
(dp304
sg76
g289
sg69
(lp305
g62
(g63
g64
NtRp306
(dp307
g67
(dp308
g75
I3
ssg76
g302
sg69
(lp309
S''
asbasbasbag62
(g78
g64
NtRp310
(dp311
g67
(dp312
sg76
g264
sg69
(lp313
g62
(g83
g64
NtRp314
(dp315
g67
(dp316
g87
g88
ssg76
g310
sg69
(lp317
S'expires'
p318
asbag62
(g83
g64
NtRp319
(dp320
g67
(dp321
g94
g95
ssg76
g310
sg69
(lp322
S':'
asbag62
(g83
g64
NtRp323
(dp324
g67
(dp325
sg76
g310
sg69
(lp326
g62
(g63
g64
NtRp327
(dp328
g67
(dp329
g75
I3
ssg76
g323
sg69
(lp330
S''
asbasbasbag62
(g78
g64
NtRp331
(dp332
g67
(dp333
sg76
g264
sg69
(lp334
g62
(g83
g64
NtRp335
(dp336
g67
(dp337
g87
g88
ssg76
g331
sg69
(lp338
S'httponly'
p339
asbag62
(g83
g64
NtRp340
(dp341
g67
(dp342
g94
g95
ssg76
g331
sg69
(lp343
S':'
asbag62
(g83
g64
NtRp344
(dp345
g67
(dp346
sg76
g331
sg69
(lp347
g62
(g63
g64
NtRp348
(dp349
g67
(dp350
g75
I3
ssg76
g344
sg69
(lp351
S''
asbasbasbag62
(g78
g64
NtRp352
(dp353
g67
(dp354
sg76
g264
sg69
(lp355
g62
(g83
g64
NtRp356
(dp357
g67
(dp358
g87
g88
ssg76
g352
sg69
(lp359
S'max-age'
p360
asbag62
(g83
g64
NtRp361
(dp362
g67
(dp363
g94
g95
ssg76
g352
sg69
(lp364
S':'
asbag62
(g83
g64
NtRp365
(dp366
g67
(dp367
sg76
g352
sg69
(lp368
g62
(g63
g64
NtRp369
(dp370
g67
(dp371
g75
I3
ssg76
g365
sg69
(lp372
S''
asbasbasbag62
(g78
g64
NtRp373
(dp374
g67
(dp375
sg76
g264
sg69
(lp376
g62
(g83
g64
NtRp377
(dp378
g67
(dp379
g87
g88
ssg76
g373
sg69
(lp380
S'path'
p381
asbag62
(g83
g64
NtRp382
(dp383
g67
(dp384
g94
g95
ssg76
g373
sg69
(lp385
S':'
asbag62
(g83
g64
NtRp386
(dp387
g67
(dp388
sg76
g373
sg69
(lp389
g62
(g63
g64
NtRp390
(dp391
g67
(dp392
g75
I3
ssg76
g386
sg69
(lp393
S''
asbasbasbag62
(g78
g64
NtRp394
(dp395
g67
(dp396
sg76
g264
sg69
(lp397
g62
(g83
g64
NtRp398
(dp399
g67
(dp400
g87
g88
ssg76
g394
sg69
(lp401
S'secure'
p402
asbag62
(g83
g64
NtRp403
(dp404
g67
(dp405
g94
g95
ssg76
g394
sg69
(lp406
S':'
asbag62
(g83
g64
NtRp407
(dp408
g67
(dp409
sg76
g394
sg69
(lp410
g62
(g63
g64
NtRp411
(dp412
g67
(dp413
g75
I3
ssg76
g407
sg69
(lp414
S''
asbasbasbag62
(g78
g64
NtRp415
(dp416
g67
(dp417
sg76
g264
sg69
(lp418
g62
(g83
g64
NtRp419
(dp420
g67
(dp421
g87
g88
ssg76
g415
sg69
(lp422
S'version'
p423
asbag62
(g83
g64
NtRp424
(dp425
g67
(dp426
g94
g95
ssg76
g415
sg69
(lp427
S':'
asbag62
(g83
g64
NtRp428
(dp429
g67
(dp430
sg76
g415
sg69
(lp431
g62
(g63
g64
NtRp432
(dp433
g67
(dp434
g75
I3
ssg76
g428
sg69
(lp435
S''
asbasbasbasbasbasbasbag62
(g78
g64
NtRp436
(dp437
g67
(dp438
sg76
g239
sg69
(lp439
g62
(g83
g64
NtRp440
(dp441
g67
(dp442
g87
g88
ssg76
g436
sg69
(lp443
S'session_id_mycrawler'
p444
asbag62
(g83
g64
NtRp445
(dp446
g67
(dp447
g94
g95
ssg76
g436
sg69
(lp448
S':'
asbag62
(g83
g64
NtRp449
(dp450
g67
(dp451
sg76
g436
sg69
(lp452
g62
(g63
g64
NtRp453
(dp454
g67
(dp455
g75
I4
ssg76
g449
sg69
(lp456
g62
(g71
g64
NtRp457
(dp458
g67
(dp459
g75
I3
ssg76
Nsg69
(lp460
g62
(g78
g64
NtRp461
(dp462
g67
(dp463
sg76
g457
sg69
(lp464
g62
(g83
g64
NtRp465
(dp466
g67
(dp467
g87
g88
ssg76
g461
sg69
(lp468
g276
asbag62
(g83
g64
NtRp469
(dp470
g67
(dp471
g94
g95
ssg76
g461
sg69
(lp472
S':'
asbag62
(g83
g64
NtRp473
(dp474
g67
(dp475
sg76
g461
sg69
(lp476
g62
(g63
g64
NtRp477
(dp478
g67
(dp479
g75
I3
ssg76
g473
sg69
(lp480
S''
asbasbasbag62
(g78
g64
NtRp481
(dp482
g67
(dp483
sg76
g457
sg69
(lp484
g62
(g83
g64
NtRp485
(dp486
g67
(dp487
g87
g88
ssg76
g481
sg69
(lp488
g297
asbag62
(g83
g64
NtRp489
(dp490
g67
(dp491
g94
g95
ssg76
g481
sg69
(lp492
S':'
asbag62
(g83
g64
NtRp493
(dp494
g67
(dp495
sg76
g481
sg69
(lp496
g62
(g63
g64
NtRp497
(dp498
g67
(dp499
g75
I3
ssg76
g493
sg69
(lp500
S''
asbasbasbag62
(g78
g64
NtRp501
(dp502
g67
(dp503
sg76
g457
sg69
(lp504
g62
(g83
g64
NtRp505
(dp506
g67
(dp507
g87
g88
ssg76
g501
sg69
(lp508
g318
asbag62
(g83
g64
NtRp509
(dp510
g67
(dp511
g94
g95
ssg76
g501
sg69
(lp512
S':'
asbag62
(g83
g64
NtRp513
(dp514
g67
(dp515
sg76
g501
sg69
(lp516
g62
(g63
g64
NtRp517
(dp518
g67
(dp519
g75
I3
ssg76
g513
sg69
(lp520
S''
asbasbasbag62
(g78
g64
NtRp521
(dp522
g67
(dp523
sg76
g457
sg69
(lp524
g62
(g83
g64
NtRp525
(dp526
g67
(dp527
g87
g88
ssg76
g521
sg69
(lp528
g339
asbag62
(g83
g64
NtRp529
(dp530
g67
(dp531
g94
g95
ssg76
g521
sg69
(lp532
S':'
asbag62
(g83
g64
NtRp533
(dp534
g67
(dp535
sg76
g521
sg69
(lp536
g62
(g63
g64
NtRp537
(dp538
g67
(dp539
g75
I3
ssg76
g533
sg69
(lp540
S''
asbasbasbag62
(g78
g64
NtRp541
(dp542
g67
(dp543
sg76
g457
sg69
(lp544
g62
(g83
g64
NtRp545
(dp546
g67
(dp547
g87
g88
ssg76
g541
sg69
(lp548
g360
asbag62
(g83
g64
NtRp549
(dp550
g67
(dp551
g94
g95
ssg76
g541
sg69
(lp552
S':'
asbag62
(g83
g64
NtRp553
(dp554
g67
(dp555
sg76
g541
sg69
(lp556
g62
(g63
g64
NtRp557
(dp558
g67
(dp559
g75
I3
ssg76
g553
sg69
(lp560
S''
asbasbasbag62
(g78
g64
NtRp561
(dp562
g67
(dp563
sg76
g457
sg69
(lp564
g62
(g83
g64
NtRp565
(dp566
g67
(dp567
g87
g88
ssg76
g561
sg69
(lp568
g381
asbag62
(g83
g64
NtRp569
(dp570
g67
(dp571
g94
g95
ssg76
g561
sg69
(lp572
S':'
asbag62
(g83
g64
NtRp573
(dp574
g67
(dp575
sg76
g561
sg69
(lp576
g62
(g63
g64
NtRp577
(dp578
g67
(dp579
g75
I3
ssg76
g573
sg69
(lp580
S''
asbasbasbag62
(g78
g64
NtRp581
(dp582
g67
(dp583
sg76
g457
sg69
(lp584
g62
(g83
g64
NtRp585
(dp586
g67
(dp587
g87
g88
ssg76
g581
sg69
(lp588
g402
asbag62
(g83
g64
NtRp589
(dp590
g67
(dp591
g94
g95
ssg76
g581
sg69
(lp592
S':'
asbag62
(g83
g64
NtRp593
(dp594
g67
(dp595
sg76
g581
sg69
(lp596
g62
(g63
g64
NtRp597
(dp598
g67
(dp599
g75
I3
ssg76
g593
sg69
(lp600
S''
asbasbasbag62
(g78
g64
NtRp601
(dp602
g67
(dp603
sg76
g457
sg69
(lp604
g62
(g83
g64
NtRp605
(dp606
g67
(dp607
g87
g88
ssg76
g601
sg69
(lp608
g423
asbag62
(g83
g64
NtRp609
(dp610
g67
(dp611
g94
g95
ssg76
g601
sg69
(lp612
S':'
asbag62
(g83
g64
NtRp613
(dp614
g67
(dp615
sg76
g601
sg69
(lp616
g62
(g63
g64
NtRp617
(dp618
g67
(dp619
g75
I3
ssg76
g613
sg69
(lp620
S''
asbasbasbasbasbasbasbag62
(g78
g64
NtRp621
(dp622
g67
(dp623
sg76
g239
sg69
(lp624
g62
(g83
g64
NtRp625
(dp626
g67
(dp627
g87
g88
ssg76
g621
sg69
(lp628
S'session_id_welcome'
p629
asbag62
(g83
g64
NtRp630
(dp631
g67
(dp632
g94
g95
ssg76
g621
sg69
(lp633
S':'
asbag62
(g83
g64
NtRp634
(dp635
g67
(dp636
sg76
g621
sg69
(lp637
g62
(g63
g64
NtRp638
(dp639
g67
(dp640
g75
I4
ssg76
g634
sg69
(lp641
g62
(g71
g64
NtRp642
(dp643
g67
(dp644
g75
I3
ssg76
Nsg69
(lp645
g62
(g78
g64
NtRp646
(dp647
g67
(dp648
sg76
g642
sg69
(lp649
g62
(g83
g64
NtRp650
(dp651
g67
(dp652
g87
g88
ssg76
g646
sg69
(lp653
g276
asbag62
(g83
g64
NtRp654
(dp655
g67
(dp656
g94
g95
ssg76
g646
sg69
(lp657
S':'
asbag62
(g83
g64
NtRp658
(dp659
g67
(dp660
sg76
g646
sg69
(lp661
g62
(g63
g64
NtRp662
(dp663
g67
(dp664
g75
I3
ssg76
g658
sg69
(lp665
S''
asbasbasbag62
(g78
g64
NtRp666
(dp667
g67
(dp668
sg76
g642
sg69
(lp669
g62
(g83
g64
NtRp670
(dp671
g67
(dp672
g87
g88
ssg76
g666
sg69
(lp673
g297
asbag62
(g83
g64
NtRp674
(dp675
g67
(dp676
g94
g95
ssg76
g666
sg69
(lp677
S':'
asbag62
(g83
g64
NtRp678
(dp679
g67
(dp680
sg76
g666
sg69
(lp681
g62
(g63
g64
NtRp682
(dp683
g67
(dp684
g75
I3
ssg76
g678
sg69
(lp685
S''
asbasbasbag62
(g78
g64
NtRp686
(dp687
g67
(dp688
sg76
g642
sg69
(lp689
g62
(g83
g64
NtRp690
(dp691
g67
(dp692
g87
g88
ssg76
g686
sg69
(lp693
g318
asbag62
(g83
g64
NtRp694
(dp695
g67
(dp696
g94
g95
ssg76
g686
sg69
(lp697
S':'
asbag62
(g83
g64
NtRp698
(dp699
g67
(dp700
sg76
g686
sg69
(lp701
g62
(g63
g64
NtRp702
(dp703
g67
(dp704
g75
I3
ssg76
g698
sg69
(lp705
S''
asbasbasbag62
(g78
g64
NtRp706
(dp707
g67
(dp708
sg76
g642
sg69
(lp709
g62
(g83
g64
NtRp710
(dp711
g67
(dp712
g87
g88
ssg76
g706
sg69
(lp713
g339
asbag62
(g83
g64
NtRp714
(dp715
g67
(dp716
g94
g95
ssg76
g706
sg69
(lp717
S':'
asbag62
(g83
g64
NtRp718
(dp719
g67
(dp720
sg76
g706
sg69
(lp721
g62
(g63
g64
NtRp722
(dp723
g67
(dp724
g75
I3
ssg76
g718
sg69
(lp725
S''
asbasbasbag62
(g78
g64
NtRp726
(dp727
g67
(dp728
sg76
g642
sg69
(lp729
g62
(g83
g64
NtRp730
(dp731
g67
(dp732
g87
g88
ssg76
g726
sg69
(lp733
g360
asbag62
(g83
g64
NtRp734
(dp735
g67
(dp736
g94
g95
ssg76
g726
sg69
(lp737
S':'
asbag62
(g83
g64
NtRp738
(dp739
g67
(dp740
sg76
g726
sg69
(lp741
g62
(g63
g64
NtRp742
(dp743
g67
(dp744
g75
I3
ssg76
g738
sg69
(lp745
S''
asbasbasbag62
(g78
g64
NtRp746
(dp747
g67
(dp748
sg76
g642
sg69
(lp749
g62
(g83
g64
NtRp750
(dp751
g67
(dp752
g87
g88
ssg76
g746
sg69
(lp753
g381
asbag62
(g83
g64
NtRp754
(dp755
g67
(dp756
g94
g95
ssg76
g746
sg69
(lp757
S':'
asbag62
(g83
g64
NtRp758
(dp759
g67
(dp760
sg76
g746
sg69
(lp761
g62
(g63
g64
NtRp762
(dp763
g67
(dp764
g75
I3
ssg76
g758
sg69
(lp765
S''
asbasbasbag62
(g78
g64
NtRp766
(dp767
g67
(dp768
sg76
g642
sg69
(lp769
g62
(g83
g64
NtRp770
(dp771
g67
(dp772
g87
g88
ssg76
g766
sg69
(lp773
g402
asbag62
(g83
g64
NtRp774
(dp775
g67
(dp776
g94
g95
ssg76
g766
sg69
(lp777
S':'
asbag62
(g83
g64
NtRp778
(dp779
g67
(dp780
sg76
g766
sg69
(lp781
g62
(g63
g64
NtRp782
(dp783
g67
(dp784
g75
I3
ssg76
g778
sg69
(lp785
S''
asbasbasbag62
(g78
g64
NtRp786
(dp787
g67
(dp788
sg76
g642
sg69
(lp789
g62
(g83
g64
NtRp790
(dp791
g67
(dp792
g87
g88
ssg76
g786
sg69
(lp793
g423
asbag62
(g83
g64
NtRp794
(dp795
g67
(dp796
g94
g95
ssg76
g786
sg69
(lp797
S':'
asbag62
(g83
g64
NtRp798
(dp799
g67
(dp800
sg76
g786
sg69
(lp801
g62
(g63
g64
NtRp802
(dp803
g67
(dp804
g75
I3
ssg76
g798
sg69
(lp805
S''
asbasbasbasbasbasbasbasbasbasbasbag62
(g78
g64
NtRp806
(dp807
g67
(dp808
sg76
g72
sg69
(lp809
g62
(g83
g64
NtRp810
(dp811
g67
(dp812
g87
g88
ssg76
g806
sg69
(lp813
S'env'
p814
asbag62
(g83
g64
NtRp815
(dp816
g67
(dp817
g94
g95
ssg76
g806
sg69
(lp818
S':'
asbag62
(g83
g64
NtRp819
(dp820
g67
(dp821
sg76
g806
sg69
(lp822
g62
(g63
g64
NtRp823
(dp824
g67
(dp825
g75
I5
ssg76
g819
sg69
(lp826
g62
(g71
g64
NtRp827
(dp828
g67
(dp829
g75
I4
ssg76
Nsg69
(lp830
g62
(g78
g64
NtRp831
(dp832
g67
(dp833
sg76
g827
sg69
(lp834
g62
(g83
g64
NtRp835
(dp836
g67
(dp837
g87
g88
ssg76
g831
sg69
(lp838
S'app_folders'
p839
asbag62
(g83
g64
NtRp840
(dp841
g67
(dp842
g94
g95
ssg76
g831
sg69
(lp843
S':'
asbag62
(g83
g64
NtRp844
(dp845
g67
(dp846
sg76
g831
sg69
(lp847
g62
(g63
g64
NtRp848
(dp849
g67
(dp850
g75
I4
ssg76
g844
sg69
(lp851
S"set(['C:\\\\Documents and Settings\\\\agrover\\\\Desktop\\\\previous crawler\\\\web2py\\\\applications\\\\admin\\\\', 'C:\\\\Documents and Settings\\\\agrover\\\\Desktop\\\\previous crawler\\\\web2py\\\\applications\\\\mycrawler\\\\', 'C:\\\\Documents and Settings\\\\agrover\\\\Desktop\\\\previous crawler\\\\web2py\\\\applications\\\\welcome\\\\'])"
p852
asbasbasbag62
(g78
g64
NtRp853
(dp854
g67
(dp855
sg76
g827
sg69
(lp856
g62
(g83
g64
NtRp857
(dp858
g67
(dp859
g87
g88
ssg76
g853
sg69
(lp860
S'applications_parent'
p861
asbag62
(g83
g64
NtRp862
(dp863
g67
(dp864
g94
g95
ssg76
g853
sg69
(lp865
S':'
asbag62
(g83
g64
NtRp866
(dp867
g67
(dp868
sg76
g853
sg69
(lp869
g62
(g63
g64
NtRp870
(dp871
g67
(dp872
g75
I4
ssg76
g866
sg69
(lp873
S'C:\\Documents and Settings\\agrover\\Desktop\\previous crawler\\web2py'
p874
asbasbasbag62
(g78
g64
NtRp875
(dp876
g67
(dp877
sg76
g827
sg69
(lp878
g62
(g83
g64
NtRp879
(dp880
g67
(dp881
g87
g88
ssg76
g875
sg69
(lp882
S'cmd_args'
p883
asbag62
(g83
g64
NtRp884
(dp885
g67
(dp886
g94
g95
ssg76
g875
sg69
(lp887
S':'
asbag62
(g83
g64
NtRp888
(dp889
g67
(dp890
sg76
g875
sg69
(lp891
g62
(g63
g64
NtRp892
(dp893
g67
(dp894
g75
I4
ssg76
g888
sg69
(lp895
g62
(g71
g64
NtRp896
(dp897
g67
(dp898
g75
I3
ssg76
Nsg69
(lp899
sbasbasbasbag62
(g78
g64
NtRp900
(dp901
g67
(dp902
sg76
g827
sg69
(lp903
g62
(g83
g64
NtRp904
(dp905
g67
(dp906
g87
g88
ssg76
g900
sg69
(lp907
S'cmd_options'
p908
asbag62
(g83
g64
NtRp909
(dp910
g67
(dp911
g94
g95
ssg76
g900
sg69
(lp912
S':'
asbag62
(g83
g64
NtRp913
(dp914
g67
(dp915
sg76
g900
sg69
(lp916
g62
(g63
g64
NtRp917
(dp918
g67
(dp919
g75
I4
ssg76
g913
sg69
(lp920
S"<Values at 0x16d63f0: {'verbose': False, 'ip': '127.0.0.1', 'shutdown_timeout': 5, 'taskbar': False, 'nocron': False, 'pid_filename': 'httpserver.pid', 'maxthreads': None, 'softcron': False, 'server_name': 'mniagrover', 'bpython': False, 'nogui': False, 'port': 8000, 'extcron': False, 'debuglevel': 30, 'test': None, 'folder': 'C:\\\\Documents and Settings\\\\agrover\\\\Desktop\\\\previous crawler\\\\web2py', 'config': '', 'import_models': False, 'winservice': '', 'shell': None, 'run': '', 'log_filename': 'httpserver.log', 'args': [''], 'socket_timeout': 5, 'ssl_ca_certificate': None, 'scheduler': None, 'profiler_filename': None, 'ssl_private_key': '', 'password': '<ask>', 'request_queue_size': 5, 'ssl_certificate': '', 'cronjob': False, 'numthreads': None, 'quiet': False, 'interfaces': None, 'minthreads': None, 'timeout': 10, 'plain': False, 'nobanner': False}>"
p921
asbasbasbag62
(g78
g64
NtRp922
(dp923
g67
(dp924
sg76
g827
sg69
(lp925
g62
(g83
g64
NtRp926
(dp927
g67
(dp928
g87
g88
ssg76
g922
sg69
(lp929
S'content_length'
p930
asbag62
(g83
g64
NtRp931
(dp932
g67
(dp933
g94
g95
ssg76
g922
sg69
(lp934
S':'
asbag62
(g83
g64
NtRp935
(dp936
g67
(dp937
sg76
g922
sg69
(lp938
g62
(g63
g64
NtRp939
(dp940
g67
(dp941
g75
I4
ssg76
g935
sg69
(lp942
S'2551'
p943
asbasbasbag62
(g78
g64
NtRp944
(dp945
g67
(dp946
sg76
g827
sg69
(lp947
g62
(g83
g64
NtRp948
(dp949
g67
(dp950
g87
g88
ssg76
g944
sg69
(lp951
S'content_type'
p952
asbag62
(g83
g64
NtRp953
(dp954
g67
(dp955
g94
g95
ssg76
g944
sg69
(lp956
S':'
asbag62
(g83
g64
NtRp957
(dp958
g67
(dp959
sg76
g944
sg69
(lp960
g62
(g63
g64
NtRp961
(dp962
g67
(dp963
g75
I4
ssg76
g957
sg69
(lp964
S'multipart/form-data; boundary=---------------------------762748024099'
p965
asbasbasbag62
(g78
g64
NtRp966
(dp967
g67
(dp968
sg76
g827
sg69
(lp969
g62
(g83
g64
NtRp970
(dp971
g67
(dp972
g87
g88
ssg76
g966
sg69
(lp973
S'db_sessions'
p974
asbag62
(g83
g64
NtRp975
(dp976
g67
(dp977
g94
g95
ssg76
g966
sg69
(lp978
S':'
asbag62
(g83
g64
NtRp979
(dp980
g67
(dp981
sg76
g966
sg69
(lp982
g62
(g63
g64
NtRp983
(dp984
g67
(dp985
g75
I4
ssg76
g979
sg69
(lp986
S'set([])'
p987
asbasbasbag62
(g78
g64
NtRp988
(dp989
g67
(dp990
sg76
g827
sg69
(lp991
g62
(g83
g64
NtRp992
(dp993
g67
(dp994
g87
g88
ssg76
g988
sg69
(lp995
S'debugging'
p996
asbag62
(g83
g64
NtRp997
(dp998
g67
(dp999
g94
g95
ssg76
g988
sg69
(lp1000
S':'
asbag62
(g83
g64
NtRp1001
(dp1002
g67
(dp1003
sg76
g988
sg69
(lp1004
g62
(g63
g64
NtRp1005
(dp1006
g67
(dp1007
g75
I4
ssg76
g1001
sg69
(lp1008
g105
asbasbasbag62
(g78
g64
NtRp1009
(dp1010
g67
(dp1011
sg76
g827
sg69
(lp1012
g62
(g83
g64
NtRp1013
(dp1014
g67
(dp1015
g87
g88
ssg76
g1009
sg69
(lp1016
S'gluon_parent'
p1017
asbag62
(g83
g64
NtRp1018
(dp1019
g67
(dp1020
g94
g95
ssg76
g1009
sg69
(lp1021
S':'
asbag62
(g83
g64
NtRp1022
(dp1023
g67
(dp1024
sg76
g1009
sg69
(lp1025
g62
(g63
g64
NtRp1026
(dp1027
g67
(dp1028
g75
I4
ssg76
g1022
sg69
(lp1029
S'C:\\Documents and Settings\\agrover\\Desktop\\previous crawler\\web2py'
p1030
asbasbasbag62
(g78
g64
NtRp1031
(dp1032
g67
(dp1033
sg76
g827
sg69
(lp1034
g62
(g83
g64
NtRp1035
(dp1036
g67
(dp1037
g87
g88
ssg76
g1031
sg69
(lp1038
S'http_accept'
p1039
asbag62
(g83
g64
NtRp1040
(dp1041
g67
(dp1042
g94
g95
ssg76
g1031
sg69
(lp1043
S':'
asbag62
(g83
g64
NtRp1044
(dp1045
g67
(dp1046
sg76
g1031
sg69
(lp1047
g62
(g63
g64
NtRp1048
(dp1049
g67
(dp1050
g75
I4
ssg76
g1044
sg69
(lp1051
S'text/html,application/xhtml+xml,application/xml;q=0.9,*/*;q=0.8'
p1052
asbasbasbag62
(g78
g64
NtRp1053
(dp1054
g67
(dp1055
sg76
g827
sg69
(lp1056
g62
(g83
g64
NtRp1057
(dp1058
g67
(dp1059
g87
g88
ssg76
g1053
sg69
(lp1060
S'http_accept_encoding'
p1061
asbag62
(g83
g64
NtRp1062
(dp1063
g67
(dp1064
g94
g95
ssg76
g1053
sg69
(lp1065
S':'
asbag62
(g83
g64
NtRp1066
(dp1067
g67
(dp1068
sg76
g1053
sg69
(lp1069
g62
(g63
g64
NtRp1070
(dp1071
g67
(dp1072
g75
I4
ssg76
g1066
sg69
(lp1073
S'gzip, deflate'
p1074
asbasbasbag62
(g78
g64
NtRp1075
(dp1076
g67
(dp1077
sg76
g827
sg69
(lp1078
g62
(g83
g64
NtRp1079
(dp1080
g67
(dp1081
g87
g88
ssg76
g1075
sg69
(lp1082
S'http_accept_language'
p1083
asbag62
(g83
g64
NtRp1084
(dp1085
g67
(dp1086
g94
g95
ssg76
g1075
sg69
(lp1087
S':'
asbag62
(g83
g64
NtRp1088
(dp1089
g67
(dp1090
sg76
g1075
sg69
(lp1091
g62
(g63
g64
NtRp1092
(dp1093
g67
(dp1094
g75
I4
ssg76
g1088
sg69
(lp1095
S'en-us,en;q=0.5'
p1096
asbasbasbag62
(g78
g64
NtRp1097
(dp1098
g67
(dp1099
sg76
g827
sg69
(lp1100
g62
(g83
g64
NtRp1101
(dp1102
g67
(dp1103
g87
g88
ssg76
g1097
sg69
(lp1104
S'http_connection'
p1105
asbag62
(g83
g64
NtRp1106
(dp1107
g67
(dp1108
g94
g95
ssg76
g1097
sg69
(lp1109
S':'
asbag62
(g83
g64
NtRp1110
(dp1111
g67
(dp1112
sg76
g1097
sg69
(lp1113
g62
(g63
g64
NtRp1114
(dp1115
g67
(dp1116
g75
I4
ssg76
g1110
sg69
(lp1117
S'keep-alive'
p1118
asbasbasbag62
(g78
g64
NtRp1119
(dp1120
g67
(dp1121
sg76
g827
sg69
(lp1122
g62
(g83
g64
NtRp1123
(dp1124
g67
(dp1125
g87
g88
ssg76
g1119
sg69
(lp1126
S'http_content_length'
p1127
asbag62
(g83
g64
NtRp1128
(dp1129
g67
(dp1130
g94
g95
ssg76
g1119
sg69
(lp1131
S':'
asbag62
(g83
g64
NtRp1132
(dp1133
g67
(dp1134
sg76
g1119
sg69
(lp1135
g62
(g63
g64
NtRp1136
(dp1137
g67
(dp1138
g75
I4
ssg76
g1132
sg69
(lp1139
g943
asbasbasbag62
(g78
g64
NtRp1140
(dp1141
g67
(dp1142
sg76
g827
sg69
(lp1143
g62
(g83
g64
NtRp1144
(dp1145
g67
(dp1146
g87
g88
ssg76
g1140
sg69
(lp1147
S'http_content_type'
p1148
asbag62
(g83
g64
NtRp1149
(dp1150
g67
(dp1151
g94
g95
ssg76
g1140
sg69
(lp1152
S':'
asbag62
(g83
g64
NtRp1153
(dp1154
g67
(dp1155
sg76
g1140
sg69
(lp1156
g62
(g63
g64
NtRp1157
(dp1158
g67
(dp1159
g75
I4
ssg76
g1153
sg69
(lp1160
g965
asbasbasbag62
(g78
g64
NtRp1161
(dp1162
g67
(dp1163
sg76
g827
sg69
(lp1164
g62
(g83
g64
NtRp1165
(dp1166
g67
(dp1167
g87
g88
ssg76
g1161
sg69
(lp1168
S'http_cookie'
p1169
asbag62
(g83
g64
NtRp1170
(dp1171
g67
(dp1172
g94
g95
ssg76
g1161
sg69
(lp1173
S':'
asbag62
(g83
g64
NtRp1174
(dp1175
g67
(dp1176
sg76
g1161
sg69
(lp1177
g62
(g63
g64
NtRp1178
(dp1179
g67
(dp1180
g75
I4
ssg76
g1174
sg69
(lp1181
S'session_id_welcome=127.0.0.1-86f34efd-128f-48c3-9c2d-add41627dda0; session_id_admin=127.0.0.1-805b4340-6690-4f4c-8fd5-8d304283e7b1; session_id_mycrawler=127.0.0.1-1168ec91-5549-4bd8-a5d3-1c118d39abce'
p1182
asbasbasbag62
(g78
g64
NtRp1183
(dp1184
g67
(dp1185
sg76
g827
sg69
(lp1186
g62
(g83
g64
NtRp1187
(dp1188
g67
(dp1189
g87
g88
ssg76
g1183
sg69
(lp1190
S'http_host'
p1191
asbag62
(g83
g64
NtRp1192
(dp1193
g67
(dp1194
g94
g95
ssg76
g1183
sg69
(lp1195
S':'
asbag62
(g83
g64
NtRp1196
(dp1197
g67
(dp1198
sg76
g1183
sg69
(lp1199
g62
(g63
g64
NtRp1200
(dp1201
g67
(dp1202
g75
I4
ssg76
g1196
sg69
(lp1203
S'127.0.0.1:8000'
p1204
asbasbasbag62
(g78
g64
NtRp1205
(dp1206
g67
(dp1207
sg76
g827
sg69
(lp1208
g62
(g83
g64
NtRp1209
(dp1210
g67
(dp1211
g87
g88
ssg76
g1205
sg69
(lp1212
S'http_referer'
p1213
asbag62
(g83
g64
NtRp1214
(dp1215
g67
(dp1216
g94
g95
ssg76
g1205
sg69
(lp1217
S':'
asbag62
(g83
g64
NtRp1218
(dp1219
g67
(dp1220
sg76
g1205
sg69
(lp1221
g62
(g63
g64
NtRp1222
(dp1223
g67
(dp1224
g75
I4
ssg76
g1218
sg69
(lp1225
S'http://127.0.0.1:8000/mycrawler/default/upload'
p1226
asbasbasbag62
(g78
g64
NtRp1227
(dp1228
g67
(dp1229
sg76
g827
sg69
(lp1230
g62
(g83
g64
NtRp1231
(dp1232
g67
(dp1233
g87
g88
ssg76
g1227
sg69
(lp1234
S'http_user_agent'
p1235
asbag62
(g83
g64
NtRp1236
(dp1237
g67
(dp1238
g94
g95
ssg76
g1227
sg69
(lp1239
S':'
asbag62
(g83
g64
NtRp1240
(dp1241
g67
(dp1242
sg76
g1227
sg69
(lp1243
g62
(g63
g64
NtRp1244
(dp1245
g67
(dp1246
g75
I4
ssg76
g1240
sg69
(lp1247
S'Mozilla/5.0 (Windows NT 5.1; rv:13.0) Gecko/20100101 Firefox/13.0.1'
p1248
asbasbasbag62
(g78
g64
NtRp1249
(dp1250
g67
(dp1251
sg76
g827
sg69
(lp1252
g62
(g83
g64
NtRp1253
(dp1254
g67
(dp1255
g87
g88
ssg76
g1249
sg69
(lp1256
S'is_jython'
p1257
asbag62
(g83
g64
NtRp1258
(dp1259
g67
(dp1260
g94
g95
ssg76
g1249
sg69
(lp1261
S':'
asbag62
(g83
g64
NtRp1262
(dp1263
g67
(dp1264
sg76
g1249
sg69
(lp1265
g62
(g63
g64
NtRp1266
(dp1267
g67
(dp1268
g75
I4
ssg76
g1262
sg69
(lp1269
g105
asbasbasbag62
(g78
g64
NtRp1270
(dp1271
g67
(dp1272
sg76
g827
sg69
(lp1273
g62
(g83
g64
NtRp1274
(dp1275
g67
(dp1276
g87
g88
ssg76
g1270
sg69
(lp1277
S'is_pypy'
p1278
asbag62
(g83
g64
NtRp1279
(dp1280
g67
(dp1281
g94
g95
ssg76
g1270
sg69
(lp1282
S':'
asbag62
(g83
g64
NtRp1283
(dp1284
g67
(dp1285
sg76
g1270
sg69
(lp1286
g62
(g63
g64
NtRp1287
(dp1288
g67
(dp1289
g75
I4
ssg76
g1283
sg69
(lp1290
g105
asbasbasbag62
(g78
g64
NtRp1291
(dp1292
g67
(dp1293
sg76
g827
sg69
(lp1294
g62
(g83
g64
NtRp1295
(dp1296
g67
(dp1297
g87
g88
ssg76
g1291
sg69
(lp1298
S'path_info'
p1299
asbag62
(g83
g64
NtRp1300
(dp1301
g67
(dp1302
g94
g95
ssg76
g1291
sg69
(lp1303
S':'
asbag62
(g83
g64
NtRp1304
(dp1305
g67
(dp1306
sg76
g1291
sg69
(lp1307
g62
(g63
g64
NtRp1308
(dp1309
g67
(dp1310
g75
I4
ssg76
g1304
sg69
(lp1311
S'/mycrawler/default/upload'
p1312
asbasbasbag62
(g78
g64
NtRp1313
(dp1314
g67
(dp1315
sg76
g827
sg69
(lp1316
g62
(g83
g64
NtRp1317
(dp1318
g67
(dp1319
g87
g88
ssg76
g1313
sg69
(lp1320
S'query_string'
p1321
asbag62
(g83
g64
NtRp1322
(dp1323
g67
(dp1324
g94
g95
ssg76
g1313
sg69
(lp1325
S':'
asbag62
(g83
g64
NtRp1326
(dp1327
g67
(dp1328
sg76
g1313
sg69
(lp1329
g62
(g63
g64
NtRp1330
(dp1331
g67
(dp1332
g75
I4
ssg76
g1326
sg69
(lp1333
S''
asbasbasbag62
(g78
g64
NtRp1334
(dp1335
g67
(dp1336
sg76
g827
sg69
(lp1337
g62
(g83
g64
NtRp1338
(dp1339
g67
(dp1340
g87
g88
ssg76
g1334
sg69
(lp1341
S'remote_addr'
p1342
asbag62
(g83
g64
NtRp1343
(dp1344
g67
(dp1345
g94
g95
ssg76
g1334
sg69
(lp1346
S':'
asbag62
(g83
g64
NtRp1347
(dp1348
g67
(dp1349
sg76
g1334
sg69
(lp1350
g62
(g63
g64
NtRp1351
(dp1352
g67
(dp1353
g75
I4
ssg76
g1347
sg69
(lp1354
g195
asbasbasbag62
(g78
g64
NtRp1355
(dp1356
g67
(dp1357
sg76
g827
sg69
(lp1358
g62
(g83
g64
NtRp1359
(dp1360
g67
(dp1361
g87
g88
ssg76
g1355
sg69
(lp1362
S'remote_port'
p1363
asbag62
(g83
g64
NtRp1364
(dp1365
g67
(dp1366
g94
g95
ssg76
g1355
sg69
(lp1367
S':'
asbag62
(g83
g64
NtRp1368
(dp1369
g67
(dp1370
sg76
g1355
sg69
(lp1371
g62
(g63
g64
NtRp1372
(dp1373
g67
(dp1374
g75
I4
ssg76
g1368
sg69
(lp1375
S'3996'
p1376
asbasbasbag62
(g78
g64
NtRp1377
(dp1378
g67
(dp1379
sg76
g827
sg69
(lp1380
g62
(g83
g64
NtRp1381
(dp1382
g67
(dp1383
g87
g88
ssg76
g1377
sg69
(lp1384
S'request_method'
p1385
asbag62
(g83
g64
NtRp1386
(dp1387
g67
(dp1388
g94
g95
ssg76
g1377
sg69
(lp1389
S':'
asbag62
(g83
g64
NtRp1390
(dp1391
g67
(dp1392
sg76
g1377
sg69
(lp1393
g62
(g63
g64
NtRp1394
(dp1395
g67
(dp1396
g75
I4
ssg76
g1390
sg69
(lp1397
S'POST'
p1398
asbasbasbag62
(g78
g64
NtRp1399
(dp1400
g67
(dp1401
sg76
g827
sg69
(lp1402
g62
(g83
g64
NtRp1403
(dp1404
g67
(dp1405
g87
g88
ssg76
g1399
sg69
(lp1406
S'script_name'
p1407
asbag62
(g83
g64
NtRp1408
(dp1409
g67
(dp1410
g94
g95
ssg76
g1399
sg69
(lp1411
S':'
asbag62
(g83
g64
NtRp1412
(dp1413
g67
(dp1414
sg76
g1399
sg69
(lp1415
g62
(g63
g64
NtRp1416
(dp1417
g67
(dp1418
g75
I4
ssg76
g1412
sg69
(lp1419
S''
asbasbasbag62
(g78
g64
NtRp1420
(dp1421
g67
(dp1422
sg76
g827
sg69
(lp1423
g62
(g83
g64
NtRp1424
(dp1425
g67
(dp1426
g87
g88
ssg76
g1420
sg69
(lp1427
S'server_name'
p1428
asbag62
(g83
g64
NtRp1429
(dp1430
g67
(dp1431
g94
g95
ssg76
g1420
sg69
(lp1432
S':'
asbag62
(g83
g64
NtRp1433
(dp1434
g67
(dp1435
sg76
g1420
sg69
(lp1436
g62
(g63
g64
NtRp1437
(dp1438
g67
(dp1439
g75
I4
ssg76
g1433
sg69
(lp1440
S'mniagrover'
p1441
asbasbasbag62
(g78
g64
NtRp1442
(dp1443
g67
(dp1444
sg76
g827
sg69
(lp1445
g62
(g83
g64
NtRp1446
(dp1447
g67
(dp1448
g87
g88
ssg76
g1442
sg69
(lp1449
S'server_port'
p1450
asbag62
(g83
g64
NtRp1451
(dp1452
g67
(dp1453
g94
g95
ssg76
g1442
sg69
(lp1454
S':'
asbag62
(g83
g64
NtRp1455
(dp1456
g67
(dp1457
sg76
g1442
sg69
(lp1458
g62
(g63
g64
NtRp1459
(dp1460
g67
(dp1461
g75
I4
ssg76
g1455
sg69
(lp1462
S'8000'
p1463
asbasbasbag62
(g78
g64
NtRp1464
(dp1465
g67
(dp1466
sg76
g827
sg69
(lp1467
g62
(g83
g64
NtRp1468
(dp1469
g67
(dp1470
g87
g88
ssg76
g1464
sg69
(lp1471
S'server_protocol'
p1472
asbag62
(g83
g64
NtRp1473
(dp1474
g67
(dp1475
g94
g95
ssg76
g1464
sg69
(lp1476
S':'
asbag62
(g83
g64
NtRp1477
(dp1478
g67
(dp1479
sg76
g1464
sg69
(lp1480
g62
(g63
g64
NtRp1481
(dp1482
g67
(dp1483
g75
I4
ssg76
g1477
sg69
(lp1484
S'HTTP/1.1'
p1485
asbasbasbag62
(g78
g64
NtRp1486
(dp1487
g67
(dp1488
sg76
g827
sg69
(lp1489
g62
(g83
g64
NtRp1490
(dp1491
g67
(dp1492
g87
g88
ssg76
g1486
sg69
(lp1493
S'server_software'
p1494
asbag62
(g83
g64
NtRp1495
(dp1496
g67
(dp1497
g94
g95
ssg76
g1486
sg69
(lp1498
S':'
asbag62
(g83
g64
NtRp1499
(dp1500
g67
(dp1501
sg76
g1486
sg69
(lp1502
g62
(g63
g64
NtRp1503
(dp1504
g67
(dp1505
g75
I4
ssg76
g1499
sg69
(lp1506
S'Rocket 1.2.4'
p1507
asbasbasbag62
(g78
g64
NtRp1508
(dp1509
g67
(dp1510
sg76
g827
sg69
(lp1511
g62
(g83
g64
NtRp1512
(dp1513
g67
(dp1514
g87
g88
ssg76
g1508
sg69
(lp1515
S'web2py_crontype'
p1516
asbag62
(g83
g64
NtRp1517
(dp1518
g67
(dp1519
g94
g95
ssg76
g1508
sg69
(lp1520
S':'
asbag62
(g83
g64
NtRp1521
(dp1522
g67
(dp1523
sg76
g1508
sg69
(lp1524
g62
(g63
g64
NtRp1525
(dp1526
g67
(dp1527
g75
I4
ssg76
g1521
sg69
(lp1528
S'hard'
p1529
asbasbasbag62
(g78
g64
NtRp1530
(dp1531
g67
(dp1532
sg76
g827
sg69
(lp1533
g62
(g83
g64
NtRp1534
(dp1535
g67
(dp1536
g87
g88
ssg76
g1530
sg69
(lp1537
S'web2py_path'
p1538
asbag62
(g83
g64
NtRp1539
(dp1540
g67
(dp1541
g94
g95
ssg76
g1530
sg69
(lp1542
S':'
asbag62
(g83
g64
NtRp1543
(dp1544
g67
(dp1545
sg76
g1530
sg69
(lp1546
g62
(g63
g64
NtRp1547
(dp1548
g67
(dp1549
g75
I4
ssg76
g1543
sg69
(lp1550
g874
asbasbasbag62
(g78
g64
NtRp1551
(dp1552
g67
(dp1553
sg76
g827
sg69
(lp1554
g62
(g83
g64
NtRp1555
(dp1556
g67
(dp1557
g87
g88
ssg76
g1551
sg69
(lp1558
S'web2py_version'
p1559
asbag62
(g83
g64
NtRp1560
(dp1561
g67
(dp1562
g94
g95
ssg76
g1551
sg69
(lp1563
S':'
asbag62
(g83
g64
NtRp1564
(dp1565
g67
(dp1566
sg76
g1551
sg69
(lp1567
g62
(g63
g64
NtRp1568
(dp1569
g67
(dp1570
g75
I4
ssg76
g1564
sg69
(lp1571
g62
(g71
g64
NtRp1572
(dp1573
g67
(dp1574
g75
I3
ssg76
Nsg69
(lp1575
g62
(g78
g64
NtRp1576
(dp1577
g67
(dp1578
sg76
g1572
sg69
(lp1579
g62
(g83
g64
NtRp1580
(dp1581
g67
(dp1582
sg76
g1576
sg69
(lp1583
g62
(g63
g64
NtRp1584
(dp1585
g67
(dp1586
g75
I3
ssg76
g1580
sg69
(lp1587
S'1'
asbasbasbag62
(g78
g64
NtRp1588
(dp1589
g67
(dp1590
sg76
g1572
sg69
(lp1591
g62
(g83
g64
NtRp1592
(dp1593
g67
(dp1594
sg76
g1588
sg69
(lp1595
g62
(g63
g64
NtRp1596
(dp1597
g67
(dp1598
g75
I3
ssg76
g1592
sg69
(lp1599
S'99'
p1600
asbasbasbag62
(g78
g64
NtRp1601
(dp1602
g67
(dp1603
sg76
g1572
sg69
(lp1604
g62
(g83
g64
NtRp1605
(dp1606
g67
(dp1607
sg76
g1601
sg69
(lp1608
g62
(g63
g64
NtRp1609
(dp1610
g67
(dp1611
g75
I3
ssg76
g1605
sg69
(lp1612
S'7'
asbasbasbag62
(g78
g64
NtRp1613
(dp1614
g67
(dp1615
sg76
g1572
sg69
(lp1616
g62
(g83
g64
NtRp1617
(dp1618
g67
(dp1619
sg76
g1613
sg69
(lp1620
g62
(g63
g64
NtRp1621
(dp1622
g67
(dp1623
g75
I3
ssg76
g1617
sg69
(lp1624
S'datetime.datetime(2012, 3, 4, 22, 12, 8)'
p1625
asbasbasbag62
(g78
g64
NtRp1626
(dp1627
g67
(dp1628
sg76
g1572
sg69
(lp1629
g62
(g83
g64
NtRp1630
(dp1631
g67
(dp1632
sg76
g1626
sg69
(lp1633
g62
(g63
g64
NtRp1634
(dp1635
g67
(dp1636
g75
I3
ssg76
g1630
sg69
(lp1637
S'stable'
p1638
asbasbasbasbasbasbasbag62
(g78
g64
NtRp1639
(dp1640
g67
(dp1641
sg76
g827
sg69
(lp1642
g62
(g83
g64
NtRp1643
(dp1644
g67
(dp1645
g87
g88
ssg76
g1639
sg69
(lp1646
S'wsgi_errors'
p1647
asbag62
(g83
g64
NtRp1648
(dp1649
g67
(dp1650
g94
g95
ssg76
g1639
sg69
(lp1651
S':'
asbag62
(g83
g64
NtRp1652
(dp1653
g67
(dp1654
sg76
g1639
sg69
(lp1655
g62
(g63
g64
NtRp1656
(dp1657
g67
(dp1658
g75
I4
ssg76
g1652
sg69
(lp1659
S"<open file '<stderr>', mode 'w' at 0x00A550D0>"
p1660
asbasbasbag62
(g78
g64
NtRp1661
(dp1662
g67
(dp1663
sg76
g827
sg69
(lp1664
g62
(g83
g64
NtRp1665
(dp1666
g67
(dp1667
g87
g88
ssg76
g1661
sg69
(lp1668
S'wsgi_file_wrapper'
p1669
asbag62
(g83
g64
NtRp1670
(dp1671
g67
(dp1672
g94
g95
ssg76
g1661
sg69
(lp1673
S':'
asbag62
(g83
g64
NtRp1674
(dp1675
g67
(dp1676
sg76
g1661
sg69
(lp1677
g62
(g63
g64
NtRp1678
(dp1679
g67
(dp1680
g75
I4
ssg76
g1674
sg69
(lp1681
S'<class wsgiref.util.FileWrapper at 0x015E8AB0>'
p1682
asbasbasbag62
(g78
g64
NtRp1683
(dp1684
g67
(dp1685
sg76
g827
sg69
(lp1686
g62
(g83
g64
NtRp1687
(dp1688
g67
(dp1689
g87
g88
ssg76
g1683
sg69
(lp1690
S'wsgi_input'
p1691
asbag62
(g83
g64
NtRp1692
(dp1693
g67
(dp1694
g94
g95
ssg76
g1683
sg69
(lp1695
S':'
asbag62
(g83
g64
NtRp1696
(dp1697
g67
(dp1698
sg76
g1683
sg69
(lp1699
g62
(g63
g64
NtRp1700
(dp1701
g67
(dp1702
g75
I4
ssg76
g1696
sg69
(lp1703
S'<socket._fileobject object at 0x04CBFC30>'
p1704
asbasbasbag62
(g78
g64
NtRp1705
(dp1706
g67
(dp1707
sg76
g827
sg69
(lp1708
g62
(g83
g64
NtRp1709
(dp1710
g67
(dp1711
g87
g88
ssg76
g1705
sg69
(lp1712
S'wsgi_multiprocess'
p1713
asbag62
(g83
g64
NtRp1714
(dp1715
g67
(dp1716
g94
g95
ssg76
g1705
sg69
(lp1717
S':'
asbag62
(g83
g64
NtRp1718
(dp1719
g67
(dp1720
sg76
g1705
sg69
(lp1721
g62
(g63
g64
NtRp1722
(dp1723
g67
(dp1724
g75
I4
ssg76
g1718
sg69
(lp1725
g105
asbasbasbag62
(g78
g64
NtRp1726
(dp1727
g67
(dp1728
sg76
g827
sg69
(lp1729
g62
(g83
g64
NtRp1730
(dp1731
g67
(dp1732
g87
g88
ssg76
g1726
sg69
(lp1733
S'wsgi_multithread'
p1734
asbag62
(g83
g64
NtRp1735
(dp1736
g67
(dp1737
g94
g95
ssg76
g1726
sg69
(lp1738
S':'
asbag62
(g83
g64
NtRp1739
(dp1740
g67
(dp1741
sg76
g1726
sg69
(lp1742
g62
(g63
g64
NtRp1743
(dp1744
g67
(dp1745
g75
I4
ssg76
g1739
sg69
(lp1746
S'True'
p1747
asbasbasbag62
(g78
g64
NtRp1748
(dp1749
g67
(dp1750
sg76
g827
sg69
(lp1751
g62
(g83
g64
NtRp1752
(dp1753
g67
(dp1754
g87
g88
ssg76
g1748
sg69
(lp1755
S'wsgi_run_once'
p1756
asbag62
(g83
g64
NtRp1757
(dp1758
g67
(dp1759
g94
g95
ssg76
g1748
sg69
(lp1760
S':'
asbag62
(g83
g64
NtRp1761
(dp1762
g67
(dp1763
sg76
g1748
sg69
(lp1764
g62
(g63
g64
NtRp1765
(dp1766
g67
(dp1767
g75
I4
ssg76
g1761
sg69
(lp1768
g105
asbasbasbag62
(g78
g64
NtRp1769
(dp1770
g67
(dp1771
sg76
g827
sg69
(lp1772
g62
(g83
g64
NtRp1773
(dp1774
g67
(dp1775
g87
g88
ssg76
g1769
sg69
(lp1776
S'wsgi_url_scheme'
p1777
asbag62
(g83
g64
NtRp1778
(dp1779
g67
(dp1780
g94
g95
ssg76
g1769
sg69
(lp1781
S':'
asbag62
(g83
g64
NtRp1782
(dp1783
g67
(dp1784
sg76
g1769
sg69
(lp1785
g62
(g63
g64
NtRp1786
(dp1787
g67
(dp1788
g75
I4
ssg76
g1782
sg69
(lp1789
S'http'
p1790
asbasbasbag62
(g78
g64
NtRp1791
(dp1792
g67
(dp1793
sg76
g827
sg69
(lp1794
g62
(g83
g64
NtRp1795
(dp1796
g67
(dp1797
g87
g88
ssg76
g1791
sg69
(lp1798
S'wsgi_version'
p1799
asbag62
(g83
g64
NtRp1800
(dp1801
g67
(dp1802
g94
g95
ssg76
g1791
sg69
(lp1803
S':'
asbag62
(g83
g64
NtRp1804
(dp1805
g67
(dp1806
sg76
g1791
sg69
(lp1807
g62
(g63
g64
NtRp1808
(dp1809
g67
(dp1810
g75
I4
ssg76
g1804
sg69
(lp1811
g62
(g71
g64
NtRp1812
(dp1813
g67
(dp1814
g75
I3
ssg76
Nsg69
(lp1815
g62
(g78
g64
NtRp1816
(dp1817
g67
(dp1818
sg76
g1812
sg69
(lp1819
g62
(g83
g64
NtRp1820
(dp1821
g67
(dp1822
sg76
g1816
sg69
(lp1823
g62
(g63
g64
NtRp1824
(dp1825
g67
(dp1826
g75
I3
ssg76
g1820
sg69
(lp1827
S'1'
asbasbasbag62
(g78
g64
NtRp1828
(dp1829
g67
(dp1830
sg76
g1812
sg69
(lp1831
g62
(g83
g64
NtRp1832
(dp1833
g67
(dp1834
sg76
g1828
sg69
(lp1835
g62
(g63
g64
NtRp1836
(dp1837
g67
(dp1838
g75
I3
ssg76
g1832
sg69
(lp1839
S'0'
asbasbasbasbasbasbasbasbasbasbasbag62
(g78
g64
NtRp1840
(dp1841
g67
(dp1842
sg76
g72
sg69
(lp1843
g62
(g83
g64
NtRp1844
(dp1845
g67
(dp1846
g87
g88
ssg76
g1840
sg69
(lp1847
S'extension'
p1848
asbag62
(g83
g64
NtRp1849
(dp1850
g67
(dp1851
g94
g95
ssg76
g1840
sg69
(lp1852
S':'
asbag62
(g83
g64
NtRp1853
(dp1854
g67
(dp1855
sg76
g1840
sg69
(lp1856
g62
(g63
g64
NtRp1857
(dp1858
g67
(dp1859
g75
I5
ssg76
g1853
sg69
(lp1860
S'html'
p1861
asbasbasbag62
(g78
g64
NtRp1862
(dp1863
g67
(dp1864
sg76
g72
sg69
(lp1865
g62
(g83
g64
NtRp1866
(dp1867
g67
(dp1868
g87
g88
ssg76
g1862
sg69
(lp1869
S'folder'
p1870
asbag62
(g83
g64
NtRp1871
(dp1872
g67
(dp1873
g94
g95
ssg76
g1862
sg69
(lp1874
S':'
asbag62
(g83
g64
NtRp1875
(dp1876
g67
(dp1877
sg76
g1862
sg69
(lp1878
g62
(g63
g64
NtRp1879
(dp1880
g67
(dp1881
g75
I5
ssg76
g1875
sg69
(lp1882
S'C:\\Documents and Settings\\agrover\\Desktop\\previous crawler\\web2py\\applications\\mycrawler\\'
p1883
asbasbasbag62
(g78
g64
NtRp1884
(dp1885
g67
(dp1886
sg76
g72
sg69
(lp1887
g62
(g83
g64
NtRp1888
(dp1889
g67
(dp1890
g87
g88
ssg76
g1884
sg69
(lp1891
S'function'
p1892
asbag62
(g83
g64
NtRp1893
(dp1894
g67
(dp1895
g94
g95
ssg76
g1884
sg69
(lp1896
S':'
asbag62
(g83
g64
NtRp1897
(dp1898
g67
(dp1899
sg76
g1884
sg69
(lp1900
g62
(g63
g64
NtRp1901
(dp1902
g67
(dp1903
g75
I5
ssg76
g1897
sg69
(lp1904
S'upload'
p1905
asbasbasbag62
(g78
g64
NtRp1906
(dp1907
g67
(dp1908
sg76
g72
sg69
(lp1909
g62
(g83
g64
NtRp1910
(dp1911
g67
(dp1912
g87
g88
ssg76
g1906
sg69
(lp1913
S'get_vars'
p1914
asbag62
(g83
g64
NtRp1915
(dp1916
g67
(dp1917
g94
g95
ssg76
g1906
sg69
(lp1918
S':'
asbag62
(g83
g64
NtRp1919
(dp1920
g67
(dp1921
sg76
g1906
sg69
(lp1922
g62
(g63
g64
NtRp1923
(dp1924
g67
(dp1925
g75
I5
ssg76
g1919
sg69
(lp1926
g62
(g71
g64
NtRp1927
(dp1928
g67
(dp1929
g75
I4
ssg76
Nsg69
(lp1930
sbasbasbasbag62
(g78
g64
NtRp1931
(dp1932
g67
(dp1933
sg76
g72
sg69
(lp1934
g62
(g83
g64
NtRp1935
(dp1936
g67
(dp1937
g87
g88
ssg76
g1931
sg69
(lp1938
S'global_settings'
p1939
asbag62
(g83
g64
NtRp1940
(dp1941
g67
(dp1942
g94
g95
ssg76
g1931
sg69
(lp1943
S':'
asbag62
(g83
g64
NtRp1944
(dp1945
g67
(dp1946
sg76
g1931
sg69
(lp1947
g62
(g63
g64
NtRp1948
(dp1949
g67
(dp1950
g75
I5
ssg76
g1944
sg69
(lp1951
g62
(g71
g64
NtRp1952
(dp1953
g67
(dp1954
g75
I4
ssg76
Nsg69
(lp1955
g62
(g78
g64
NtRp1956
(dp1957
g67
(dp1958
sg76
g1952
sg69
(lp1959
g62
(g83
g64
NtRp1960
(dp1961
g67
(dp1962
g87
g88
ssg76
g1956
sg69
(lp1963
g839
asbag62
(g83
g64
NtRp1964
(dp1965
g67
(dp1966
g94
g95
ssg76
g1956
sg69
(lp1967
S':'
asbag62
(g83
g64
NtRp1968
(dp1969
g67
(dp1970
sg76
g1956
sg69
(lp1971
g62
(g63
g64
NtRp1972
(dp1973
g67
(dp1974
g75
I4
ssg76
g1968
sg69
(lp1975
S"set(['C:\\\\Documents and Settings\\\\agrover\\\\Desktop\\\\previous crawler\\\\web2py\\\\applications\\\\admin\\\\', 'C:\\\\Documents and Settings\\\\agrover\\\\Desktop\\\\previous crawler\\\\web2py\\\\applications\\\\mycrawler\\\\', 'C:\\\\Documents and Settings\\\\agrover\\\\Desktop\\\\previous crawler\\\\web2py\\\\applications\\\\welcome\\\\'])"
p1976
asbasbasbag62
(g78
g64
NtRp1977
(dp1978
g67
(dp1979
sg76
g1952
sg69
(lp1980
g62
(g83
g64
NtRp1981
(dp1982
g67
(dp1983
g87
g88
ssg76
g1977
sg69
(lp1984
g861
asbag62
(g83
g64
NtRp1985
(dp1986
g67
(dp1987
g94
g95
ssg76
g1977
sg69
(lp1988
S':'
asbag62
(g83
g64
NtRp1989
(dp1990
g67
(dp1991
sg76
g1977
sg69
(lp1992
g62
(g63
g64
NtRp1993
(dp1994
g67
(dp1995
g75
I4
ssg76
g1989
sg69
(lp1996
g874
asbasbasbag62
(g78
g64
NtRp1997
(dp1998
g67
(dp1999
sg76
g1952
sg69
(lp2000
g62
(g83
g64
NtRp2001
(dp2002
g67
(dp2003
g87
g88
ssg76
g1997
sg69
(lp2004
g883
asbag62
(g83
g64
NtRp2005
(dp2006
g67
(dp2007
g94
g95
ssg76
g1997
sg69
(lp2008
S':'
asbag62
(g83
g64
NtRp2009
(dp2010
g67
(dp2011
sg76
g1997
sg69
(lp2012
g62
(g63
g64
NtRp2013
(dp2014
g67
(dp2015
g75
I4
ssg76
g2009
sg69
(lp2016
g62
(g71
g64
NtRp2017
(dp2018
g67
(dp2019
g75
I3
ssg76
Nsg69
(lp2020
sbasbasbasbag62
(g78
g64
NtRp2021
(dp2022
g67
(dp2023
sg76
g1952
sg69
(lp2024
g62
(g83
g64
NtRp2025
(dp2026
g67
(dp2027
g87
g88
ssg76
g2021
sg69
(lp2028
g908
asbag62
(g83
g64
NtRp2029
(dp2030
g67
(dp2031
g94
g95
ssg76
g2021
sg69
(lp2032
S':'
asbag62
(g83
g64
NtRp2033
(dp2034
g67
(dp2035
sg76
g2021
sg69
(lp2036
g62
(g63
g64
NtRp2037
(dp2038
g67
(dp2039
g75
I4
ssg76
g2033
sg69
(lp2040
S"<Values at 0x16d63f0: {'verbose': False, 'ip': '127.0.0.1', 'shutdown_timeout': 5, 'taskbar': False, 'nocron': False, 'pid_filename': 'httpserver.pid', 'maxthreads': None, 'softcron': False, 'server_name': 'mniagrover', 'bpython': False, 'nogui': False, 'port': 8000, 'extcron': False, 'debuglevel': 30, 'test': None, 'folder': 'C:\\\\Documents and Settings\\\\agrover\\\\Desktop\\\\previous crawler\\\\web2py', 'config': '', 'import_models': False, 'winservice': '', 'shell': None, 'run': '', 'log_filename': 'httpserver.log', 'args': [''], 'socket_timeout': 5, 'ssl_ca_certificate': None, 'scheduler': None, 'profiler_filename': None, 'ssl_private_key': '', 'password': '<ask>', 'request_queue_size': 5, 'ssl_certificate': '', 'cronjob': False, 'numthreads': None, 'quiet': False, 'interfaces': None, 'minthreads': None, 'timeout': 10, 'plain': False, 'nobanner': False}>"
p2041
asbasbasbag62
(g78
g64
NtRp2042
(dp2043
g67
(dp2044
sg76
g1952
sg69
(lp2045
g62
(g83
g64
NtRp2046
(dp2047
g67
(dp2048
g87
g88
ssg76
g2042
sg69
(lp2049
g974
asbag62
(g83
g64
NtRp2050
(dp2051
g67
(dp2052
g94
g95
ssg76
g2042
sg69
(lp2053
S':'
asbag62
(g83
g64
NtRp2054
(dp2055
g67
(dp2056
sg76
g2042
sg69
(lp2057
g62
(g63
g64
NtRp2058
(dp2059
g67
(dp2060
g75
I4
ssg76
g2054
sg69
(lp2061
S'set([])'
p2062
asbasbasbag62
(g78
g64
NtRp2063
(dp2064
g67
(dp2065
sg76
g1952
sg69
(lp2066
g62
(g83
g64
NtRp2067
(dp2068
g67
(dp2069
g87
g88
ssg76
g2063
sg69
(lp2070
g996
asbag62
(g83
g64
NtRp2071
(dp2072
g67
(dp2073
g94
g95
ssg76
g2063
sg69
(lp2074
S':'
asbag62
(g83
g64
NtRp2075
(dp2076
g67
(dp2077
sg76
g2063
sg69
(lp2078
g62
(g63
g64
NtRp2079
(dp2080
g67
(dp2081
g75
I4
ssg76
g2075
sg69
(lp2082
g105
asbasbasbag62
(g78
g64
NtRp2083
(dp2084
g67
(dp2085
sg76
g1952
sg69
(lp2086
g62
(g83
g64
NtRp2087
(dp2088
g67
(dp2089
g87
g88
ssg76
g2083
sg69
(lp2090
g1017
asbag62
(g83
g64
NtRp2091
(dp2092
g67
(dp2093
g94
g95
ssg76
g2083
sg69
(lp2094
S':'
asbag62
(g83
g64
NtRp2095
(dp2096
g67
(dp2097
sg76
g2083
sg69
(lp2098
g62
(g63
g64
NtRp2099
(dp2100
g67
(dp2101
g75
I4
ssg76
g2095
sg69
(lp2102
g1030
asbasbasbag62
(g78
g64
NtRp2103
(dp2104
g67
(dp2105
sg76
g1952
sg69
(lp2106
g62
(g83
g64
NtRp2107
(dp2108
g67
(dp2109
g87
g88
ssg76
g2103
sg69
(lp2110
g1257
asbag62
(g83
g64
NtRp2111
(dp2112
g67
(dp2113
g94
g95
ssg76
g2103
sg69
(lp2114
S':'
asbag62
(g83
g64
NtRp2115
(dp2116
g67
(dp2117
sg76
g2103
sg69
(lp2118
g62
(g63
g64
NtRp2119
(dp2120
g67
(dp2121
g75
I4
ssg76
g2115
sg69
(lp2122
g105
asbasbasbag62
(g78
g64
NtRp2123
(dp2124
g67
(dp2125
sg76
g1952
sg69
(lp2126
g62
(g83
g64
NtRp2127
(dp2128
g67
(dp2129
g87
g88
ssg76
g2123
sg69
(lp2130
g1278
asbag62
(g83
g64
NtRp2131
(dp2132
g67
(dp2133
g94
g95
ssg76
g2123
sg69
(lp2134
S':'
asbag62
(g83
g64
NtRp2135
(dp2136
g67
(dp2137
sg76
g2123
sg69
(lp2138
g62
(g63
g64
NtRp2139
(dp2140
g67
(dp2141
g75
I4
ssg76
g2135
sg69
(lp2142
g105
asbasbasbag62
(g78
g64
NtRp2143
(dp2144
g67
(dp2145
sg76
g1952
sg69
(lp2146
g62
(g83
g64
NtRp2147
(dp2148
g67
(dp2149
g87
g88
ssg76
g2143
sg69
(lp2150
g1516
asbag62
(g83
g64
NtRp2151
(dp2152
g67
(dp2153
g94
g95
ssg76
g2143
sg69
(lp2154
S':'
asbag62
(g83
g64
NtRp2155
(dp2156
g67
(dp2157
sg76
g2143
sg69
(lp2158
g62
(g63
g64
NtRp2159
(dp2160
g67
(dp2161
g75
I4
ssg76
g2155
sg69
(lp2162
g1529
asbasbasbag62
(g78
g64
NtRp2163
(dp2164
g67
(dp2165
sg76
g1952
sg69
(lp2166
g62
(g83
g64
NtRp2167
(dp2168
g67
(dp2169
g87
g88
ssg76
g2163
sg69
(lp2170
g1559
asbag62
(g83
g64
NtRp2171
(dp2172
g67
(dp2173
g94
g95
ssg76
g2163
sg69
(lp2174
S':'
asbag62
(g83
g64
NtRp2175
(dp2176
g67
(dp2177
sg76
g2163
sg69
(lp2178
g62
(g63
g64
NtRp2179
(dp2180
g67
(dp2181
g75
I4
ssg76
g2175
sg69
(lp2182
g62
(g71
g64
NtRp2183
(dp2184
g67
(dp2185
g75
I3
ssg76
Nsg69
(lp2186
g62
(g78
g64
NtRp2187
(dp2188
g67
(dp2189
sg76
g2183
sg69
(lp2190
g62
(g83
g64
NtRp2191
(dp2192
g67
(dp2193
sg76
g2187
sg69
(lp2194
g62
(g63
g64
NtRp2195
(dp2196
g67
(dp2197
g75
I3
ssg76
g2191
sg69
(lp2198
S'1'
asbasbasbag62
(g78
g64
NtRp2199
(dp2200
g67
(dp2201
sg76
g2183
sg69
(lp2202
g62
(g83
g64
NtRp2203
(dp2204
g67
(dp2205
sg76
g2199
sg69
(lp2206
g62
(g63
g64
NtRp2207
(dp2208
g67
(dp2209
g75
I3
ssg76
g2203
sg69
(lp2210
S'99'
p2211
asbasbasbag62
(g78
g64
NtRp2212
(dp2213
g67
(dp2214
sg76
g2183
sg69
(lp2215
g62
(g83
g64
NtRp2216
(dp2217
g67
(dp2218
sg76
g2212
sg69
(lp2219
g62
(g63
g64
NtRp2220
(dp2221
g67
(dp2222
g75
I3
ssg76
g2216
sg69
(lp2223
S'7'
asbasbasbag62
(g78
g64
NtRp2224
(dp2225
g67
(dp2226
sg76
g2183
sg69
(lp2227
g62
(g83
g64
NtRp2228
(dp2229
g67
(dp2230
sg76
g2224
sg69
(lp2231
g62
(g63
g64
NtRp2232
(dp2233
g67
(dp2234
g75
I3
ssg76
g2228
sg69
(lp2235
S'datetime.datetime(2012, 3, 4, 22, 12, 8)'
p2236
asbasbasbag62
(g78
g64
NtRp2237
(dp2238
g67
(dp2239
sg76
g2183
sg69
(lp2240
g62
(g83
g64
NtRp2241
(dp2242
g67
(dp2243
sg76
g2237
sg69
(lp2244
g62
(g63
g64
NtRp2245
(dp2246
g67
(dp2247
g75
I3
ssg76
g2241
sg69
(lp2248
g1638
asbasbasbasbasbasbasbasbasbasbasbag62
(g78
g64
NtRp2249
(dp2250
g67
(dp2251
sg76
g72
sg69
(lp2252
g62
(g83
g64
NtRp2253
(dp2254
g67
(dp2255
g87
g88
ssg76
g2249
sg69
(lp2256
S'is_https'
p2257
asbag62
(g83
g64
NtRp2258
(dp2259
g67
(dp2260
g94
g95
ssg76
g2249
sg69
(lp2261
S':'
asbag62
(g83
g64
NtRp2262
(dp2263
g67
(dp2264
sg76
g2249
sg69
(lp2265
g62
(g63
g64
NtRp2266
(dp2267
g67
(dp2268
g75
I5
ssg76
g2262
sg69
(lp2269
g105
asbasbasbag62
(g78
g64
NtRp2270
(dp2271
g67
(dp2272
sg76
g72
sg69
(lp2273
g62
(g83
g64
NtRp2274
(dp2275
g67
(dp2276
g87
g88
ssg76
g2270
sg69
(lp2277
S'is_local'
p2278
asbag62
(g83
g64
NtRp2279
(dp2280
g67
(dp2281
g94
g95
ssg76
g2270
sg69
(lp2282
S':'
asbag62
(g83
g64
NtRp2283
(dp2284
g67
(dp2285
sg76
g2270
sg69
(lp2286
g62
(g63
g64
NtRp2287
(dp2288
g67
(dp2289
g75
I5
ssg76
g2283
sg69
(lp2290
g1747
asbasbasbag62
(g78
g64
NtRp2291
(dp2292
g67
(dp2293
sg76
g72
sg69
(lp2294
g62
(g83
g64
NtRp2295
(dp2296
g67
(dp2297
g87
g88
ssg76
g2291
sg69
(lp2298
S'is_restful'
p2299
asbag62
(g83
g64
NtRp2300
(dp2301
g67
(dp2302
g94
g95
ssg76
g2291
sg69
(lp2303
S':'
asbag62
(g83
g64
NtRp2304
(dp2305
g67
(dp2306
sg76
g2291
sg69
(lp2307
g62
(g63
g64
NtRp2308
(dp2309
g67
(dp2310
g75
I5
ssg76
g2304
sg69
(lp2311
g105
asbasbasbag62
(g78
g64
NtRp2312
(dp2313
g67
(dp2314
sg76
g72
sg69
(lp2315
g62
(g83
g64
NtRp2316
(dp2317
g67
(dp2318
g87
g88
ssg76
g2312
sg69
(lp2319
S'now'
p2320
asbag62
(g83
g64
NtRp2321
(dp2322
g67
(dp2323
g94
g95
ssg76
g2312
sg69
(lp2324
S':'
asbag62
(g83
g64
NtRp2325
(dp2326
g67
(dp2327
sg76
g2312
sg69
(lp2328
g62
(g63
g64
NtRp2329
(dp2330
g67
(dp2331
g75
I5
ssg76
g2325
sg69
(lp2332
S'datetime.datetime(2012, 7, 5, 15, 23, 46, 953000)'
p2333
asbasbasbag62
(g78
g64
NtRp2334
(dp2335
g67
(dp2336
sg76
g72
sg69
(lp2337
g62
(g83
g64
NtRp2338
(dp2339
g67
(dp2340
g87
g88
ssg76
g2334
sg69
(lp2341
S'post_vars'
p2342
asbag62
(g83
g64
NtRp2343
(dp2344
g67
(dp2345
g94
g95
ssg76
g2334
sg69
(lp2346
S':'
asbag62
(g83
g64
NtRp2347
(dp2348
g67
(dp2349
sg76
g2334
sg69
(lp2350
g62
(g63
g64
NtRp2351
(dp2352
g67
(dp2353
g75
I5
ssg76
g2347
sg69
(lp2354
g62
(g71
g64
NtRp2355
(dp2356
g67
(dp2357
g75
I4
ssg76
Nsg69
(lp2358
g62
(g78
g64
NtRp2359
(dp2360
g67
(dp2361
sg76
g2355
sg69
(lp2362
g62
(g83
g64
NtRp2363
(dp2364
g67
(dp2365
g87
g88
ssg76
g2359
sg69
(lp2366
S'Upload_File'
p2367
asbag62
(g83
g64
NtRp2368
(dp2369
g67
(dp2370
g94
g95
ssg76
g2359
sg69
(lp2371
S':'
asbag62
(g83
g64
NtRp2372
(dp2373
g67
(dp2374
sg76
g2359
sg69
(lp2375
g62
(g63
g64
NtRp2376
(dp2377
g67
(dp2378
g75
I4
ssg76
g2372
sg69
(lp2379
S'FieldStorage object'
p2380
asbasbasbasbasbasbasbag62
(g78
g64
NtRp2381
(dp2382
g67
(dp2383
sg76
g72
sg69
(lp2384
g62
(g83
g64
NtRp2385
(dp2386
g67
(dp2387
g87
g88
ssg76
g2381
sg69
(lp2388
S'url'
p2389
asbag62
(g83
g64
NtRp2390
(dp2391
g67
(dp2392
g94
g95
ssg76
g2381
sg69
(lp2393
S':'
asbag62
(g83
g64
NtRp2394
(dp2395
g67
(dp2396
sg76
g2381
sg69
(lp2397
g62
(g63
g64
NtRp2398
(dp2399
g67
(dp2400
g75
I5
ssg76
g2394
sg69
(lp2401
S'/mycrawler/default/upload'
p2402
asbasbasbag62
(g78
g64
NtRp2403
(dp2404
g67
(dp2405
sg76
g72
sg69
(lp2406
g62
(g83
g64
NtRp2407
(dp2408
g67
(dp2409
g87
g88
ssg76
g2403
sg69
(lp2410
S'utcnow'
p2411
asbag62
(g83
g64
NtRp2412
(dp2413
g67
(dp2414
g94
g95
ssg76
g2403
sg69
(lp2415
S':'
asbag62
(g83
g64
NtRp2416
(dp2417
g67
(dp2418
sg76
g2403
sg69
(lp2419
g62
(g63
g64
NtRp2420
(dp2421
g67
(dp2422
g75
I5
ssg76
g2416
sg69
(lp2423
S'datetime.datetime(2012, 7, 5, 22, 23, 46, 953000)'
p2424
asbasbasbag62
(g78
g64
NtRp2425
(dp2426
g67
(dp2427
sg76
g72
sg69
(lp2428
g62
(g83
g64
NtRp2429
(dp2430
g67
(dp2431
g87
g88
ssg76
g2425
sg69
(lp2432
S'uuid'
p2433
asbag62
(g83
g64
NtRp2434
(dp2435
g67
(dp2436
g94
g95
ssg76
g2425
sg69
(lp2437
S':'
asbag62
(g83
g64
NtRp2438
(dp2439
g67
(dp2440
sg76
g2425
sg69
(lp2441
g62
(g63
g64
NtRp2442
(dp2443
g67
(dp2444
g75
I5
ssg76
g2438
sg69
(lp2445
S'mycrawler/127.0.0.1.2012-07-05.15-23-46.cdf90f88-cb82-4622-9996-8f0aefc72b10'
p2446
asbasbasbag62
(g78
g64
NtRp2447
(dp2448
g67
(dp2449
sg76
g72
sg69
(lp2450
g62
(g83
g64
NtRp2451
(dp2452
g67
(dp2453
g87
g88
ssg76
g2447
sg69
(lp2454
S'vars'
p2455
asbag62
(g83
g64
NtRp2456
(dp2457
g67
(dp2458
g94
g95
ssg76
g2447
sg69
(lp2459
S':'
asbag62
(g83
g64
NtRp2460
(dp2461
g67
(dp2462
sg76
g2447
sg69
(lp2463
g62
(g63
g64
NtRp2464
(dp2465
g67
(dp2466
g75
I5
ssg76
g2460
sg69
(lp2467
g62
(g71
g64
NtRp2468
(dp2469
g67
(dp2470
g75
I4
ssg76
Nsg69
(lp2471
g62
(g78
g64
NtRp2472
(dp2473
g67
(dp2474
sg76
g2468
sg69
(lp2475
g62
(g83
g64
NtRp2476
(dp2477
g67
(dp2478
g87
g88
ssg76
g2472
sg69
(lp2479
g2367
asbag62
(g83
g64
NtRp2480
(dp2481
g67
(dp2482
g94
g95
ssg76
g2472
sg69
(lp2483
S':'
asbag62
(g83
g64
NtRp2484
(dp2485
g67
(dp2486
sg76
g2472
sg69
(lp2487
g62
(g63
g64
NtRp2488
(dp2489
g67
(dp2490
g75
I4
ssg76
g2484
sg69
(lp2491
g2380
asbasbasbasbasbasbasbag62
(g78
g64
NtRp2492
(dp2493
g67
(dp2494
sg76
g72
sg69
(lp2495
g62
(g83
g64
NtRp2496
(dp2497
g67
(dp2498
g87
g88
ssg76
g2492
sg69
(lp2499
S'wsgi'
p2500
asbag62
(g83
g64
NtRp2501
(dp2502
g67
(dp2503
g94
g95
ssg76
g2492
sg69
(lp2504
S':'
asbag62
(g83
g64
NtRp2505
(dp2506
g67
(dp2507
sg76
g2492
sg69
(lp2508
g62
(g63
g64
NtRp2509
(dp2510
g67
(dp2511
g75
I5
ssg76
g2505
sg69
(lp2512
g62
(g71
g64
NtRp2513
(dp2514
g67
(dp2515
g75
I4
ssg76
Nsg69
(lp2516
g62
(g78
g64
NtRp2517
(dp2518
g67
(dp2519
sg76
g2513
sg69
(lp2520
g62
(g83
g64
NtRp2521
(dp2522
g67
(dp2523
g87
g88
ssg76
g2517
sg69
(lp2524
S'environ'
p2525
asbag62
(g83
g64
NtRp2526
(dp2527
g67
(dp2528
g94
g95
ssg76
g2517
sg69
(lp2529
S':'
asbag62
(g83
g64
NtRp2530
(dp2531
g67
(dp2532
sg76
g2517
sg69
(lp2533
g62
(g63
g64
NtRp2534
(dp2535
g67
(dp2536
g75
I4
ssg76
g2530
sg69
(lp2537
g62
(g71
g64
NtRp2538
(dp2539
g67
(dp2540
g75
I3
ssg76
Nsg69
(lp2541
g62
(g78
g64
NtRp2542
(dp2543
g67
(dp2544
sg76
g2538
sg69
(lp2545
g62
(g83
g64
NtRp2546
(dp2547
g67
(dp2548
g87
g88
ssg76
g2542
sg69
(lp2549
S'CONTENT_LENGTH'
p2550
asbag62
(g83
g64
NtRp2551
(dp2552
g67
(dp2553
g94
g95
ssg76
g2542
sg69
(lp2554
S':'
asbag62
(g83
g64
NtRp2555
(dp2556
g67
(dp2557
sg76
g2542
sg69
(lp2558
g62
(g63
g64
NtRp2559
(dp2560
g67
(dp2561
g75
I3
ssg76
g2555
sg69
(lp2562
g943
asbasbasbag62
(g78
g64
NtRp2563
(dp2564
g67
(dp2565
sg76
g2538
sg69
(lp2566
g62
(g83
g64
NtRp2567
(dp2568
g67
(dp2569
g87
g88
ssg76
g2563
sg69
(lp2570
S'CONTENT_TYPE'
p2571
asbag62
(g83
g64
NtRp2572
(dp2573
g67
(dp2574
g94
g95
ssg76
g2563
sg69
(lp2575
S':'
asbag62
(g83
g64
NtRp2576
(dp2577
g67
(dp2578
sg76
g2563
sg69
(lp2579
g62
(g63
g64
NtRp2580
(dp2581
g67
(dp2582
g75
I3
ssg76
g2576
sg69
(lp2583
g965
asbasbasbag62
(g78
g64
NtRp2584
(dp2585
g67
(dp2586
sg76
g2538
sg69
(lp2587
g62
(g83
g64
NtRp2588
(dp2589
g67
(dp2590
g87
g88
ssg76
g2584
sg69
(lp2591
S'HTTP_ACCEPT'
p2592
asbag62
(g83
g64
NtRp2593
(dp2594
g67
(dp2595
g94
g95
ssg76
g2584
sg69
(lp2596
S':'
asbag62
(g83
g64
NtRp2597
(dp2598
g67
(dp2599
sg76
g2584
sg69
(lp2600
g62
(g63
g64
NtRp2601
(dp2602
g67
(dp2603
g75
I3
ssg76
g2597
sg69
(lp2604
g1052
asbasbasbag62
(g78
g64
NtRp2605
(dp2606
g67
(dp2607
sg76
g2538
sg69
(lp2608
g62
(g83
g64
NtRp2609
(dp2610
g67
(dp2611
g87
g88
ssg76
g2605
sg69
(lp2612
S'HTTP_ACCEPT_ENCODING'
p2613
asbag62
(g83
g64
NtRp2614
(dp2615
g67
(dp2616
g94
g95
ssg76
g2605
sg69
(lp2617
S':'
asbag62
(g83
g64
NtRp2618
(dp2619
g67
(dp2620
sg76
g2605
sg69
(lp2621
g62
(g63
g64
NtRp2622
(dp2623
g67
(dp2624
g75
I3
ssg76
g2618
sg69
(lp2625
g1074
asbasbasbag62
(g78
g64
NtRp2626
(dp2627
g67
(dp2628
sg76
g2538
sg69
(lp2629
g62
(g83
g64
NtRp2630
(dp2631
g67
(dp2632
g87
g88
ssg76
g2626
sg69
(lp2633
S'HTTP_ACCEPT_LANGUAGE'
p2634
asbag62
(g83
g64
NtRp2635
(dp2636
g67
(dp2637
g94
g95
ssg76
g2626
sg69
(lp2638
S':'
asbag62
(g83
g64
NtRp2639
(dp2640
g67
(dp2641
sg76
g2626
sg69
(lp2642
g62
(g63
g64
NtRp2643
(dp2644
g67
(dp2645
g75
I3
ssg76
g2639
sg69
(lp2646
g1096
asbasbasbag62
(g78
g64
NtRp2647
(dp2648
g67
(dp2649
sg76
g2538
sg69
(lp2650
g62
(g83
g64
NtRp2651
(dp2652
g67
(dp2653
g87
g88
ssg76
g2647
sg69
(lp2654
S'HTTP_CONNECTION'
p2655
asbag62
(g83
g64
NtRp2656
(dp2657
g67
(dp2658
g94
g95
ssg76
g2647
sg69
(lp2659
S':'
asbag62
(g83
g64
NtRp2660
(dp2661
g67
(dp2662
sg76
g2647
sg69
(lp2663
g62
(g63
g64
NtRp2664
(dp2665
g67
(dp2666
g75
I3
ssg76
g2660
sg69
(lp2667
g1118
asbasbasbag62
(g78
g64
NtRp2668
(dp2669
g67
(dp2670
sg76
g2538
sg69
(lp2671
g62
(g83
g64
NtRp2672
(dp2673
g67
(dp2674
g87
g88
ssg76
g2668
sg69
(lp2675
S'HTTP_CONTENT_LENGTH'
p2676
asbag62
(g83
g64
NtRp2677
(dp2678
g67
(dp2679
g94
g95
ssg76
g2668
sg69
(lp2680
S':'
asbag62
(g83
g64
NtRp2681
(dp2682
g67
(dp2683
sg76
g2668
sg69
(lp2684
g62
(g63
g64
NtRp2685
(dp2686
g67
(dp2687
g75
I3
ssg76
g2681
sg69
(lp2688
g943
asbasbasbag62
(g78
g64
NtRp2689
(dp2690
g67
(dp2691
sg76
g2538
sg69
(lp2692
g62
(g83
g64
NtRp2693
(dp2694
g67
(dp2695
g87
g88
ssg76
g2689
sg69
(lp2696
S'HTTP_CONTENT_TYPE'
p2697
asbag62
(g83
g64
NtRp2698
(dp2699
g67
(dp2700
g94
g95
ssg76
g2689
sg69
(lp2701
S':'
asbag62
(g83
g64
NtRp2702
(dp2703
g67
(dp2704
sg76
g2689
sg69
(lp2705
g62
(g63
g64
NtRp2706
(dp2707
g67
(dp2708
g75
I3
ssg76
g2702
sg69
(lp2709
g965
asbasbasbag62
(g78
g64
NtRp2710
(dp2711
g67
(dp2712
sg76
g2538
sg69
(lp2713
g62
(g83
g64
NtRp2714
(dp2715
g67
(dp2716
g87
g88
ssg76
g2710
sg69
(lp2717
S'HTTP_COOKIE'
p2718
asbag62
(g83
g64
NtRp2719
(dp2720
g67
(dp2721
g94
g95
ssg76
g2710
sg69
(lp2722
S':'
asbag62
(g83
g64
NtRp2723
(dp2724
g67
(dp2725
sg76
g2710
sg69
(lp2726
g62
(g63
g64
NtRp2727
(dp2728
g67
(dp2729
g75
I3
ssg76
g2723
sg69
(lp2730
g1182
asbasbasbag62
(g78
g64
NtRp2731
(dp2732
g67
(dp2733
sg76
g2538
sg69
(lp2734
g62
(g83
g64
NtRp2735
(dp2736
g67
(dp2737
g87
g88
ssg76
g2731
sg69
(lp2738
S'HTTP_HOST'
p2739
asbag62
(g83
g64
NtRp2740
(dp2741
g67
(dp2742
g94
g95
ssg76
g2731
sg69
(lp2743
S':'
asbag62
(g83
g64
NtRp2744
(dp2745
g67
(dp2746
sg76
g2731
sg69
(lp2747
g62
(g63
g64
NtRp2748
(dp2749
g67
(dp2750
g75
I3
ssg76
g2744
sg69
(lp2751
g1204
asbasbasbag62
(g78
g64
NtRp2752
(dp2753
g67
(dp2754
sg76
g2538
sg69
(lp2755
g62
(g83
g64
NtRp2756
(dp2757
g67
(dp2758
g87
g88
ssg76
g2752
sg69
(lp2759
S'HTTP_REFERER'
p2760
asbag62
(g83
g64
NtRp2761
(dp2762
g67
(dp2763
g94
g95
ssg76
g2752
sg69
(lp2764
S':'
asbag62
(g83
g64
NtRp2765
(dp2766
g67
(dp2767
sg76
g2752
sg69
(lp2768
g62
(g63
g64
NtRp2769
(dp2770
g67
(dp2771
g75
I3
ssg76
g2765
sg69
(lp2772
g1226
asbasbasbag62
(g78
g64
NtRp2773
(dp2774
g67
(dp2775
sg76
g2538
sg69
(lp2776
g62
(g83
g64
NtRp2777
(dp2778
g67
(dp2779
g87
g88
ssg76
g2773
sg69
(lp2780
S'HTTP_USER_AGENT'
p2781
asbag62
(g83
g64
NtRp2782
(dp2783
g67
(dp2784
g94
g95
ssg76
g2773
sg69
(lp2785
S':'
asbag62
(g83
g64
NtRp2786
(dp2787
g67
(dp2788
sg76
g2773
sg69
(lp2789
g62
(g63
g64
NtRp2790
(dp2791
g67
(dp2792
g75
I3
ssg76
g2786
sg69
(lp2793
g1248
asbasbasbag62
(g78
g64
NtRp2794
(dp2795
g67
(dp2796
sg76
g2538
sg69
(lp2797
g62
(g83
g64
NtRp2798
(dp2799
g67
(dp2800
g87
g88
ssg76
g2794
sg69
(lp2801
S'PATH_INFO'
p2802
asbag62
(g83
g64
NtRp2803
(dp2804
g67
(dp2805
g94
g95
ssg76
g2794
sg69
(lp2806
S':'
asbag62
(g83
g64
NtRp2807
(dp2808
g67
(dp2809
sg76
g2794
sg69
(lp2810
g62
(g63
g64
NtRp2811
(dp2812
g67
(dp2813
g75
I3
ssg76
g2807
sg69
(lp2814
g1312
asbasbasbag62
(g78
g64
NtRp2815
(dp2816
g67
(dp2817
sg76
g2538
sg69
(lp2818
g62
(g83
g64
NtRp2819
(dp2820
g67
(dp2821
g87
g88
ssg76
g2815
sg69
(lp2822
S'QUERY_STRING'
p2823
asbag62
(g83
g64
NtRp2824
(dp2825
g67
(dp2826
g94
g95
ssg76
g2815
sg69
(lp2827
S':'
asbag62
(g83
g64
NtRp2828
(dp2829
g67
(dp2830
sg76
g2815
sg69
(lp2831
g62
(g63
g64
NtRp2832
(dp2833
g67
(dp2834
g75
I3
ssg76
g2828
sg69
(lp2835
S''
asbasbasbag62
(g78
g64
NtRp2836
(dp2837
g67
(dp2838
sg76
g2538
sg69
(lp2839
g62
(g83
g64
NtRp2840
(dp2841
g67
(dp2842
g87
g88
ssg76
g2836
sg69
(lp2843
S'REMOTE_ADDR'
p2844
asbag62
(g83
g64
NtRp2845
(dp2846
g67
(dp2847
g94
g95
ssg76
g2836
sg69
(lp2848
S':'
asbag62
(g83
g64
NtRp2849
(dp2850
g67
(dp2851
sg76
g2836
sg69
(lp2852
g62
(g63
g64
NtRp2853
(dp2854
g67
(dp2855
g75
I3
ssg76
g2849
sg69
(lp2856
g195
asbasbasbag62
(g78
g64
NtRp2857
(dp2858
g67
(dp2859
sg76
g2538
sg69
(lp2860
g62
(g83
g64
NtRp2861
(dp2862
g67
(dp2863
g87
g88
ssg76
g2857
sg69
(lp2864
S'REMOTE_PORT'
p2865
asbag62
(g83
g64
NtRp2866
(dp2867
g67
(dp2868
g94
g95
ssg76
g2857
sg69
(lp2869
S':'
asbag62
(g83
g64
NtRp2870
(dp2871
g67
(dp2872
sg76
g2857
sg69
(lp2873
g62
(g63
g64
NtRp2874
(dp2875
g67
(dp2876
g75
I3
ssg76
g2870
sg69
(lp2877
g1376
asbasbasbag62
(g78
g64
NtRp2878
(dp2879
g67
(dp2880
sg76
g2538
sg69
(lp2881
g62
(g83
g64
NtRp2882
(dp2883
g67
(dp2884
g87
g88
ssg76
g2878
sg69
(lp2885
S'REQUEST_METHOD'
p2886
asbag62
(g83
g64
NtRp2887
(dp2888
g67
(dp2889
g94
g95
ssg76
g2878
sg69
(lp2890
S':'
asbag62
(g83
g64
NtRp2891
(dp2892
g67
(dp2893
sg76
g2878
sg69
(lp2894
g62
(g63
g64
NtRp2895
(dp2896
g67
(dp2897
g75
I3
ssg76
g2891
sg69
(lp2898
g1398
asbasbasbag62
(g78
g64
NtRp2899
(dp2900
g67
(dp2901
sg76
g2538
sg69
(lp2902
g62
(g83
g64
NtRp2903
(dp2904
g67
(dp2905
g87
g88
ssg76
g2899
sg69
(lp2906
S'SCRIPT_NAME'
p2907
asbag62
(g83
g64
NtRp2908
(dp2909
g67
(dp2910
g94
g95
ssg76
g2899
sg69
(lp2911
S':'
asbag62
(g83
g64
NtRp2912
(dp2913
g67
(dp2914
sg76
g2899
sg69
(lp2915
g62
(g63
g64
NtRp2916
(dp2917
g67
(dp2918
g75
I3
ssg76
g2912
sg69
(lp2919
S''
asbasbasbag62
(g78
g64
NtRp2920
(dp2921
g67
(dp2922
sg76
g2538
sg69
(lp2923
g62
(g83
g64
NtRp2924
(dp2925
g67
(dp2926
g87
g88
ssg76
g2920
sg69
(lp2927
S'SERVER_NAME'
p2928
asbag62
(g83
g64
NtRp2929
(dp2930
g67
(dp2931
g94
g95
ssg76
g2920
sg69
(lp2932
S':'
asbag62
(g83
g64
NtRp2933
(dp2934
g67
(dp2935
sg76
g2920
sg69
(lp2936
g62
(g63
g64
NtRp2937
(dp2938
g67
(dp2939
g75
I3
ssg76
g2933
sg69
(lp2940
g1441
asbasbasbag62
(g78
g64
NtRp2941
(dp2942
g67
(dp2943
sg76
g2538
sg69
(lp2944
g62
(g83
g64
NtRp2945
(dp2946
g67
(dp2947
g87
g88
ssg76
g2941
sg69
(lp2948
S'SERVER_PORT'
p2949
asbag62
(g83
g64
NtRp2950
(dp2951
g67
(dp2952
g94
g95
ssg76
g2941
sg69
(lp2953
S':'
asbag62
(g83
g64
NtRp2954
(dp2955
g67
(dp2956
sg76
g2941
sg69
(lp2957
g62
(g63
g64
NtRp2958
(dp2959
g67
(dp2960
g75
I3
ssg76
g2954
sg69
(lp2961
g1463
asbasbasbag62
(g78
g64
NtRp2962
(dp2963
g67
(dp2964
sg76
g2538
sg69
(lp2965
g62
(g83
g64
NtRp2966
(dp2967
g67
(dp2968
g87
g88
ssg76
g2962
sg69
(lp2969
S'SERVER_PROTOCOL'
p2970
asbag62
(g83
g64
NtRp2971
(dp2972
g67
(dp2973
g94
g95
ssg76
g2962
sg69
(lp2974
S':'
asbag62
(g83
g64
NtRp2975
(dp2976
g67
(dp2977
sg76
g2962
sg69
(lp2978
g62
(g63
g64
NtRp2979
(dp2980
g67
(dp2981
g75
I3
ssg76
g2975
sg69
(lp2982
g1485
asbasbasbag62
(g78
g64
NtRp2983
(dp2984
g67
(dp2985
sg76
g2538
sg69
(lp2986
g62
(g83
g64
NtRp2987
(dp2988
g67
(dp2989
g87
g88
ssg76
g2983
sg69
(lp2990
S'SERVER_SOFTWARE'
p2991
asbag62
(g83
g64
NtRp2992
(dp2993
g67
(dp2994
g94
g95
ssg76
g2983
sg69
(lp2995
S':'
asbag62
(g83
g64
NtRp2996
(dp2997
g67
(dp2998
sg76
g2983
sg69
(lp2999
g62
(g63
g64
NtRp3000
(dp3001
g67
(dp3002
g75
I3
ssg76
g2996
sg69
(lp3003
g1507
asbasbasbag62
(g78
g64
NtRp3004
(dp3005
g67
(dp3006
sg76
g2538
sg69
(lp3007
g62
(g83
g64
NtRp3008
(dp3009
g67
(dp3010
g87
g88
ssg76
g3004
sg69
(lp3011
S'wsgi.errors'
p3012
asbag62
(g83
g64
NtRp3013
(dp3014
g67
(dp3015
g94
g95
ssg76
g3004
sg69
(lp3016
S':'
asbag62
(g83
g64
NtRp3017
(dp3018
g67
(dp3019
sg76
g3004
sg69
(lp3020
g62
(g63
g64
NtRp3021
(dp3022
g67
(dp3023
g75
I3
ssg76
g3017
sg69
(lp3024
S"<open file '<stderr>', mode 'w' at 0x00A550D0>"
p3025
asbasbasbag62
(g78
g64
NtRp3026
(dp3027
g67
(dp3028
sg76
g2538
sg69
(lp3029
g62
(g83
g64
NtRp3030
(dp3031
g67
(dp3032
g87
g88
ssg76
g3026
sg69
(lp3033
S'wsgi.file_wrapper'
p3034
asbag62
(g83
g64
NtRp3035
(dp3036
g67
(dp3037
g94
g95
ssg76
g3026
sg69
(lp3038
S':'
asbag62
(g83
g64
NtRp3039
(dp3040
g67
(dp3041
sg76
g3026
sg69
(lp3042
g62
(g63
g64
NtRp3043
(dp3044
g67
(dp3045
g75
I3
ssg76
g3039
sg69
(lp3046
S'<class wsgiref.util.FileWrapper at 0x015E8AB0>'
p3047
asbasbasbag62
(g78
g64
NtRp3048
(dp3049
g67
(dp3050
sg76
g2538
sg69
(lp3051
g62
(g83
g64
NtRp3052
(dp3053
g67
(dp3054
g87
g88
ssg76
g3048
sg69
(lp3055
S'wsgi.input'
p3056
asbag62
(g83
g64
NtRp3057
(dp3058
g67
(dp3059
g94
g95
ssg76
g3048
sg69
(lp3060
S':'
asbag62
(g83
g64
NtRp3061
(dp3062
g67
(dp3063
sg76
g3048
sg69
(lp3064
g62
(g63
g64
NtRp3065
(dp3066
g67
(dp3067
g75
I3
ssg76
g3061
sg69
(lp3068
S"<open file '<fdopen>', mode 'w+b' at 0x051E09C0>"
p3069
asbasbasbag62
(g78
g64
NtRp3070
(dp3071
g67
(dp3072
sg76
g2538
sg69
(lp3073
g62
(g83
g64
NtRp3074
(dp3075
g67
(dp3076
g87
g88
ssg76
g3070
sg69
(lp3077
S'wsgi.multiprocess'
p3078
asbag62
(g83
g64
NtRp3079
(dp3080
g67
(dp3081
g94
g95
ssg76
g3070
sg69
(lp3082
S':'
asbag62
(g83
g64
NtRp3083
(dp3084
g67
(dp3085
sg76
g3070
sg69
(lp3086
g62
(g63
g64
NtRp3087
(dp3088
g67
(dp3089
g75
I3
ssg76
g3083
sg69
(lp3090
g105
asbasbasbag62
(g78
g64
NtRp3091
(dp3092
g67
(dp3093
sg76
g2538
sg69
(lp3094
g62
(g83
g64
NtRp3095
(dp3096
g67
(dp3097
g87
g88
ssg76
g3091
sg69
(lp3098
S'wsgi.multithread'
p3099
asbag62
(g83
g64
NtRp3100
(dp3101
g67
(dp3102
g94
g95
ssg76
g3091
sg69
(lp3103
S':'
asbag62
(g83
g64
NtRp3104
(dp3105
g67
(dp3106
sg76
g3091
sg69
(lp3107
g62
(g63
g64
NtRp3108
(dp3109
g67
(dp3110
g75
I3
ssg76
g3104
sg69
(lp3111
g1747
asbasbasbag62
(g78
g64
NtRp3112
(dp3113
g67
(dp3114
sg76
g2538
sg69
(lp3115
g62
(g83
g64
NtRp3116
(dp3117
g67
(dp3118
g87
g88
ssg76
g3112
sg69
(lp3119
S'wsgi.run_once'
p3120
asbag62
(g83
g64
NtRp3121
(dp3122
g67
(dp3123
g94
g95
ssg76
g3112
sg69
(lp3124
S':'
asbag62
(g83
g64
NtRp3125
(dp3126
g67
(dp3127
sg76
g3112
sg69
(lp3128
g62
(g63
g64
NtRp3129
(dp3130
g67
(dp3131
g75
I3
ssg76
g3125
sg69
(lp3132
g105
asbasbasbag62
(g78
g64
NtRp3133
(dp3134
g67
(dp3135
sg76
g2538
sg69
(lp3136
g62
(g83
g64
NtRp3137
(dp3138
g67
(dp3139
g87
g88
ssg76
g3133
sg69
(lp3140
S'wsgi.url_scheme'
p3141
asbag62
(g83
g64
NtRp3142
(dp3143
g67
(dp3144
g94
g95
ssg76
g3133
sg69
(lp3145
S':'
asbag62
(g83
g64
NtRp3146
(dp3147
g67
(dp3148
sg76
g3133
sg69
(lp3149
g62
(g63
g64
NtRp3150
(dp3151
g67
(dp3152
g75
I3
ssg76
g3146
sg69
(lp3153
g1790
asbasbasbag62
(g78
g64
NtRp3154
(dp3155
g67
(dp3156
sg76
g2538
sg69
(lp3157
g62
(g83
g64
NtRp3158
(dp3159
g67
(dp3160
g87
g88
ssg76
g3154
sg69
(lp3161
S'wsgi.version'
p3162
asbag62
(g83
g64
NtRp3163
(dp3164
g67
(dp3165
g94
g95
ssg76
g3154
sg69
(lp3166
S':'
asbag62
(g83
g64
NtRp3167
(dp3168
g67
(dp3169
sg76
g3154
sg69
(lp3170
g62
(g63
g64
NtRp3171
(dp3172
g67
(dp3173
g75
I3
ssg76
g3167
sg69
(lp3174
S'1'
asbasbasbasbasbasbasbasbasbasbasbasbasbsS'frames'
p3175
(lp3176
(dp3177
S'file'
p3178
S'C:\\Documents and Settings\\agrover\\Desktop\\previous crawler\\web2py\\gluon\\restricted.py'
p3179
sS'dump'
p3180
(dp3181
S'environment'
p3182
S"{'A': <class 'gluon.html.A'>, 'Auth': <class 'gluon.tools.Auth'>, 'B': <class 'gluon.html.B'>, 'BEAUTIFY': <class 'gluon.html.BEAUTIFY'>, 'BODY': <class 'gluon.html.BODY'>, 'BR': <class 'gluon.html.BR'>, 'BUTTON': <class 'gluon.html.BUTTON'>, 'CAT': <class 'gluon.html.CAT'>, 'CENTER': <class 'gluon.html.CENTER'>, 'CLEANUP': <class 'gluon.validators.CLEANUP'>, ...}"
p3183
sS'ccode'
p3184
S'<code object <module> at 0568CDA0, file "C:\\Docu...tions\\mycrawler\\controllers/default.py", line 11>'
p3185
ssS'lnum'
p3186
I205
sS'lines'
p3187
(dp3188
I200
S'    try:'
p3189
sI201
S'        if type(code) == types.CodeType:'
p3190
sI202
S'            ccode = code'
p3191
sI203
S'        else:'
p3192
sI204
S'            ccode = compile2(code,layer)'
p3193
sI205
S'        exec ccode in environment'
p3194
sI206
S'    except HTTP:'
p3195
sI207
S'        raise'
p3196
sI208
S'    except RestrictedError:'
p3197
sI209
S'        # do not encapsulate (obfuscate) the original RestrictedError'
p3198
ssS'call'
p3199
S"(code='# -*- coding: utf-8 -*-\\n# this file is released ...urrent)\\n\\nresponse._vars=response._caller(upload)\\n', environment={'A': <class 'gluon.html.A'>, 'Auth': <class 'gluon.tools.Auth'>, 'B': <class 'gluon.html.B'>, 'BEAUTIFY': <class 'gluon.html.BEAUTIFY'>, 'BODY': <class 'gluon.html.BODY'>, 'BR': <class 'gluon.html.BR'>, 'BUTTON': <class 'gluon.html.BUTTON'>, 'CAT': <class 'gluon.html.CAT'>, 'CENTER': <class 'gluon.html.CENTER'>, 'CLEANUP': <class 'gluon.validators.CLEANUP'>, ...}, layer=r'C:\\Documents and Settings\\agrover\\Desktop\\previo...2py\\applications\\mycrawler\\controllers/default.py')"
p3200
sS'func'
p3201
S'restricted'
p3202
sa(dp3203
g3178
S'C:\\Documents and Settings\\agrover\\Desktop\\previous crawler\\web2py\\applications\\mycrawler\\controllers\\default.py'
p3204
sg3180
(dp3205
sg3186
I636
sg3187
(dp3206
I625
S'    #for i in range(1,10):'
p3207
sI626
S"    #    spamWriter.writerow([name[i].encode('utf-8'),titl[i],current[i],location[i],industry[i],view_profile[i]])"
p3208
sI627
S''
sI628
S''
sI629
S'    #,titl[i],current[i],location[i],industry[i],view_profile[i]'
p3209
sI630
S"    #response.headers['Content-Type'] = 'text/csv'"
p3210
sI631
S"    #response.headers['Content-Disposition'] = 'attachment; filename=%s' % request.vars.File_Name"
p3211
sI632
S''
sI633
S''
sI634
S'    #return dict(view_profile=view_profile,name=name,location=location,industry=industry,titl=titl,current=current)'
p3212
ssg3199
S'()'
p3213
sg3201
S'<module>'
p3214
sa(dp3215
g3178
S'C:\\Documents and Settings\\agrover\\Desktop\\previous crawler\\web2py\\gluon\\globals.py'
p3216
sg3180
(dp3217
S'self'
p3218
S'undefined'
p3219
sS'f'
S'<function upload>'
p3220
ssg3186
I173
sg3187
(dp3221
I168
S'        self.menu = []             # used by the default view layout'
p3222
sI169
S'        self.files = []            # used by web2py_ajax.html'
p3223
sI170
S'        self.generic_patterns = [] # patterns to allow generic views'
p3224
sI171
S"        self.delimiters = ('{{','}}')"
p3225
sI172
S'        self._vars = None'
p3226
sI173
S'        self._caller = lambda f: f()'
p3227
sI174
S'        self._view_environment = None'
p3228
sI175
S'        self._custom_commit = None'
p3229
sI176
S'        self._custom_rollback = None'
p3230
sI177
S''
ssg3199
S'(f=<function upload>)'
p3231
sg3201
S'<lambda>'
p3232
sa(dp3233
g3178
S'C:\\Documents and Settings\\agrover\\Desktop\\previous crawler\\web2py\\applications\\mycrawler\\controllers\\default.py'
p3234
sg3180
(dp3235
sg3186
I557
sg3187
(dp3236
I552
S'    global c_response'
p3237
sI553
S'    form = SQLFORM(db.files)'
p3238
sI554
S'    if form.process().accepted:'
p3239
sI555
S'       response.flash = form.vars.Upload_File'
p3240
sI556
S'       fname=form.vars.Upload_File'
p3241
sI557
S'       temp()'
p3242
sI558
S'    elif form.errors:'
p3243
sI559
S"       response.flash = 'form has errors'"
p3244
sI560
S''
sI561
S''
ssg3199
S'()'
p3245
sg3201
S'upload'
p3246
sa(dp3247
g3178
S'C:\\Documents and Settings\\agrover\\Desktop\\previous crawler\\web2py\\applications\\mycrawler\\controllers\\default.py'
p3248
sg3180
(dp3249
sg3186
I569
sg3187
(dp3250
I564
S'def temp():'
p3251
sI565
S'    global c_response'
p3252
sI566
S'    c_response = cStringIO.StringIO()'
p3253
sI567
S"    writer = csv.writer(c_response, delimiter=',')"
p3254
sI568
S"    k='C:\\\\Documents and Settings\\\\agrover\\\\Desktop\\\\previous crawler\\\\web2py\\\\applications\\\\mycrawler\\\\uploads\\\\'+fname"
p3255
sI569
S"    o=open(k, 'rb')"
p3256
sI570
S"    reader = csv.reader(o, delimiter=',')"
p3257
sI571
S"    redirect(URL(r=request,f='temp'))"
p3258
sI572
S'    for row in reader:'
p3259
sI573
S'       writer.writerow(row)'
p3260
ssg3199
S'()'
p3261
sg3201
S'temp'
p3262
sasS'pyver'
p3263
S'Python 2.7.3: C:\\Python27\\python.exe'
p3264
sS'session'
p3265
g62
(g63
g64
NtRp3266
(dp3267
g67
(dp3268
sg69
(lp3269
g62
(g71
g64
NtRp3270
(dp3271
g67
(dp3272
g75
I5
ssg76
Nsg69
(lp3273
g62
(g78
g64
NtRp3274
(dp3275
g67
(dp3276
sg76
g3270
sg69
(lp3277
g62
(g83
g64
NtRp3278
(dp3279
g67
(dp3280
g87
g88
ssg76
g3274
sg69
(lp3281
S'password'
p3282
asbag62
(g83
g64
NtRp3283
(dp3284
g67
(dp3285
g94
g95
ssg76
g3274
sg69
(lp3286
S':'
asbag62
(g83
g64
NtRp3287
(dp3288
g67
(dp3289
sg76
g3274
sg69
(lp3290
g62
(g63
g64
NtRp3291
(dp3292
g67
(dp3293
g75
I5
ssg76
g3287
sg69
(lp3294
S'modeln@1234'
p3295
asbasbasbag62
(g78
g64
NtRp3296
(dp3297
g67
(dp3298
sg76
g3270
sg69
(lp3299
g62
(g83
g64
NtRp3300
(dp3301
g67
(dp3302
g87
g88
ssg76
g3296
sg69
(lp3303
S'username'
p3304
asbag62
(g83
g64
NtRp3305
(dp3306
g67
(dp3307
g94
g95
ssg76
g3296
sg69
(lp3308
S':'
asbag62
(g83
g64
NtRp3309
(dp3310
g67
(dp3311
sg76
g3296
sg69
(lp3312
g62
(g63
g64
NtRp3313
(dp3314
g67
(dp3315
g75
I5
ssg76
g3309
sg69
(lp3316
S'mrigeshgaurav@gmail.com'
p3317
asbasbasbasbasbsS'etype'
p3318
S"<type 'exceptions.IOError'>"
p3319
sS'date'
p3320
S'Thu Jul 05 15:23:46 2012'
p3321
sS'response'
p3322
g62
(g63
g64
NtRp3323
(dp3324
g67
(dp3325
sg69
(lp3326
g62
(g71
g64
NtRp3327
(dp3328
g67
(dp3329
g75
I5
ssg76
Nsg69
(lp3330
g62
(g78
g64
NtRp3331
(dp3332
g67
(dp3333
sg76
g3327
sg69
(lp3334
g62
(g83
g64
NtRp3335
(dp3336
g67
(dp3337
g87
g88
ssg76
g3331
sg69
(lp3338
g160
asbag62
(g83
g64
NtRp3339
(dp3340
g67
(dp3341
g94
g95
ssg76
g3331
sg69
(lp3342
S':'
asbag62
(g83
g64
NtRp3343
(dp3344
g67
(dp3345
sg76
g3331
sg69
(lp3346
g62
(g63
g64
NtRp3347
(dp3348
g67
(dp3349
g75
I5
ssg76
g3343
sg69
(lp3350
S'<cStringIO.StringO object at 0x01B3CE00>'
p3351
asbasbasbag62
(g78
g64
NtRp3352
(dp3353
g67
(dp3354
sg76
g3327
sg69
(lp3355
g62
(g83
g64
NtRp3356
(dp3357
g67
(dp3358
g87
g88
ssg76
g3352
sg69
(lp3359
g226
asbag62
(g83
g64
NtRp3360
(dp3361
g67
(dp3362
g94
g95
ssg76
g3352
sg69
(lp3363
S':'
asbag62
(g83
g64
NtRp3364
(dp3365
g67
(dp3366
sg76
g3352
sg69
(lp3367
g62
(g63
g64
NtRp3368
(dp3369
g67
(dp3370
g75
I5
ssg76
g3364
sg69
(lp3371
g62
(g71
g64
NtRp3372
(dp3373
g67
(dp3374
g75
I4
ssg76
Nsg69
(lp3375
g62
(g78
g64
NtRp3376
(dp3377
g67
(dp3378
sg76
g3372
sg69
(lp3379
g62
(g83
g64
NtRp3380
(dp3381
g67
(dp3382
g87
g88
ssg76
g3376
sg69
(lp3383
S'session_id_mycrawler'
p3384
asbag62
(g83
g64
NtRp3385
(dp3386
g67
(dp3387
g94
g95
ssg76
g3376
sg69
(lp3388
S':'
asbag62
(g83
g64
NtRp3389
(dp3390
g67
(dp3391
sg76
g3376
sg69
(lp3392
g62
(g63
g64
NtRp3393
(dp3394
g67
(dp3395
g75
I4
ssg76
g3389
sg69
(lp3396
g62
(g71
g64
NtRp3397
(dp3398
g67
(dp3399
g75
I3
ssg76
Nsg69
(lp3400
g62
(g78
g64
NtRp3401
(dp3402
g67
(dp3403
sg76
g3397
sg69
(lp3404
g62
(g83
g64
NtRp3405
(dp3406
g67
(dp3407
g87
g88
ssg76
g3401
sg69
(lp3408
g276
asbag62
(g83
g64
NtRp3409
(dp3410
g67
(dp3411
g94
g95
ssg76
g3401
sg69
(lp3412
S':'
asbag62
(g83
g64
NtRp3413
(dp3414
g67
(dp3415
sg76
g3401
sg69
(lp3416
g62
(g63
g64
NtRp3417
(dp3418
g67
(dp3419
g75
I3
ssg76
g3413
sg69
(lp3420
S''
asbasbasbag62
(g78
g64
NtRp3421
(dp3422
g67
(dp3423
sg76
g3397
sg69
(lp3424
g62
(g83
g64
NtRp3425
(dp3426
g67
(dp3427
g87
g88
ssg76
g3421
sg69
(lp3428
g297
asbag62
(g83
g64
NtRp3429
(dp3430
g67
(dp3431
g94
g95
ssg76
g3421
sg69
(lp3432
S':'
asbag62
(g83
g64
NtRp3433
(dp3434
g67
(dp3435
sg76
g3421
sg69
(lp3436
g62
(g63
g64
NtRp3437
(dp3438
g67
(dp3439
g75
I3
ssg76
g3433
sg69
(lp3440
S''
asbasbasbag62
(g78
g64
NtRp3441
(dp3442
g67
(dp3443
sg76
g3397
sg69
(lp3444
g62
(g83
g64
NtRp3445
(dp3446
g67
(dp3447
g87
g88
ssg76
g3441
sg69
(lp3448
g318
asbag62
(g83
g64
NtRp3449
(dp3450
g67
(dp3451
g94
g95
ssg76
g3441
sg69
(lp3452
S':'
asbag62
(g83
g64
NtRp3453
(dp3454
g67
(dp3455
sg76
g3441
sg69
(lp3456
g62
(g63
g64
NtRp3457
(dp3458
g67
(dp3459
g75
I3
ssg76
g3453
sg69
(lp3460
S''
asbasbasbag62
(g78
g64
NtRp3461
(dp3462
g67
(dp3463
sg76
g3397
sg69
(lp3464
g62
(g83
g64
NtRp3465
(dp3466
g67
(dp3467
g87
g88
ssg76
g3461
sg69
(lp3468
g339
asbag62
(g83
g64
NtRp3469
(dp3470
g67
(dp3471
g94
g95
ssg76
g3461
sg69
(lp3472
S':'
asbag62
(g83
g64
NtRp3473
(dp3474
g67
(dp3475
sg76
g3461
sg69
(lp3476
g62
(g63
g64
NtRp3477
(dp3478
g67
(dp3479
g75
I3
ssg76
g3473
sg69
(lp3480
S''
asbasbasbag62
(g78
g64
NtRp3481
(dp3482
g67
(dp3483
sg76
g3397
sg69
(lp3484
g62
(g83
g64
NtRp3485
(dp3486
g67
(dp3487
g87
g88
ssg76
g3481
sg69
(lp3488
g360
asbag62
(g83
g64
NtRp3489
(dp3490
g67
(dp3491
g94
g95
ssg76
g3481
sg69
(lp3492
S':'
asbag62
(g83
g64
NtRp3493
(dp3494
g67
(dp3495
sg76
g3481
sg69
(lp3496
g62
(g63
g64
NtRp3497
(dp3498
g67
(dp3499
g75
I3
ssg76
g3493
sg69
(lp3500
S''
asbasbasbag62
(g78
g64
NtRp3501
(dp3502
g67
(dp3503
sg76
g3397
sg69
(lp3504
g62
(g83
g64
NtRp3505
(dp3506
g67
(dp3507
g87
g88
ssg76
g3501
sg69
(lp3508
g381
asbag62
(g83
g64
NtRp3509
(dp3510
g67
(dp3511
g94
g95
ssg76
g3501
sg69
(lp3512
S':'
asbag62
(g83
g64
NtRp3513
(dp3514
g67
(dp3515
sg76
g3501
sg69
(lp3516
g62
(g63
g64
NtRp3517
(dp3518
g67
(dp3519
g75
I3
ssg76
g3513
sg69
(lp3520
S'/'
asbasbasbag62
(g78
g64
NtRp3521
(dp3522
g67
(dp3523
sg76
g3397
sg69
(lp3524
g62
(g83
g64
NtRp3525
(dp3526
g67
(dp3527
g87
g88
ssg76
g3521
sg69
(lp3528
g402
asbag62
(g83
g64
NtRp3529
(dp3530
g67
(dp3531
g94
g95
ssg76
g3521
sg69
(lp3532
S':'
asbag62
(g83
g64
NtRp3533
(dp3534
g67
(dp3535
sg76
g3521
sg69
(lp3536
g62
(g63
g64
NtRp3537
(dp3538
g67
(dp3539
g75
I3
ssg76
g3533
sg69
(lp3540
S''
asbasbasbag62
(g78
g64
NtRp3541
(dp3542
g67
(dp3543
sg76
g3397
sg69
(lp3544
g62
(g83
g64
NtRp3545
(dp3546
g67
(dp3547
g87
g88
ssg76
g3541
sg69
(lp3548
g423
asbag62
(g83
g64
NtRp3549
(dp3550
g67
(dp3551
g94
g95
ssg76
g3541
sg69
(lp3552
S':'
asbag62
(g83
g64
NtRp3553
(dp3554
g67
(dp3555
sg76
g3541
sg69
(lp3556
g62
(g63
g64
NtRp3557
(dp3558
g67
(dp3559
g75
I3
ssg76
g3553
sg69
(lp3560
S''
asbasbasbasbasbasbasbasbasbasbasbag62
(g78
g64
NtRp3561
(dp3562
g67
(dp3563
sg76
g3327
sg69
(lp3564
g62
(g83
g64
NtRp3565
(dp3566
g67
(dp3567
g87
g88
ssg76
g3561
sg69
(lp3568
S'delimiters'
p3569
asbag62
(g83
g64
NtRp3570
(dp3571
g67
(dp3572
g94
g95
ssg76
g3561
sg69
(lp3573
S':'
asbag62
(g83
g64
NtRp3574
(dp3575
g67
(dp3576
sg76
g3561
sg69
(lp3577
g62
(g63
g64
NtRp3578
(dp3579
g67
(dp3580
g75
I5
ssg76
g3574
sg69
(lp3581
g62
(g71
g64
NtRp3582
(dp3583
g67
(dp3584
g75
I4
ssg76
Nsg69
(lp3585
g62
(g78
g64
NtRp3586
(dp3587
g67
(dp3588
sg76
g3582
sg69
(lp3589
g62
(g83
g64
NtRp3590
(dp3591
g67
(dp3592
sg76
g3586
sg69
(lp3593
g62
(g63
g64
NtRp3594
(dp3595
g67
(dp3596
g75
I4
ssg76
g3590
sg69
(lp3597
S'{{'
p3598
asbasbasbag62
(g78
g64
NtRp3599
(dp3600
g67
(dp3601
sg76
g3582
sg69
(lp3602
g62
(g83
g64
NtRp3603
(dp3604
g67
(dp3605
sg76
g3599
sg69
(lp3606
g62
(g63
g64
NtRp3607
(dp3608
g67
(dp3609
g75
I4
ssg76
g3603
sg69
(lp3610
S'}}'
p3611
asbasbasbasbasbasbasbag62
(g78
g64
NtRp3612
(dp3613
g67
(dp3614
sg76
g3327
sg69
(lp3615
g62
(g83
g64
NtRp3616
(dp3617
g67
(dp3618
g87
g88
ssg76
g3612
sg69
(lp3619
S'files'
p3620
asbag62
(g83
g64
NtRp3621
(dp3622
g67
(dp3623
g94
g95
ssg76
g3612
sg69
(lp3624
S':'
asbag62
(g83
g64
NtRp3625
(dp3626
g67
(dp3627
sg76
g3612
sg69
(lp3628
g62
(g63
g64
NtRp3629
(dp3630
g67
(dp3631
g75
I5
ssg76
g3625
sg69
(lp3632
g62
(g71
g64
NtRp3633
(dp3634
g67
(dp3635
g75
I4
ssg76
Nsg69
(lp3636
sbasbasbasbag62
(g78
g64
NtRp3637
(dp3638
g67
(dp3639
sg76
g3327
sg69
(lp3640
g62
(g83
g64
NtRp3641
(dp3642
g67
(dp3643
g87
g88
ssg76
g3637
sg69
(lp3644
S'flash'
p3645
asbag62
(g83
g64
NtRp3646
(dp3647
g67
(dp3648
g94
g95
ssg76
g3637
sg69
(lp3649
S':'
asbag62
(g83
g64
NtRp3650
(dp3651
g67
(dp3652
sg76
g3637
sg69
(lp3653
g62
(g63
g64
NtRp3654
(dp3655
g67
(dp3656
g75
I5
ssg76
g3650
sg69
(lp3657
S'files.Upload_File.9fe2d2b372741d8f.617070656e64636f6d70616e796e616d652e7079.py'
p3658
asbasbasbag62
(g78
g64
NtRp3659
(dp3660
g67
(dp3661
sg76
g3327
sg69
(lp3662
g62
(g83
g64
NtRp3663
(dp3664
g67
(dp3665
g87
g88
ssg76
g3659
sg69
(lp3666
S'generic_patterns'
p3667
asbag62
(g83
g64
NtRp3668
(dp3669
g67
(dp3670
g94
g95
ssg76
g3659
sg69
(lp3671
S':'
asbag62
(g83
g64
NtRp3672
(dp3673
g67
(dp3674
sg76
g3659
sg69
(lp3675
g62
(g63
g64
NtRp3676
(dp3677
g67
(dp3678
g75
I5
ssg76
g3672
sg69
(lp3679
g62
(g71
g64
NtRp3680
(dp3681
g67
(dp3682
g75
I4
ssg76
Nsg69
(lp3683
g62
(g78
g64
NtRp3684
(dp3685
g67
(dp3686
sg76
g3680
sg69
(lp3687
g62
(g83
g64
NtRp3688
(dp3689
g67
(dp3690
sg76
g3684
sg69
(lp3691
g62
(g63
g64
NtRp3692
(dp3693
g67
(dp3694
g75
I4
ssg76
g3688
sg69
(lp3695
S'*'
asbasbasbasbasbasbasbag62
(g78
g64
NtRp3696
(dp3697
g67
(dp3698
sg76
g3327
sg69
(lp3699
g62
(g83
g64
NtRp3700
(dp3701
g67
(dp3702
g87
g88
ssg76
g3696
sg69
(lp3703
S'headers'
p3704
asbag62
(g83
g64
NtRp3705
(dp3706
g67
(dp3707
g94
g95
ssg76
g3696
sg69
(lp3708
S':'
asbag62
(g83
g64
NtRp3709
(dp3710
g67
(dp3711
sg76
g3696
sg69
(lp3712
g62
(g63
g64
NtRp3713
(dp3714
g67
(dp3715
g75
I5
ssg76
g3709
sg69
(lp3716
g62
(g71
g64
NtRp3717
(dp3718
g67
(dp3719
g75
I4
ssg76
Nsg69
(lp3720
g62
(g78
g64
NtRp3721
(dp3722
g67
(dp3723
sg76
g3717
sg69
(lp3724
g62
(g83
g64
NtRp3725
(dp3726
g67
(dp3727
g87
g88
ssg76
g3721
sg69
(lp3728
S'Cache-Control'
p3729
asbag62
(g83
g64
NtRp3730
(dp3731
g67
(dp3732
g94
g95
ssg76
g3721
sg69
(lp3733
S':'
asbag62
(g83
g64
NtRp3734
(dp3735
g67
(dp3736
sg76
g3721
sg69
(lp3737
g62
(g63
g64
NtRp3738
(dp3739
g67
(dp3740
g75
I4
ssg76
g3734
sg69
(lp3741
S'no-store, no-cache, must-revalidate, post-check=0, pre-check=0'
p3742
asbasbasbag62
(g78
g64
NtRp3743
(dp3744
g67
(dp3745
sg76
g3717
sg69
(lp3746
g62
(g83
g64
NtRp3747
(dp3748
g67
(dp3749
g87
g88
ssg76
g3743
sg69
(lp3750
S'Content-Type'
p3751
asbag62
(g83
g64
NtRp3752
(dp3753
g67
(dp3754
g94
g95
ssg76
g3743
sg69
(lp3755
S':'
asbag62
(g83
g64
NtRp3756
(dp3757
g67
(dp3758
sg76
g3743
sg69
(lp3759
g62
(g63
g64
NtRp3760
(dp3761
g67
(dp3762
g75
I4
ssg76
g3756
sg69
(lp3763
S'text/html; charset=utf-8'
p3764
asbasbasbag62
(g78
g64
NtRp3765
(dp3766
g67
(dp3767
sg76
g3717
sg69
(lp3768
g62
(g83
g64
NtRp3769
(dp3770
g67
(dp3771
g87
g88
ssg76
g3765
sg69
(lp3772
S'Expires'
p3773
asbag62
(g83
g64
NtRp3774
(dp3775
g67
(dp3776
g94
g95
ssg76
g3765
sg69
(lp3777
S':'
asbag62
(g83
g64
NtRp3778
(dp3779
g67
(dp3780
sg76
g3765
sg69
(lp3781
g62
(g63
g64
NtRp3782
(dp3783
g67
(dp3784
g75
I4
ssg76
g3778
sg69
(lp3785
S'Thu, 05 Jul 2012 22:23:46 GMT'
p3786
asbasbasbag62
(g78
g64
NtRp3787
(dp3788
g67
(dp3789
sg76
g3717
sg69
(lp3790
g62
(g83
g64
NtRp3791
(dp3792
g67
(dp3793
g87
g88
ssg76
g3787
sg69
(lp3794
S'Pragma'
p3795
asbag62
(g83
g64
NtRp3796
(dp3797
g67
(dp3798
g94
g95
ssg76
g3787
sg69
(lp3799
S':'
asbag62
(g83
g64
NtRp3800
(dp3801
g67
(dp3802
sg76
g3787
sg69
(lp3803
g62
(g63
g64
NtRp3804
(dp3805
g67
(dp3806
g75
I4
ssg76
g3800
sg69
(lp3807
S'no-cache'
p3808
asbasbasbag62
(g78
g64
NtRp3809
(dp3810
g67
(dp3811
sg76
g3717
sg69
(lp3812
g62
(g83
g64
NtRp3813
(dp3814
g67
(dp3815
g87
g88
ssg76
g3809
sg69
(lp3816
S'X-Powered-By'
p3817
asbag62
(g83
g64
NtRp3818
(dp3819
g67
(dp3820
g94
g95
ssg76
g3809
sg69
(lp3821
S':'
asbag62
(g83
g64
NtRp3822
(dp3823
g67
(dp3824
sg76
g3809
sg69
(lp3825
g62
(g63
g64
NtRp3826
(dp3827
g67
(dp3828
g75
I4
ssg76
g3822
sg69
(lp3829
S'web2py'
p3830
asbasbasbasbasbasbasbag62
(g78
g64
NtRp3831
(dp3832
g67
(dp3833
sg76
g3327
sg69
(lp3834
g62
(g83
g64
NtRp3835
(dp3836
g67
(dp3837
g87
g88
ssg76
g3831
sg69
(lp3838
S'menu'
p3839
asbag62
(g83
g64
NtRp3840
(dp3841
g67
(dp3842
g94
g95
ssg76
g3831
sg69
(lp3843
S':'
asbag62
(g83
g64
NtRp3844
(dp3845
g67
(dp3846
sg76
g3831
sg69
(lp3847
g62
(g63
g64
NtRp3848
(dp3849
g67
(dp3850
g75
I5
ssg76
g3844
sg69
(lp3851
g62
(g71
g64
NtRp3852
(dp3853
g67
(dp3854
g75
I4
ssg76
Nsg69
(lp3855
g62
(g78
g64
NtRp3856
(dp3857
g67
(dp3858
sg76
g3852
sg69
(lp3859
g62
(g83
g64
NtRp3860
(dp3861
g67
(dp3862
sg76
g3856
sg69
(lp3863
g62
(g63
g64
NtRp3864
(dp3865
g67
(dp3866
g75
I4
ssg76
g3860
sg69
(lp3867
g62
(g71
g64
NtRp3868
(dp3869
g67
(dp3870
g75
I3
ssg76
Nsg69
(lp3871
g62
(g78
g64
NtRp3872
(dp3873
g67
(dp3874
sg76
g3868
sg69
(lp3875
g62
(g83
g64
NtRp3876
(dp3877
g67
(dp3878
sg76
g3872
sg69
(lp3879
g62
(g63
g64
NtRp3880
(dp3881
g67
(dp3882
g75
I3
ssg76
g3876
sg69
(lp3883
cgluon.languages
lazyT_unpickle
p3884
(S't\x04\x00\x00\x00Home'
tRp3885
asbasbasbag62
(g78
g64
NtRp3886
(dp3887
g67
(dp3888
sg76
g3868
sg69
(lp3889
g62
(g83
g64
NtRp3890
(dp3891
g67
(dp3892
sg76
g3886
sg69
(lp3893
g62
(g63
g64
NtRp3894
(dp3895
g67
(dp3896
g75
I3
ssg76
g3890
sg69
(lp3897
g105
asbasbasbag62
(g78
g64
NtRp3898
(dp3899
g67
(dp3900
sg76
g3868
sg69
(lp3901
g62
(g83
g64
NtRp3902
(dp3903
g67
(dp3904
sg76
g3898
sg69
(lp3905
g62
(g63
g64
NtRp3906
(dp3907
g67
(dp3908
g75
I3
ssg76
g3902
sg69
(lp3909
S'/mycrawler/default/index'
p3910
asbasbasbag62
(g78
g64
NtRp3911
(dp3912
g67
(dp3913
sg76
g3868
sg69
(lp3914
g62
(g83
g64
NtRp3915
(dp3916
g67
(dp3917
sg76
g3911
sg69
(lp3918
g62
(g63
g64
NtRp3919
(dp3920
g67
(dp3921
g75
I3
ssg76
g3915
sg69
(lp3922
g62
(g71
g64
NtRp3923
(dp3924
g67
(dp3925
g75
I2
ssg76
Nsg69
(lp3926
sbasbasbasbasbasbasbasbag62
(g78
g64
NtRp3927
(dp3928
g67
(dp3929
sg76
g3852
sg69
(lp3930
g62
(g83
g64
NtRp3931
(dp3932
g67
(dp3933
sg76
g3927
sg69
(lp3934
g62
(g63
g64
NtRp3935
(dp3936
g67
(dp3937
g75
I4
ssg76
g3931
sg69
(lp3938
g62
(g71
g64
NtRp3939
(dp3940
g67
(dp3941
g75
I3
ssg76
Nsg69
(lp3942
g62
(g78
g64
NtRp3943
(dp3944
g67
(dp3945
sg76
g3939
sg69
(lp3946
g62
(g83
g64
NtRp3947
(dp3948
g67
(dp3949
sg76
g3943
sg69
(lp3950
g62
(g63
g64
NtRp3951
(dp3952
g67
(dp3953
g75
I3
ssg76
g3947
sg69
(lp3954
g62
(cgluon.html
SPAN
p3955
g64
NtRp3956
(dp3957
g67
(dp3958
g87
S'color:yellow'
p3959
ssg76
Nsg69
(lp3960
g3830
asbasbasbasbag62
(g78
g64
NtRp3961
(dp3962
g67
(dp3963
sg76
g3939
sg69
(lp3964
g62
(g83
g64
NtRp3965
(dp3966
g67
(dp3967
sg76
g3961
sg69
(lp3968
g62
(g63
g64
NtRp3969
(dp3970
g67
(dp3971
g75
I3
ssg76
g3965
sg69
(lp3972
g105
asbasbasbag62
(g78
g64
NtRp3973
(dp3974
g67
(dp3975
sg76
g3939
sg69
(lp3976
g62
(g83
g64
NtRp3977
(dp3978
g67
(dp3979
sg76
g3973
sg69
(lp3980
g62
(g63
g64
NtRp3981
(dp3982
g67
(dp3983
g75
I3
ssg76
g3977
sg69
(lp3984
S'None'
p3985
asbasbasbag62
(g78
g64
NtRp3986
(dp3987
g67
(dp3988
sg76
g3939
sg69
(lp3989
g62
(g83
g64
NtRp3990
(dp3991
g67
(dp3992
sg76
g3986
sg69
(lp3993
g62
(g63
g64
NtRp3994
(dp3995
g67
(dp3996
g75
I3
ssg76
g3990
sg69
(lp3997
g62
(g71
g64
NtRp3998
(dp3999
g67
(dp4000
g75
I2
ssg76
Nsg69
(lp4001
g62
(g78
g64
NtRp4002
(dp4003
g67
(dp4004
sg76
g3998
sg69
(lp4005
g62
(g83
g64
NtRp4006
(dp4007
g67
(dp4008
sg76
g4002
sg69
(lp4009
g62
(g63
g64
NtRp4010
(dp4011
g67
(dp4012
g75
I2
ssg76
g4006
sg69
(lp4013
g62
(g71
g64
NtRp4014
(dp4015
g67
(dp4016
g75
I1
ssg76
Nsg69
(lp4017
g62
(g78
g64
NtRp4018
(dp4019
g67
(dp4020
sg76
g4014
sg69
(lp4021
g62
(g83
g64
NtRp4022
(dp4023
g67
(dp4024
sg76
g4018
sg69
(lp4025
g62
(g63
g64
NtRp4026
(dp4027
g67
(dp4028
g75
I1
ssg76
g4022
sg69
(lp4029
g3884
(S's\x08\x00\x00\x00My Sites'
tRp4030
asbasbasbag62
(g78
g64
NtRp4031
(dp4032
g67
(dp4033
sg76
g4014
sg69
(lp4034
g62
(g83
g64
NtRp4035
(dp4036
g67
(dp4037
sg76
g4031
sg69
(lp4038
g62
(g63
g64
NtRp4039
(dp4040
g67
(dp4041
g75
I1
ssg76
g4035
sg69
(lp4042
I00
asbasbasbag62
(g78
g64
NtRp4043
(dp4044
g67
(dp4045
sg76
g4014
sg69
(lp4046
g62
(g83
g64
NtRp4047
(dp4048
g67
(dp4049
sg76
g4043
sg69
(lp4050
g62
(g63
g64
NtRp4051
(dp4052
g67
(dp4053
g75
I1
ssg76
g4047
sg69
(lp4054
S'/admin/default/site'
p4055
asbasbasbasbasbasbasbag62
(g78
g64
NtRp4056
(dp4057
g67
(dp4058
sg76
g3998
sg69
(lp4059
g62
(g83
g64
NtRp4060
(dp4061
g67
(dp4062
sg76
g4056
sg69
(lp4063
g62
(g63
g64
NtRp4064
(dp4065
g67
(dp4066
g75
I2
ssg76
g4060
sg69
(lp4067
g62
(g71
g64
NtRp4068
(dp4069
g67
(dp4070
g75
I1
ssg76
Nsg69
(lp4071
g62
(g78
g64
NtRp4072
(dp4073
g67
(dp4074
sg76
g4068
sg69
(lp4075
g62
(g83
g64
NtRp4076
(dp4077
g67
(dp4078
sg76
g4072
sg69
(lp4079
g62
(g63
g64
NtRp4080
(dp4081
g67
(dp4082
g75
I1
ssg76
g4076
sg69
(lp4083
g3884
(S's\x08\x00\x00\x00This App'
tRp4084
asbasbasbag62
(g78
g64
NtRp4085
(dp4086
g67
(dp4087
sg76
g4068
sg69
(lp4088
g62
(g83
g64
NtRp4089
(dp4090
g67
(dp4091
sg76
g4085
sg69
(lp4092
g62
(g63
g64
NtRp4093
(dp4094
g67
(dp4095
g75
I1
ssg76
g4089
sg69
(lp4096
I00
asbasbasbag62
(g78
g64
NtRp4097
(dp4098
g67
(dp4099
sg76
g4068
sg69
(lp4100
g62
(g83
g64
NtRp4101
(dp4102
g67
(dp4103
sg76
g4097
sg69
(lp4104
g62
(g63
g64
NtRp4105
(dp4106
g67
(dp4107
g75
I1
ssg76
g4101
sg69
(lp4108
S'/admin/default/design/mycrawler'
p4109
asbasbasbag62
(g78
g64
NtRp4110
(dp4111
g67
(dp4112
sg76
g4068
sg69
(lp4113
g62
(g83
g64
NtRp4114
(dp4115
g67
(dp4116
sg76
g4110
sg69
(lp4117
g62
(g63
g64
NtRp4118
(dp4119
g67
(dp4120
g75
I1
ssg76
g4114
sg69
(lp4121
(lp4122
(g3884
(S't\n\x00\x00\x00Controller'
tRp4123
I00
S'/admin/default/edit/mycrawler/controllers/default.py'
tp4124
a(g3884
(S't\x04\x00\x00\x00View'
tRp4125
I00
S'/admin/default/edit/mycrawler/views/default/upload.html'
tp4126
a(g3884
(S't\x06\x00\x00\x00Layout'
tRp4127
I00
S'/admin/default/edit/mycrawler/views/layout.html'
tp4128
a(g3884
(S't\n\x00\x00\x00Stylesheet'
tRp4129
I00
S'/admin/default/edit/mycrawler/static/css/web2py.css'
tp4130
a(g3884
(S's\x08\x00\x00\x00DB Model'
tRp4131
I00
S'/admin/default/edit/mycrawler/models/db.py'
tp4132
a(g3884
(S's\n\x00\x00\x00Menu Model'
tRp4133
I00
S'/admin/default/edit/mycrawler/models/menu.py'
tp4134
a(g3884
(S't\x08\x00\x00\x00Database'
tRp4135
I00
S'/mycrawler/appadmin/index'
tp4136
a(g3884
(S't\x06\x00\x00\x00Errors'
tRp4137
I00
S'/admin/default/errors/mycrawler'
tp4138
a(g3884
(S't\x05\x00\x00\x00About'
tRp4139
I00
S'/admin/default/about/mycrawler'
tp4140
aasbasbasbasbasbasbasbag62
(g78
g64
NtRp4141
(dp4142
g67
(dp4143
sg76
g3998
sg69
(lp4144
g62
(g83
g64
NtRp4145
(dp4146
g67
(dp4147
sg76
g4141
sg69
(lp4148
g62
(g63
g64
NtRp4149
(dp4150
g67
(dp4151
g75
I2
ssg76
g4145
sg69
(lp4152
g62
(g71
g64
NtRp4153
(dp4154
g67
(dp4155
g75
I1
ssg76
Nsg69
(lp4156
g62
(g78
g64
NtRp4157
(dp4158
g67
(dp4159
sg76
g4153
sg69
(lp4160
g62
(g83
g64
NtRp4161
(dp4162
g67
(dp4163
sg76
g4157
sg69
(lp4164
g62
(g63
g64
NtRp4165
(dp4166
g67
(dp4167
g75
I1
ssg76
g4161
sg69
(lp4168
S'web2py.com'
p4169
asbasbasbag62
(g78
g64
NtRp4170
(dp4171
g67
(dp4172
sg76
g4153
sg69
(lp4173
g62
(g83
g64
NtRp4174
(dp4175
g67
(dp4176
sg76
g4170
sg69
(lp4177
g62
(g63
g64
NtRp4178
(dp4179
g67
(dp4180
g75
I1
ssg76
g4174
sg69
(lp4181
I00
asbasbasbag62
(g78
g64
NtRp4182
(dp4183
g67
(dp4184
sg76
g4153
sg69
(lp4185
g62
(g83
g64
NtRp4186
(dp4187
g67
(dp4188
sg76
g4182
sg69
(lp4189
g62
(g63
g64
NtRp4190
(dp4191
g67
(dp4192
g75
I1
ssg76
g4186
sg69
(lp4193
S'http://www.web2py.com'
p4194
asbasbasbag62
(g78
g64
NtRp4195
(dp4196
g67
(dp4197
sg76
g4153
sg69
(lp4198
g62
(g83
g64
NtRp4199
(dp4200
g67
(dp4201
sg76
g4195
sg69
(lp4202
g62
(g63
g64
NtRp4203
(dp4204
g67
(dp4205
g75
I1
ssg76
g4199
sg69
(lp4206
(lp4207
(g3884
(S't\x08\x00\x00\x00Download'
tRp4208
I00
S'http://www.web2py.com/examples/default/download'
p4209
tp4210
a(g3884
(S't\x07\x00\x00\x00Support'
tRp4211
I00
S'http://www.web2py.com/examples/default/support'
p4212
tp4213
a(g3884
(S't\x04\x00\x00\x00Demo'
tRp4214
I00
S'http://web2py.com/demo_admin'
p4215
tp4216
a(g3884
(S's\x0e\x00\x00\x00Quick Examples'
tRp4217
I00
S'http://web2py.com/examples/default/examples'
p4218
tp4219
a(g3884
(S't\x03\x00\x00\x00FAQ'
tRp4220
I00
S'http://web2py.com/AlterEgo'
p4221
tp4222
a(g3884
(S't\x06\x00\x00\x00Videos'
tRp4223
I00
S'http://www.web2py.com/examples/default/videos/'
p4224
tp4225
a(g3884
(S's\x11\x00\x00\x00Free Applications'
tRp4226
I00
S'http://web2py.com/appliances'
p4227
tp4228
a(g3884
(S't\x07\x00\x00\x00Plugins'
tRp4229
I00
S'http://web2py.com/plugins'
p4230
tp4231
a(g3884
(S't\x07\x00\x00\x00Layouts'
tRp4232
I00
S'http://web2py.com/layouts'
p4233
tp4234
a(g3884
(S't\x07\x00\x00\x00Recipes'
tRp4235
I00
S'http://web2pyslices.com/'
p4236
tp4237
a(g3884
(S't\x08\x00\x00\x00Semantic'
tRp4238
I00
S'http://web2py.com/semantic'
p4239
tp4240
aasbasbasbasbasbasbasbag62
(g78
g64
NtRp4241
(dp4242
g67
(dp4243
sg76
g3998
sg69
(lp4244
g62
(g83
g64
NtRp4245
(dp4246
g67
(dp4247
sg76
g4241
sg69
(lp4248
g62
(g63
g64
NtRp4249
(dp4250
g67
(dp4251
g75
I2
ssg76
g4245
sg69
(lp4252
g62
(g71
g64
NtRp4253
(dp4254
g67
(dp4255
g75
I1
ssg76
Nsg69
(lp4256
g62
(g78
g64
NtRp4257
(dp4258
g67
(dp4259
sg76
g4253
sg69
(lp4260
g62
(g83
g64
NtRp4261
(dp4262
g67
(dp4263
sg76
g4257
sg69
(lp4264
g62
(g63
g64
NtRp4265
(dp4266
g67
(dp4267
g75
I1
ssg76
g4261
sg69
(lp4268
g3884
(S't\r\x00\x00\x00Documentation'
tRp4269
asbasbasbag62
(g78
g64
NtRp4270
(dp4271
g67
(dp4272
sg76
g4253
sg69
(lp4273
g62
(g83
g64
NtRp4274
(dp4275
g67
(dp4276
sg76
g4270
sg69
(lp4277
g62
(g63
g64
NtRp4278
(dp4279
g67
(dp4280
g75
I1
ssg76
g4274
sg69
(lp4281
I00
asbasbasbag62
(g78
g64
NtRp4282
(dp4283
g67
(dp4284
sg76
g4253
sg69
(lp4285
g62
(g83
g64
NtRp4286
(dp4287
g67
(dp4288
sg76
g4282
sg69
(lp4289
g62
(g63
g64
NtRp4290
(dp4291
g67
(dp4292
g75
I1
ssg76
g4286
sg69
(lp4293
S'http://www.web2py.com/book'
p4294
asbasbasbag62
(g78
g64
NtRp4295
(dp4296
g67
(dp4297
sg76
g4253
sg69
(lp4298
g62
(g83
g64
NtRp4299
(dp4300
g67
(dp4301
sg76
g4295
sg69
(lp4302
g62
(g63
g64
NtRp4303
(dp4304
g67
(dp4305
g75
I1
ssg76
g4299
sg69
(lp4306
(lp4307
(g3884
(S't\x07\x00\x00\x00Preface'
tRp4308
I00
S'http://www.web2py.com/book/default/chapter/00'
p4309
tp4310
a(g3884
(S't\x0c\x00\x00\x00Introduction'
tRp4311
I00
S'http://www.web2py.com/book/default/chapter/01'
p4312
tp4313
a(g3884
(S't\x06\x00\x00\x00Python'
tRp4314
I00
S'http://www.web2py.com/book/default/chapter/02'
p4315
tp4316
a(g3884
(S't\x08\x00\x00\x00Overview'
tRp4317
I00
S'http://www.web2py.com/book/default/chapter/03'
p4318
tp4319
a(g3884
(S's\x08\x00\x00\x00The Core'
tRp4320
I00
S'http://www.web2py.com/book/default/chapter/04'
p4321
tp4322
a(g3884
(S's\t\x00\x00\x00The Views'
tRp4323
I00
S'http://www.web2py.com/book/default/chapter/05'
p4324
tp4325
a(g3884
(S't\x08\x00\x00\x00Database'
tRp4326
I00
S'http://www.web2py.com/book/default/chapter/06'
p4327
tp4328
a(g3884
(S's\x14\x00\x00\x00Forms and Validators'
tRp4329
I00
S'http://www.web2py.com/book/default/chapter/07'
p4330
tp4331
a(g3884
(S's\r\x00\x00\x00Email and SMS'
tRp4332
I00
S'http://www.web2py.com/book/default/chapter/08'
p4333
tp4334
a(g3884
(S's\x0e\x00\x00\x00Access Control'
tRp4335
I00
S'http://www.web2py.com/book/default/chapter/09'
p4336
tp4337
a(g3884
(S't\x08\x00\x00\x00Services'
tRp4338
I00
S'http://www.web2py.com/book/default/chapter/10'
p4339
tp4340
a(g3884
(S's\x0c\x00\x00\x00Ajax Recipes'
tRp4341
I00
S'http://www.web2py.com/book/default/chapter/11'
p4342
tp4343
a(g3884
(S's\x16\x00\x00\x00Components and Plugins'
tRp4344
I00
S'http://www.web2py.com/book/default/chapter/12'
p4345
tp4346
a(g3884
(S's\x12\x00\x00\x00Deployment Recipes'
tRp4347
I00
S'http://www.web2py.com/book/default/chapter/13'
p4348
tp4349
a(g3884
(S's\r\x00\x00\x00Other Recipes'
tRp4350
I00
S'http://www.web2py.com/book/default/chapter/14'
p4351
tp4352
a(g3884
(S's\r\x00\x00\x00Buy this book'
tRp4353
I00
S'http://stores.lulu.com/web2py'
p4354
tp4355
aasbasbasbasbasbasbasbag62
(g78
g64
NtRp4356
(dp4357
g67
(dp4358
sg76
g3998
sg69
(lp4359
g62
(g83
g64
NtRp4360
(dp4361
g67
(dp4362
sg76
g4356
sg69
(lp4363
g62
(g63
g64
NtRp4364
(dp4365
g67
(dp4366
g75
I2
ssg76
g4360
sg69
(lp4367
g62
(g71
g64
NtRp4368
(dp4369
g67
(dp4370
g75
I1
ssg76
Nsg69
(lp4371
g62
(g78
g64
NtRp4372
(dp4373
g67
(dp4374
sg76
g4368
sg69
(lp4375
g62
(g83
g64
NtRp4376
(dp4377
g67
(dp4378
sg76
g4372
sg69
(lp4379
g62
(g63
g64
NtRp4380
(dp4381
g67
(dp4382
g75
I1
ssg76
g4376
sg69
(lp4383
g3884
(S't\t\x00\x00\x00Community'
tRp4384
asbasbasbag62
(g78
g64
NtRp4385
(dp4386
g67
(dp4387
sg76
g4368
sg69
(lp4388
g62
(g83
g64
NtRp4389
(dp4390
g67
(dp4391
sg76
g4385
sg69
(lp4392
g62
(g63
g64
NtRp4393
(dp4394
g67
(dp4395
g75
I1
ssg76
g4389
sg69
(lp4396
I00
asbasbasbag62
(g78
g64
NtRp4397
(dp4398
g67
(dp4399
sg76
g4368
sg69
(lp4400
g62
(g83
g64
NtRp4401
(dp4402
g67
(dp4403
sg76
g4397
sg69
(lp4404
g62
(g63
g64
NtRp4405
(dp4406
g67
(dp4407
g75
I1
ssg76
g4401
sg69
(lp4408
Nasbasbasbag62
(g78
g64
NtRp4409
(dp4410
g67
(dp4411
sg76
g4368
sg69
(lp4412
g62
(g83
g64
NtRp4413
(dp4414
g67
(dp4415
sg76
g4409
sg69
(lp4416
g62
(g63
g64
NtRp4417
(dp4418
g67
(dp4419
g75
I1
ssg76
g4413
sg69
(lp4420
(lp4421
(g3884
(S't\x06\x00\x00\x00Groups'
tRp4422
I00
S'http://www.web2py.com/examples/default/usergroups'
p4423
tp4424
a(g3884
(S't\x07\x00\x00\x00Twitter'
tRp4425
I00
S'http://twitter.com/web2py'
p4426
tp4427
a(g3884
(S's\t\x00\x00\x00Live Chat'
tRp4428
I00
S'http://webchat.freenode.net/?channels=web2py'
p4429
tp4430
aasbasbasbasbasbasbasbag62
(g78
g64
NtRp4431
(dp4432
g67
(dp4433
sg76
g3998
sg69
(lp4434
g62
(g83
g64
NtRp4435
(dp4436
g67
(dp4437
sg76
g4431
sg69
(lp4438
g62
(g63
g64
NtRp4439
(dp4440
g67
(dp4441
g75
I2
ssg76
g4435
sg69
(lp4442
g62
(g71
g64
NtRp4443
(dp4444
g67
(dp4445
g75
I1
ssg76
Nsg69
(lp4446
g62
(g78
g64
NtRp4447
(dp4448
g67
(dp4449
sg76
g4443
sg69
(lp4450
g62
(g83
g64
NtRp4451
(dp4452
g67
(dp4453
sg76
g4447
sg69
(lp4454
g62
(g63
g64
NtRp4455
(dp4456
g67
(dp4457
g75
I1
ssg76
g4451
sg69
(lp4458
g3884
(S't\x07\x00\x00\x00Plugins'
tRp4459
asbasbasbag62
(g78
g64
NtRp4460
(dp4461
g67
(dp4462
sg76
g4443
sg69
(lp4463
g62
(g83
g64
NtRp4464
(dp4465
g67
(dp4466
sg76
g4460
sg69
(lp4467
g62
(g63
g64
NtRp4468
(dp4469
g67
(dp4470
g75
I1
ssg76
g4464
sg69
(lp4471
I00
asbasbasbag62
(g78
g64
NtRp4472
(dp4473
g67
(dp4474
sg76
g4443
sg69
(lp4475
g62
(g83
g64
NtRp4476
(dp4477
g67
(dp4478
sg76
g4472
sg69
(lp4479
g62
(g63
g64
NtRp4480
(dp4481
g67
(dp4482
g75
I1
ssg76
g4476
sg69
(lp4483
Nasbasbasbag62
(g78
g64
NtRp4484
(dp4485
g67
(dp4486
sg76
g4443
sg69
(lp4487
g62
(g83
g64
NtRp4488
(dp4489
g67
(dp4490
sg76
g4484
sg69
(lp4491
g62
(g63
g64
NtRp4492
(dp4493
g67
(dp4494
g75
I1
ssg76
g4488
sg69
(lp4495
(lp4496
(S'plugin_wiki'
p4497
I00
S'http://web2py.com/examples/default/download'
p4498
tp4499
a(g3884
(S's\r\x00\x00\x00Other Plugins'
tRp4500
I00
g4230
tp4501
a(g3884
(S's\x0e\x00\x00\x00Layout Plugins'
tRp4502
I00
g4233
tp4503
aasbasbasbasbasbasbasbasbasbasbasbasbasbasbasbasbasbasbasbag62
(g78
g64
NtRp4504
(dp4505
g67
(dp4506
sg76
g3327
sg69
(lp4507
g62
(g83
g64
NtRp4508
(dp4509
g67
(dp4510
g87
g88
ssg76
g4504
sg69
(lp4511
S'meta'
p4512
asbag62
(g83
g64
NtRp4513
(dp4514
g67
(dp4515
g94
g95
ssg76
g4504
sg69
(lp4516
S':'
asbag62
(g83
g64
NtRp4517
(dp4518
g67
(dp4519
sg76
g4504
sg69
(lp4520
g62
(g63
g64
NtRp4521
(dp4522
g67
(dp4523
g75
I5
ssg76
g4517
sg69
(lp4524
g62
(g71
g64
NtRp4525
(dp4526
g67
(dp4527
g75
I4
ssg76
Nsg69
(lp4528
g62
(g78
g64
NtRp4529
(dp4530
g67
(dp4531
sg76
g4525
sg69
(lp4532
g62
(g83
g64
NtRp4533
(dp4534
g67
(dp4535
g87
g88
ssg76
g4529
sg69
(lp4536
S'author'
p4537
asbag62
(g83
g64
NtRp4538
(dp4539
g67
(dp4540
g94
g95
ssg76
g4529
sg69
(lp4541
S':'
asbag62
(g83
g64
NtRp4542
(dp4543
g67
(dp4544
sg76
g4529
sg69
(lp4545
g62
(g63
g64
NtRp4546
(dp4547
g67
(dp4548
g75
I4
ssg76
g4542
sg69
(lp4549
S'Your Name <you@example.com>'
p4550
asbasbasbag62
(g78
g64
NtRp4551
(dp4552
g67
(dp4553
sg76
g4525
sg69
(lp4554
g62
(g83
g64
NtRp4555
(dp4556
g67
(dp4557
g87
g88
ssg76
g4551
sg69
(lp4558
S'copyright'
p4559
asbag62
(g83
g64
NtRp4560
(dp4561
g67
(dp4562
g94
g95
ssg76
g4551
sg69
(lp4563
S':'
asbag62
(g83
g64
NtRp4564
(dp4565
g67
(dp4566
sg76
g4551
sg69
(lp4567
g62
(g63
g64
NtRp4568
(dp4569
g67
(dp4570
g75
I4
ssg76
g4564
sg69
(lp4571
S'Copyright 2011'
p4572
asbasbasbag62
(g78
g64
NtRp4573
(dp4574
g67
(dp4575
sg76
g4525
sg69
(lp4576
g62
(g83
g64
NtRp4577
(dp4578
g67
(dp4579
g87
g88
ssg76
g4573
sg69
(lp4580
S'description'
p4581
asbag62
(g83
g64
NtRp4582
(dp4583
g67
(dp4584
g94
g95
ssg76
g4573
sg69
(lp4585
S':'
asbag62
(g83
g64
NtRp4586
(dp4587
g67
(dp4588
sg76
g4573
sg69
(lp4589
g62
(g63
g64
NtRp4590
(dp4591
g67
(dp4592
g75
I4
ssg76
g4586
sg69
(lp4593
S'a cool new app'
p4594
asbasbasbag62
(g78
g64
NtRp4595
(dp4596
g67
(dp4597
sg76
g4525
sg69
(lp4598
g62
(g83
g64
NtRp4599
(dp4600
g67
(dp4601
g87
g88
ssg76
g4595
sg69
(lp4602
S'generator'
p4603
asbag62
(g83
g64
NtRp4604
(dp4605
g67
(dp4606
g94
g95
ssg76
g4595
sg69
(lp4607
S':'
asbag62
(g83
g64
NtRp4608
(dp4609
g67
(dp4610
sg76
g4595
sg69
(lp4611
g62
(g63
g64
NtRp4612
(dp4613
g67
(dp4614
g75
I4
ssg76
g4608
sg69
(lp4615
S'Web2py Web Framework'
p4616
asbasbasbag62
(g78
g64
NtRp4617
(dp4618
g67
(dp4619
sg76
g4525
sg69
(lp4620
g62
(g83
g64
NtRp4621
(dp4622
g67
(dp4623
g87
g88
ssg76
g4617
sg69
(lp4624
S'keywords'
p4625
asbag62
(g83
g64
NtRp4626
(dp4627
g67
(dp4628
g94
g95
ssg76
g4617
sg69
(lp4629
S':'
asbag62
(g83
g64
NtRp4630
(dp4631
g67
(dp4632
sg76
g4617
sg69
(lp4633
g62
(g63
g64
NtRp4634
(dp4635
g67
(dp4636
g75
I4
ssg76
g4630
sg69
(lp4637
S'web2py, python, framework'
p4638
asbasbasbasbasbasbasbag62
(g78
g64
NtRp4639
(dp4640
g67
(dp4641
sg76
g3327
sg69
(lp4642
g62
(g83
g64
NtRp4643
(dp4644
g67
(dp4645
g87
g88
ssg76
g4639
sg69
(lp4646
S'postprocessing'
p4647
asbag62
(g83
g64
NtRp4648
(dp4649
g67
(dp4650
g94
g95
ssg76
g4639
sg69
(lp4651
S':'
asbag62
(g83
g64
NtRp4652
(dp4653
g67
(dp4654
sg76
g4639
sg69
(lp4655
g62
(g63
g64
NtRp4656
(dp4657
g67
(dp4658
g75
I5
ssg76
g4652
sg69
(lp4659
g62
(g71
g64
NtRp4660
(dp4661
g67
(dp4662
g75
I4
ssg76
Nsg69
(lp4663
sbasbasbasbag62
(g78
g64
NtRp4664
(dp4665
g67
(dp4666
sg76
g3327
sg69
(lp4667
g62
(g83
g64
NtRp4668
(dp4669
g67
(dp4670
g87
g88
ssg76
g4664
sg69
(lp4671
S'session_file'
p4672
asbag62
(g83
g64
NtRp4673
(dp4674
g67
(dp4675
g94
g95
ssg76
g4664
sg69
(lp4676
S':'
asbag62
(g83
g64
NtRp4677
(dp4678
g67
(dp4679
sg76
g4664
sg69
(lp4680
g62
(g63
g64
NtRp4681
(dp4682
g67
(dp4683
g75
I5
ssg76
g4677
sg69
(lp4684
S"<open file 'C:\\Documents and Settings\\agrover\\Desktop\\previous crawler\\web2py\\applications\\mycrawler\\sessions\\127.0.0.1-1168ec91-5549-4bd8-a5d3-1c118d39abce', mode 'rb+' at 0x051E0650>"
p4685
asbasbasbag62
(g78
g64
NtRp4686
(dp4687
g67
(dp4688
sg76
g3327
sg69
(lp4689
g62
(g83
g64
NtRp4690
(dp4691
g67
(dp4692
g87
g88
ssg76
g4686
sg69
(lp4693
S'session_filename'
p4694
asbag62
(g83
g64
NtRp4695
(dp4696
g67
(dp4697
g94
g95
ssg76
g4686
sg69
(lp4698
S':'
asbag62
(g83
g64
NtRp4699
(dp4700
g67
(dp4701
sg76
g4686
sg69
(lp4702
g62
(g63
g64
NtRp4703
(dp4704
g67
(dp4705
g75
I5
ssg76
g4699
sg69
(lp4706
S'C:\\Documents and Settings\\agrover\\Desktop\\previous crawler\\web2py\\applications\\mycrawler\\sessions\\127.0.0.1-1168ec91-5549-4bd8-a5d3-1c118d39abce'
p4707
asbasbasbag62
(g78
g64
NtRp4708
(dp4709
g67
(dp4710
sg76
g3327
sg69
(lp4711
g62
(g83
g64
NtRp4712
(dp4713
g67
(dp4714
g87
g88
ssg76
g4708
sg69
(lp4715
S'session_id'
p4716
asbag62
(g83
g64
NtRp4717
(dp4718
g67
(dp4719
g94
g95
ssg76
g4708
sg69
(lp4720
S':'
asbag62
(g83
g64
NtRp4721
(dp4722
g67
(dp4723
sg76
g4708
sg69
(lp4724
g62
(g63
g64
NtRp4725
(dp4726
g67
(dp4727
g75
I5
ssg76
g4721
sg69
(lp4728
S'127.0.0.1-1168ec91-5549-4bd8-a5d3-1c118d39abce'
p4729
asbasbasbag62
(g78
g64
NtRp4730
(dp4731
g67
(dp4732
sg76
g3327
sg69
(lp4733
g62
(g83
g64
NtRp4734
(dp4735
g67
(dp4736
g87
g88
ssg76
g4730
sg69
(lp4737
S'session_id_name'
p4738
asbag62
(g83
g64
NtRp4739
(dp4740
g67
(dp4741
g94
g95
ssg76
g4730
sg69
(lp4742
S':'
asbag62
(g83
g64
NtRp4743
(dp4744
g67
(dp4745
sg76
g4730
sg69
(lp4746
g62
(g63
g64
NtRp4747
(dp4748
g67
(dp4749
g75
I5
ssg76
g4743
sg69
(lp4750
g3384
asbasbasbag62
(g78
g64
NtRp4751
(dp4752
g67
(dp4753
sg76
g3327
sg69
(lp4754
g62
(g83
g64
NtRp4755
(dp4756
g67
(dp4757
g87
g88
ssg76
g4751
sg69
(lp4758
S'session_locked'
p4759
asbag62
(g83
g64
NtRp4760
(dp4761
g67
(dp4762
g94
g95
ssg76
g4751
sg69
(lp4763
S':'
asbag62
(g83
g64
NtRp4764
(dp4765
g67
(dp4766
sg76
g4751
sg69
(lp4767
g62
(g63
g64
NtRp4768
(dp4769
g67
(dp4770
g75
I5
ssg76
g4764
sg69
(lp4771
g1747
asbasbasbag62
(g78
g64
NtRp4772
(dp4773
g67
(dp4774
sg76
g3327
sg69
(lp4775
g62
(g83
g64
NtRp4776
(dp4777
g67
(dp4778
g87
g88
ssg76
g4772
sg69
(lp4779
S'session_new'
p4780
asbag62
(g83
g64
NtRp4781
(dp4782
g67
(dp4783
g94
g95
ssg76
g4772
sg69
(lp4784
S':'
asbag62
(g83
g64
NtRp4785
(dp4786
g67
(dp4787
sg76
g4772
sg69
(lp4788
g62
(g63
g64
NtRp4789
(dp4790
g67
(dp4791
g75
I5
ssg76
g4785
sg69
(lp4792
g105
asbasbasbag62
(g78
g64
NtRp4793
(dp4794
g67
(dp4795
sg76
g3327
sg69
(lp4796
g62
(g83
g64
NtRp4797
(dp4798
g67
(dp4799
g87
g88
ssg76
g4793
sg69
(lp4800
S'status'
p4801
asbag62
(g83
g64
NtRp4802
(dp4803
g67
(dp4804
g94
g95
ssg76
g4793
sg69
(lp4805
S':'
asbag62
(g83
g64
NtRp4806
(dp4807
g67
(dp4808
sg76
g4793
sg69
(lp4809
g62
(g63
g64
NtRp4810
(dp4811
g67
(dp4812
g75
I5
ssg76
g4806
sg69
(lp4813
S'200'
p4814
asbasbasbag62
(g78
g64
NtRp4815
(dp4816
g67
(dp4817
sg76
g3327
sg69
(lp4818
g62
(g83
g64
NtRp4819
(dp4820
g67
(dp4821
g87
g88
ssg76
g4815
sg69
(lp4822
S'subtitle'
p4823
asbag62
(g83
g64
NtRp4824
(dp4825
g67
(dp4826
g94
g95
ssg76
g4815
sg69
(lp4827
S':'
asbag62
(g83
g64
NtRp4828
(dp4829
g67
(dp4830
sg76
g4815
sg69
(lp4831
g62
(g63
g64
NtRp4832
(dp4833
g67
(dp4834
g75
I5
ssg76
g4828
sg69
(lp4835
g3884
(S's\r\x00\x00\x00customize me!'
tRp4836
asbasbasbag62
(g78
g64
NtRp4837
(dp4838
g67
(dp4839
sg76
g3327
sg69
(lp4840
g62
(g83
g64
NtRp4841
(dp4842
g67
(dp4843
g87
g88
ssg76
g4837
sg69
(lp4844
S'title'
p4845
asbag62
(g83
g64
NtRp4846
(dp4847
g67
(dp4848
g94
g95
ssg76
g4837
sg69
(lp4849
S':'
asbag62
(g83
g64
NtRp4850
(dp4851
g67
(dp4852
sg76
g4837
sg69
(lp4853
g62
(g63
g64
NtRp4854
(dp4855
g67
(dp4856
g75
I5
ssg76
g4850
sg69
(lp4857
S'Mycrawler'
p4858
asbasbasbag62
(g78
g64
NtRp4859
(dp4860
g67
(dp4861
sg76
g3327
sg69
(lp4862
g62
(g83
g64
NtRp4863
(dp4864
g67
(dp4865
g87
g88
ssg76
g4859
sg69
(lp4866
g2433
asbag62
(g83
g64
NtRp4867
(dp4868
g67
(dp4869
g94
g95
ssg76
g4859
sg69
(lp4870
S':'
asbag62
(g83
g64
NtRp4871
(dp4872
g67
(dp4873
sg76
g4859
sg69
(lp4874
g62
(g63
g64
NtRp4875
(dp4876
g67
(dp4877
g75
I5
ssg76
g4871
sg69
(lp4878
g2446
asbasbasbag62
(g78
g64
NtRp4879
(dp4880
g67
(dp4881
sg76
g3327
sg69
(lp4882
g62
(g83
g64
NtRp4883
(dp4884
g67
(dp4885
g87
g88
ssg76
g4879
sg69
(lp4886
S'view'
p4887
asbag62
(g83
g64
NtRp4888
(dp4889
g67
(dp4890
g94
g95
ssg76
g4879
sg69
(lp4891
S':'
asbag62
(g83
g64
NtRp4892
(dp4893
g67
(dp4894
sg76
g4879
sg69
(lp4895
g62
(g63
g64
NtRp4896
(dp4897
g67
(dp4898
g75
I5
ssg76
g4892
sg69
(lp4899
S'default/upload.html'
p4900
asbasbasbasbasbsS'locals'
p4901
(dp4902
S'k'
S"r'C:\\Documents and Settings\\agrover\\Desktop\\previous crawler\\web2py\\applications\\mycrawler\\uploads\\'"
p4903
sS'writer'
p4904
S'<_csv.writer object>'
p4905
sssS'traceback'
p4906
S'Traceback (most recent call last):\n  File "C:\\Documents and Settings\\agrover\\Desktop\\previous crawler\\web2py\\gluon\\restricted.py", line 205, in restricted\n    exec ccode in environment\n  File "C:\\Documents and Settings\\agrover\\Desktop\\previous crawler\\web2py\\applications\\mycrawler\\controllers/default.py", line 636, in <module>\n  File "C:\\Documents and Settings\\agrover\\Desktop\\previous crawler\\web2py\\gluon\\globals.py", line 173, in <lambda>\n    self._caller = lambda f: f()\n  File "C:\\Documents and Settings\\agrover\\Desktop\\previous crawler\\web2py\\applications\\mycrawler\\controllers/default.py", line 557, in upload\n    temp()\n  File "C:\\Documents and Settings\\agrover\\Desktop\\previous crawler\\web2py\\applications\\mycrawler\\controllers/default.py", line 569, in temp\n    o=open(k, \'rb\')\nIOError: [Errno 2] No such file or directory: \'C:\\\\Documents and Settings\\\\agrover\\\\Desktop\\\\previous crawler\\\\web2py\\\\applications\\\\mycrawler\\\\uploads\\\\\'\n'
p4907
s.