(dp1
S'output'
p2
S"<class 'urllib2.URLError'> <urlopen error [Errno 10054] An existing connection was forcibly closed by the remote host>"
p3
sS'layer'
p4
S'C:\\Documents and Settings\\agrover\\Desktop\\previous crawler\\web2py\\applications\\mycrawler\\controllers/default.py'
p5
sS'code'
p6
S'# -*- coding: utf-8 -*-\n# this file is released under public domain and you can use without limitations\n\n#########################################################################\n## This is a samples controller\n## - index is the default action of any application\n## - user is required for authentication and authorization\n## - download is for downloading files uploaded in the db (does streaming)\n## - call exposes all registered services (none by default)\n#########################################################################\nimport cStringIO\nimport csv\nimport re\ncountry=[\'United States\', \'Afghanistan\', \'Aland Islands\', \'Albania\', \'Algeria\', \'American Samoa\', \'Andorra\', \'Angola\', \'Anguilla\', \'Antarctica\', \'Antigua and Barbuda\', \'Argentina\', \'Armenia\', \'Aruba\', \'Australia\', \'Austria\', \'Azerbaijan\', \'Bahamas\', \'Bahrain\', \'Bangladesh\', \'Barbados\', \'Belarus\', \'Belgium\', \'Belize\', \'Benin\', \'Bermuda\', \'Bhutan\', \'Bolivia\', \'Bosnia and Herzegovina\', \'Botswana\', \'Brazil\', \'British Indian Ocean Territory\', \'Brunei Darussalam\', \'Bulgaria\', \'Burkina Faso\', \'Burundi\', \'Cambodia\', \'Cameroon\', \'Canada\', \'Cape Verde\', \'Caribbean Nations\', \'Cayman Islands\', \'Central African Republic\', \'Chad\', \'Chile\', \'China\', \'Christmas Island\', \'Cocos (Keeling) Islands\', \'Colombia\', \'Comoros\', \'Congo\', \'Cook Islands\', \'Costa Rica\', "Cote D\'Ivoire (Ivory Coast)", \'Croatia\', \'Cuba\', \'Cyprus\', \'Czech Republic\', \'Democratic Republic of the Congo\', \'Denmark\', \'Djibouti\', \'Dominica\', \'Dominican Republic\', \'East Timor\', \'Ecuador\', \'Egypt\', \'El Salvador\', \'Equatorial Guinea\', \'Eritrea\', \'Estonia\', \'Ethiopia\', \'Falkland Islands (Malvinas)\', \'Faroe Islands\', \'Federated States of Micronesia\', \'Fiji\', \'Finland\', \'France\', \'French Guiana\', \'French Polynesia\', \'French Southern Territories\', \'Gabon\', \'Gambia\', \'Georgia\', \'Germany\', \'Ghana\', \'Gibraltar\', \'Greece\', \'Greenland\', \'Grenada\', \'Guadeloupe\', \'Guam\', \'Guatemala\', \'Guernsey\', \'Guinea\', \'Guinea-Bissau\', \'Guyana\', \'Haiti\', \'Honduras\', \'Hong Kong\', \'Hungary\', \'Iceland\', \'India\', \'Indonesia\', \'Iran\', \'Iraq\', \'Ireland\', \'Isle of Man\', \'Israel\', \'Italy\', \'Jamaica\', \'Japan\', \'Jersey\', \'Jordan\', \'Kazakhstan\', \'Kenya\', \'Kiribati\', \'Korea\', \'Korea (North)\', \'Kuwait\', \'Kyrgyzstan\', \'Laos\', \'Latvia\', \'Lebanon\', \'Lesotho\', \'Liberia\', \'Libya\', \'Liechtenstein\', \'Lithuania\', \'Luxembourg\', \'Macao\', \'Macedonia\', \'Madagascar\', \'Malawi\', \'Malaysia\', \'Maldives\', \'Mali\', \'Malta\', \'Marshall Islands\', \'Martinique\', \'Mauritania\', \'Mauritius\', \'Mayotte\', \'Mexico\', \'Moldova\', \'Monaco\', \'Mongolia\', \'Montenegro\', \'Montserrat\', \'Morocco\', \'Mozambique\', \'Myanmar\', \'Namibia\', \'Nauru\', \'Nepal\', \'Netherlands\', \'Netherlands Antilles\', \'New Caledonia\', \'New Zealand\', \'Nicaragua\', \'Niger\', \'Nigeria\', \'Niue\', \'Norfolk Island\', \'Northern Mariana Islands\', \'Norway\', \'Oman\', \'Pakistan\', \'Palau\', \'Palestinian Territory\', \'Panama\', \'Papua New Guinea\', \'Paraguay\', \'Peru\', \'Philippines\', \'Pitcairn\', \'Poland\', \'Portugal\', \'Puerto Rico\', \'Qatar\', \'Reunion\', \'Romania\', \'Russian Federation\', \'Rwanda\', \'Saint Helena\', \'Saint Kitts and Nevis\', \'Saint Lucia\', \'Saint Pierre and Miquelon\', \'Saint Vincent and the Grenadines\', \'Samoa\', \'San Marino\', \'Sao Tome and Principe\', \'Saudi Arabia\', \'Senegal\', \'Serbia\', \'Seychelles\', \'Sierra Leone\', \'Singapore\', \'Slovak Republic\', \'Slovenia\', \'Solomon Islands\', \'Somalia\', \'South Africa\', \'Spain\', \'Sri Lanka\', \'Sudan\', \'Suriname\', \'Svalbard and Jan Mayen\', \'Swaziland\', \'Sweden\', \'Switzerland\', \'Syria\', \'Taiwan\', \'Tajikistan\', \'Tanzania\', \'Thailand\', \'Timor-Leste\', \'Togo\', \'Tokelau\', \'Tonga\', \'Trinidad and Tobago\', \'Tunisia\', \'Turkey\', \'Turkmenistan\', \'Turks and Caicos Islands\', \'Tuvalu\', \'Uganda\', \'Ukraine\', \'United Arab Emirates\', \'United Kingdom\', \'Uruguay\', \'Uzbekistan\', \'Vanuatu\', \'Vatican City State (Holy See)\', \'Venezuela\', \'Vietnam\', \'Virgin Islands (British)\', \'Virgin Islands (U.S.)\', \'Wallis and Futuna\', \'Western Sahara\', \'Yemen\', \'Zambia\', \'Zimbabwe\', \'Other\']\n    \ncountryid=[\'us\', \'af\', \'ax\', \'al\', \'dz\', \'as\', \'ad\', \'ao\', \'ai\', \'aq\', \'ag\', \'ar\', \'am\', \'aw\', \'au\', \'at\', \'az\', \'bs\', \'bh\', \'bd\', \'bb\', \'by\', \'be\', \'bz\', \'bj\', \'bm\', \'bt\', \'bo\', \'ba\', \'bw\', \'br\', \'io\', \'bn\', \'bg\', \'bf\', \'bi\', \'kh\', \'cm\', \'ca\', \'cv\', \'cb\', \'ky\', \'cf\', \'td\', \'cl\', \'cn\', \'cx\', \'cc\', \'co\', \'km\', \'cg\', \'ck\', \'cr\', \'ci\', \'hr\', \'cu\', \'cy\', \'cz\', \'cd\', \'dk\', \'dj\', \'dm\', \'do\', \'tp\', \'ec\', \'eg\', \'sv\', \'gq\', \'er\', \'ee\', \'et\', \'fk\', \'fo\', \'fm\', \'fj\', \'fi\', \'fr\', \'gf\', \'pf\', \'tf\', \'ga\', \'gm\', \'ge\', \'de\', \'gh\', \'gi\', \'gr\', \'gl\', \'gd\', \'gp\', \'gu\', \'gt\', \'gg\', \'gn\', \'gw\', \'gy\', \'ht\', \'hn\', \'hk\', \'hu\', \'is\', \'in\', \'id\', \'ir\', \'iq\', \'ie\', \'im\', \'il\', \'it\', \'jm\', \'jp\', \'je\', \'jo\', \'kz\', \'ke\', \'ki\', \'kr\', \'kp\', \'kw\', \'kg\', \'la\', \'lv\', \'lb\', \'ls\', \'lr\', \'ly\', \'li\', \'lt\', \'lu\', \'mo\', \'mk\', \'mg\', \'mw\', \'my\', \'mv\', \'ml\', \'mt\', \'mh\', \'mq\', \'mr\', \'mu\', \'yt\', \'mx\', \'md\', \'mc\', \'mn\', \'me\', \'ms\', \'ma\', \'mz\', \'mm\', \'na\', \'nr\', \'np\', \'nl\', \'an\', \'nc\', \'nz\', \'ni\', \'ne\', \'ng\', \'nu\', \'nf\', \'mp\', \'no\', \'om\', \'pk\', \'pw\', \'ps\', \'pa\', \'pg\', \'py\', \'pe\', \'ph\', \'pn\', \'pl\', \'pt\', \'pr\', \'qa\', \'re\', \'ro\', \'ru\', \'rw\', \'sh\', \'kn\', \'lc\', \'pm\', \'vc\', \'ws\', \'sm\', \'st\', \'sa\', \'sn\', \'rs\', \'sc\', \'sl\', \'sg\', \'sk\', \'si\', \'sb\', \'so\', \'za\', \'es\', \'lk\', \'sd\', \'sr\', \'sj\', \'sz\', \'se\', \'ch\', \'sy\', \'tw\', \'tj\', \'tz\', \'th\', \'tl\', \'tg\', \'tk\', \'to\', \'tt\', \'tn\', \'tr\', \'tm\', \'tc\', \'tv\', \'ug\', \'ua\', \'ae\', \'gb\', \'uy\', \'uz\', \'vu\', \'va\', \'ve\', \'vn\', \'vg\', \'vi\', \'wf\', \'eh\', \'ye\', \'zm\', \'zw\', \'oo\']\n\nindustries=[\'All Industries\',\'Accounting\', \'Airlines/Aviation\', \'Alternative Dispute Resolution\', \'Alternative Medicine\', \'Animation\', \'Apparel & Fashion\', \'Architecture & Planning\', \'Arts and Crafts\', \'Automotive\', \'Aviation & Aerospace\', \'Banking\', \'Biotechnology\', \'Broadcast Media\', \'Building Materials\', \'Business Supplies and Equipment\', \'Capital Markets\', \'Chemicals\', \'Civic & Social Organization\', \'Civil Engineering\', \'Commercial Real Estate\', \'Computer & Network Security\', \'Computer Games\', \'Computer Hardware\', \'Computer Networking\', \'Computer Software\', \'Construction\', \'Consumer Electronics\', \'Consumer Goods\', \'Consumer Services\', \'Cosmetics\', \'Dairy\', \'Defense & Space\', \'Design\', \'Education Management\', \'E-Learning\', \'Electrical/Electronic Manufacturing\', \'Entertainment\', \'Environmental Services\', \'Events Services\', \'Executive Office\', \'Facilities Services\', \'Farming\', \'Financial Services\', \'Fine Art\', \'Fishery\', \'Food & Beverages\', \'Food Production\', \'Fund-Raising\', \'Furniture\', \'Gambling & Casinos\', \'Glass, Ceramics & Concrete\', \'Government Administration\', \'Government Relations\', \'Graphic Design\', \'Health, Wellness and Fitness\', \'Higher Education\', \'Hospital & Health Care\', \'Hospitality\', \'Human Resources\', \'Import and Export\', \'Individual & Family Services\', \'Industrial Automation\', \'Information Services\', \'Information Technology and Services\', \'Insurance\', \'International Affairs\', \'International Trade and Development\', \'Internet\', \'Investment Banking\', \'Investment Management\', \'Judiciary\', \'Law Enforcement\', \'Law Practice\', \'Legal Services\', \'Legislative Office\', \'Leisure, Travel & Tourism\', \'Libraries\', \'Logistics and Supply Chain\', \'Luxury Goods & Jewelry\', \'Machinery\', \'Management Consulting\', \'Maritime\', \'Marketing and Advertising\', \'Market Research\', \'Mechanical or Industrial Engineering\', \'Media Production\', \'Medical Devices\', \'Medical Practice\', \'Mental Health Care\', \'Military\', \'Mining & Metals\', \'Motion Pictures and Film\', \'Museums and Institutions\', \'Music\', \'Nanotechnology\', \'Newspapers\', \'Nonprofit Organization Management\', \'Oil & Energy\', \'Online Media\', \'Outsourcing/Offshoring\', \'Package/Freight Delivery\', \'Packaging and Containers\', \'Paper & Forest Products\', \'Performing Arts\', \'Pharmaceuticals\', \'Philanthropy\', \'Photography\', \'Plastics\', \'Political Organization\', \'Primary/Secondary Education\', \'Printing\', \'Professional Training & Coaching\', \'Program Development\', \'Public Policy\', \'Public Relations and Communications\', \'Public Safety\', \'Publishing\', \'Railroad Manufacture\', \'Ranching\', \'Real Estate\', \'Recreational Facilities and Services\', \'Religious Institutions\', \'Renewables & Environment\', \'Research\', \'Restaurants\', \'Retail\', \'Security and Investigations\', \'Semiconductors\', \'Shipbuilding\', \'Sporting Goods\', \'Sports\', \'Staffing and Recruiting\', \'Supermarkets\', \'Telecommunications\', \'Textiles\', \'Think Tanks\', \'Tobacco\', \'Translation and Localization\', \'Transportation/Trucking/Railroad\', \'Utilities\', \'Venture Capital & Private Equity\', \'Veterinary\', \'Warehousing\', \'Wholesale\', \'Wine and Spirits\', \'Wireless\', \'Writing and Editing\']\n\nseniority=[\'All Seniority Levels\', \'Manager\', \'Owner\', \'Partner\', \'CXO\', \'VP\', \'Director\', \'Senior\', \'Entry\', \'Students & Interns\', \'Volunteer\']\n\nfunctions=[\'All Functions\', \'Academics\', \'Accounting\', \'Administrative\', \'Business development\', \'Buyer\', \'Consultant\', \'Creative\', \'Engineering\', \'Entrepreneur\', \'Finance\', \'Human resources\', \'Information technology\', \'Legal\', \'Marketing\', \'Medical\', \'Operations\', \'Product\', \'Public relations\', \'Real estate\', \'Sales\', \'Support\']\n\n\nusername=\'\'\npassword=\'\'\n\ndef index():\n    """\n    example action using the internationalization operator T and flash\n    rendered by views/default/index.html or views/generic.html\n    """\n    #response.flash = "Welcome to web2py!"\n    #return dict(message=T(\'Hello World\'))\n    \n    form = SQLFORM.factory(\n       Field(\'LinkedIn_User_Id\'),\n       Field(\'Password\',type=\'password\'))\n       \n    global username\n    session.username=request.vars.LinkedIn_User_Id\n    global password\n    session.password=request.vars.Password\n    if form.process().accepted:\n        response.flash =\'form accepted\'\n        redirect(URL(r=request,f=\'enter_info\')) \n    return dict(form=form)   \n\ndef user():\n    """\n    exposes:\n    http://..../[app]/default/user/login\n    http://..../[app]/default/user/logout\n    http://..../[app]/default/user/register\n    http://..../[app]/default/user/profile\n    http://..../[app]/default/user/retrieve_password\n    http://..../[app]/default/user/change_password\n    use @auth.requires_login()\n        @auth.requires_membership(\'group name\')\n        @auth.requires_permission(\'read\',\'table name\',record_id)\n    to decorate functions that need access control\n    """\n    return dict(form=auth())\n\n\ndef download():\n    """\n    allows downloading of uploaded files\n    http://..../[app]/default/download/[filename]\n    """\n    return response.download(request,db)\n\n\ndef call():\n    """\n    exposes services. for example:\n    http://..../[app]/default/call/jsonrpc\n    decorate with @services.jsonrpc the functions to expose\n    supports xml, json, xmlrpc, jsonrpc, amfrpc, rss, csv\n    """\n    return service()\n\n\n@auth.requires_signature()\ndef data():\n    """\n    http://..../[app]/default/data/tables\n    http://..../[app]/default/data/create/[table]\n    http://..../[app]/default/data/read/[table]/[id]\n    http://..../[app]/default/data/update/[table]/[id]\n    http://..../[app]/default/data/delete/[table]/[id]\n    http://..../[app]/default/data/select/[table]\n    http://..../[app]/default/data/search/[table]\n    but URLs must be signed, i.e. linked with\n      A(\'table\',_href=URL(\'data/tables\',user_signature=True))\n    or with the signed load operator\n      LOAD(\'default\',\'data.load\',args=\'tables\',ajax=True,user_signature=True)\n    """\n    return dict(form=crud())\n\n#def enter_info():\n\n#     form = SQLFORM.factory(\n#         Field(\'First_Name\'),\n#         Field(\'Last_Name\'),\n#         Field(\'Keywords\'),\n#         Field(\'Title\'),\n#         Field(\'Company\'),\n#         Field(\'School\'))\n         #Field(\'Submit\',\'submit\'))\n#    if form.process().accepted:\n#        response.flash = \'form accepted\'\n#    elif form.errors:\n#        response.flash = \'form has errors\'\n    \n    #form=FORM(\'First Name:\',INPUT(_name=\'fname\',_id=\'fname\'),\n     #         \'Last Name:\',INPUT(_name=\'lname\',_id=\'lname\'),\n      #        \'Keywords:\',INPUT(_name=\'keywords\',_id=\'keywords\'),\n       #       \'Title:\',INPUT(_name=\'title\',_id=\'title\'),\n       #       \'Company:\',INPUT(_name=\'company\',_id=\'company\'),\n       #       \'School:\',INPUT(_name=\'school\',_id=\'school\'),\n              \n        #      INPUT(_type=\'submit\',_value=\'Submit\',_id=\'submit\'))\n    #if form.accepts(request,session):\n    #    response.flash = \'form accepted\'\n    #    redirect(URL(r=request,f=\'search\',vars=request.vars))\n#    return dict(form=form\n    \ndef enter_info():\n    \n    form = SQLFORM.factory(\n       Field(\'First_Name\'),\n       Field(\'Last_Name\'),\n       Field(\'Keywords\'),\n       Field(\'Title\'),\n       Field(\'Company\'),\n       Field(\'School\'),\n       Field(\'File_Name\',requires=IS_NOT_EMPTY()),\n       Field(\'Country\',requires=IS_IN_SET(country),default=\'India\'),\n       Field(\'Industry\',requires=IS_IN_SET(industries,multiple=\'multiple\'),default=\'All Industries\'),\n       Field(\'Seniority_Levels\',requires=IS_IN_SET(seniority,multiple=\'multiple\'),default=\'All Seniority Levels\'),\n       Field(\'Functions\',requires=IS_IN_SET(functions,multiple=\'multiple\'),default=\'All Functions\'))\n    \n    if form.process().accepted:\n        response.flash = \'form accepted\'\n        redirect(URL(r=request,f=\'search\',vars=request.vars))\n    elif form.errors:\n        response.flash = \'form has errors\'\n    return dict(form=form)\n    \n\ndef search():\n    import mechanize\n    import cookielib\n    import html2text\n    from bs4 import BeautifulSoup\n    import cStringIO\n    \n    # Browser    \n    br = mechanize.Browser()\n\n    # Cookie Jar\n    cj = cookielib.LWPCookieJar()\n    br.set_cookiejar(cj)\n\n    # Browser options\n    br.set_handle_equiv(True)\n    br.set_handle_gzip(True)\n    br.set_handle_redirect(True)\n    br.set_handle_referer(True)\n    br.set_handle_robots(False)\n\n    # Follows refresh 0 but not hangs on refresh > 0\n    br.set_handle_refresh(mechanize._http.HTTPRefreshProcessor(), max_time=1)\n\n    # User-Agent (this is cheating, ok?)\n    br.addheaders = [(\'User-agent\', \'Mozilla/5.0 (X11; U; Linux i686; en-US; rv:1.9.0.1) Gecko/2008071615 Fedora/3.0.1-1.fc9 Firefox/3.0.1\')]\n\n\n    # The site we will navigate into, handling it\'s session    \n    br.open(\'https://www.linkedin.com\')\n\n    # Select the first (index zero) form\n    br.select_form(nr=0)\n\n    # User credentials\n    #br.form[\'session_key\'] = \'mrigeshgaurav@gmail.com\'\n    #br.form[\'session_password\'] = \'modeln@1234\'\n    \n    \n    br.form[\'session_key\'] = session.username\n    br.form[\'session_password\'] = session.password\n    \n    \n    # Login by submitting form br\n    br.submit()\n    \n    #opening the advanced search page straight away\n    br.open(\'http://www.linkedin.com/search?trk=advsrch\')\n    #selecting the 1st form\n    br.select_form(nr=1)\n\n    #entering various fields and filters\n    if request.vars.Last_Name:\n        br["lname"]=request.vars.Last_Name\n\n    if request.vars.First_Name:\n        br["fname"]=request.vars.First_Name\n    \n    if request.vars.Keywords:\n        br["keywords"]=request.vars.Keywords\n\n    if request.vars.Company:\n        br["company"]=request.vars.Company\n\n    if request.vars.School:\n        br["school"]=request.vars.School\n\n    if request.vars.Title:\n        br["title"]=request.vars.Title\n        \n    if request.vars.Country:\n        br["countryCode"]=[countryid[country.index(request.vars.Country)]]\n    \n    if request.vars.Industry and request.vars.Industry!=\'All Industries\':\n        if isinstance(request.vars.Industry,list):\n            for i in request.vars.Industry:\n                br.find_control("facet_I").items[industries.index(i)-1].selected=True\n        else:\n            br.find_control("facet_I").items[industries.index(request.vars.Industry)-1].selected=True\n            \n    if request.vars.Seniority_Levels and request.vars.Seniority_Levels!=\'All Seniority Levels\':\n        if isinstance(request.vars.Seniority_Levels,list):\n            for i in request.vars.Seniority_Levels:\n                br.find_control("facet_SE").items[seniority.index(i)-1].selected=True\n        else:\n            br.find_control("facet_SE").items[seniority.index(request.vars.Seniority_Levels)-1].selected=True\n            \n    if request.vars.Functions and request.vars.Functions!=\'All Functions\':\n        if isinstance(request.vars.Functions,list):\n            for i in request.vars.Functions:\n                br.find_control("facet_FA").items[functions.index(i)-1].selected=True\n        else:\n            br.find_control("facet_FA").items[functions.index(request.vars.Functions)-1].selected=True\n    \n    #submitting the form\n    br.submit()\n    \n    #lists for retreiving the required data\n    view_profile=[]\n    name=[]\n    titl=[]\n    location=[]\n    industry=[]\n    current=[]\n    \n    #flag to make sure we get entries on 1st page\n    flag=1\n    \n    #writing into file with given filename\n    global csv_response\n\n    csv_response = cStringIO.StringIO()\n    \n    spamWriter = csv.writer(csv_response, delimiter=\',\')\n    \n    #spamWriter = csv.writer(open(request.vars.File_Name+\'.csv\', \'wb\'), delimiter=\',\')\n    soup = BeautifulSoup(br.response().read())\n    spamWriter.writerow([\'NAME\',\'JOB-TITLE\',\'Current\',\'LOCATION\',\'INDUSTRY\',\'PROFLE-URL\'])\n    \n    #scans till there is a link to "next page"\n    while soup.find(\'a\',{"class" : "paginator-next"}) or flag==1:\n        flag=0\n        soup = BeautifulSoup(br.response().read())\n        view_profile=[]\n        name=[]\n        titl=[]\n        location=[]\n        industry=[]\n        current=[]\n        \n        #parsing for the html response to get information\n        for k in soup.find_all(\'dl\',{"class" : "vcard-basic"}):\n            if k.find(\'dd\',{"class" : "title"}):\n                    titl.append(k.find(\'dd\',{"class" : "title"}).get_text())\n            else:\n                    titl.append(\'NONE\')\n                            \n            if k.find(\'span\',{"class" : "location"}):\n                    location.append(k.find(\'span\',{"class" : "location"}).get_text())\n            else:\n                    location.append(\'NONE\')\n            if k.find(\'span\',{"class" : "industry"}):\n                    industry.append(k.find(\'span\',{"class" : "industry"}).get_text())\n            else:\n                    industry.append(\'NONE\')\n                \n        for k in soup.find_all(\'dl\',{"class" : "vcard-expanded"}):\n            if k.find(\'span\',{"class" : "current-details more-text"}):\n                    current.append(k.find(\'span\',{"class" : "current-details more-text"}).get_text())\n            elif k.find(\'span\',{"class" : "current-details"}):\n                    current.append(k.find(\'span\',{"class" : "current-details"}).get_text())\n            else:\n                    current.append(\'NONE\')\n                \n        for l in soup.find_all(\'a\',{"title" : "View Profile"}):\n            view_profile.append(\'http://www.linkedin.com\'+l.get(\'href\'))\n            name.append(l.get_text().encode(\'utf-8\'))\n        \n        for i in range(0,len(name)):\n            try:\n                spamWriter.writerow([name[i][1:len(name[i])-1].encode(\'utf-8\'),titl[i].encode(\'utf-8\'),current[i].encode(\'utf-8\'),location[i][1:len(location[i])-1].encode(\'utf-8\'),industry[i][1:len(industry[i])-1].encode(\'utf-8\'),view_profile[i].encode(\'utf-8\')])\n            except:\n                continue\n        if soup.find(\'a\',{"class" : "paginator-next"}):\n            br.open(\'http://www.linkedin.com\'+ soup.find(\'a\',{"class" : "paginator-next"}).get(\'href\'))\n        #soup = BeautifulSoup(br.response().read())\n        \n    response.headers[\'Content-Type\'] = \'text/csv\'\n    response.headers[\'Content-Disposition\'] = \'attachment; filename=%s.csv\' % request.vars.File_Name\n    return csv_response.getvalue()\n    #redirect(URL(r=request,f=\'enter_info\'))       \n    #for link in soup.find_all(\'a\'):\n    #    if link.get(\'title\')==\'View Profile\':\n    #        #print(link.get(\'href\'))\n    #        #print link.get_text()\n    #        view_profile.append(\'http://www.linkedin.com\'+link.get(\'href\'))\n    #        name.append(link.get_text())\n#for l in soup.find_all("span", { "class" : "given-name" }):\n    #print l.get_text()\n\n        \n\n#    for l in soup.find_all(\'dd\',{"class" : "title"}):\n        #print l.get_text()\n#        titl.append(l.get_text())\n    \n#    for l in soup.find_all(\'span\',{"class" : "location"}):\n        #print l.get_text()\n#        location.append(l.get_text())\n\n#    for l in soup.find_all(\'span\',{"class" : "industry"}):\n        #print l.get_text()\n#        industry.append(l.get_text())\n        \n#    for l in soup.find_all(\'span\', {"class" : "current-details"}):\n#        k=l.get_text()\n#        if k[len(k)-4:len(k)]!=\'more\':\n#            current.append(k)\n        #elif(l.get["class"]==\'current-details more text\'):\n        #    current.append(l.get_text())\n    #for l in soup.find_all(\'span\',{"class" : "current-details"}):\n        #print l.get_text()\n        #current.append(l.get_text())\n\n    \n    #global filename,csv_response\n\n    #csv_response = cStringIO.StringIO()\n    \n    #spamWriter = csv.writer(csv_response, delimiter=\',\')\n    \n    #spamWriter.writerow([\'NAME\',\'JOB-TITLE\',\'COMPANY-NAME\',\'LOCATION\',\'INDUSTRY\',\'PROFLE-URL\'])\n   \n    #spamWriter = csv.writer(open(request.vars.File_Name+\'.csv\', \'wb\'), delimiter=\',\')\n    #spamWriter.writerow([\'NAME\',\'JOB-TITLE\',\'Current\',\'LOCATION\',\'INDUSTRY\',\'PROFLE-URL\'])\n    #for i in range(1,10):\n    #    spamWriter.writerow([name[i].encode(\'utf-8\'),titl[i],current[i],location[i],industry[i],view_profile[i]])\n        \n        \n    #,titl[i],current[i],location[i],industry[i],view_profile[i]\n    #response.headers[\'Content-Type\'] = \'text/csv\'\n    #response.headers[\'Content-Disposition\'] = \'attachment; filename=%s\' % request.vars.File_Name\n\n    #print view_profile\n    #print name\n    #print location\n    #print industry\n    #print titl\n    \n   # return dict(view_profile=view_profile,name=name,location=location,industry=industry,titl=titl,current=current)\n\nresponse._vars=response._caller(search)\n'
p7
sS'snapshot'
p8
(dp9
S'exception'
p10
(dp11
S'__module__'
p12
S"'urllib2'"
p13
sS'__getslice__'
p14
S"<method-wrapper '__getslice__' of URLError object>"
p15
sS'__str__'
p16
S"<bound method URLError.__str__ of URLError(error...ction was forcibly closed by the remote host'),)>"
p17
sS'__reduce__'
p18
S'<built-in method __reduce__ of URLError object>'
p19
sS'__dict__'
p20
S"{'reason': error(10054, 'An existing connection was forcibly closed by the remote host')}"
p21
sS'__sizeof__'
p22
S'<built-in method __sizeof__ of URLError object>'
p23
sS'__weakref__'
p24
S'None'
p25
sS'__init__'
p26
S"<bound method URLError.__init__ of URLError(erro...ction was forcibly closed by the remote host'),)>"
p27
sS'__setattr__'
p28
S"<method-wrapper '__setattr__' of URLError object>"
p29
sS'__reduce_ex__'
p30
S'<built-in method __reduce_ex__ of URLError object>'
p31
sS'__new__'
p32
S'<built-in method __new__ of type object>'
p33
sS'errno'
p34
S'None'
p35
sS'__format__'
p36
S'<built-in method __format__ of URLError object>'
p37
sS'__class__'
p38
S"<class 'urllib2.URLError'>"
p39
sS'filename'
p40
S'None'
p41
sS'__doc__'
p42
S'None'
p43
sS'__getitem__'
p44
S"<method-wrapper '__getitem__' of URLError object>"
p45
sS'__setstate__'
p46
S'<built-in method __setstate__ of URLError object>'
p47
sS'__getattribute__'
p48
S"<method-wrapper '__getattribute__' of URLError object>"
p49
sS'args'
p50
S"(error(10054, 'An existing connection was forcibly closed by the remote host'),)"
p51
sS'reason'
p52
S"error(10054, 'An existing connection was forcibly closed by the remote host')"
p53
sS'__subclasshook__'
p54
S'<built-in method __subclasshook__ of type object>'
p55
sS'__unicode__'
p56
S'<built-in method __unicode__ of URLError object>'
p57
sS'strerror'
p58
S'None'
p59
sS'__delattr__'
p60
S"<method-wrapper '__delattr__' of URLError object>"
p61
sS'__repr__'
p62
S"<method-wrapper '__repr__' of URLError object>"
p63
sS'__hash__'
p64
S"<method-wrapper '__hash__' of URLError object>"
p65
ssS'evalue'
p66
S'<urlopen error [Errno 10054] An existing connection was forcibly closed by the remote host>'
p67
sS'request'
p68
ccopy_reg
_reconstructor
p69
(cgluon.html
BEAUTIFY
p70
c__builtin__
object
p71
NtRp72
(dp73
S'attributes'
p74
(dp75
sS'components'
p76
(lp77
g69
(cgluon.html
TABLE
p78
g71
NtRp79
(dp80
g74
(dp81
S'level'
p82
I5
ssS'parent'
p83
Nsg76
(lp84
g69
(cgluon.html
TR
p85
g71
NtRp86
(dp87
g74
(dp88
sg83
g79
sg76
(lp89
g69
(cgluon.html
TD
p90
g71
NtRp91
(dp92
g74
(dp93
S'_style'
p94
S'font-weight:bold;vertical-align:top'
p95
ssg83
g86
sg76
(lp96
S'ajax'
p97
asbag69
(g90
g71
NtRp98
(dp99
g74
(dp100
S'_valign'
p101
S'top'
p102
ssg83
g86
sg76
(lp103
S':'
asbag69
(g90
g71
NtRp104
(dp105
g74
(dp106
sg83
g86
sg76
(lp107
g69
(g70
g71
NtRp108
(dp109
g74
(dp110
g82
I5
ssg83
g104
sg76
(lp111
S'False'
p112
asbasbasbag69
(g85
g71
NtRp113
(dp114
g74
(dp115
sg83
g79
sg76
(lp116
g69
(g90
g71
NtRp117
(dp118
g74
(dp119
g94
g95
ssg83
g113
sg76
(lp120
S'application'
p121
asbag69
(g90
g71
NtRp122
(dp123
g74
(dp124
g101
g102
ssg83
g113
sg76
(lp125
S':'
asbag69
(g90
g71
NtRp126
(dp127
g74
(dp128
sg83
g113
sg76
(lp129
g69
(g70
g71
NtRp130
(dp131
g74
(dp132
g82
I5
ssg83
g126
sg76
(lp133
S'mycrawler'
p134
asbasbasbag69
(g85
g71
NtRp135
(dp136
g74
(dp137
sg83
g79
sg76
(lp138
g69
(g90
g71
NtRp139
(dp140
g74
(dp141
g94
g95
ssg83
g135
sg76
(lp142
g50
asbag69
(g90
g71
NtRp143
(dp144
g74
(dp145
g101
g102
ssg83
g135
sg76
(lp146
S':'
asbag69
(g90
g71
NtRp147
(dp148
g74
(dp149
sg83
g135
sg76
(lp150
g69
(g70
g71
NtRp151
(dp152
g74
(dp153
g82
I5
ssg83
g147
sg76
(lp154
g69
(g78
g71
NtRp155
(dp156
g74
(dp157
g82
I4
ssg83
Nsg76
(lp158
sbasbasbasbag69
(g85
g71
NtRp159
(dp160
g74
(dp161
sg83
g79
sg76
(lp162
g69
(g90
g71
NtRp163
(dp164
g74
(dp165
g94
g95
ssg83
g159
sg76
(lp166
S'body'
p167
asbag69
(g90
g71
NtRp168
(dp169
g74
(dp170
g101
g102
ssg83
g159
sg76
(lp171
S':'
asbag69
(g90
g71
NtRp172
(dp173
g74
(dp174
sg83
g159
sg76
(lp175
g69
(g70
g71
NtRp176
(dp177
g74
(dp178
g82
I5
ssg83
g172
sg76
(lp179
S'<cStringIO.StringO object at 0x04C66E60>'
p180
asbasbasbag69
(g85
g71
NtRp181
(dp182
g74
(dp183
sg83
g79
sg76
(lp184
g69
(g90
g71
NtRp185
(dp186
g74
(dp187
g94
g95
ssg83
g181
sg76
(lp188
S'client'
p189
asbag69
(g90
g71
NtRp190
(dp191
g74
(dp192
g101
g102
ssg83
g181
sg76
(lp193
S':'
asbag69
(g90
g71
NtRp194
(dp195
g74
(dp196
sg83
g181
sg76
(lp197
g69
(g70
g71
NtRp198
(dp199
g74
(dp200
g82
I5
ssg83
g194
sg76
(lp201
S'127.0.0.1'
p202
asbasbasbag69
(g85
g71
NtRp203
(dp204
g74
(dp205
sg83
g79
sg76
(lp206
g69
(g90
g71
NtRp207
(dp208
g74
(dp209
g94
g95
ssg83
g203
sg76
(lp210
S'controller'
p211
asbag69
(g90
g71
NtRp212
(dp213
g74
(dp214
g101
g102
ssg83
g203
sg76
(lp215
S':'
asbag69
(g90
g71
NtRp216
(dp217
g74
(dp218
sg83
g203
sg76
(lp219
g69
(g70
g71
NtRp220
(dp221
g74
(dp222
g82
I5
ssg83
g216
sg76
(lp223
S'default'
p224
asbasbasbag69
(g85
g71
NtRp225
(dp226
g74
(dp227
sg83
g79
sg76
(lp228
g69
(g90
g71
NtRp229
(dp230
g74
(dp231
g94
g95
ssg83
g225
sg76
(lp232
S'cookies'
p233
asbag69
(g90
g71
NtRp234
(dp235
g74
(dp236
g101
g102
ssg83
g225
sg76
(lp237
S':'
asbag69
(g90
g71
NtRp238
(dp239
g74
(dp240
sg83
g225
sg76
(lp241
g69
(g70
g71
NtRp242
(dp243
g74
(dp244
g82
I5
ssg83
g238
sg76
(lp245
g69
(g78
g71
NtRp246
(dp247
g74
(dp248
g82
I4
ssg83
Nsg76
(lp249
g69
(g85
g71
NtRp250
(dp251
g74
(dp252
sg83
g246
sg76
(lp253
g69
(g90
g71
NtRp254
(dp255
g74
(dp256
g94
g95
ssg83
g250
sg76
(lp257
S'session_id_admin'
p258
asbag69
(g90
g71
NtRp259
(dp260
g74
(dp261
g101
g102
ssg83
g250
sg76
(lp262
S':'
asbag69
(g90
g71
NtRp263
(dp264
g74
(dp265
sg83
g250
sg76
(lp266
g69
(g70
g71
NtRp267
(dp268
g74
(dp269
g82
I4
ssg83
g263
sg76
(lp270
g69
(g78
g71
NtRp271
(dp272
g74
(dp273
g82
I3
ssg83
Nsg76
(lp274
g69
(g85
g71
NtRp275
(dp276
g74
(dp277
sg83
g271
sg76
(lp278
g69
(g90
g71
NtRp279
(dp280
g74
(dp281
g94
g95
ssg83
g275
sg76
(lp282
S'comment'
p283
asbag69
(g90
g71
NtRp284
(dp285
g74
(dp286
g101
g102
ssg83
g275
sg76
(lp287
S':'
asbag69
(g90
g71
NtRp288
(dp289
g74
(dp290
sg83
g275
sg76
(lp291
g69
(g70
g71
NtRp292
(dp293
g74
(dp294
g82
I3
ssg83
g288
sg76
(lp295
S''
asbasbasbag69
(g85
g71
NtRp296
(dp297
g74
(dp298
sg83
g271
sg76
(lp299
g69
(g90
g71
NtRp300
(dp301
g74
(dp302
g94
g95
ssg83
g296
sg76
(lp303
S'domain'
p304
asbag69
(g90
g71
NtRp305
(dp306
g74
(dp307
g101
g102
ssg83
g296
sg76
(lp308
S':'
asbag69
(g90
g71
NtRp309
(dp310
g74
(dp311
sg83
g296
sg76
(lp312
g69
(g70
g71
NtRp313
(dp314
g74
(dp315
g82
I3
ssg83
g309
sg76
(lp316
S''
asbasbasbag69
(g85
g71
NtRp317
(dp318
g74
(dp319
sg83
g271
sg76
(lp320
g69
(g90
g71
NtRp321
(dp322
g74
(dp323
g94
g95
ssg83
g317
sg76
(lp324
S'expires'
p325
asbag69
(g90
g71
NtRp326
(dp327
g74
(dp328
g101
g102
ssg83
g317
sg76
(lp329
S':'
asbag69
(g90
g71
NtRp330
(dp331
g74
(dp332
sg83
g317
sg76
(lp333
g69
(g70
g71
NtRp334
(dp335
g74
(dp336
g82
I3
ssg83
g330
sg76
(lp337
S''
asbasbasbag69
(g85
g71
NtRp338
(dp339
g74
(dp340
sg83
g271
sg76
(lp341
g69
(g90
g71
NtRp342
(dp343
g74
(dp344
g94
g95
ssg83
g338
sg76
(lp345
S'httponly'
p346
asbag69
(g90
g71
NtRp347
(dp348
g74
(dp349
g101
g102
ssg83
g338
sg76
(lp350
S':'
asbag69
(g90
g71
NtRp351
(dp352
g74
(dp353
sg83
g338
sg76
(lp354
g69
(g70
g71
NtRp355
(dp356
g74
(dp357
g82
I3
ssg83
g351
sg76
(lp358
S''
asbasbasbag69
(g85
g71
NtRp359
(dp360
g74
(dp361
sg83
g271
sg76
(lp362
g69
(g90
g71
NtRp363
(dp364
g74
(dp365
g94
g95
ssg83
g359
sg76
(lp366
S'max-age'
p367
asbag69
(g90
g71
NtRp368
(dp369
g74
(dp370
g101
g102
ssg83
g359
sg76
(lp371
S':'
asbag69
(g90
g71
NtRp372
(dp373
g74
(dp374
sg83
g359
sg76
(lp375
g69
(g70
g71
NtRp376
(dp377
g74
(dp378
g82
I3
ssg83
g372
sg76
(lp379
S''
asbasbasbag69
(g85
g71
NtRp380
(dp381
g74
(dp382
sg83
g271
sg76
(lp383
g69
(g90
g71
NtRp384
(dp385
g74
(dp386
g94
g95
ssg83
g380
sg76
(lp387
S'path'
p388
asbag69
(g90
g71
NtRp389
(dp390
g74
(dp391
g101
g102
ssg83
g380
sg76
(lp392
S':'
asbag69
(g90
g71
NtRp393
(dp394
g74
(dp395
sg83
g380
sg76
(lp396
g69
(g70
g71
NtRp397
(dp398
g74
(dp399
g82
I3
ssg83
g393
sg76
(lp400
S''
asbasbasbag69
(g85
g71
NtRp401
(dp402
g74
(dp403
sg83
g271
sg76
(lp404
g69
(g90
g71
NtRp405
(dp406
g74
(dp407
g94
g95
ssg83
g401
sg76
(lp408
S'secure'
p409
asbag69
(g90
g71
NtRp410
(dp411
g74
(dp412
g101
g102
ssg83
g401
sg76
(lp413
S':'
asbag69
(g90
g71
NtRp414
(dp415
g74
(dp416
sg83
g401
sg76
(lp417
g69
(g70
g71
NtRp418
(dp419
g74
(dp420
g82
I3
ssg83
g414
sg76
(lp421
S''
asbasbasbag69
(g85
g71
NtRp422
(dp423
g74
(dp424
sg83
g271
sg76
(lp425
g69
(g90
g71
NtRp426
(dp427
g74
(dp428
g94
g95
ssg83
g422
sg76
(lp429
S'version'
p430
asbag69
(g90
g71
NtRp431
(dp432
g74
(dp433
g101
g102
ssg83
g422
sg76
(lp434
S':'
asbag69
(g90
g71
NtRp435
(dp436
g74
(dp437
sg83
g422
sg76
(lp438
g69
(g70
g71
NtRp439
(dp440
g74
(dp441
g82
I3
ssg83
g435
sg76
(lp442
S''
asbasbasbasbasbasbasbag69
(g85
g71
NtRp443
(dp444
g74
(dp445
sg83
g246
sg76
(lp446
g69
(g90
g71
NtRp447
(dp448
g74
(dp449
g94
g95
ssg83
g443
sg76
(lp450
S'session_id_crawler'
p451
asbag69
(g90
g71
NtRp452
(dp453
g74
(dp454
g101
g102
ssg83
g443
sg76
(lp455
S':'
asbag69
(g90
g71
NtRp456
(dp457
g74
(dp458
sg83
g443
sg76
(lp459
g69
(g70
g71
NtRp460
(dp461
g74
(dp462
g82
I4
ssg83
g456
sg76
(lp463
g69
(g78
g71
NtRp464
(dp465
g74
(dp466
g82
I3
ssg83
Nsg76
(lp467
g69
(g85
g71
NtRp468
(dp469
g74
(dp470
sg83
g464
sg76
(lp471
g69
(g90
g71
NtRp472
(dp473
g74
(dp474
g94
g95
ssg83
g468
sg76
(lp475
g283
asbag69
(g90
g71
NtRp476
(dp477
g74
(dp478
g101
g102
ssg83
g468
sg76
(lp479
S':'
asbag69
(g90
g71
NtRp480
(dp481
g74
(dp482
sg83
g468
sg76
(lp483
g69
(g70
g71
NtRp484
(dp485
g74
(dp486
g82
I3
ssg83
g480
sg76
(lp487
S''
asbasbasbag69
(g85
g71
NtRp488
(dp489
g74
(dp490
sg83
g464
sg76
(lp491
g69
(g90
g71
NtRp492
(dp493
g74
(dp494
g94
g95
ssg83
g488
sg76
(lp495
g304
asbag69
(g90
g71
NtRp496
(dp497
g74
(dp498
g101
g102
ssg83
g488
sg76
(lp499
S':'
asbag69
(g90
g71
NtRp500
(dp501
g74
(dp502
sg83
g488
sg76
(lp503
g69
(g70
g71
NtRp504
(dp505
g74
(dp506
g82
I3
ssg83
g500
sg76
(lp507
S''
asbasbasbag69
(g85
g71
NtRp508
(dp509
g74
(dp510
sg83
g464
sg76
(lp511
g69
(g90
g71
NtRp512
(dp513
g74
(dp514
g94
g95
ssg83
g508
sg76
(lp515
g325
asbag69
(g90
g71
NtRp516
(dp517
g74
(dp518
g101
g102
ssg83
g508
sg76
(lp519
S':'
asbag69
(g90
g71
NtRp520
(dp521
g74
(dp522
sg83
g508
sg76
(lp523
g69
(g70
g71
NtRp524
(dp525
g74
(dp526
g82
I3
ssg83
g520
sg76
(lp527
S''
asbasbasbag69
(g85
g71
NtRp528
(dp529
g74
(dp530
sg83
g464
sg76
(lp531
g69
(g90
g71
NtRp532
(dp533
g74
(dp534
g94
g95
ssg83
g528
sg76
(lp535
g346
asbag69
(g90
g71
NtRp536
(dp537
g74
(dp538
g101
g102
ssg83
g528
sg76
(lp539
S':'
asbag69
(g90
g71
NtRp540
(dp541
g74
(dp542
sg83
g528
sg76
(lp543
g69
(g70
g71
NtRp544
(dp545
g74
(dp546
g82
I3
ssg83
g540
sg76
(lp547
S''
asbasbasbag69
(g85
g71
NtRp548
(dp549
g74
(dp550
sg83
g464
sg76
(lp551
g69
(g90
g71
NtRp552
(dp553
g74
(dp554
g94
g95
ssg83
g548
sg76
(lp555
g367
asbag69
(g90
g71
NtRp556
(dp557
g74
(dp558
g101
g102
ssg83
g548
sg76
(lp559
S':'
asbag69
(g90
g71
NtRp560
(dp561
g74
(dp562
sg83
g548
sg76
(lp563
g69
(g70
g71
NtRp564
(dp565
g74
(dp566
g82
I3
ssg83
g560
sg76
(lp567
S''
asbasbasbag69
(g85
g71
NtRp568
(dp569
g74
(dp570
sg83
g464
sg76
(lp571
g69
(g90
g71
NtRp572
(dp573
g74
(dp574
g94
g95
ssg83
g568
sg76
(lp575
g388
asbag69
(g90
g71
NtRp576
(dp577
g74
(dp578
g101
g102
ssg83
g568
sg76
(lp579
S':'
asbag69
(g90
g71
NtRp580
(dp581
g74
(dp582
sg83
g568
sg76
(lp583
g69
(g70
g71
NtRp584
(dp585
g74
(dp586
g82
I3
ssg83
g580
sg76
(lp587
S''
asbasbasbag69
(g85
g71
NtRp588
(dp589
g74
(dp590
sg83
g464
sg76
(lp591
g69
(g90
g71
NtRp592
(dp593
g74
(dp594
g94
g95
ssg83
g588
sg76
(lp595
g409
asbag69
(g90
g71
NtRp596
(dp597
g74
(dp598
g101
g102
ssg83
g588
sg76
(lp599
S':'
asbag69
(g90
g71
NtRp600
(dp601
g74
(dp602
sg83
g588
sg76
(lp603
g69
(g70
g71
NtRp604
(dp605
g74
(dp606
g82
I3
ssg83
g600
sg76
(lp607
S''
asbasbasbag69
(g85
g71
NtRp608
(dp609
g74
(dp610
sg83
g464
sg76
(lp611
g69
(g90
g71
NtRp612
(dp613
g74
(dp614
g94
g95
ssg83
g608
sg76
(lp615
g430
asbag69
(g90
g71
NtRp616
(dp617
g74
(dp618
g101
g102
ssg83
g608
sg76
(lp619
S':'
asbag69
(g90
g71
NtRp620
(dp621
g74
(dp622
sg83
g608
sg76
(lp623
g69
(g70
g71
NtRp624
(dp625
g74
(dp626
g82
I3
ssg83
g620
sg76
(lp627
S''
asbasbasbasbasbasbasbag69
(g85
g71
NtRp628
(dp629
g74
(dp630
sg83
g246
sg76
(lp631
g69
(g90
g71
NtRp632
(dp633
g74
(dp634
g94
g95
ssg83
g628
sg76
(lp635
S'session_id_mycrawler'
p636
asbag69
(g90
g71
NtRp637
(dp638
g74
(dp639
g101
g102
ssg83
g628
sg76
(lp640
S':'
asbag69
(g90
g71
NtRp641
(dp642
g74
(dp643
sg83
g628
sg76
(lp644
g69
(g70
g71
NtRp645
(dp646
g74
(dp647
g82
I4
ssg83
g641
sg76
(lp648
g69
(g78
g71
NtRp649
(dp650
g74
(dp651
g82
I3
ssg83
Nsg76
(lp652
g69
(g85
g71
NtRp653
(dp654
g74
(dp655
sg83
g649
sg76
(lp656
g69
(g90
g71
NtRp657
(dp658
g74
(dp659
g94
g95
ssg83
g653
sg76
(lp660
g283
asbag69
(g90
g71
NtRp661
(dp662
g74
(dp663
g101
g102
ssg83
g653
sg76
(lp664
S':'
asbag69
(g90
g71
NtRp665
(dp666
g74
(dp667
sg83
g653
sg76
(lp668
g69
(g70
g71
NtRp669
(dp670
g74
(dp671
g82
I3
ssg83
g665
sg76
(lp672
S''
asbasbasbag69
(g85
g71
NtRp673
(dp674
g74
(dp675
sg83
g649
sg76
(lp676
g69
(g90
g71
NtRp677
(dp678
g74
(dp679
g94
g95
ssg83
g673
sg76
(lp680
g304
asbag69
(g90
g71
NtRp681
(dp682
g74
(dp683
g101
g102
ssg83
g673
sg76
(lp684
S':'
asbag69
(g90
g71
NtRp685
(dp686
g74
(dp687
sg83
g673
sg76
(lp688
g69
(g70
g71
NtRp689
(dp690
g74
(dp691
g82
I3
ssg83
g685
sg76
(lp692
S''
asbasbasbag69
(g85
g71
NtRp693
(dp694
g74
(dp695
sg83
g649
sg76
(lp696
g69
(g90
g71
NtRp697
(dp698
g74
(dp699
g94
g95
ssg83
g693
sg76
(lp700
g325
asbag69
(g90
g71
NtRp701
(dp702
g74
(dp703
g101
g102
ssg83
g693
sg76
(lp704
S':'
asbag69
(g90
g71
NtRp705
(dp706
g74
(dp707
sg83
g693
sg76
(lp708
g69
(g70
g71
NtRp709
(dp710
g74
(dp711
g82
I3
ssg83
g705
sg76
(lp712
S''
asbasbasbag69
(g85
g71
NtRp713
(dp714
g74
(dp715
sg83
g649
sg76
(lp716
g69
(g90
g71
NtRp717
(dp718
g74
(dp719
g94
g95
ssg83
g713
sg76
(lp720
g346
asbag69
(g90
g71
NtRp721
(dp722
g74
(dp723
g101
g102
ssg83
g713
sg76
(lp724
S':'
asbag69
(g90
g71
NtRp725
(dp726
g74
(dp727
sg83
g713
sg76
(lp728
g69
(g70
g71
NtRp729
(dp730
g74
(dp731
g82
I3
ssg83
g725
sg76
(lp732
S''
asbasbasbag69
(g85
g71
NtRp733
(dp734
g74
(dp735
sg83
g649
sg76
(lp736
g69
(g90
g71
NtRp737
(dp738
g74
(dp739
g94
g95
ssg83
g733
sg76
(lp740
g367
asbag69
(g90
g71
NtRp741
(dp742
g74
(dp743
g101
g102
ssg83
g733
sg76
(lp744
S':'
asbag69
(g90
g71
NtRp745
(dp746
g74
(dp747
sg83
g733
sg76
(lp748
g69
(g70
g71
NtRp749
(dp750
g74
(dp751
g82
I3
ssg83
g745
sg76
(lp752
S''
asbasbasbag69
(g85
g71
NtRp753
(dp754
g74
(dp755
sg83
g649
sg76
(lp756
g69
(g90
g71
NtRp757
(dp758
g74
(dp759
g94
g95
ssg83
g753
sg76
(lp760
g388
asbag69
(g90
g71
NtRp761
(dp762
g74
(dp763
g101
g102
ssg83
g753
sg76
(lp764
S':'
asbag69
(g90
g71
NtRp765
(dp766
g74
(dp767
sg83
g753
sg76
(lp768
g69
(g70
g71
NtRp769
(dp770
g74
(dp771
g82
I3
ssg83
g765
sg76
(lp772
S''
asbasbasbag69
(g85
g71
NtRp773
(dp774
g74
(dp775
sg83
g649
sg76
(lp776
g69
(g90
g71
NtRp777
(dp778
g74
(dp779
g94
g95
ssg83
g773
sg76
(lp780
g409
asbag69
(g90
g71
NtRp781
(dp782
g74
(dp783
g101
g102
ssg83
g773
sg76
(lp784
S':'
asbag69
(g90
g71
NtRp785
(dp786
g74
(dp787
sg83
g773
sg76
(lp788
g69
(g70
g71
NtRp789
(dp790
g74
(dp791
g82
I3
ssg83
g785
sg76
(lp792
S''
asbasbasbag69
(g85
g71
NtRp793
(dp794
g74
(dp795
sg83
g649
sg76
(lp796
g69
(g90
g71
NtRp797
(dp798
g74
(dp799
g94
g95
ssg83
g793
sg76
(lp800
g430
asbag69
(g90
g71
NtRp801
(dp802
g74
(dp803
g101
g102
ssg83
g793
sg76
(lp804
S':'
asbag69
(g90
g71
NtRp805
(dp806
g74
(dp807
sg83
g793
sg76
(lp808
g69
(g70
g71
NtRp809
(dp810
g74
(dp811
g82
I3
ssg83
g805
sg76
(lp812
S''
asbasbasbasbasbasbasbag69
(g85
g71
NtRp813
(dp814
g74
(dp815
sg83
g246
sg76
(lp816
g69
(g90
g71
NtRp817
(dp818
g74
(dp819
g94
g95
ssg83
g813
sg76
(lp820
S'session_id_mycrawler_2'
p821
asbag69
(g90
g71
NtRp822
(dp823
g74
(dp824
g101
g102
ssg83
g813
sg76
(lp825
S':'
asbag69
(g90
g71
NtRp826
(dp827
g74
(dp828
sg83
g813
sg76
(lp829
g69
(g70
g71
NtRp830
(dp831
g74
(dp832
g82
I4
ssg83
g826
sg76
(lp833
g69
(g78
g71
NtRp834
(dp835
g74
(dp836
g82
I3
ssg83
Nsg76
(lp837
g69
(g85
g71
NtRp838
(dp839
g74
(dp840
sg83
g834
sg76
(lp841
g69
(g90
g71
NtRp842
(dp843
g74
(dp844
g94
g95
ssg83
g838
sg76
(lp845
g283
asbag69
(g90
g71
NtRp846
(dp847
g74
(dp848
g101
g102
ssg83
g838
sg76
(lp849
S':'
asbag69
(g90
g71
NtRp850
(dp851
g74
(dp852
sg83
g838
sg76
(lp853
g69
(g70
g71
NtRp854
(dp855
g74
(dp856
g82
I3
ssg83
g850
sg76
(lp857
S''
asbasbasbag69
(g85
g71
NtRp858
(dp859
g74
(dp860
sg83
g834
sg76
(lp861
g69
(g90
g71
NtRp862
(dp863
g74
(dp864
g94
g95
ssg83
g858
sg76
(lp865
g304
asbag69
(g90
g71
NtRp866
(dp867
g74
(dp868
g101
g102
ssg83
g858
sg76
(lp869
S':'
asbag69
(g90
g71
NtRp870
(dp871
g74
(dp872
sg83
g858
sg76
(lp873
g69
(g70
g71
NtRp874
(dp875
g74
(dp876
g82
I3
ssg83
g870
sg76
(lp877
S''
asbasbasbag69
(g85
g71
NtRp878
(dp879
g74
(dp880
sg83
g834
sg76
(lp881
g69
(g90
g71
NtRp882
(dp883
g74
(dp884
g94
g95
ssg83
g878
sg76
(lp885
g325
asbag69
(g90
g71
NtRp886
(dp887
g74
(dp888
g101
g102
ssg83
g878
sg76
(lp889
S':'
asbag69
(g90
g71
NtRp890
(dp891
g74
(dp892
sg83
g878
sg76
(lp893
g69
(g70
g71
NtRp894
(dp895
g74
(dp896
g82
I3
ssg83
g890
sg76
(lp897
S''
asbasbasbag69
(g85
g71
NtRp898
(dp899
g74
(dp900
sg83
g834
sg76
(lp901
g69
(g90
g71
NtRp902
(dp903
g74
(dp904
g94
g95
ssg83
g898
sg76
(lp905
g346
asbag69
(g90
g71
NtRp906
(dp907
g74
(dp908
g101
g102
ssg83
g898
sg76
(lp909
S':'
asbag69
(g90
g71
NtRp910
(dp911
g74
(dp912
sg83
g898
sg76
(lp913
g69
(g70
g71
NtRp914
(dp915
g74
(dp916
g82
I3
ssg83
g910
sg76
(lp917
S''
asbasbasbag69
(g85
g71
NtRp918
(dp919
g74
(dp920
sg83
g834
sg76
(lp921
g69
(g90
g71
NtRp922
(dp923
g74
(dp924
g94
g95
ssg83
g918
sg76
(lp925
g367
asbag69
(g90
g71
NtRp926
(dp927
g74
(dp928
g101
g102
ssg83
g918
sg76
(lp929
S':'
asbag69
(g90
g71
NtRp930
(dp931
g74
(dp932
sg83
g918
sg76
(lp933
g69
(g70
g71
NtRp934
(dp935
g74
(dp936
g82
I3
ssg83
g930
sg76
(lp937
S''
asbasbasbag69
(g85
g71
NtRp938
(dp939
g74
(dp940
sg83
g834
sg76
(lp941
g69
(g90
g71
NtRp942
(dp943
g74
(dp944
g94
g95
ssg83
g938
sg76
(lp945
g388
asbag69
(g90
g71
NtRp946
(dp947
g74
(dp948
g101
g102
ssg83
g938
sg76
(lp949
S':'
asbag69
(g90
g71
NtRp950
(dp951
g74
(dp952
sg83
g938
sg76
(lp953
g69
(g70
g71
NtRp954
(dp955
g74
(dp956
g82
I3
ssg83
g950
sg76
(lp957
S''
asbasbasbag69
(g85
g71
NtRp958
(dp959
g74
(dp960
sg83
g834
sg76
(lp961
g69
(g90
g71
NtRp962
(dp963
g74
(dp964
g94
g95
ssg83
g958
sg76
(lp965
g409
asbag69
(g90
g71
NtRp966
(dp967
g74
(dp968
g101
g102
ssg83
g958
sg76
(lp969
S':'
asbag69
(g90
g71
NtRp970
(dp971
g74
(dp972
sg83
g958
sg76
(lp973
g69
(g70
g71
NtRp974
(dp975
g74
(dp976
g82
I3
ssg83
g970
sg76
(lp977
S''
asbasbasbag69
(g85
g71
NtRp978
(dp979
g74
(dp980
sg83
g834
sg76
(lp981
g69
(g90
g71
NtRp982
(dp983
g74
(dp984
g94
g95
ssg83
g978
sg76
(lp985
g430
asbag69
(g90
g71
NtRp986
(dp987
g74
(dp988
g101
g102
ssg83
g978
sg76
(lp989
S':'
asbag69
(g90
g71
NtRp990
(dp991
g74
(dp992
sg83
g978
sg76
(lp993
g69
(g70
g71
NtRp994
(dp995
g74
(dp996
g82
I3
ssg83
g990
sg76
(lp997
S''
asbasbasbasbasbasbasbag69
(g85
g71
NtRp998
(dp999
g74
(dp1000
sg83
g246
sg76
(lp1001
g69
(g90
g71
NtRp1002
(dp1003
g74
(dp1004
g94
g95
ssg83
g998
sg76
(lp1005
S'session_id_welcome'
p1006
asbag69
(g90
g71
NtRp1007
(dp1008
g74
(dp1009
g101
g102
ssg83
g998
sg76
(lp1010
S':'
asbag69
(g90
g71
NtRp1011
(dp1012
g74
(dp1013
sg83
g998
sg76
(lp1014
g69
(g70
g71
NtRp1015
(dp1016
g74
(dp1017
g82
I4
ssg83
g1011
sg76
(lp1018
g69
(g78
g71
NtRp1019
(dp1020
g74
(dp1021
g82
I3
ssg83
Nsg76
(lp1022
g69
(g85
g71
NtRp1023
(dp1024
g74
(dp1025
sg83
g1019
sg76
(lp1026
g69
(g90
g71
NtRp1027
(dp1028
g74
(dp1029
g94
g95
ssg83
g1023
sg76
(lp1030
g283
asbag69
(g90
g71
NtRp1031
(dp1032
g74
(dp1033
g101
g102
ssg83
g1023
sg76
(lp1034
S':'
asbag69
(g90
g71
NtRp1035
(dp1036
g74
(dp1037
sg83
g1023
sg76
(lp1038
g69
(g70
g71
NtRp1039
(dp1040
g74
(dp1041
g82
I3
ssg83
g1035
sg76
(lp1042
S''
asbasbasbag69
(g85
g71
NtRp1043
(dp1044
g74
(dp1045
sg83
g1019
sg76
(lp1046
g69
(g90
g71
NtRp1047
(dp1048
g74
(dp1049
g94
g95
ssg83
g1043
sg76
(lp1050
g304
asbag69
(g90
g71
NtRp1051
(dp1052
g74
(dp1053
g101
g102
ssg83
g1043
sg76
(lp1054
S':'
asbag69
(g90
g71
NtRp1055
(dp1056
g74
(dp1057
sg83
g1043
sg76
(lp1058
g69
(g70
g71
NtRp1059
(dp1060
g74
(dp1061
g82
I3
ssg83
g1055
sg76
(lp1062
S''
asbasbasbag69
(g85
g71
NtRp1063
(dp1064
g74
(dp1065
sg83
g1019
sg76
(lp1066
g69
(g90
g71
NtRp1067
(dp1068
g74
(dp1069
g94
g95
ssg83
g1063
sg76
(lp1070
g325
asbag69
(g90
g71
NtRp1071
(dp1072
g74
(dp1073
g101
g102
ssg83
g1063
sg76
(lp1074
S':'
asbag69
(g90
g71
NtRp1075
(dp1076
g74
(dp1077
sg83
g1063
sg76
(lp1078
g69
(g70
g71
NtRp1079
(dp1080
g74
(dp1081
g82
I3
ssg83
g1075
sg76
(lp1082
S''
asbasbasbag69
(g85
g71
NtRp1083
(dp1084
g74
(dp1085
sg83
g1019
sg76
(lp1086
g69
(g90
g71
NtRp1087
(dp1088
g74
(dp1089
g94
g95
ssg83
g1083
sg76
(lp1090
g346
asbag69
(g90
g71
NtRp1091
(dp1092
g74
(dp1093
g101
g102
ssg83
g1083
sg76
(lp1094
S':'
asbag69
(g90
g71
NtRp1095
(dp1096
g74
(dp1097
sg83
g1083
sg76
(lp1098
g69
(g70
g71
NtRp1099
(dp1100
g74
(dp1101
g82
I3
ssg83
g1095
sg76
(lp1102
S''
asbasbasbag69
(g85
g71
NtRp1103
(dp1104
g74
(dp1105
sg83
g1019
sg76
(lp1106
g69
(g90
g71
NtRp1107
(dp1108
g74
(dp1109
g94
g95
ssg83
g1103
sg76
(lp1110
g367
asbag69
(g90
g71
NtRp1111
(dp1112
g74
(dp1113
g101
g102
ssg83
g1103
sg76
(lp1114
S':'
asbag69
(g90
g71
NtRp1115
(dp1116
g74
(dp1117
sg83
g1103
sg76
(lp1118
g69
(g70
g71
NtRp1119
(dp1120
g74
(dp1121
g82
I3
ssg83
g1115
sg76
(lp1122
S''
asbasbasbag69
(g85
g71
NtRp1123
(dp1124
g74
(dp1125
sg83
g1019
sg76
(lp1126
g69
(g90
g71
NtRp1127
(dp1128
g74
(dp1129
g94
g95
ssg83
g1123
sg76
(lp1130
g388
asbag69
(g90
g71
NtRp1131
(dp1132
g74
(dp1133
g101
g102
ssg83
g1123
sg76
(lp1134
S':'
asbag69
(g90
g71
NtRp1135
(dp1136
g74
(dp1137
sg83
g1123
sg76
(lp1138
g69
(g70
g71
NtRp1139
(dp1140
g74
(dp1141
g82
I3
ssg83
g1135
sg76
(lp1142
S''
asbasbasbag69
(g85
g71
NtRp1143
(dp1144
g74
(dp1145
sg83
g1019
sg76
(lp1146
g69
(g90
g71
NtRp1147
(dp1148
g74
(dp1149
g94
g95
ssg83
g1143
sg76
(lp1150
g409
asbag69
(g90
g71
NtRp1151
(dp1152
g74
(dp1153
g101
g102
ssg83
g1143
sg76
(lp1154
S':'
asbag69
(g90
g71
NtRp1155
(dp1156
g74
(dp1157
sg83
g1143
sg76
(lp1158
g69
(g70
g71
NtRp1159
(dp1160
g74
(dp1161
g82
I3
ssg83
g1155
sg76
(lp1162
S''
asbasbasbag69
(g85
g71
NtRp1163
(dp1164
g74
(dp1165
sg83
g1019
sg76
(lp1166
g69
(g90
g71
NtRp1167
(dp1168
g74
(dp1169
g94
g95
ssg83
g1163
sg76
(lp1170
g430
asbag69
(g90
g71
NtRp1171
(dp1172
g74
(dp1173
g101
g102
ssg83
g1163
sg76
(lp1174
S':'
asbag69
(g90
g71
NtRp1175
(dp1176
g74
(dp1177
sg83
g1163
sg76
(lp1178
g69
(g70
g71
NtRp1179
(dp1180
g74
(dp1181
g82
I3
ssg83
g1175
sg76
(lp1182
S''
asbasbasbasbasbasbasbasbasbasbasbag69
(g85
g71
NtRp1183
(dp1184
g74
(dp1185
sg83
g79
sg76
(lp1186
g69
(g90
g71
NtRp1187
(dp1188
g74
(dp1189
g94
g95
ssg83
g1183
sg76
(lp1190
S'env'
p1191
asbag69
(g90
g71
NtRp1192
(dp1193
g74
(dp1194
g101
g102
ssg83
g1183
sg76
(lp1195
S':'
asbag69
(g90
g71
NtRp1196
(dp1197
g74
(dp1198
sg83
g1183
sg76
(lp1199
g69
(g70
g71
NtRp1200
(dp1201
g74
(dp1202
g82
I5
ssg83
g1196
sg76
(lp1203
g69
(g78
g71
NtRp1204
(dp1205
g74
(dp1206
g82
I4
ssg83
Nsg76
(lp1207
g69
(g85
g71
NtRp1208
(dp1209
g74
(dp1210
sg83
g1204
sg76
(lp1211
g69
(g90
g71
NtRp1212
(dp1213
g74
(dp1214
g94
g95
ssg83
g1208
sg76
(lp1215
S'app_folders'
p1216
asbag69
(g90
g71
NtRp1217
(dp1218
g74
(dp1219
g101
g102
ssg83
g1208
sg76
(lp1220
S':'
asbag69
(g90
g71
NtRp1221
(dp1222
g74
(dp1223
sg83
g1208
sg76
(lp1224
g69
(g70
g71
NtRp1225
(dp1226
g74
(dp1227
g82
I4
ssg83
g1221
sg76
(lp1228
S"set(['C:\\\\Documents and Settings\\\\agrover\\\\Desktop\\\\previous crawler\\\\web2py\\\\applications\\\\admin\\\\', 'C:\\\\Documents and Settings\\\\agrover\\\\Desktop\\\\previous crawler\\\\web2py\\\\applications\\\\mycrawler\\\\', 'C:\\\\Documents and Settings\\\\agrover\\\\Desktop\\\\previous crawler\\\\web2py\\\\applications\\\\welcome\\\\'])"
p1229
asbasbasbag69
(g85
g71
NtRp1230
(dp1231
g74
(dp1232
sg83
g1204
sg76
(lp1233
g69
(g90
g71
NtRp1234
(dp1235
g74
(dp1236
g94
g95
ssg83
g1230
sg76
(lp1237
S'applications_parent'
p1238
asbag69
(g90
g71
NtRp1239
(dp1240
g74
(dp1241
g101
g102
ssg83
g1230
sg76
(lp1242
S':'
asbag69
(g90
g71
NtRp1243
(dp1244
g74
(dp1245
sg83
g1230
sg76
(lp1246
g69
(g70
g71
NtRp1247
(dp1248
g74
(dp1249
g82
I4
ssg83
g1243
sg76
(lp1250
S'C:\\Documents and Settings\\agrover\\Desktop\\previous crawler\\web2py'
p1251
asbasbasbag69
(g85
g71
NtRp1252
(dp1253
g74
(dp1254
sg83
g1204
sg76
(lp1255
g69
(g90
g71
NtRp1256
(dp1257
g74
(dp1258
g94
g95
ssg83
g1252
sg76
(lp1259
S'cmd_args'
p1260
asbag69
(g90
g71
NtRp1261
(dp1262
g74
(dp1263
g101
g102
ssg83
g1252
sg76
(lp1264
S':'
asbag69
(g90
g71
NtRp1265
(dp1266
g74
(dp1267
sg83
g1252
sg76
(lp1268
g69
(g70
g71
NtRp1269
(dp1270
g74
(dp1271
g82
I4
ssg83
g1265
sg76
(lp1272
g69
(g78
g71
NtRp1273
(dp1274
g74
(dp1275
g82
I3
ssg83
Nsg76
(lp1276
sbasbasbasbag69
(g85
g71
NtRp1277
(dp1278
g74
(dp1279
sg83
g1204
sg76
(lp1280
g69
(g90
g71
NtRp1281
(dp1282
g74
(dp1283
g94
g95
ssg83
g1277
sg76
(lp1284
S'cmd_options'
p1285
asbag69
(g90
g71
NtRp1286
(dp1287
g74
(dp1288
g101
g102
ssg83
g1277
sg76
(lp1289
S':'
asbag69
(g90
g71
NtRp1290
(dp1291
g74
(dp1292
sg83
g1277
sg76
(lp1293
g69
(g70
g71
NtRp1294
(dp1295
g74
(dp1296
g82
I4
ssg83
g1290
sg76
(lp1297
S"<Values at 0x16d63f0: {'verbose': False, 'ip': '127.0.0.1', 'shutdown_timeout': 5, 'taskbar': False, 'nocron': False, 'pid_filename': 'httpserver.pid', 'maxthreads': None, 'softcron': False, 'server_name': 'mniagrover', 'bpython': False, 'nogui': False, 'port': 8000, 'extcron': False, 'debuglevel': 30, 'test': None, 'folder': 'C:\\\\Documents and Settings\\\\agrover\\\\Desktop\\\\previous crawler\\\\web2py', 'config': '', 'import_models': False, 'winservice': '', 'shell': None, 'run': '', 'log_filename': 'httpserver.log', 'args': [''], 'socket_timeout': 5, 'ssl_ca_certificate': None, 'scheduler': None, 'profiler_filename': None, 'ssl_private_key': '', 'password': '<ask>', 'request_queue_size': 5, 'ssl_certificate': '', 'cronjob': False, 'numthreads': None, 'quiet': False, 'interfaces': None, 'minthreads': None, 'timeout': 10, 'plain': False, 'nobanner': False}>"
p1298
asbasbasbag69
(g85
g71
NtRp1299
(dp1300
g74
(dp1301
sg83
g1204
sg76
(lp1302
g69
(g90
g71
NtRp1303
(dp1304
g74
(dp1305
g94
g95
ssg83
g1299
sg76
(lp1306
S'db_sessions'
p1307
asbag69
(g90
g71
NtRp1308
(dp1309
g74
(dp1310
g101
g102
ssg83
g1299
sg76
(lp1311
S':'
asbag69
(g90
g71
NtRp1312
(dp1313
g74
(dp1314
sg83
g1299
sg76
(lp1315
g69
(g70
g71
NtRp1316
(dp1317
g74
(dp1318
g82
I4
ssg83
g1312
sg76
(lp1319
S'set([])'
p1320
asbasbasbag69
(g85
g71
NtRp1321
(dp1322
g74
(dp1323
sg83
g1204
sg76
(lp1324
g69
(g90
g71
NtRp1325
(dp1326
g74
(dp1327
g94
g95
ssg83
g1321
sg76
(lp1328
S'debugging'
p1329
asbag69
(g90
g71
NtRp1330
(dp1331
g74
(dp1332
g101
g102
ssg83
g1321
sg76
(lp1333
S':'
asbag69
(g90
g71
NtRp1334
(dp1335
g74
(dp1336
sg83
g1321
sg76
(lp1337
g69
(g70
g71
NtRp1338
(dp1339
g74
(dp1340
g82
I4
ssg83
g1334
sg76
(lp1341
g112
asbasbasbag69
(g85
g71
NtRp1342
(dp1343
g74
(dp1344
sg83
g1204
sg76
(lp1345
g69
(g90
g71
NtRp1346
(dp1347
g74
(dp1348
g94
g95
ssg83
g1342
sg76
(lp1349
S'gluon_parent'
p1350
asbag69
(g90
g71
NtRp1351
(dp1352
g74
(dp1353
g101
g102
ssg83
g1342
sg76
(lp1354
S':'
asbag69
(g90
g71
NtRp1355
(dp1356
g74
(dp1357
sg83
g1342
sg76
(lp1358
g69
(g70
g71
NtRp1359
(dp1360
g74
(dp1361
g82
I4
ssg83
g1355
sg76
(lp1362
S'C:\\Documents and Settings\\agrover\\Desktop\\previous crawler\\web2py'
p1363
asbasbasbag69
(g85
g71
NtRp1364
(dp1365
g74
(dp1366
sg83
g1204
sg76
(lp1367
g69
(g90
g71
NtRp1368
(dp1369
g74
(dp1370
g94
g95
ssg83
g1364
sg76
(lp1371
S'http_accept'
p1372
asbag69
(g90
g71
NtRp1373
(dp1374
g74
(dp1375
g101
g102
ssg83
g1364
sg76
(lp1376
S':'
asbag69
(g90
g71
NtRp1377
(dp1378
g74
(dp1379
sg83
g1364
sg76
(lp1380
g69
(g70
g71
NtRp1381
(dp1382
g74
(dp1383
g82
I4
ssg83
g1377
sg76
(lp1384
S'text/html,application/xhtml+xml,application/xml;q=0.9,*/*;q=0.8'
p1385
asbasbasbag69
(g85
g71
NtRp1386
(dp1387
g74
(dp1388
sg83
g1204
sg76
(lp1389
g69
(g90
g71
NtRp1390
(dp1391
g74
(dp1392
g94
g95
ssg83
g1386
sg76
(lp1393
S'http_accept_encoding'
p1394
asbag69
(g90
g71
NtRp1395
(dp1396
g74
(dp1397
g101
g102
ssg83
g1386
sg76
(lp1398
S':'
asbag69
(g90
g71
NtRp1399
(dp1400
g74
(dp1401
sg83
g1386
sg76
(lp1402
g69
(g70
g71
NtRp1403
(dp1404
g74
(dp1405
g82
I4
ssg83
g1399
sg76
(lp1406
S'gzip, deflate'
p1407
asbasbasbag69
(g85
g71
NtRp1408
(dp1409
g74
(dp1410
sg83
g1204
sg76
(lp1411
g69
(g90
g71
NtRp1412
(dp1413
g74
(dp1414
g94
g95
ssg83
g1408
sg76
(lp1415
S'http_accept_language'
p1416
asbag69
(g90
g71
NtRp1417
(dp1418
g74
(dp1419
g101
g102
ssg83
g1408
sg76
(lp1420
S':'
asbag69
(g90
g71
NtRp1421
(dp1422
g74
(dp1423
sg83
g1408
sg76
(lp1424
g69
(g70
g71
NtRp1425
(dp1426
g74
(dp1427
g82
I4
ssg83
g1421
sg76
(lp1428
S'en-us,en;q=0.5'
p1429
asbasbasbag69
(g85
g71
NtRp1430
(dp1431
g74
(dp1432
sg83
g1204
sg76
(lp1433
g69
(g90
g71
NtRp1434
(dp1435
g74
(dp1436
g94
g95
ssg83
g1430
sg76
(lp1437
S'http_connection'
p1438
asbag69
(g90
g71
NtRp1439
(dp1440
g74
(dp1441
g101
g102
ssg83
g1430
sg76
(lp1442
S':'
asbag69
(g90
g71
NtRp1443
(dp1444
g74
(dp1445
sg83
g1430
sg76
(lp1446
g69
(g70
g71
NtRp1447
(dp1448
g74
(dp1449
g82
I4
ssg83
g1443
sg76
(lp1450
S'keep-alive'
p1451
asbasbasbag69
(g85
g71
NtRp1452
(dp1453
g74
(dp1454
sg83
g1204
sg76
(lp1455
g69
(g90
g71
NtRp1456
(dp1457
g74
(dp1458
g94
g95
ssg83
g1452
sg76
(lp1459
S'http_cookie'
p1460
asbag69
(g90
g71
NtRp1461
(dp1462
g74
(dp1463
g101
g102
ssg83
g1452
sg76
(lp1464
S':'
asbag69
(g90
g71
NtRp1465
(dp1466
g74
(dp1467
sg83
g1452
sg76
(lp1468
g69
(g70
g71
NtRp1469
(dp1470
g74
(dp1471
g82
I4
ssg83
g1465
sg76
(lp1472
S'session_id_crawler=127.0.0.1-b1c96db0-4cef-48f5-a53b-5d185261332f; session_id_mycrawler_2=127.0.0.1-98a9ea69-51ec-42be-9710-06bc291f7746; session_id_welcome=127.0.0.1-73caaae4-ee5b-4ac4-b73c-0ff18efdb3ae; session_id_admin=127.0.0.1-009fc510-0f0d-40b6-8d37-931711bfe1b4; session_id_mycrawler=127.0.0.1-32a946d8-ad2c-43d8-be0f-c8249d02766a'
p1473
asbasbasbag69
(g85
g71
NtRp1474
(dp1475
g74
(dp1476
sg83
g1204
sg76
(lp1477
g69
(g90
g71
NtRp1478
(dp1479
g74
(dp1480
g94
g95
ssg83
g1474
sg76
(lp1481
S'http_host'
p1482
asbag69
(g90
g71
NtRp1483
(dp1484
g74
(dp1485
g101
g102
ssg83
g1474
sg76
(lp1486
S':'
asbag69
(g90
g71
NtRp1487
(dp1488
g74
(dp1489
sg83
g1474
sg76
(lp1490
g69
(g70
g71
NtRp1491
(dp1492
g74
(dp1493
g82
I4
ssg83
g1487
sg76
(lp1494
S'127.0.0.1:8000'
p1495
asbasbasbag69
(g85
g71
NtRp1496
(dp1497
g74
(dp1498
sg83
g1204
sg76
(lp1499
g69
(g90
g71
NtRp1500
(dp1501
g74
(dp1502
g94
g95
ssg83
g1496
sg76
(lp1503
S'http_referer'
p1504
asbag69
(g90
g71
NtRp1505
(dp1506
g74
(dp1507
g101
g102
ssg83
g1496
sg76
(lp1508
S':'
asbag69
(g90
g71
NtRp1509
(dp1510
g74
(dp1511
sg83
g1496
sg76
(lp1512
g69
(g70
g71
NtRp1513
(dp1514
g74
(dp1515
g82
I4
ssg83
g1509
sg76
(lp1516
S'http://127.0.0.1:8000/mycrawler/default/enter_info'
p1517
asbasbasbag69
(g85
g71
NtRp1518
(dp1519
g74
(dp1520
sg83
g1204
sg76
(lp1521
g69
(g90
g71
NtRp1522
(dp1523
g74
(dp1524
g94
g95
ssg83
g1518
sg76
(lp1525
S'http_user_agent'
p1526
asbag69
(g90
g71
NtRp1527
(dp1528
g74
(dp1529
g101
g102
ssg83
g1518
sg76
(lp1530
S':'
asbag69
(g90
g71
NtRp1531
(dp1532
g74
(dp1533
sg83
g1518
sg76
(lp1534
g69
(g70
g71
NtRp1535
(dp1536
g74
(dp1537
g82
I4
ssg83
g1531
sg76
(lp1538
S'Mozilla/5.0 (Windows NT 5.1; rv:12.0) Gecko/20100101 Firefox/12.0'
p1539
asbasbasbag69
(g85
g71
NtRp1540
(dp1541
g74
(dp1542
sg83
g1204
sg76
(lp1543
g69
(g90
g71
NtRp1544
(dp1545
g74
(dp1546
g94
g95
ssg83
g1540
sg76
(lp1547
S'is_jython'
p1548
asbag69
(g90
g71
NtRp1549
(dp1550
g74
(dp1551
g101
g102
ssg83
g1540
sg76
(lp1552
S':'
asbag69
(g90
g71
NtRp1553
(dp1554
g74
(dp1555
sg83
g1540
sg76
(lp1556
g69
(g70
g71
NtRp1557
(dp1558
g74
(dp1559
g82
I4
ssg83
g1553
sg76
(lp1560
g112
asbasbasbag69
(g85
g71
NtRp1561
(dp1562
g74
(dp1563
sg83
g1204
sg76
(lp1564
g69
(g90
g71
NtRp1565
(dp1566
g74
(dp1567
g94
g95
ssg83
g1561
sg76
(lp1568
S'is_pypy'
p1569
asbag69
(g90
g71
NtRp1570
(dp1571
g74
(dp1572
g101
g102
ssg83
g1561
sg76
(lp1573
S':'
asbag69
(g90
g71
NtRp1574
(dp1575
g74
(dp1576
sg83
g1561
sg76
(lp1577
g69
(g70
g71
NtRp1578
(dp1579
g74
(dp1580
g82
I4
ssg83
g1574
sg76
(lp1581
g112
asbasbasbag69
(g85
g71
NtRp1582
(dp1583
g74
(dp1584
sg83
g1204
sg76
(lp1585
g69
(g90
g71
NtRp1586
(dp1587
g74
(dp1588
g94
g95
ssg83
g1582
sg76
(lp1589
S'path_info'
p1590
asbag69
(g90
g71
NtRp1591
(dp1592
g74
(dp1593
g101
g102
ssg83
g1582
sg76
(lp1594
S':'
asbag69
(g90
g71
NtRp1595
(dp1596
g74
(dp1597
sg83
g1582
sg76
(lp1598
g69
(g70
g71
NtRp1599
(dp1600
g74
(dp1601
g82
I4
ssg83
g1595
sg76
(lp1602
S'/mycrawler/default/search'
p1603
asbasbasbag69
(g85
g71
NtRp1604
(dp1605
g74
(dp1606
sg83
g1204
sg76
(lp1607
g69
(g90
g71
NtRp1608
(dp1609
g74
(dp1610
g94
g95
ssg83
g1604
sg76
(lp1611
S'query_string'
p1612
asbag69
(g90
g71
NtRp1613
(dp1614
g74
(dp1615
g101
g102
ssg83
g1604
sg76
(lp1616
S':'
asbag69
(g90
g71
NtRp1617
(dp1618
g74
(dp1619
sg83
g1604
sg76
(lp1620
g69
(g70
g71
NtRp1621
(dp1622
g74
(dp1623
g82
I4
ssg83
g1617
sg76
(lp1624
S'Company=&Country=India&File_Name=oqr&First_Name=&Functions=All+Functions&Industry=Accounting&Industry=Airlines%2FAviation&Keywords=&Last_Name=pai&School=&Seniority_Levels=Manager&Seniority_Levels=Owner&Title=&_formkey=5acfebfd-3034-43d5-af17-73ce7482b57a&_formname=no_table%2Fcreate'
p1625
asbasbasbag69
(g85
g71
NtRp1626
(dp1627
g74
(dp1628
sg83
g1204
sg76
(lp1629
g69
(g90
g71
NtRp1630
(dp1631
g74
(dp1632
g94
g95
ssg83
g1626
sg76
(lp1633
S'remote_addr'
p1634
asbag69
(g90
g71
NtRp1635
(dp1636
g74
(dp1637
g101
g102
ssg83
g1626
sg76
(lp1638
S':'
asbag69
(g90
g71
NtRp1639
(dp1640
g74
(dp1641
sg83
g1626
sg76
(lp1642
g69
(g70
g71
NtRp1643
(dp1644
g74
(dp1645
g82
I4
ssg83
g1639
sg76
(lp1646
g202
asbasbasbag69
(g85
g71
NtRp1647
(dp1648
g74
(dp1649
sg83
g1204
sg76
(lp1650
g69
(g90
g71
NtRp1651
(dp1652
g74
(dp1653
g94
g95
ssg83
g1647
sg76
(lp1654
S'remote_port'
p1655
asbag69
(g90
g71
NtRp1656
(dp1657
g74
(dp1658
g101
g102
ssg83
g1647
sg76
(lp1659
S':'
asbag69
(g90
g71
NtRp1660
(dp1661
g74
(dp1662
sg83
g1647
sg76
(lp1663
g69
(g70
g71
NtRp1664
(dp1665
g74
(dp1666
g82
I4
ssg83
g1660
sg76
(lp1667
S'1068'
p1668
asbasbasbag69
(g85
g71
NtRp1669
(dp1670
g74
(dp1671
sg83
g1204
sg76
(lp1672
g69
(g90
g71
NtRp1673
(dp1674
g74
(dp1675
g94
g95
ssg83
g1669
sg76
(lp1676
S'request_method'
p1677
asbag69
(g90
g71
NtRp1678
(dp1679
g74
(dp1680
g101
g102
ssg83
g1669
sg76
(lp1681
S':'
asbag69
(g90
g71
NtRp1682
(dp1683
g74
(dp1684
sg83
g1669
sg76
(lp1685
g69
(g70
g71
NtRp1686
(dp1687
g74
(dp1688
g82
I4
ssg83
g1682
sg76
(lp1689
S'GET'
p1690
asbasbasbag69
(g85
g71
NtRp1691
(dp1692
g74
(dp1693
sg83
g1204
sg76
(lp1694
g69
(g90
g71
NtRp1695
(dp1696
g74
(dp1697
g94
g95
ssg83
g1691
sg76
(lp1698
S'script_name'
p1699
asbag69
(g90
g71
NtRp1700
(dp1701
g74
(dp1702
g101
g102
ssg83
g1691
sg76
(lp1703
S':'
asbag69
(g90
g71
NtRp1704
(dp1705
g74
(dp1706
sg83
g1691
sg76
(lp1707
g69
(g70
g71
NtRp1708
(dp1709
g74
(dp1710
g82
I4
ssg83
g1704
sg76
(lp1711
S''
asbasbasbag69
(g85
g71
NtRp1712
(dp1713
g74
(dp1714
sg83
g1204
sg76
(lp1715
g69
(g90
g71
NtRp1716
(dp1717
g74
(dp1718
g94
g95
ssg83
g1712
sg76
(lp1719
S'server_name'
p1720
asbag69
(g90
g71
NtRp1721
(dp1722
g74
(dp1723
g101
g102
ssg83
g1712
sg76
(lp1724
S':'
asbag69
(g90
g71
NtRp1725
(dp1726
g74
(dp1727
sg83
g1712
sg76
(lp1728
g69
(g70
g71
NtRp1729
(dp1730
g74
(dp1731
g82
I4
ssg83
g1725
sg76
(lp1732
S'mniagrover'
p1733
asbasbasbag69
(g85
g71
NtRp1734
(dp1735
g74
(dp1736
sg83
g1204
sg76
(lp1737
g69
(g90
g71
NtRp1738
(dp1739
g74
(dp1740
g94
g95
ssg83
g1734
sg76
(lp1741
S'server_port'
p1742
asbag69
(g90
g71
NtRp1743
(dp1744
g74
(dp1745
g101
g102
ssg83
g1734
sg76
(lp1746
S':'
asbag69
(g90
g71
NtRp1747
(dp1748
g74
(dp1749
sg83
g1734
sg76
(lp1750
g69
(g70
g71
NtRp1751
(dp1752
g74
(dp1753
g82
I4
ssg83
g1747
sg76
(lp1754
S'8000'
p1755
asbasbasbag69
(g85
g71
NtRp1756
(dp1757
g74
(dp1758
sg83
g1204
sg76
(lp1759
g69
(g90
g71
NtRp1760
(dp1761
g74
(dp1762
g94
g95
ssg83
g1756
sg76
(lp1763
S'server_protocol'
p1764
asbag69
(g90
g71
NtRp1765
(dp1766
g74
(dp1767
g101
g102
ssg83
g1756
sg76
(lp1768
S':'
asbag69
(g90
g71
NtRp1769
(dp1770
g74
(dp1771
sg83
g1756
sg76
(lp1772
g69
(g70
g71
NtRp1773
(dp1774
g74
(dp1775
g82
I4
ssg83
g1769
sg76
(lp1776
S'HTTP/1.1'
p1777
asbasbasbag69
(g85
g71
NtRp1778
(dp1779
g74
(dp1780
sg83
g1204
sg76
(lp1781
g69
(g90
g71
NtRp1782
(dp1783
g74
(dp1784
g94
g95
ssg83
g1778
sg76
(lp1785
S'server_software'
p1786
asbag69
(g90
g71
NtRp1787
(dp1788
g74
(dp1789
g101
g102
ssg83
g1778
sg76
(lp1790
S':'
asbag69
(g90
g71
NtRp1791
(dp1792
g74
(dp1793
sg83
g1778
sg76
(lp1794
g69
(g70
g71
NtRp1795
(dp1796
g74
(dp1797
g82
I4
ssg83
g1791
sg76
(lp1798
S'Rocket 1.2.4'
p1799
asbasbasbag69
(g85
g71
NtRp1800
(dp1801
g74
(dp1802
sg83
g1204
sg76
(lp1803
g69
(g90
g71
NtRp1804
(dp1805
g74
(dp1806
g94
g95
ssg83
g1800
sg76
(lp1807
S'web2py_crontype'
p1808
asbag69
(g90
g71
NtRp1809
(dp1810
g74
(dp1811
g101
g102
ssg83
g1800
sg76
(lp1812
S':'
asbag69
(g90
g71
NtRp1813
(dp1814
g74
(dp1815
sg83
g1800
sg76
(lp1816
g69
(g70
g71
NtRp1817
(dp1818
g74
(dp1819
g82
I4
ssg83
g1813
sg76
(lp1820
S'hard'
p1821
asbasbasbag69
(g85
g71
NtRp1822
(dp1823
g74
(dp1824
sg83
g1204
sg76
(lp1825
g69
(g90
g71
NtRp1826
(dp1827
g74
(dp1828
g94
g95
ssg83
g1822
sg76
(lp1829
S'web2py_path'
p1830
asbag69
(g90
g71
NtRp1831
(dp1832
g74
(dp1833
g101
g102
ssg83
g1822
sg76
(lp1834
S':'
asbag69
(g90
g71
NtRp1835
(dp1836
g74
(dp1837
sg83
g1822
sg76
(lp1838
g69
(g70
g71
NtRp1839
(dp1840
g74
(dp1841
g82
I4
ssg83
g1835
sg76
(lp1842
g1251
asbasbasbag69
(g85
g71
NtRp1843
(dp1844
g74
(dp1845
sg83
g1204
sg76
(lp1846
g69
(g90
g71
NtRp1847
(dp1848
g74
(dp1849
g94
g95
ssg83
g1843
sg76
(lp1850
S'web2py_version'
p1851
asbag69
(g90
g71
NtRp1852
(dp1853
g74
(dp1854
g101
g102
ssg83
g1843
sg76
(lp1855
S':'
asbag69
(g90
g71
NtRp1856
(dp1857
g74
(dp1858
sg83
g1843
sg76
(lp1859
g69
(g70
g71
NtRp1860
(dp1861
g74
(dp1862
g82
I4
ssg83
g1856
sg76
(lp1863
g69
(g78
g71
NtRp1864
(dp1865
g74
(dp1866
g82
I3
ssg83
Nsg76
(lp1867
g69
(g85
g71
NtRp1868
(dp1869
g74
(dp1870
sg83
g1864
sg76
(lp1871
g69
(g90
g71
NtRp1872
(dp1873
g74
(dp1874
sg83
g1868
sg76
(lp1875
g69
(g70
g71
NtRp1876
(dp1877
g74
(dp1878
g82
I3
ssg83
g1872
sg76
(lp1879
S'1'
asbasbasbag69
(g85
g71
NtRp1880
(dp1881
g74
(dp1882
sg83
g1864
sg76
(lp1883
g69
(g90
g71
NtRp1884
(dp1885
g74
(dp1886
sg83
g1880
sg76
(lp1887
g69
(g70
g71
NtRp1888
(dp1889
g74
(dp1890
g82
I3
ssg83
g1884
sg76
(lp1891
S'99'
p1892
asbasbasbag69
(g85
g71
NtRp1893
(dp1894
g74
(dp1895
sg83
g1864
sg76
(lp1896
g69
(g90
g71
NtRp1897
(dp1898
g74
(dp1899
sg83
g1893
sg76
(lp1900
g69
(g70
g71
NtRp1901
(dp1902
g74
(dp1903
g82
I3
ssg83
g1897
sg76
(lp1904
S'7'
asbasbasbag69
(g85
g71
NtRp1905
(dp1906
g74
(dp1907
sg83
g1864
sg76
(lp1908
g69
(g90
g71
NtRp1909
(dp1910
g74
(dp1911
sg83
g1905
sg76
(lp1912
g69
(g70
g71
NtRp1913
(dp1914
g74
(dp1915
g82
I3
ssg83
g1909
sg76
(lp1916
S'datetime.datetime(2012, 3, 4, 22, 12, 8)'
p1917
asbasbasbag69
(g85
g71
NtRp1918
(dp1919
g74
(dp1920
sg83
g1864
sg76
(lp1921
g69
(g90
g71
NtRp1922
(dp1923
g74
(dp1924
sg83
g1918
sg76
(lp1925
g69
(g70
g71
NtRp1926
(dp1927
g74
(dp1928
g82
I3
ssg83
g1922
sg76
(lp1929
S'stable'
p1930
asbasbasbasbasbasbasbag69
(g85
g71
NtRp1931
(dp1932
g74
(dp1933
sg83
g1204
sg76
(lp1934
g69
(g90
g71
NtRp1935
(dp1936
g74
(dp1937
g94
g95
ssg83
g1931
sg76
(lp1938
S'wsgi_errors'
p1939
asbag69
(g90
g71
NtRp1940
(dp1941
g74
(dp1942
g101
g102
ssg83
g1931
sg76
(lp1943
S':'
asbag69
(g90
g71
NtRp1944
(dp1945
g74
(dp1946
sg83
g1931
sg76
(lp1947
g69
(g70
g71
NtRp1948
(dp1949
g74
(dp1950
g82
I4
ssg83
g1944
sg76
(lp1951
S"<open file '<stderr>', mode 'w' at 0x00A550D0>"
p1952
asbasbasbag69
(g85
g71
NtRp1953
(dp1954
g74
(dp1955
sg83
g1204
sg76
(lp1956
g69
(g90
g71
NtRp1957
(dp1958
g74
(dp1959
g94
g95
ssg83
g1953
sg76
(lp1960
S'wsgi_file_wrapper'
p1961
asbag69
(g90
g71
NtRp1962
(dp1963
g74
(dp1964
g101
g102
ssg83
g1953
sg76
(lp1965
S':'
asbag69
(g90
g71
NtRp1966
(dp1967
g74
(dp1968
sg83
g1953
sg76
(lp1969
g69
(g70
g71
NtRp1970
(dp1971
g74
(dp1972
g82
I4
ssg83
g1966
sg76
(lp1973
S'<class wsgiref.util.FileWrapper at 0x015E8AB0>'
p1974
asbasbasbag69
(g85
g71
NtRp1975
(dp1976
g74
(dp1977
sg83
g1204
sg76
(lp1978
g69
(g90
g71
NtRp1979
(dp1980
g74
(dp1981
g94
g95
ssg83
g1975
sg76
(lp1982
S'wsgi_input'
p1983
asbag69
(g90
g71
NtRp1984
(dp1985
g74
(dp1986
g101
g102
ssg83
g1975
sg76
(lp1987
S':'
asbag69
(g90
g71
NtRp1988
(dp1989
g74
(dp1990
sg83
g1975
sg76
(lp1991
g69
(g70
g71
NtRp1992
(dp1993
g74
(dp1994
g82
I4
ssg83
g1988
sg76
(lp1995
S'<socket._fileobject object at 0x04C84370>'
p1996
asbasbasbag69
(g85
g71
NtRp1997
(dp1998
g74
(dp1999
sg83
g1204
sg76
(lp2000
g69
(g90
g71
NtRp2001
(dp2002
g74
(dp2003
g94
g95
ssg83
g1997
sg76
(lp2004
S'wsgi_multiprocess'
p2005
asbag69
(g90
g71
NtRp2006
(dp2007
g74
(dp2008
g101
g102
ssg83
g1997
sg76
(lp2009
S':'
asbag69
(g90
g71
NtRp2010
(dp2011
g74
(dp2012
sg83
g1997
sg76
(lp2013
g69
(g70
g71
NtRp2014
(dp2015
g74
(dp2016
g82
I4
ssg83
g2010
sg76
(lp2017
g112
asbasbasbag69
(g85
g71
NtRp2018
(dp2019
g74
(dp2020
sg83
g1204
sg76
(lp2021
g69
(g90
g71
NtRp2022
(dp2023
g74
(dp2024
g94
g95
ssg83
g2018
sg76
(lp2025
S'wsgi_multithread'
p2026
asbag69
(g90
g71
NtRp2027
(dp2028
g74
(dp2029
g101
g102
ssg83
g2018
sg76
(lp2030
S':'
asbag69
(g90
g71
NtRp2031
(dp2032
g74
(dp2033
sg83
g2018
sg76
(lp2034
g69
(g70
g71
NtRp2035
(dp2036
g74
(dp2037
g82
I4
ssg83
g2031
sg76
(lp2038
S'True'
p2039
asbasbasbag69
(g85
g71
NtRp2040
(dp2041
g74
(dp2042
sg83
g1204
sg76
(lp2043
g69
(g90
g71
NtRp2044
(dp2045
g74
(dp2046
g94
g95
ssg83
g2040
sg76
(lp2047
S'wsgi_run_once'
p2048
asbag69
(g90
g71
NtRp2049
(dp2050
g74
(dp2051
g101
g102
ssg83
g2040
sg76
(lp2052
S':'
asbag69
(g90
g71
NtRp2053
(dp2054
g74
(dp2055
sg83
g2040
sg76
(lp2056
g69
(g70
g71
NtRp2057
(dp2058
g74
(dp2059
g82
I4
ssg83
g2053
sg76
(lp2060
g112
asbasbasbag69
(g85
g71
NtRp2061
(dp2062
g74
(dp2063
sg83
g1204
sg76
(lp2064
g69
(g90
g71
NtRp2065
(dp2066
g74
(dp2067
g94
g95
ssg83
g2061
sg76
(lp2068
S'wsgi_url_scheme'
p2069
asbag69
(g90
g71
NtRp2070
(dp2071
g74
(dp2072
g101
g102
ssg83
g2061
sg76
(lp2073
S':'
asbag69
(g90
g71
NtRp2074
(dp2075
g74
(dp2076
sg83
g2061
sg76
(lp2077
g69
(g70
g71
NtRp2078
(dp2079
g74
(dp2080
g82
I4
ssg83
g2074
sg76
(lp2081
S'http'
p2082
asbasbasbag69
(g85
g71
NtRp2083
(dp2084
g74
(dp2085
sg83
g1204
sg76
(lp2086
g69
(g90
g71
NtRp2087
(dp2088
g74
(dp2089
g94
g95
ssg83
g2083
sg76
(lp2090
S'wsgi_version'
p2091
asbag69
(g90
g71
NtRp2092
(dp2093
g74
(dp2094
g101
g102
ssg83
g2083
sg76
(lp2095
S':'
asbag69
(g90
g71
NtRp2096
(dp2097
g74
(dp2098
sg83
g2083
sg76
(lp2099
g69
(g70
g71
NtRp2100
(dp2101
g74
(dp2102
g82
I4
ssg83
g2096
sg76
(lp2103
g69
(g78
g71
NtRp2104
(dp2105
g74
(dp2106
g82
I3
ssg83
Nsg76
(lp2107
g69
(g85
g71
NtRp2108
(dp2109
g74
(dp2110
sg83
g2104
sg76
(lp2111
g69
(g90
g71
NtRp2112
(dp2113
g74
(dp2114
sg83
g2108
sg76
(lp2115
g69
(g70
g71
NtRp2116
(dp2117
g74
(dp2118
g82
I3
ssg83
g2112
sg76
(lp2119
S'1'
asbasbasbag69
(g85
g71
NtRp2120
(dp2121
g74
(dp2122
sg83
g2104
sg76
(lp2123
g69
(g90
g71
NtRp2124
(dp2125
g74
(dp2126
sg83
g2120
sg76
(lp2127
g69
(g70
g71
NtRp2128
(dp2129
g74
(dp2130
g82
I3
ssg83
g2124
sg76
(lp2131
S'0'
asbasbasbasbasbasbasbasbasbasbasbag69
(g85
g71
NtRp2132
(dp2133
g74
(dp2134
sg83
g79
sg76
(lp2135
g69
(g90
g71
NtRp2136
(dp2137
g74
(dp2138
g94
g95
ssg83
g2132
sg76
(lp2139
S'extension'
p2140
asbag69
(g90
g71
NtRp2141
(dp2142
g74
(dp2143
g101
g102
ssg83
g2132
sg76
(lp2144
S':'
asbag69
(g90
g71
NtRp2145
(dp2146
g74
(dp2147
sg83
g2132
sg76
(lp2148
g69
(g70
g71
NtRp2149
(dp2150
g74
(dp2151
g82
I5
ssg83
g2145
sg76
(lp2152
S'html'
p2153
asbasbasbag69
(g85
g71
NtRp2154
(dp2155
g74
(dp2156
sg83
g79
sg76
(lp2157
g69
(g90
g71
NtRp2158
(dp2159
g74
(dp2160
g94
g95
ssg83
g2154
sg76
(lp2161
S'folder'
p2162
asbag69
(g90
g71
NtRp2163
(dp2164
g74
(dp2165
g101
g102
ssg83
g2154
sg76
(lp2166
S':'
asbag69
(g90
g71
NtRp2167
(dp2168
g74
(dp2169
sg83
g2154
sg76
(lp2170
g69
(g70
g71
NtRp2171
(dp2172
g74
(dp2173
g82
I5
ssg83
g2167
sg76
(lp2174
S'C:\\Documents and Settings\\agrover\\Desktop\\previous crawler\\web2py\\applications\\mycrawler\\'
p2175
asbasbasbag69
(g85
g71
NtRp2176
(dp2177
g74
(dp2178
sg83
g79
sg76
(lp2179
g69
(g90
g71
NtRp2180
(dp2181
g74
(dp2182
g94
g95
ssg83
g2176
sg76
(lp2183
S'function'
p2184
asbag69
(g90
g71
NtRp2185
(dp2186
g74
(dp2187
g101
g102
ssg83
g2176
sg76
(lp2188
S':'
asbag69
(g90
g71
NtRp2189
(dp2190
g74
(dp2191
sg83
g2176
sg76
(lp2192
g69
(g70
g71
NtRp2193
(dp2194
g74
(dp2195
g82
I5
ssg83
g2189
sg76
(lp2196
S'search'
p2197
asbasbasbag69
(g85
g71
NtRp2198
(dp2199
g74
(dp2200
sg83
g79
sg76
(lp2201
g69
(g90
g71
NtRp2202
(dp2203
g74
(dp2204
g94
g95
ssg83
g2198
sg76
(lp2205
S'get_vars'
p2206
asbag69
(g90
g71
NtRp2207
(dp2208
g74
(dp2209
g101
g102
ssg83
g2198
sg76
(lp2210
S':'
asbag69
(g90
g71
NtRp2211
(dp2212
g74
(dp2213
sg83
g2198
sg76
(lp2214
g69
(g70
g71
NtRp2215
(dp2216
g74
(dp2217
g82
I5
ssg83
g2211
sg76
(lp2218
g69
(g78
g71
NtRp2219
(dp2220
g74
(dp2221
g82
I4
ssg83
Nsg76
(lp2222
g69
(g85
g71
NtRp2223
(dp2224
g74
(dp2225
sg83
g2219
sg76
(lp2226
g69
(g90
g71
NtRp2227
(dp2228
g74
(dp2229
g94
g95
ssg83
g2223
sg76
(lp2230
S'Company'
p2231
asbag69
(g90
g71
NtRp2232
(dp2233
g74
(dp2234
g101
g102
ssg83
g2223
sg76
(lp2235
S':'
asbag69
(g90
g71
NtRp2236
(dp2237
g74
(dp2238
sg83
g2223
sg76
(lp2239
g69
(g70
g71
NtRp2240
(dp2241
g74
(dp2242
g82
I4
ssg83
g2236
sg76
(lp2243
S''
asbasbasbag69
(g85
g71
NtRp2244
(dp2245
g74
(dp2246
sg83
g2219
sg76
(lp2247
g69
(g90
g71
NtRp2248
(dp2249
g74
(dp2250
g94
g95
ssg83
g2244
sg76
(lp2251
S'Country'
p2252
asbag69
(g90
g71
NtRp2253
(dp2254
g74
(dp2255
g101
g102
ssg83
g2244
sg76
(lp2256
S':'
asbag69
(g90
g71
NtRp2257
(dp2258
g74
(dp2259
sg83
g2244
sg76
(lp2260
g69
(g70
g71
NtRp2261
(dp2262
g74
(dp2263
g82
I4
ssg83
g2257
sg76
(lp2264
S'India'
p2265
asbasbasbag69
(g85
g71
NtRp2266
(dp2267
g74
(dp2268
sg83
g2219
sg76
(lp2269
g69
(g90
g71
NtRp2270
(dp2271
g74
(dp2272
g94
g95
ssg83
g2266
sg76
(lp2273
S'File_Name'
p2274
asbag69
(g90
g71
NtRp2275
(dp2276
g74
(dp2277
g101
g102
ssg83
g2266
sg76
(lp2278
S':'
asbag69
(g90
g71
NtRp2279
(dp2280
g74
(dp2281
sg83
g2266
sg76
(lp2282
g69
(g70
g71
NtRp2283
(dp2284
g74
(dp2285
g82
I4
ssg83
g2279
sg76
(lp2286
S'oqr'
p2287
asbasbasbag69
(g85
g71
NtRp2288
(dp2289
g74
(dp2290
sg83
g2219
sg76
(lp2291
g69
(g90
g71
NtRp2292
(dp2293
g74
(dp2294
g94
g95
ssg83
g2288
sg76
(lp2295
S'First_Name'
p2296
asbag69
(g90
g71
NtRp2297
(dp2298
g74
(dp2299
g101
g102
ssg83
g2288
sg76
(lp2300
S':'
asbag69
(g90
g71
NtRp2301
(dp2302
g74
(dp2303
sg83
g2288
sg76
(lp2304
g69
(g70
g71
NtRp2305
(dp2306
g74
(dp2307
g82
I4
ssg83
g2301
sg76
(lp2308
S''
asbasbasbag69
(g85
g71
NtRp2309
(dp2310
g74
(dp2311
sg83
g2219
sg76
(lp2312
g69
(g90
g71
NtRp2313
(dp2314
g74
(dp2315
g94
g95
ssg83
g2309
sg76
(lp2316
S'Functions'
p2317
asbag69
(g90
g71
NtRp2318
(dp2319
g74
(dp2320
g101
g102
ssg83
g2309
sg76
(lp2321
S':'
asbag69
(g90
g71
NtRp2322
(dp2323
g74
(dp2324
sg83
g2309
sg76
(lp2325
g69
(g70
g71
NtRp2326
(dp2327
g74
(dp2328
g82
I4
ssg83
g2322
sg76
(lp2329
S'All Functions'
p2330
asbasbasbag69
(g85
g71
NtRp2331
(dp2332
g74
(dp2333
sg83
g2219
sg76
(lp2334
g69
(g90
g71
NtRp2335
(dp2336
g74
(dp2337
g94
g95
ssg83
g2331
sg76
(lp2338
S'Industry'
p2339
asbag69
(g90
g71
NtRp2340
(dp2341
g74
(dp2342
g101
g102
ssg83
g2331
sg76
(lp2343
S':'
asbag69
(g90
g71
NtRp2344
(dp2345
g74
(dp2346
sg83
g2331
sg76
(lp2347
g69
(g70
g71
NtRp2348
(dp2349
g74
(dp2350
g82
I4
ssg83
g2344
sg76
(lp2351
g69
(g78
g71
NtRp2352
(dp2353
g74
(dp2354
g82
I3
ssg83
Nsg76
(lp2355
g69
(g85
g71
NtRp2356
(dp2357
g74
(dp2358
sg83
g2352
sg76
(lp2359
g69
(g90
g71
NtRp2360
(dp2361
g74
(dp2362
sg83
g2356
sg76
(lp2363
g69
(g70
g71
NtRp2364
(dp2365
g74
(dp2366
g82
I3
ssg83
g2360
sg76
(lp2367
S'Accounting'
p2368
asbasbasbag69
(g85
g71
NtRp2369
(dp2370
g74
(dp2371
sg83
g2352
sg76
(lp2372
g69
(g90
g71
NtRp2373
(dp2374
g74
(dp2375
sg83
g2369
sg76
(lp2376
g69
(g70
g71
NtRp2377
(dp2378
g74
(dp2379
g82
I3
ssg83
g2373
sg76
(lp2380
S'Airlines/Aviation'
p2381
asbasbasbasbasbasbasbag69
(g85
g71
NtRp2382
(dp2383
g74
(dp2384
sg83
g2219
sg76
(lp2385
g69
(g90
g71
NtRp2386
(dp2387
g74
(dp2388
g94
g95
ssg83
g2382
sg76
(lp2389
S'Keywords'
p2390
asbag69
(g90
g71
NtRp2391
(dp2392
g74
(dp2393
g101
g102
ssg83
g2382
sg76
(lp2394
S':'
asbag69
(g90
g71
NtRp2395
(dp2396
g74
(dp2397
sg83
g2382
sg76
(lp2398
g69
(g70
g71
NtRp2399
(dp2400
g74
(dp2401
g82
I4
ssg83
g2395
sg76
(lp2402
S''
asbasbasbag69
(g85
g71
NtRp2403
(dp2404
g74
(dp2405
sg83
g2219
sg76
(lp2406
g69
(g90
g71
NtRp2407
(dp2408
g74
(dp2409
g94
g95
ssg83
g2403
sg76
(lp2410
S'Last_Name'
p2411
asbag69
(g90
g71
NtRp2412
(dp2413
g74
(dp2414
g101
g102
ssg83
g2403
sg76
(lp2415
S':'
asbag69
(g90
g71
NtRp2416
(dp2417
g74
(dp2418
sg83
g2403
sg76
(lp2419
g69
(g70
g71
NtRp2420
(dp2421
g74
(dp2422
g82
I4
ssg83
g2416
sg76
(lp2423
S'pai'
p2424
asbasbasbag69
(g85
g71
NtRp2425
(dp2426
g74
(dp2427
sg83
g2219
sg76
(lp2428
g69
(g90
g71
NtRp2429
(dp2430
g74
(dp2431
g94
g95
ssg83
g2425
sg76
(lp2432
S'School'
p2433
asbag69
(g90
g71
NtRp2434
(dp2435
g74
(dp2436
g101
g102
ssg83
g2425
sg76
(lp2437
S':'
asbag69
(g90
g71
NtRp2438
(dp2439
g74
(dp2440
sg83
g2425
sg76
(lp2441
g69
(g70
g71
NtRp2442
(dp2443
g74
(dp2444
g82
I4
ssg83
g2438
sg76
(lp2445
S''
asbasbasbag69
(g85
g71
NtRp2446
(dp2447
g74
(dp2448
sg83
g2219
sg76
(lp2449
g69
(g90
g71
NtRp2450
(dp2451
g74
(dp2452
g94
g95
ssg83
g2446
sg76
(lp2453
S'Seniority_Levels'
p2454
asbag69
(g90
g71
NtRp2455
(dp2456
g74
(dp2457
g101
g102
ssg83
g2446
sg76
(lp2458
S':'
asbag69
(g90
g71
NtRp2459
(dp2460
g74
(dp2461
sg83
g2446
sg76
(lp2462
g69
(g70
g71
NtRp2463
(dp2464
g74
(dp2465
g82
I4
ssg83
g2459
sg76
(lp2466
g69
(g78
g71
NtRp2467
(dp2468
g74
(dp2469
g82
I3
ssg83
Nsg76
(lp2470
g69
(g85
g71
NtRp2471
(dp2472
g74
(dp2473
sg83
g2467
sg76
(lp2474
g69
(g90
g71
NtRp2475
(dp2476
g74
(dp2477
sg83
g2471
sg76
(lp2478
g69
(g70
g71
NtRp2479
(dp2480
g74
(dp2481
g82
I3
ssg83
g2475
sg76
(lp2482
S'Manager'
p2483
asbasbasbag69
(g85
g71
NtRp2484
(dp2485
g74
(dp2486
sg83
g2467
sg76
(lp2487
g69
(g90
g71
NtRp2488
(dp2489
g74
(dp2490
sg83
g2484
sg76
(lp2491
g69
(g70
g71
NtRp2492
(dp2493
g74
(dp2494
g82
I3
ssg83
g2488
sg76
(lp2495
S'Owner'
p2496
asbasbasbasbasbasbasbag69
(g85
g71
NtRp2497
(dp2498
g74
(dp2499
sg83
g2219
sg76
(lp2500
g69
(g90
g71
NtRp2501
(dp2502
g74
(dp2503
g94
g95
ssg83
g2497
sg76
(lp2504
S'Title'
p2505
asbag69
(g90
g71
NtRp2506
(dp2507
g74
(dp2508
g101
g102
ssg83
g2497
sg76
(lp2509
S':'
asbag69
(g90
g71
NtRp2510
(dp2511
g74
(dp2512
sg83
g2497
sg76
(lp2513
g69
(g70
g71
NtRp2514
(dp2515
g74
(dp2516
g82
I4
ssg83
g2510
sg76
(lp2517
S''
asbasbasbasbasbasbasbag69
(g85
g71
NtRp2518
(dp2519
g74
(dp2520
sg83
g79
sg76
(lp2521
g69
(g90
g71
NtRp2522
(dp2523
g74
(dp2524
g94
g95
ssg83
g2518
sg76
(lp2525
S'global_settings'
p2526
asbag69
(g90
g71
NtRp2527
(dp2528
g74
(dp2529
g101
g102
ssg83
g2518
sg76
(lp2530
S':'
asbag69
(g90
g71
NtRp2531
(dp2532
g74
(dp2533
sg83
g2518
sg76
(lp2534
g69
(g70
g71
NtRp2535
(dp2536
g74
(dp2537
g82
I5
ssg83
g2531
sg76
(lp2538
g69
(g78
g71
NtRp2539
(dp2540
g74
(dp2541
g82
I4
ssg83
Nsg76
(lp2542
g69
(g85
g71
NtRp2543
(dp2544
g74
(dp2545
sg83
g2539
sg76
(lp2546
g69
(g90
g71
NtRp2547
(dp2548
g74
(dp2549
g94
g95
ssg83
g2543
sg76
(lp2550
g1216
asbag69
(g90
g71
NtRp2551
(dp2552
g74
(dp2553
g101
g102
ssg83
g2543
sg76
(lp2554
S':'
asbag69
(g90
g71
NtRp2555
(dp2556
g74
(dp2557
sg83
g2543
sg76
(lp2558
g69
(g70
g71
NtRp2559
(dp2560
g74
(dp2561
g82
I4
ssg83
g2555
sg76
(lp2562
S"set(['C:\\\\Documents and Settings\\\\agrover\\\\Desktop\\\\previous crawler\\\\web2py\\\\applications\\\\admin\\\\', 'C:\\\\Documents and Settings\\\\agrover\\\\Desktop\\\\previous crawler\\\\web2py\\\\applications\\\\mycrawler\\\\', 'C:\\\\Documents and Settings\\\\agrover\\\\Desktop\\\\previous crawler\\\\web2py\\\\applications\\\\welcome\\\\'])"
p2563
asbasbasbag69
(g85
g71
NtRp2564
(dp2565
g74
(dp2566
sg83
g2539
sg76
(lp2567
g69
(g90
g71
NtRp2568
(dp2569
g74
(dp2570
g94
g95
ssg83
g2564
sg76
(lp2571
g1238
asbag69
(g90
g71
NtRp2572
(dp2573
g74
(dp2574
g101
g102
ssg83
g2564
sg76
(lp2575
S':'
asbag69
(g90
g71
NtRp2576
(dp2577
g74
(dp2578
sg83
g2564
sg76
(lp2579
g69
(g70
g71
NtRp2580
(dp2581
g74
(dp2582
g82
I4
ssg83
g2576
sg76
(lp2583
g1251
asbasbasbag69
(g85
g71
NtRp2584
(dp2585
g74
(dp2586
sg83
g2539
sg76
(lp2587
g69
(g90
g71
NtRp2588
(dp2589
g74
(dp2590
g94
g95
ssg83
g2584
sg76
(lp2591
g1260
asbag69
(g90
g71
NtRp2592
(dp2593
g74
(dp2594
g101
g102
ssg83
g2584
sg76
(lp2595
S':'
asbag69
(g90
g71
NtRp2596
(dp2597
g74
(dp2598
sg83
g2584
sg76
(lp2599
g69
(g70
g71
NtRp2600
(dp2601
g74
(dp2602
g82
I4
ssg83
g2596
sg76
(lp2603
g69
(g78
g71
NtRp2604
(dp2605
g74
(dp2606
g82
I3
ssg83
Nsg76
(lp2607
sbasbasbasbag69
(g85
g71
NtRp2608
(dp2609
g74
(dp2610
sg83
g2539
sg76
(lp2611
g69
(g90
g71
NtRp2612
(dp2613
g74
(dp2614
g94
g95
ssg83
g2608
sg76
(lp2615
g1285
asbag69
(g90
g71
NtRp2616
(dp2617
g74
(dp2618
g101
g102
ssg83
g2608
sg76
(lp2619
S':'
asbag69
(g90
g71
NtRp2620
(dp2621
g74
(dp2622
sg83
g2608
sg76
(lp2623
g69
(g70
g71
NtRp2624
(dp2625
g74
(dp2626
g82
I4
ssg83
g2620
sg76
(lp2627
S"<Values at 0x16d63f0: {'verbose': False, 'ip': '127.0.0.1', 'shutdown_timeout': 5, 'taskbar': False, 'nocron': False, 'pid_filename': 'httpserver.pid', 'maxthreads': None, 'softcron': False, 'server_name': 'mniagrover', 'bpython': False, 'nogui': False, 'port': 8000, 'extcron': False, 'debuglevel': 30, 'test': None, 'folder': 'C:\\\\Documents and Settings\\\\agrover\\\\Desktop\\\\previous crawler\\\\web2py', 'config': '', 'import_models': False, 'winservice': '', 'shell': None, 'run': '', 'log_filename': 'httpserver.log', 'args': [''], 'socket_timeout': 5, 'ssl_ca_certificate': None, 'scheduler': None, 'profiler_filename': None, 'ssl_private_key': '', 'password': '<ask>', 'request_queue_size': 5, 'ssl_certificate': '', 'cronjob': False, 'numthreads': None, 'quiet': False, 'interfaces': None, 'minthreads': None, 'timeout': 10, 'plain': False, 'nobanner': False}>"
p2628
asbasbasbag69
(g85
g71
NtRp2629
(dp2630
g74
(dp2631
sg83
g2539
sg76
(lp2632
g69
(g90
g71
NtRp2633
(dp2634
g74
(dp2635
g94
g95
ssg83
g2629
sg76
(lp2636
g1307
asbag69
(g90
g71
NtRp2637
(dp2638
g74
(dp2639
g101
g102
ssg83
g2629
sg76
(lp2640
S':'
asbag69
(g90
g71
NtRp2641
(dp2642
g74
(dp2643
sg83
g2629
sg76
(lp2644
g69
(g70
g71
NtRp2645
(dp2646
g74
(dp2647
g82
I4
ssg83
g2641
sg76
(lp2648
S'set([])'
p2649
asbasbasbag69
(g85
g71
NtRp2650
(dp2651
g74
(dp2652
sg83
g2539
sg76
(lp2653
g69
(g90
g71
NtRp2654
(dp2655
g74
(dp2656
g94
g95
ssg83
g2650
sg76
(lp2657
g1329
asbag69
(g90
g71
NtRp2658
(dp2659
g74
(dp2660
g101
g102
ssg83
g2650
sg76
(lp2661
S':'
asbag69
(g90
g71
NtRp2662
(dp2663
g74
(dp2664
sg83
g2650
sg76
(lp2665
g69
(g70
g71
NtRp2666
(dp2667
g74
(dp2668
g82
I4
ssg83
g2662
sg76
(lp2669
g112
asbasbasbag69
(g85
g71
NtRp2670
(dp2671
g74
(dp2672
sg83
g2539
sg76
(lp2673
g69
(g90
g71
NtRp2674
(dp2675
g74
(dp2676
g94
g95
ssg83
g2670
sg76
(lp2677
g1350
asbag69
(g90
g71
NtRp2678
(dp2679
g74
(dp2680
g101
g102
ssg83
g2670
sg76
(lp2681
S':'
asbag69
(g90
g71
NtRp2682
(dp2683
g74
(dp2684
sg83
g2670
sg76
(lp2685
g69
(g70
g71
NtRp2686
(dp2687
g74
(dp2688
g82
I4
ssg83
g2682
sg76
(lp2689
g1363
asbasbasbag69
(g85
g71
NtRp2690
(dp2691
g74
(dp2692
sg83
g2539
sg76
(lp2693
g69
(g90
g71
NtRp2694
(dp2695
g74
(dp2696
g94
g95
ssg83
g2690
sg76
(lp2697
g1548
asbag69
(g90
g71
NtRp2698
(dp2699
g74
(dp2700
g101
g102
ssg83
g2690
sg76
(lp2701
S':'
asbag69
(g90
g71
NtRp2702
(dp2703
g74
(dp2704
sg83
g2690
sg76
(lp2705
g69
(g70
g71
NtRp2706
(dp2707
g74
(dp2708
g82
I4
ssg83
g2702
sg76
(lp2709
g112
asbasbasbag69
(g85
g71
NtRp2710
(dp2711
g74
(dp2712
sg83
g2539
sg76
(lp2713
g69
(g90
g71
NtRp2714
(dp2715
g74
(dp2716
g94
g95
ssg83
g2710
sg76
(lp2717
g1569
asbag69
(g90
g71
NtRp2718
(dp2719
g74
(dp2720
g101
g102
ssg83
g2710
sg76
(lp2721
S':'
asbag69
(g90
g71
NtRp2722
(dp2723
g74
(dp2724
sg83
g2710
sg76
(lp2725
g69
(g70
g71
NtRp2726
(dp2727
g74
(dp2728
g82
I4
ssg83
g2722
sg76
(lp2729
g112
asbasbasbag69
(g85
g71
NtRp2730
(dp2731
g74
(dp2732
sg83
g2539
sg76
(lp2733
g69
(g90
g71
NtRp2734
(dp2735
g74
(dp2736
g94
g95
ssg83
g2730
sg76
(lp2737
g1808
asbag69
(g90
g71
NtRp2738
(dp2739
g74
(dp2740
g101
g102
ssg83
g2730
sg76
(lp2741
S':'
asbag69
(g90
g71
NtRp2742
(dp2743
g74
(dp2744
sg83
g2730
sg76
(lp2745
g69
(g70
g71
NtRp2746
(dp2747
g74
(dp2748
g82
I4
ssg83
g2742
sg76
(lp2749
g1821
asbasbasbag69
(g85
g71
NtRp2750
(dp2751
g74
(dp2752
sg83
g2539
sg76
(lp2753
g69
(g90
g71
NtRp2754
(dp2755
g74
(dp2756
g94
g95
ssg83
g2750
sg76
(lp2757
g1851
asbag69
(g90
g71
NtRp2758
(dp2759
g74
(dp2760
g101
g102
ssg83
g2750
sg76
(lp2761
S':'
asbag69
(g90
g71
NtRp2762
(dp2763
g74
(dp2764
sg83
g2750
sg76
(lp2765
g69
(g70
g71
NtRp2766
(dp2767
g74
(dp2768
g82
I4
ssg83
g2762
sg76
(lp2769
g69
(g78
g71
NtRp2770
(dp2771
g74
(dp2772
g82
I3
ssg83
Nsg76
(lp2773
g69
(g85
g71
NtRp2774
(dp2775
g74
(dp2776
sg83
g2770
sg76
(lp2777
g69
(g90
g71
NtRp2778
(dp2779
g74
(dp2780
sg83
g2774
sg76
(lp2781
g69
(g70
g71
NtRp2782
(dp2783
g74
(dp2784
g82
I3
ssg83
g2778
sg76
(lp2785
S'1'
asbasbasbag69
(g85
g71
NtRp2786
(dp2787
g74
(dp2788
sg83
g2770
sg76
(lp2789
g69
(g90
g71
NtRp2790
(dp2791
g74
(dp2792
sg83
g2786
sg76
(lp2793
g69
(g70
g71
NtRp2794
(dp2795
g74
(dp2796
g82
I3
ssg83
g2790
sg76
(lp2797
S'99'
p2798
asbasbasbag69
(g85
g71
NtRp2799
(dp2800
g74
(dp2801
sg83
g2770
sg76
(lp2802
g69
(g90
g71
NtRp2803
(dp2804
g74
(dp2805
sg83
g2799
sg76
(lp2806
g69
(g70
g71
NtRp2807
(dp2808
g74
(dp2809
g82
I3
ssg83
g2803
sg76
(lp2810
S'7'
asbasbasbag69
(g85
g71
NtRp2811
(dp2812
g74
(dp2813
sg83
g2770
sg76
(lp2814
g69
(g90
g71
NtRp2815
(dp2816
g74
(dp2817
sg83
g2811
sg76
(lp2818
g69
(g70
g71
NtRp2819
(dp2820
g74
(dp2821
g82
I3
ssg83
g2815
sg76
(lp2822
S'datetime.datetime(2012, 3, 4, 22, 12, 8)'
p2823
asbasbasbag69
(g85
g71
NtRp2824
(dp2825
g74
(dp2826
sg83
g2770
sg76
(lp2827
g69
(g90
g71
NtRp2828
(dp2829
g74
(dp2830
sg83
g2824
sg76
(lp2831
g69
(g70
g71
NtRp2832
(dp2833
g74
(dp2834
g82
I3
ssg83
g2828
sg76
(lp2835
g1930
asbasbasbasbasbasbasbasbasbasbasbag69
(g85
g71
NtRp2836
(dp2837
g74
(dp2838
sg83
g79
sg76
(lp2839
g69
(g90
g71
NtRp2840
(dp2841
g74
(dp2842
g94
g95
ssg83
g2836
sg76
(lp2843
S'is_https'
p2844
asbag69
(g90
g71
NtRp2845
(dp2846
g74
(dp2847
g101
g102
ssg83
g2836
sg76
(lp2848
S':'
asbag69
(g90
g71
NtRp2849
(dp2850
g74
(dp2851
sg83
g2836
sg76
(lp2852
g69
(g70
g71
NtRp2853
(dp2854
g74
(dp2855
g82
I5
ssg83
g2849
sg76
(lp2856
g112
asbasbasbag69
(g85
g71
NtRp2857
(dp2858
g74
(dp2859
sg83
g79
sg76
(lp2860
g69
(g90
g71
NtRp2861
(dp2862
g74
(dp2863
g94
g95
ssg83
g2857
sg76
(lp2864
S'is_local'
p2865
asbag69
(g90
g71
NtRp2866
(dp2867
g74
(dp2868
g101
g102
ssg83
g2857
sg76
(lp2869
S':'
asbag69
(g90
g71
NtRp2870
(dp2871
g74
(dp2872
sg83
g2857
sg76
(lp2873
g69
(g70
g71
NtRp2874
(dp2875
g74
(dp2876
g82
I5
ssg83
g2870
sg76
(lp2877
g2039
asbasbasbag69
(g85
g71
NtRp2878
(dp2879
g74
(dp2880
sg83
g79
sg76
(lp2881
g69
(g90
g71
NtRp2882
(dp2883
g74
(dp2884
g94
g95
ssg83
g2878
sg76
(lp2885
S'is_restful'
p2886
asbag69
(g90
g71
NtRp2887
(dp2888
g74
(dp2889
g101
g102
ssg83
g2878
sg76
(lp2890
S':'
asbag69
(g90
g71
NtRp2891
(dp2892
g74
(dp2893
sg83
g2878
sg76
(lp2894
g69
(g70
g71
NtRp2895
(dp2896
g74
(dp2897
g82
I5
ssg83
g2891
sg76
(lp2898
g112
asbasbasbag69
(g85
g71
NtRp2899
(dp2900
g74
(dp2901
sg83
g79
sg76
(lp2902
g69
(g90
g71
NtRp2903
(dp2904
g74
(dp2905
g94
g95
ssg83
g2899
sg76
(lp2906
S'now'
p2907
asbag69
(g90
g71
NtRp2908
(dp2909
g74
(dp2910
g101
g102
ssg83
g2899
sg76
(lp2911
S':'
asbag69
(g90
g71
NtRp2912
(dp2913
g74
(dp2914
sg83
g2899
sg76
(lp2915
g69
(g70
g71
NtRp2916
(dp2917
g74
(dp2918
g82
I5
ssg83
g2912
sg76
(lp2919
S'datetime.datetime(2012, 6, 13, 19, 26, 57, 203000)'
p2920
asbasbasbag69
(g85
g71
NtRp2921
(dp2922
g74
(dp2923
sg83
g79
sg76
(lp2924
g69
(g90
g71
NtRp2925
(dp2926
g74
(dp2927
g94
g95
ssg83
g2921
sg76
(lp2928
S'post_vars'
p2929
asbag69
(g90
g71
NtRp2930
(dp2931
g74
(dp2932
g101
g102
ssg83
g2921
sg76
(lp2933
S':'
asbag69
(g90
g71
NtRp2934
(dp2935
g74
(dp2936
sg83
g2921
sg76
(lp2937
g69
(g70
g71
NtRp2938
(dp2939
g74
(dp2940
g82
I5
ssg83
g2934
sg76
(lp2941
g69
(g78
g71
NtRp2942
(dp2943
g74
(dp2944
g82
I4
ssg83
Nsg76
(lp2945
sbasbasbasbag69
(g85
g71
NtRp2946
(dp2947
g74
(dp2948
sg83
g79
sg76
(lp2949
g69
(g90
g71
NtRp2950
(dp2951
g74
(dp2952
g94
g95
ssg83
g2946
sg76
(lp2953
S'url'
p2954
asbag69
(g90
g71
NtRp2955
(dp2956
g74
(dp2957
g101
g102
ssg83
g2946
sg76
(lp2958
S':'
asbag69
(g90
g71
NtRp2959
(dp2960
g74
(dp2961
sg83
g2946
sg76
(lp2962
g69
(g70
g71
NtRp2963
(dp2964
g74
(dp2965
g82
I5
ssg83
g2959
sg76
(lp2966
S'/mycrawler/default/search'
p2967
asbasbasbag69
(g85
g71
NtRp2968
(dp2969
g74
(dp2970
sg83
g79
sg76
(lp2971
g69
(g90
g71
NtRp2972
(dp2973
g74
(dp2974
g94
g95
ssg83
g2968
sg76
(lp2975
S'utcnow'
p2976
asbag69
(g90
g71
NtRp2977
(dp2978
g74
(dp2979
g101
g102
ssg83
g2968
sg76
(lp2980
S':'
asbag69
(g90
g71
NtRp2981
(dp2982
g74
(dp2983
sg83
g2968
sg76
(lp2984
g69
(g70
g71
NtRp2985
(dp2986
g74
(dp2987
g82
I5
ssg83
g2981
sg76
(lp2988
S'datetime.datetime(2012, 6, 14, 2, 26, 57, 203000)'
p2989
asbasbasbag69
(g85
g71
NtRp2990
(dp2991
g74
(dp2992
sg83
g79
sg76
(lp2993
g69
(g90
g71
NtRp2994
(dp2995
g74
(dp2996
g94
g95
ssg83
g2990
sg76
(lp2997
S'uuid'
p2998
asbag69
(g90
g71
NtRp2999
(dp3000
g74
(dp3001
g101
g102
ssg83
g2990
sg76
(lp3002
S':'
asbag69
(g90
g71
NtRp3003
(dp3004
g74
(dp3005
sg83
g2990
sg76
(lp3006
g69
(g70
g71
NtRp3007
(dp3008
g74
(dp3009
g82
I5
ssg83
g3003
sg76
(lp3010
S'mycrawler/127.0.0.1.2012-06-13.19-26-57.1f96e41a-9e77-4261-84e5-9c199f8908e6'
p3011
asbasbasbag69
(g85
g71
NtRp3012
(dp3013
g74
(dp3014
sg83
g79
sg76
(lp3015
g69
(g90
g71
NtRp3016
(dp3017
g74
(dp3018
g94
g95
ssg83
g3012
sg76
(lp3019
S'vars'
p3020
asbag69
(g90
g71
NtRp3021
(dp3022
g74
(dp3023
g101
g102
ssg83
g3012
sg76
(lp3024
S':'
asbag69
(g90
g71
NtRp3025
(dp3026
g74
(dp3027
sg83
g3012
sg76
(lp3028
g69
(g70
g71
NtRp3029
(dp3030
g74
(dp3031
g82
I5
ssg83
g3025
sg76
(lp3032
g69
(g78
g71
NtRp3033
(dp3034
g74
(dp3035
g82
I4
ssg83
Nsg76
(lp3036
g69
(g85
g71
NtRp3037
(dp3038
g74
(dp3039
sg83
g3033
sg76
(lp3040
g69
(g90
g71
NtRp3041
(dp3042
g74
(dp3043
g94
g95
ssg83
g3037
sg76
(lp3044
g2231
asbag69
(g90
g71
NtRp3045
(dp3046
g74
(dp3047
g101
g102
ssg83
g3037
sg76
(lp3048
S':'
asbag69
(g90
g71
NtRp3049
(dp3050
g74
(dp3051
sg83
g3037
sg76
(lp3052
g69
(g70
g71
NtRp3053
(dp3054
g74
(dp3055
g82
I4
ssg83
g3049
sg76
(lp3056
S''
asbasbasbag69
(g85
g71
NtRp3057
(dp3058
g74
(dp3059
sg83
g3033
sg76
(lp3060
g69
(g90
g71
NtRp3061
(dp3062
g74
(dp3063
g94
g95
ssg83
g3057
sg76
(lp3064
g2252
asbag69
(g90
g71
NtRp3065
(dp3066
g74
(dp3067
g101
g102
ssg83
g3057
sg76
(lp3068
S':'
asbag69
(g90
g71
NtRp3069
(dp3070
g74
(dp3071
sg83
g3057
sg76
(lp3072
g69
(g70
g71
NtRp3073
(dp3074
g74
(dp3075
g82
I4
ssg83
g3069
sg76
(lp3076
g2265
asbasbasbag69
(g85
g71
NtRp3077
(dp3078
g74
(dp3079
sg83
g3033
sg76
(lp3080
g69
(g90
g71
NtRp3081
(dp3082
g74
(dp3083
g94
g95
ssg83
g3077
sg76
(lp3084
g2274
asbag69
(g90
g71
NtRp3085
(dp3086
g74
(dp3087
g101
g102
ssg83
g3077
sg76
(lp3088
S':'
asbag69
(g90
g71
NtRp3089
(dp3090
g74
(dp3091
sg83
g3077
sg76
(lp3092
g69
(g70
g71
NtRp3093
(dp3094
g74
(dp3095
g82
I4
ssg83
g3089
sg76
(lp3096
g2287
asbasbasbag69
(g85
g71
NtRp3097
(dp3098
g74
(dp3099
sg83
g3033
sg76
(lp3100
g69
(g90
g71
NtRp3101
(dp3102
g74
(dp3103
g94
g95
ssg83
g3097
sg76
(lp3104
g2296
asbag69
(g90
g71
NtRp3105
(dp3106
g74
(dp3107
g101
g102
ssg83
g3097
sg76
(lp3108
S':'
asbag69
(g90
g71
NtRp3109
(dp3110
g74
(dp3111
sg83
g3097
sg76
(lp3112
g69
(g70
g71
NtRp3113
(dp3114
g74
(dp3115
g82
I4
ssg83
g3109
sg76
(lp3116
S''
asbasbasbag69
(g85
g71
NtRp3117
(dp3118
g74
(dp3119
sg83
g3033
sg76
(lp3120
g69
(g90
g71
NtRp3121
(dp3122
g74
(dp3123
g94
g95
ssg83
g3117
sg76
(lp3124
g2317
asbag69
(g90
g71
NtRp3125
(dp3126
g74
(dp3127
g101
g102
ssg83
g3117
sg76
(lp3128
S':'
asbag69
(g90
g71
NtRp3129
(dp3130
g74
(dp3131
sg83
g3117
sg76
(lp3132
g69
(g70
g71
NtRp3133
(dp3134
g74
(dp3135
g82
I4
ssg83
g3129
sg76
(lp3136
g2330
asbasbasbag69
(g85
g71
NtRp3137
(dp3138
g74
(dp3139
sg83
g3033
sg76
(lp3140
g69
(g90
g71
NtRp3141
(dp3142
g74
(dp3143
g94
g95
ssg83
g3137
sg76
(lp3144
g2339
asbag69
(g90
g71
NtRp3145
(dp3146
g74
(dp3147
g101
g102
ssg83
g3137
sg76
(lp3148
S':'
asbag69
(g90
g71
NtRp3149
(dp3150
g74
(dp3151
sg83
g3137
sg76
(lp3152
g69
(g70
g71
NtRp3153
(dp3154
g74
(dp3155
g82
I4
ssg83
g3149
sg76
(lp3156
g69
(g78
g71
NtRp3157
(dp3158
g74
(dp3159
g82
I3
ssg83
Nsg76
(lp3160
g69
(g85
g71
NtRp3161
(dp3162
g74
(dp3163
sg83
g3157
sg76
(lp3164
g69
(g90
g71
NtRp3165
(dp3166
g74
(dp3167
sg83
g3161
sg76
(lp3168
g69
(g70
g71
NtRp3169
(dp3170
g74
(dp3171
g82
I3
ssg83
g3165
sg76
(lp3172
g2368
asbasbasbag69
(g85
g71
NtRp3173
(dp3174
g74
(dp3175
sg83
g3157
sg76
(lp3176
g69
(g90
g71
NtRp3177
(dp3178
g74
(dp3179
sg83
g3173
sg76
(lp3180
g69
(g70
g71
NtRp3181
(dp3182
g74
(dp3183
g82
I3
ssg83
g3177
sg76
(lp3184
g2381
asbasbasbasbasbasbasbag69
(g85
g71
NtRp3185
(dp3186
g74
(dp3187
sg83
g3033
sg76
(lp3188
g69
(g90
g71
NtRp3189
(dp3190
g74
(dp3191
g94
g95
ssg83
g3185
sg76
(lp3192
g2390
asbag69
(g90
g71
NtRp3193
(dp3194
g74
(dp3195
g101
g102
ssg83
g3185
sg76
(lp3196
S':'
asbag69
(g90
g71
NtRp3197
(dp3198
g74
(dp3199
sg83
g3185
sg76
(lp3200
g69
(g70
g71
NtRp3201
(dp3202
g74
(dp3203
g82
I4
ssg83
g3197
sg76
(lp3204
S''
asbasbasbag69
(g85
g71
NtRp3205
(dp3206
g74
(dp3207
sg83
g3033
sg76
(lp3208
g69
(g90
g71
NtRp3209
(dp3210
g74
(dp3211
g94
g95
ssg83
g3205
sg76
(lp3212
g2411
asbag69
(g90
g71
NtRp3213
(dp3214
g74
(dp3215
g101
g102
ssg83
g3205
sg76
(lp3216
S':'
asbag69
(g90
g71
NtRp3217
(dp3218
g74
(dp3219
sg83
g3205
sg76
(lp3220
g69
(g70
g71
NtRp3221
(dp3222
g74
(dp3223
g82
I4
ssg83
g3217
sg76
(lp3224
g2424
asbasbasbag69
(g85
g71
NtRp3225
(dp3226
g74
(dp3227
sg83
g3033
sg76
(lp3228
g69
(g90
g71
NtRp3229
(dp3230
g74
(dp3231
g94
g95
ssg83
g3225
sg76
(lp3232
g2433
asbag69
(g90
g71
NtRp3233
(dp3234
g74
(dp3235
g101
g102
ssg83
g3225
sg76
(lp3236
S':'
asbag69
(g90
g71
NtRp3237
(dp3238
g74
(dp3239
sg83
g3225
sg76
(lp3240
g69
(g70
g71
NtRp3241
(dp3242
g74
(dp3243
g82
I4
ssg83
g3237
sg76
(lp3244
S''
asbasbasbag69
(g85
g71
NtRp3245
(dp3246
g74
(dp3247
sg83
g3033
sg76
(lp3248
g69
(g90
g71
NtRp3249
(dp3250
g74
(dp3251
g94
g95
ssg83
g3245
sg76
(lp3252
g2454
asbag69
(g90
g71
NtRp3253
(dp3254
g74
(dp3255
g101
g102
ssg83
g3245
sg76
(lp3256
S':'
asbag69
(g90
g71
NtRp3257
(dp3258
g74
(dp3259
sg83
g3245
sg76
(lp3260
g69
(g70
g71
NtRp3261
(dp3262
g74
(dp3263
g82
I4
ssg83
g3257
sg76
(lp3264
g69
(g78
g71
NtRp3265
(dp3266
g74
(dp3267
g82
I3
ssg83
Nsg76
(lp3268
g69
(g85
g71
NtRp3269
(dp3270
g74
(dp3271
sg83
g3265
sg76
(lp3272
g69
(g90
g71
NtRp3273
(dp3274
g74
(dp3275
sg83
g3269
sg76
(lp3276
g69
(g70
g71
NtRp3277
(dp3278
g74
(dp3279
g82
I3
ssg83
g3273
sg76
(lp3280
g2483
asbasbasbag69
(g85
g71
NtRp3281
(dp3282
g74
(dp3283
sg83
g3265
sg76
(lp3284
g69
(g90
g71
NtRp3285
(dp3286
g74
(dp3287
sg83
g3281
sg76
(lp3288
g69
(g70
g71
NtRp3289
(dp3290
g74
(dp3291
g82
I3
ssg83
g3285
sg76
(lp3292
g2496
asbasbasbasbasbasbasbag69
(g85
g71
NtRp3293
(dp3294
g74
(dp3295
sg83
g3033
sg76
(lp3296
g69
(g90
g71
NtRp3297
(dp3298
g74
(dp3299
g94
g95
ssg83
g3293
sg76
(lp3300
g2505
asbag69
(g90
g71
NtRp3301
(dp3302
g74
(dp3303
g101
g102
ssg83
g3293
sg76
(lp3304
S':'
asbag69
(g90
g71
NtRp3305
(dp3306
g74
(dp3307
sg83
g3293
sg76
(lp3308
g69
(g70
g71
NtRp3309
(dp3310
g74
(dp3311
g82
I4
ssg83
g3305
sg76
(lp3312
S''
asbasbasbasbasbasbasbag69
(g85
g71
NtRp3313
(dp3314
g74
(dp3315
sg83
g79
sg76
(lp3316
g69
(g90
g71
NtRp3317
(dp3318
g74
(dp3319
g94
g95
ssg83
g3313
sg76
(lp3320
S'wsgi'
p3321
asbag69
(g90
g71
NtRp3322
(dp3323
g74
(dp3324
g101
g102
ssg83
g3313
sg76
(lp3325
S':'
asbag69
(g90
g71
NtRp3326
(dp3327
g74
(dp3328
sg83
g3313
sg76
(lp3329
g69
(g70
g71
NtRp3330
(dp3331
g74
(dp3332
g82
I5
ssg83
g3326
sg76
(lp3333
g69
(g78
g71
NtRp3334
(dp3335
g74
(dp3336
g82
I4
ssg83
Nsg76
(lp3337
g69
(g85
g71
NtRp3338
(dp3339
g74
(dp3340
sg83
g3334
sg76
(lp3341
g69
(g90
g71
NtRp3342
(dp3343
g74
(dp3344
g94
g95
ssg83
g3338
sg76
(lp3345
S'environ'
p3346
asbag69
(g90
g71
NtRp3347
(dp3348
g74
(dp3349
g101
g102
ssg83
g3338
sg76
(lp3350
S':'
asbag69
(g90
g71
NtRp3351
(dp3352
g74
(dp3353
sg83
g3338
sg76
(lp3354
g69
(g70
g71
NtRp3355
(dp3356
g74
(dp3357
g82
I4
ssg83
g3351
sg76
(lp3358
g69
(g78
g71
NtRp3359
(dp3360
g74
(dp3361
g82
I3
ssg83
Nsg76
(lp3362
g69
(g85
g71
NtRp3363
(dp3364
g74
(dp3365
sg83
g3359
sg76
(lp3366
g69
(g90
g71
NtRp3367
(dp3368
g74
(dp3369
g94
g95
ssg83
g3363
sg76
(lp3370
S'HTTP_ACCEPT'
p3371
asbag69
(g90
g71
NtRp3372
(dp3373
g74
(dp3374
g101
g102
ssg83
g3363
sg76
(lp3375
S':'
asbag69
(g90
g71
NtRp3376
(dp3377
g74
(dp3378
sg83
g3363
sg76
(lp3379
g69
(g70
g71
NtRp3380
(dp3381
g74
(dp3382
g82
I3
ssg83
g3376
sg76
(lp3383
g1385
asbasbasbag69
(g85
g71
NtRp3384
(dp3385
g74
(dp3386
sg83
g3359
sg76
(lp3387
g69
(g90
g71
NtRp3388
(dp3389
g74
(dp3390
g94
g95
ssg83
g3384
sg76
(lp3391
S'HTTP_ACCEPT_ENCODING'
p3392
asbag69
(g90
g71
NtRp3393
(dp3394
g74
(dp3395
g101
g102
ssg83
g3384
sg76
(lp3396
S':'
asbag69
(g90
g71
NtRp3397
(dp3398
g74
(dp3399
sg83
g3384
sg76
(lp3400
g69
(g70
g71
NtRp3401
(dp3402
g74
(dp3403
g82
I3
ssg83
g3397
sg76
(lp3404
g1407
asbasbasbag69
(g85
g71
NtRp3405
(dp3406
g74
(dp3407
sg83
g3359
sg76
(lp3408
g69
(g90
g71
NtRp3409
(dp3410
g74
(dp3411
g94
g95
ssg83
g3405
sg76
(lp3412
S'HTTP_ACCEPT_LANGUAGE'
p3413
asbag69
(g90
g71
NtRp3414
(dp3415
g74
(dp3416
g101
g102
ssg83
g3405
sg76
(lp3417
S':'
asbag69
(g90
g71
NtRp3418
(dp3419
g74
(dp3420
sg83
g3405
sg76
(lp3421
g69
(g70
g71
NtRp3422
(dp3423
g74
(dp3424
g82
I3
ssg83
g3418
sg76
(lp3425
g1429
asbasbasbag69
(g85
g71
NtRp3426
(dp3427
g74
(dp3428
sg83
g3359
sg76
(lp3429
g69
(g90
g71
NtRp3430
(dp3431
g74
(dp3432
g94
g95
ssg83
g3426
sg76
(lp3433
S'HTTP_CONNECTION'
p3434
asbag69
(g90
g71
NtRp3435
(dp3436
g74
(dp3437
g101
g102
ssg83
g3426
sg76
(lp3438
S':'
asbag69
(g90
g71
NtRp3439
(dp3440
g74
(dp3441
sg83
g3426
sg76
(lp3442
g69
(g70
g71
NtRp3443
(dp3444
g74
(dp3445
g82
I3
ssg83
g3439
sg76
(lp3446
g1451
asbasbasbag69
(g85
g71
NtRp3447
(dp3448
g74
(dp3449
sg83
g3359
sg76
(lp3450
g69
(g90
g71
NtRp3451
(dp3452
g74
(dp3453
g94
g95
ssg83
g3447
sg76
(lp3454
S'HTTP_COOKIE'
p3455
asbag69
(g90
g71
NtRp3456
(dp3457
g74
(dp3458
g101
g102
ssg83
g3447
sg76
(lp3459
S':'
asbag69
(g90
g71
NtRp3460
(dp3461
g74
(dp3462
sg83
g3447
sg76
(lp3463
g69
(g70
g71
NtRp3464
(dp3465
g74
(dp3466
g82
I3
ssg83
g3460
sg76
(lp3467
g1473
asbasbasbag69
(g85
g71
NtRp3468
(dp3469
g74
(dp3470
sg83
g3359
sg76
(lp3471
g69
(g90
g71
NtRp3472
(dp3473
g74
(dp3474
g94
g95
ssg83
g3468
sg76
(lp3475
S'HTTP_HOST'
p3476
asbag69
(g90
g71
NtRp3477
(dp3478
g74
(dp3479
g101
g102
ssg83
g3468
sg76
(lp3480
S':'
asbag69
(g90
g71
NtRp3481
(dp3482
g74
(dp3483
sg83
g3468
sg76
(lp3484
g69
(g70
g71
NtRp3485
(dp3486
g74
(dp3487
g82
I3
ssg83
g3481
sg76
(lp3488
g1495
asbasbasbag69
(g85
g71
NtRp3489
(dp3490
g74
(dp3491
sg83
g3359
sg76
(lp3492
g69
(g90
g71
NtRp3493
(dp3494
g74
(dp3495
g94
g95
ssg83
g3489
sg76
(lp3496
S'HTTP_REFERER'
p3497
asbag69
(g90
g71
NtRp3498
(dp3499
g74
(dp3500
g101
g102
ssg83
g3489
sg76
(lp3501
S':'
asbag69
(g90
g71
NtRp3502
(dp3503
g74
(dp3504
sg83
g3489
sg76
(lp3505
g69
(g70
g71
NtRp3506
(dp3507
g74
(dp3508
g82
I3
ssg83
g3502
sg76
(lp3509
g1517
asbasbasbag69
(g85
g71
NtRp3510
(dp3511
g74
(dp3512
sg83
g3359
sg76
(lp3513
g69
(g90
g71
NtRp3514
(dp3515
g74
(dp3516
g94
g95
ssg83
g3510
sg76
(lp3517
S'HTTP_USER_AGENT'
p3518
asbag69
(g90
g71
NtRp3519
(dp3520
g74
(dp3521
g101
g102
ssg83
g3510
sg76
(lp3522
S':'
asbag69
(g90
g71
NtRp3523
(dp3524
g74
(dp3525
sg83
g3510
sg76
(lp3526
g69
(g70
g71
NtRp3527
(dp3528
g74
(dp3529
g82
I3
ssg83
g3523
sg76
(lp3530
g1539
asbasbasbag69
(g85
g71
NtRp3531
(dp3532
g74
(dp3533
sg83
g3359
sg76
(lp3534
g69
(g90
g71
NtRp3535
(dp3536
g74
(dp3537
g94
g95
ssg83
g3531
sg76
(lp3538
S'PATH_INFO'
p3539
asbag69
(g90
g71
NtRp3540
(dp3541
g74
(dp3542
g101
g102
ssg83
g3531
sg76
(lp3543
S':'
asbag69
(g90
g71
NtRp3544
(dp3545
g74
(dp3546
sg83
g3531
sg76
(lp3547
g69
(g70
g71
NtRp3548
(dp3549
g74
(dp3550
g82
I3
ssg83
g3544
sg76
(lp3551
g1603
asbasbasbag69
(g85
g71
NtRp3552
(dp3553
g74
(dp3554
sg83
g3359
sg76
(lp3555
g69
(g90
g71
NtRp3556
(dp3557
g74
(dp3558
g94
g95
ssg83
g3552
sg76
(lp3559
S'QUERY_STRING'
p3560
asbag69
(g90
g71
NtRp3561
(dp3562
g74
(dp3563
g101
g102
ssg83
g3552
sg76
(lp3564
S':'
asbag69
(g90
g71
NtRp3565
(dp3566
g74
(dp3567
sg83
g3552
sg76
(lp3568
g69
(g70
g71
NtRp3569
(dp3570
g74
(dp3571
g82
I3
ssg83
g3565
sg76
(lp3572
g1625
asbasbasbag69
(g85
g71
NtRp3573
(dp3574
g74
(dp3575
sg83
g3359
sg76
(lp3576
g69
(g90
g71
NtRp3577
(dp3578
g74
(dp3579
g94
g95
ssg83
g3573
sg76
(lp3580
S'REMOTE_ADDR'
p3581
asbag69
(g90
g71
NtRp3582
(dp3583
g74
(dp3584
g101
g102
ssg83
g3573
sg76
(lp3585
S':'
asbag69
(g90
g71
NtRp3586
(dp3587
g74
(dp3588
sg83
g3573
sg76
(lp3589
g69
(g70
g71
NtRp3590
(dp3591
g74
(dp3592
g82
I3
ssg83
g3586
sg76
(lp3593
g202
asbasbasbag69
(g85
g71
NtRp3594
(dp3595
g74
(dp3596
sg83
g3359
sg76
(lp3597
g69
(g90
g71
NtRp3598
(dp3599
g74
(dp3600
g94
g95
ssg83
g3594
sg76
(lp3601
S'REMOTE_PORT'
p3602
asbag69
(g90
g71
NtRp3603
(dp3604
g74
(dp3605
g101
g102
ssg83
g3594
sg76
(lp3606
S':'
asbag69
(g90
g71
NtRp3607
(dp3608
g74
(dp3609
sg83
g3594
sg76
(lp3610
g69
(g70
g71
NtRp3611
(dp3612
g74
(dp3613
g82
I3
ssg83
g3607
sg76
(lp3614
g1668
asbasbasbag69
(g85
g71
NtRp3615
(dp3616
g74
(dp3617
sg83
g3359
sg76
(lp3618
g69
(g90
g71
NtRp3619
(dp3620
g74
(dp3621
g94
g95
ssg83
g3615
sg76
(lp3622
S'REQUEST_METHOD'
p3623
asbag69
(g90
g71
NtRp3624
(dp3625
g74
(dp3626
g101
g102
ssg83
g3615
sg76
(lp3627
S':'
asbag69
(g90
g71
NtRp3628
(dp3629
g74
(dp3630
sg83
g3615
sg76
(lp3631
g69
(g70
g71
NtRp3632
(dp3633
g74
(dp3634
g82
I3
ssg83
g3628
sg76
(lp3635
g1690
asbasbasbag69
(g85
g71
NtRp3636
(dp3637
g74
(dp3638
sg83
g3359
sg76
(lp3639
g69
(g90
g71
NtRp3640
(dp3641
g74
(dp3642
g94
g95
ssg83
g3636
sg76
(lp3643
S'SCRIPT_NAME'
p3644
asbag69
(g90
g71
NtRp3645
(dp3646
g74
(dp3647
g101
g102
ssg83
g3636
sg76
(lp3648
S':'
asbag69
(g90
g71
NtRp3649
(dp3650
g74
(dp3651
sg83
g3636
sg76
(lp3652
g69
(g70
g71
NtRp3653
(dp3654
g74
(dp3655
g82
I3
ssg83
g3649
sg76
(lp3656
S''
asbasbasbag69
(g85
g71
NtRp3657
(dp3658
g74
(dp3659
sg83
g3359
sg76
(lp3660
g69
(g90
g71
NtRp3661
(dp3662
g74
(dp3663
g94
g95
ssg83
g3657
sg76
(lp3664
S'SERVER_NAME'
p3665
asbag69
(g90
g71
NtRp3666
(dp3667
g74
(dp3668
g101
g102
ssg83
g3657
sg76
(lp3669
S':'
asbag69
(g90
g71
NtRp3670
(dp3671
g74
(dp3672
sg83
g3657
sg76
(lp3673
g69
(g70
g71
NtRp3674
(dp3675
g74
(dp3676
g82
I3
ssg83
g3670
sg76
(lp3677
g1733
asbasbasbag69
(g85
g71
NtRp3678
(dp3679
g74
(dp3680
sg83
g3359
sg76
(lp3681
g69
(g90
g71
NtRp3682
(dp3683
g74
(dp3684
g94
g95
ssg83
g3678
sg76
(lp3685
S'SERVER_PORT'
p3686
asbag69
(g90
g71
NtRp3687
(dp3688
g74
(dp3689
g101
g102
ssg83
g3678
sg76
(lp3690
S':'
asbag69
(g90
g71
NtRp3691
(dp3692
g74
(dp3693
sg83
g3678
sg76
(lp3694
g69
(g70
g71
NtRp3695
(dp3696
g74
(dp3697
g82
I3
ssg83
g3691
sg76
(lp3698
g1755
asbasbasbag69
(g85
g71
NtRp3699
(dp3700
g74
(dp3701
sg83
g3359
sg76
(lp3702
g69
(g90
g71
NtRp3703
(dp3704
g74
(dp3705
g94
g95
ssg83
g3699
sg76
(lp3706
S'SERVER_PROTOCOL'
p3707
asbag69
(g90
g71
NtRp3708
(dp3709
g74
(dp3710
g101
g102
ssg83
g3699
sg76
(lp3711
S':'
asbag69
(g90
g71
NtRp3712
(dp3713
g74
(dp3714
sg83
g3699
sg76
(lp3715
g69
(g70
g71
NtRp3716
(dp3717
g74
(dp3718
g82
I3
ssg83
g3712
sg76
(lp3719
g1777
asbasbasbag69
(g85
g71
NtRp3720
(dp3721
g74
(dp3722
sg83
g3359
sg76
(lp3723
g69
(g90
g71
NtRp3724
(dp3725
g74
(dp3726
g94
g95
ssg83
g3720
sg76
(lp3727
S'SERVER_SOFTWARE'
p3728
asbag69
(g90
g71
NtRp3729
(dp3730
g74
(dp3731
g101
g102
ssg83
g3720
sg76
(lp3732
S':'
asbag69
(g90
g71
NtRp3733
(dp3734
g74
(dp3735
sg83
g3720
sg76
(lp3736
g69
(g70
g71
NtRp3737
(dp3738
g74
(dp3739
g82
I3
ssg83
g3733
sg76
(lp3740
g1799
asbasbasbag69
(g85
g71
NtRp3741
(dp3742
g74
(dp3743
sg83
g3359
sg76
(lp3744
g69
(g90
g71
NtRp3745
(dp3746
g74
(dp3747
g94
g95
ssg83
g3741
sg76
(lp3748
S'wsgi.errors'
p3749
asbag69
(g90
g71
NtRp3750
(dp3751
g74
(dp3752
g101
g102
ssg83
g3741
sg76
(lp3753
S':'
asbag69
(g90
g71
NtRp3754
(dp3755
g74
(dp3756
sg83
g3741
sg76
(lp3757
g69
(g70
g71
NtRp3758
(dp3759
g74
(dp3760
g82
I3
ssg83
g3754
sg76
(lp3761
S"<open file '<stderr>', mode 'w' at 0x00A550D0>"
p3762
asbasbasbag69
(g85
g71
NtRp3763
(dp3764
g74
(dp3765
sg83
g3359
sg76
(lp3766
g69
(g90
g71
NtRp3767
(dp3768
g74
(dp3769
g94
g95
ssg83
g3763
sg76
(lp3770
S'wsgi.file_wrapper'
p3771
asbag69
(g90
g71
NtRp3772
(dp3773
g74
(dp3774
g101
g102
ssg83
g3763
sg76
(lp3775
S':'
asbag69
(g90
g71
NtRp3776
(dp3777
g74
(dp3778
sg83
g3763
sg76
(lp3779
g69
(g70
g71
NtRp3780
(dp3781
g74
(dp3782
g82
I3
ssg83
g3776
sg76
(lp3783
S'<class wsgiref.util.FileWrapper at 0x015E8AB0>'
p3784
asbasbasbag69
(g85
g71
NtRp3785
(dp3786
g74
(dp3787
sg83
g3359
sg76
(lp3788
g69
(g90
g71
NtRp3789
(dp3790
g74
(dp3791
g94
g95
ssg83
g3785
sg76
(lp3792
S'wsgi.input'
p3793
asbag69
(g90
g71
NtRp3794
(dp3795
g74
(dp3796
g101
g102
ssg83
g3785
sg76
(lp3797
S':'
asbag69
(g90
g71
NtRp3798
(dp3799
g74
(dp3800
sg83
g3785
sg76
(lp3801
g69
(g70
g71
NtRp3802
(dp3803
g74
(dp3804
g82
I3
ssg83
g3798
sg76
(lp3805
S'<cStringIO.StringO object at 0x04C66E60>'
p3806
asbasbasbag69
(g85
g71
NtRp3807
(dp3808
g74
(dp3809
sg83
g3359
sg76
(lp3810
g69
(g90
g71
NtRp3811
(dp3812
g74
(dp3813
g94
g95
ssg83
g3807
sg76
(lp3814
S'wsgi.multiprocess'
p3815
asbag69
(g90
g71
NtRp3816
(dp3817
g74
(dp3818
g101
g102
ssg83
g3807
sg76
(lp3819
S':'
asbag69
(g90
g71
NtRp3820
(dp3821
g74
(dp3822
sg83
g3807
sg76
(lp3823
g69
(g70
g71
NtRp3824
(dp3825
g74
(dp3826
g82
I3
ssg83
g3820
sg76
(lp3827
g112
asbasbasbag69
(g85
g71
NtRp3828
(dp3829
g74
(dp3830
sg83
g3359
sg76
(lp3831
g69
(g90
g71
NtRp3832
(dp3833
g74
(dp3834
g94
g95
ssg83
g3828
sg76
(lp3835
S'wsgi.multithread'
p3836
asbag69
(g90
g71
NtRp3837
(dp3838
g74
(dp3839
g101
g102
ssg83
g3828
sg76
(lp3840
S':'
asbag69
(g90
g71
NtRp3841
(dp3842
g74
(dp3843
sg83
g3828
sg76
(lp3844
g69
(g70
g71
NtRp3845
(dp3846
g74
(dp3847
g82
I3
ssg83
g3841
sg76
(lp3848
g2039
asbasbasbag69
(g85
g71
NtRp3849
(dp3850
g74
(dp3851
sg83
g3359
sg76
(lp3852
g69
(g90
g71
NtRp3853
(dp3854
g74
(dp3855
g94
g95
ssg83
g3849
sg76
(lp3856
S'wsgi.run_once'
p3857
asbag69
(g90
g71
NtRp3858
(dp3859
g74
(dp3860
g101
g102
ssg83
g3849
sg76
(lp3861
S':'
asbag69
(g90
g71
NtRp3862
(dp3863
g74
(dp3864
sg83
g3849
sg76
(lp3865
g69
(g70
g71
NtRp3866
(dp3867
g74
(dp3868
g82
I3
ssg83
g3862
sg76
(lp3869
g112
asbasbasbag69
(g85
g71
NtRp3870
(dp3871
g74
(dp3872
sg83
g3359
sg76
(lp3873
g69
(g90
g71
NtRp3874
(dp3875
g74
(dp3876
g94
g95
ssg83
g3870
sg76
(lp3877
S'wsgi.url_scheme'
p3878
asbag69
(g90
g71
NtRp3879
(dp3880
g74
(dp3881
g101
g102
ssg83
g3870
sg76
(lp3882
S':'
asbag69
(g90
g71
NtRp3883
(dp3884
g74
(dp3885
sg83
g3870
sg76
(lp3886
g69
(g70
g71
NtRp3887
(dp3888
g74
(dp3889
g82
I3
ssg83
g3883
sg76
(lp3890
g2082
asbasbasbag69
(g85
g71
NtRp3891
(dp3892
g74
(dp3893
sg83
g3359
sg76
(lp3894
g69
(g90
g71
NtRp3895
(dp3896
g74
(dp3897
g94
g95
ssg83
g3891
sg76
(lp3898
S'wsgi.version'
p3899
asbag69
(g90
g71
NtRp3900
(dp3901
g74
(dp3902
g101
g102
ssg83
g3891
sg76
(lp3903
S':'
asbag69
(g90
g71
NtRp3904
(dp3905
g74
(dp3906
sg83
g3891
sg76
(lp3907
g69
(g70
g71
NtRp3908
(dp3909
g74
(dp3910
g82
I3
ssg83
g3904
sg76
(lp3911
S'1'
asbasbasbasbasbasbasbasbasbasbasbasbasbsS'frames'
p3912
(lp3913
(dp3914
S'file'
p3915
S'C:\\Documents and Settings\\agrover\\Desktop\\previous crawler\\web2py\\gluon\\restricted.py'
p3916
sS'dump'
p3917
(dp3918
S'environment'
p3919
S"{'A': <class 'gluon.html.A'>, 'Auth': <class 'gluon.tools.Auth'>, 'B': <class 'gluon.html.B'>, 'BEAUTIFY': <class 'gluon.html.BEAUTIFY'>, 'BODY': <class 'gluon.html.BODY'>, 'BR': <class 'gluon.html.BR'>, 'BUTTON': <class 'gluon.html.BUTTON'>, 'CAT': <class 'gluon.html.CAT'>, 'CENTER': <class 'gluon.html.CENTER'>, 'CLEANUP': <class 'gluon.validators.CLEANUP'>, ...}"
p3920
sS'ccode'
p3921
S'<code object <module> at 04AECF50, file "C:\\Docu...tions\\mycrawler\\controllers/default.py", line 11>'
p3922
ssS'lnum'
p3923
I205
sS'lines'
p3924
(dp3925
I200
S'    try:'
p3926
sI201
S'        if type(code) == types.CodeType:'
p3927
sI202
S'            ccode = code'
p3928
sI203
S'        else:'
p3929
sI204
S'            ccode = compile2(code,layer)'
p3930
sI205
S'        exec ccode in environment'
p3931
sI206
S'    except HTTP:'
p3932
sI207
S'        raise'
p3933
sI208
S'    except RestrictedError:'
p3934
sI209
S'        # do not encapsulate (obfuscate) the original RestrictedError'
p3935
ssS'call'
p3936
S"(code='# -*- coding: utf-8 -*-\\n# this file is released ...urrent)\\n\\nresponse._vars=response._caller(search)\\n', environment={'A': <class 'gluon.html.A'>, 'Auth': <class 'gluon.tools.Auth'>, 'B': <class 'gluon.html.B'>, 'BEAUTIFY': <class 'gluon.html.BEAUTIFY'>, 'BODY': <class 'gluon.html.BODY'>, 'BR': <class 'gluon.html.BR'>, 'BUTTON': <class 'gluon.html.BUTTON'>, 'CAT': <class 'gluon.html.CAT'>, 'CENTER': <class 'gluon.html.CENTER'>, 'CLEANUP': <class 'gluon.validators.CLEANUP'>, ...}, layer=r'C:\\Documents and Settings\\agrover\\Desktop\\previo...2py\\applications\\mycrawler\\controllers/default.py')"
p3937
sS'func'
p3938
S'restricted'
p3939
sa(dp3940
g3915
S'C:\\Documents and Settings\\agrover\\Desktop\\previous crawler\\web2py\\applications\\mycrawler\\controllers\\default.py'
p3941
sg3917
(dp3942
sg3923
I383
sg3924
(dp3943
I372
S"    #response.headers['Content-Type'] = 'text/csv'"
p3944
sI373
S"    #response.headers['Content-Disposition'] = 'attachment; filename=%s' % request.vars.File_Name"
p3945
sI374
S''
sI375
S'    #print view_profile'
p3946
sI376
S'    #print name'
p3947
sI377
S'    #print location'
p3948
sI378
S'    #print industry'
p3949
sI379
S'    #print titl'
p3950
sI380
S''
sI381
S'   # return dict(view_profile=view_profile,name=name,location=location,industry=industry,titl=titl,current=current)'
p3951
ssg3936
S'()'
p3952
sg3938
S'<module>'
p3953
sa(dp3954
g3915
S'C:\\Documents and Settings\\agrover\\Desktop\\previous crawler\\web2py\\gluon\\globals.py'
p3955
sg3917
(dp3956
S'self'
p3957
S'undefined'
p3958
sS'f'
S'<function search>'
p3959
ssg3923
I173
sg3924
(dp3960
I168
S'        self.menu = []             # used by the default view layout'
p3961
sI169
S'        self.files = []            # used by web2py_ajax.html'
p3962
sI170
S'        self.generic_patterns = [] # patterns to allow generic views'
p3963
sI171
S"        self.delimiters = ('{{','}}')"
p3964
sI172
S'        self._vars = None'
p3965
sI173
S'        self._caller = lambda f: f()'
p3966
sI174
S'        self._view_environment = None'
p3967
sI175
S'        self._custom_commit = None'
p3968
sI176
S'        self._custom_rollback = None'
p3969
sI177
S''
ssg3936
S'(f=<function search>)'
p3970
sg3938
S'<lambda>'
p3971
sa(dp3972
g3915
S'C:\\Documents and Settings\\agrover\\Desktop\\previous crawler\\web2py\\applications\\mycrawler\\controllers\\default.py'
p3973
sg3917
(dp3974
S'br.submit'
p3975
S'<bound method Browser.submit of <mechanize._mechanize.Browser instance>>'
p3976
sS'br'
p3977
S'<mechanize._mechanize.Browser instance>'
p3978
ssg3923
I196
sg3924
(dp3979
I192
S"    br.form['session_password'] = session.password"
p3980
sI193
S''
sI194
S''
sI195
S'    # Login by submitting form br'
p3981
sI196
S'    br.submit()'
p3982
sI197
S''
sI198
S'    #opening the advanced search page straight away'
p3983
sI199
S"    br.open('http://www.linkedin.com/search?trk=advsrch')"
p3984
sI200
S'    #selecting the 1st form'
p3985
sI191
S"    br.form['session_key'] = session.username"
p3986
ssg3936
S'()'
p3987
sg3938
S'search'
p3988
sa(dp3989
g3915
S'C:\\Documents and Settings\\agrover\\Desktop\\previous crawler\\web2py\\build\\bdist.win32\\egg\\mechanize\\_mechanize.py'
p3990
sg3917
(dp3991
sg3923
I541
sg3924
(dp3992
I544
S'        """Find a link and return a Request object for it.'
p3993
sI545
S''
sI536
S'        Arguments are as for mechanize.HTMLForm.click().'
p3994
sI537
S''
sI538
S'        Return value is same as for Browser.open().'
p3995
sI539
S''
sI540
S'        """'
p3996
sI541
S'        return self.open(self.click(*args, **kwds))'
p3997
sI542
S''
sI543
S'    def click_link(self, link=None, **kwds):'
p3998
ssg3936
S'(self=<mechanize._mechanize.Browser instance>, *args=(), **kwds={})'
p3999
sg3938
S'submit'
p4000
sa(dp4001
g3915
S'C:\\Documents and Settings\\agrover\\Desktop\\previous crawler\\web2py\\build\\bdist.win32\\egg\\mechanize\\_mechanize.py'
p4002
sg3917
(dp4003
sg3923
I203
sg3924
(dp4004
I198
S'        """'
p4005
sI199
S'        return self._mech_open(url, data, visit=False, timeout=timeout)'
p4006
sI200
S''
sI201
S'    def open(self, url, data=None,'
p4007
sI202
S'             timeout=_sockettimeout._GLOBAL_DEFAULT_TIMEOUT):'
p4008
sI203
S'        return self._mech_open(url, data, timeout=timeout)'
p4009
sI204
S''
sI205
S'    def _mech_open(self, url, data=None, update_history=True, visit=None,'
p4010
sI206
S'                   timeout=_sockettimeout._GLOBAL_DEFAULT_TIMEOUT):'
p4011
sI207
S'        try:'
p4012
ssg3936
S'(self=<mechanize._mechanize.Browser instance>, url=<mechanize._request.Request instance>, data=None, timeout=<object object>)'
p4013
sg3938
S'open'
p4014
sa(dp4015
g3915
S'C:\\Documents and Settings\\agrover\\Desktop\\previous crawler\\web2py\\build\\bdist.win32\\egg\\mechanize\\_mechanize.py'
p4016
sg3917
(dp4017
sg3923
I230
sg3924
(dp4018
I225
S'        if visit:'
p4019
sI226
S'            self._visit_request(request, update_history)'
p4020
sI227
S''
sI228
S'        success = True'
p4021
sI229
S'        try:'
p4022
sI230
S'            response = UserAgentBase.open(self, request, data)'
p4023
sI231
S'        except urllib2.HTTPError, error:'
p4024
sI232
S'            success = False'
p4025
sI233
S'            if error.fp is None:  # not a response'
p4026
sI234
S'                raise'
p4027
ssg3936
S'(self=<mechanize._mechanize.Browser instance>, url=<mechanize._request.Request instance>, data=None, update_history=True, visit=True, timeout=<object object>)'
p4028
sg3938
S'_mech_open'
p4029
sa(dp4030
g3915
S'C:\\Documents and Settings\\agrover\\Desktop\\previous crawler\\web2py\\build\\bdist.win32\\egg\\mechanize\\_opener.py'
p4031
sg3917
(dp4032
sg3923
I204
sg3924
(dp4033
I199
S'        response_processors.sort()'
p4034
sI200
S'        for processor in response_processors:'
p4035
sI201
S'            for meth_name in ["any_response", req_scheme+"_response"]:'
p4036
sI202
S'                meth = getattr(processor, meth_name, None)'
p4037
sI203
S'                if meth:'
p4038
sI204
S'                    response = meth(req, response)'
p4039
sI205
S''
sI206
S'        return response'
p4040
sI207
S''
sI208
S'    def error(self, proto, *args):'
p4041
ssg3936
S'(self=<mechanize._mechanize.Browser instance>, fullurl=<mechanize._request.Request instance>, data=None, timeout=<object object>)'
p4042
sg3938
g4014
sa(dp4043
g3915
S'C:\\Documents and Settings\\agrover\\Desktop\\previous crawler\\web2py\\build\\bdist.win32\\egg\\mechanize\\_urllib2_fork.py'
p4044
sg3917
(dp4045
sg3923
I457
sg3924
(dp4046
I452
S'        # According to RFC 2616, "2xx" code indicates that the client\'s'
p4047
sI453
S'        # request was successfully received, understood, and accepted.'
p4048
sI454
S'        if not (200 <= code < 300):'
p4049
sI455
S'            # hardcoded http is NOT a bug'
p4050
sI456
S'            response = self.parent.error('
p4051
sI457
S"                'http', request, response, code, msg, hdrs)"
p4052
sI458
S''
sI459
S'        return response'
p4053
sI460
S''
sI461
S'    https_response = http_response'
p4054
ssg3936
S'(self=<mechanize._urllib2_fork.HTTPErrorProcessor instance>, request=<mechanize._request.Request instance>, response=<response_seek_wrapper at 0x1c08120 whose wrappe...fp = <mechanize._response.eofresponse instance>>>)'
p4055
sg3938
S'http_response'
p4056
sa(dp4057
g3915
S'C:\\Documents and Settings\\agrover\\Desktop\\previous crawler\\web2py\\build\\bdist.win32\\egg\\mechanize\\_opener.py'
p4058
sg3917
(dp4059
sg3923
I221
sg3924
(dp4060
I224
S''
sI225
S'        if http_err:'
p4061
sI216
S'        else:'
p4062
sI217
S'            dict = self.handle_error'
p4063
sI218
S"            meth_name = proto + '_error'"
p4064
sI219
S'            http_err = 0'
p4065
sI220
S'        args = (dict, proto, meth_name) + args'
p4066
sI221
S'        result = apply(self._call_chain, args)'
p4067
sI222
S'        if result:'
p4068
sI223
S'            return result'
p4069
ssg3936
S"(self=<mechanize._mechanize.Browser instance>, proto=302, *args=({301: [<mechanize._urllib2_fork.HTTPRedirectHandler instance>], 302: [<mechanize._urllib2_fork.HTTPRedirectHandler instance>], 303: [<mechanize._urllib2_fork.HTTPRedirectHandler instance>], 307: [<mechanize._urllib2_fork.HTTPRedirectHandler instance>], 401: [<mechanize._urllib2_fork.HTTPDigestAuthHandler instance>, <mechanize._urllib2_fork.HTTPBasicAuthHandler instance>], 407: [<mechanize._urllib2_fork.ProxyDigestAuthHandler instance>, <mechanize._urllib2_fork.ProxyBasicAuthHandler instance>], 'auth_reqed': [<mechanize._urllib2_fork.ProxyDigestAuthHandler instance>, <mechanize._urllib2_fork.HTTPDigestAuthHandler instance>, <mechanize._urllib2_fork.HTTPBasicAuthHandler instance>, <mechanize._urllib2_fork.ProxyBasicAuthHandler instance>], 'default': [<mechanize._urllib2_fork.HTTPDefaultErrorHandler instance>], 'refresh': [<mechanize._urllib2_fork.HTTPRedirectHandler instance>]}, 302, 'http_error_302', <mechanize._request.Request instance>, <response_seek_wrapper at 0x1c08120 whose wrappe...fp = <mechanize._response.eofresponse instance>>>, 302, 'Moved Temporarily', <httplib.HTTPMessage instance>))"
p4070
sg3938
S'error'
p4071
sa(dp4072
g3915
S'C:\\Documents and Settings\\agrover\\Desktop\\previous crawler\\web2py\\build\\bdist.win32\\egg\\mechanize\\_urllib2_fork.py'
p4073
sg3917
(dp4074
sg3923
I332
sg3924
(dp4075
I327
S'        # could.  Otherwise, they return the response.'
p4076
sI328
S'        handlers = chain.get(kind, ())'
p4077
sI329
S'        for handler in handlers:'
p4078
sI330
S'            func = getattr(handler, meth_name)'
p4079
sI331
S''
sI332
S'            result = func(*args)'
p4080
sI333
S'            if result is not None:'
p4081
sI334
S'                return result'
p4082
sI335
S''
sI336
S'    def _open(self, req, data=None):'
p4083
ssg3936
S"(self=<mechanize._mechanize.Browser instance>, chain={301: [<mechanize._urllib2_fork.HTTPRedirectHandler instance>], 302: [<mechanize._urllib2_fork.HTTPRedirectHandler instance>], 303: [<mechanize._urllib2_fork.HTTPRedirectHandler instance>], 307: [<mechanize._urllib2_fork.HTTPRedirectHandler instance>], 401: [<mechanize._urllib2_fork.HTTPDigestAuthHandler instance>, <mechanize._urllib2_fork.HTTPBasicAuthHandler instance>], 407: [<mechanize._urllib2_fork.ProxyDigestAuthHandler instance>, <mechanize._urllib2_fork.ProxyBasicAuthHandler instance>], 'auth_reqed': [<mechanize._urllib2_fork.ProxyDigestAuthHandler instance>, <mechanize._urllib2_fork.HTTPDigestAuthHandler instance>, <mechanize._urllib2_fork.HTTPBasicAuthHandler instance>, <mechanize._urllib2_fork.ProxyBasicAuthHandler instance>], 'default': [<mechanize._urllib2_fork.HTTPDefaultErrorHandler instance>], 'refresh': [<mechanize._urllib2_fork.HTTPRedirectHandler instance>]}, kind=302, meth_name='http_error_302', *args=(<mechanize._request.Request instance>, <response_seek_wrapper at 0x1c08120 whose wrappe...fp = <mechanize._response.eofresponse instance>>>, 302, 'Moved Temporarily', <httplib.HTTPMessage instance>))"
p4084
sg3938
S'_call_chain'
p4085
sa(dp4086
g3915
S'C:\\Documents and Settings\\agrover\\Desktop\\previous crawler\\web2py\\build\\bdist.win32\\egg\\mechanize\\_urllib2_fork.py'
p4087
sg3917
(dp4088
sg3923
I571
sg3924
(dp4089
I566
S"        # Don't close the fp until we are sure that we won't use it"
p4090
sI567
S'        # with HTTPError.'
p4091
sI568
S'        fp.read()'
p4092
sI569
S'        fp.close()'
p4093
sI570
S''
sI571
S'        return self.parent.open(new)'
p4094
sI572
S''
sI573
S'    http_error_301 = http_error_303 = http_error_307 = http_error_302'
p4095
sI574
S'    http_error_refresh = http_error_302'
p4096
sI575
S''
ssg3936
S"(self=<mechanize._urllib2_fork.HTTPRedirectHandler instance>, req=<mechanize._request.Request instance>, fp=<response_seek_wrapper at 0x1c08120 whose wrappe...fp = <mechanize._response.eofresponse instance>>>, code=302, msg='Moved Temporarily', headers=<httplib.HTTPMessage instance>)"
p4097
sg3938
S'http_error_302'
p4098
sa(dp4099
g3915
S'C:\\Documents and Settings\\agrover\\Desktop\\previous crawler\\web2py\\build\\bdist.win32\\egg\\mechanize\\_mechanize.py'
p4100
sg3917
(dp4101
sg3923
I203
sg3924
(dp4102
I198
S'        """'
p4103
sI199
S'        return self._mech_open(url, data, visit=False, timeout=timeout)'
p4104
sI200
S''
sI201
S'    def open(self, url, data=None,'
p4105
sI202
S'             timeout=_sockettimeout._GLOBAL_DEFAULT_TIMEOUT):'
p4106
sI203
S'        return self._mech_open(url, data, timeout=timeout)'
p4107
sI204
S''
sI205
S'    def _mech_open(self, url, data=None, update_history=True, visit=None,'
p4108
sI206
S'                   timeout=_sockettimeout._GLOBAL_DEFAULT_TIMEOUT):'
p4109
sI207
S'        try:'
p4110
ssg3936
S'(self=<mechanize._mechanize.Browser instance>, url=<mechanize._request.Request instance>, data=None, timeout=<object object>)'
p4111
sg3938
g4014
sa(dp4112
g3915
S'C:\\Documents and Settings\\agrover\\Desktop\\previous crawler\\web2py\\build\\bdist.win32\\egg\\mechanize\\_mechanize.py'
p4113
sg3917
(dp4114
sg3923
I230
sg3924
(dp4115
I225
S'        if visit:'
p4116
sI226
S'            self._visit_request(request, update_history)'
p4117
sI227
S''
sI228
S'        success = True'
p4118
sI229
S'        try:'
p4119
sI230
S'            response = UserAgentBase.open(self, request, data)'
p4120
sI231
S'        except urllib2.HTTPError, error:'
p4121
sI232
S'            success = False'
p4122
sI233
S'            if error.fp is None:  # not a response'
p4123
sI234
S'                raise'
p4124
ssg3936
S'(self=<mechanize._mechanize.Browser instance>, url=<mechanize._request.Request instance>, data=None, update_history=True, visit=False, timeout=<object object>)'
p4125
sg3938
g4029
sa(dp4126
g3915
S'C:\\Documents and Settings\\agrover\\Desktop\\previous crawler\\web2py\\build\\bdist.win32\\egg\\mechanize\\_opener.py'
p4127
sg3917
(dp4128
sg3923
I193
sg3924
(dp4129
I192
S'        urlopen = _urllib2_fork.OpenerDirector._open'
p4130
sI193
S'        response = urlopen(self, req, data)'
p4131
sI194
S''
sI195
S'        # post-process response'
p4132
sI196
S'        response_processors = set(self.process_response.get(req_scheme, []))'
p4133
sI197
S'        response_processors.update(self._any_response)'
p4134
sI188
S'                    req = meth(req)'
p4135
sI189
S''
sI190
S'        # In Python >= 2.4, .open() supports processors already, so we must'
p4136
sI191
S'        # call ._open() instead.'
p4137
ssg3936
S'(self=<mechanize._mechanize.Browser instance>, fullurl=<mechanize._request.Request instance>, data=None, timeout=<object object>)'
p4138
sg3938
g4014
sa(dp4139
g3915
S'C:\\Documents and Settings\\agrover\\Desktop\\previous crawler\\web2py\\build\\bdist.win32\\egg\\mechanize\\_urllib2_fork.py'
p4140
sg3917
(dp4141
sg3923
I344
sg3924
(dp4142
I339
S'        if result:'
p4143
sI340
S'            return result'
p4144
sI341
S''
sI342
S'        protocol = req.get_type()'
p4145
sI343
S'        result = self._call_chain(self.handle_open, protocol, protocol +'
p4146
sI344
S"                                  '_open', req)"
p4147
sI345
S'        if result:'
p4148
sI346
S'            return result'
p4149
sI347
S''
sI348
S"        return self._call_chain(self.handle_open, 'unknown',"
p4150
ssg3936
S'(self=<mechanize._mechanize.Browser instance>, req=<mechanize._request.Request instance>, data=None)'
p4151
sg3938
S'_open'
p4152
sa(dp4153
g3915
S'C:\\Documents and Settings\\agrover\\Desktop\\previous crawler\\web2py\\build\\bdist.win32\\egg\\mechanize\\_urllib2_fork.py'
p4154
sg3917
(dp4155
sg3923
I332
sg3924
(dp4156
I327
S'        # could.  Otherwise, they return the response.'
p4157
sI328
S'        handlers = chain.get(kind, ())'
p4158
sI329
S'        for handler in handlers:'
p4159
sI330
S'            func = getattr(handler, meth_name)'
p4160
sI331
S''
sI332
S'            result = func(*args)'
p4161
sI333
S'            if result is not None:'
p4162
sI334
S'                return result'
p4163
sI335
S''
sI336
S'    def _open(self, req, data=None):'
p4164
ssg3936
S"(self=<mechanize._mechanize.Browser instance>, chain={'file': [<mechanize._urllib2_fork.FileHandler instance>], 'ftp': [<mechanize._urllib2_fork.FTPHandler instance>], 'http': [<mechanize._urllib2_fork.HTTPHandler instance>], 'https': [<mechanize._urllib2_fork.HTTPSHandler instance>], 'unknown': [<mechanize._urllib2_fork.UnknownHandler instance>]}, kind='http', meth_name='http_open', *args=(<mechanize._request.Request instance>,))"
p4165
sg3938
g4085
sa(dp4166
g3915
S'C:\\Documents and Settings\\agrover\\Desktop\\previous crawler\\web2py\\build\\bdist.win32\\egg\\mechanize\\_urllib2_fork.py'
p4167
sg3917
(dp4168
sg3923
I1142
sg3924
(dp4169
I1137
S''
sI1138
S''
sI1139
S'class HTTPHandler(AbstractHTTPHandler):'
p4170
sI1140
S''
sI1141
S'    def http_open(self, req):'
p4171
sI1142
S'        return self.do_open(httplib.HTTPConnection, req)'
p4172
sI1143
S''
sI1144
S'    http_request = AbstractHTTPHandler.do_request_'
p4173
sI1145
S''
sI1146
S"if hasattr(httplib, 'HTTPS'):"
p4174
ssg3936
S'(self=<mechanize._urllib2_fork.HTTPHandler instance>, req=<mechanize._request.Request instance>)'
p4175
sg3938
S'http_open'
p4176
sa(dp4177
g3915
S'C:\\Documents and Settings\\agrover\\Desktop\\previous crawler\\web2py\\build\\bdist.win32\\egg\\mechanize\\_urllib2_fork.py'
p4178
sg3917
(dp4179
sg3923
I1118
sg3924
(dp4180
I1120
S'        # Pick apart the HTTPResponse object to get the addinfourl'
p4181
sI1121
S'        # object initialized properly.'
p4182
sI1122
S''
sI1113
S''
sI1114
S'        try:'
p4183
sI1115
S'            h.request(req.get_method(), req.get_selector(), req.data, headers)'
p4184
sI1116
S'            r = h.getresponse()'
p4185
sI1117
S'        except socket.error, err: # XXX what error?'
p4186
sI1118
S'            raise URLError(err)'
p4187
sI1119
S''
ssg3936
S'(self=<mechanize._urllib2_fork.HTTPHandler instance>, http_class=<class httplib.HTTPConnection>, req=<mechanize._request.Request instance>)'
p4188
sg3938
S'do_open'
p4189
sasS'pyver'
p4190
S'Python 2.7.3: C:\\Python27\\python.exe'
p4191
sS'session'
p4192
g69
(g70
g71
NtRp4193
(dp4194
g74
(dp4195
sg76
(lp4196
g69
(g78
g71
NtRp4197
(dp4198
g74
(dp4199
g82
I5
ssg83
Nsg76
(lp4200
g69
(g85
g71
NtRp4201
(dp4202
g74
(dp4203
sg83
g4197
sg76
(lp4204
g69
(g90
g71
NtRp4205
(dp4206
g74
(dp4207
g94
g95
ssg83
g4201
sg76
(lp4208
S'last_query'
p4209
asbag69
(g90
g71
NtRp4210
(dp4211
g74
(dp4212
g101
g102
ssg83
g4201
sg76
(lp4213
S':'
asbag69
(g90
g71
NtRp4214
(dp4215
g74
(dp4216
sg83
g4201
sg76
(lp4217
g69
(g70
g71
NtRp4218
(dp4219
g74
(dp4220
g82
I5
ssg83
g4214
sg76
(lp4221
S'db.auth_user.id>0'
p4222
asbasbasbag69
(g85
g71
NtRp4223
(dp4224
g74
(dp4225
sg83
g4197
sg76
(lp4226
g69
(g90
g71
NtRp4227
(dp4228
g74
(dp4229
g94
g95
ssg83
g4223
sg76
(lp4230
S'password'
p4231
asbag69
(g90
g71
NtRp4232
(dp4233
g74
(dp4234
g101
g102
ssg83
g4223
sg76
(lp4235
S':'
asbag69
(g90
g71
NtRp4236
(dp4237
g74
(dp4238
sg83
g4223
sg76
(lp4239
g69
(g70
g71
NtRp4240
(dp4241
g74
(dp4242
g82
I5
ssg83
g4236
sg76
(lp4243
S'modeln@1234'
p4244
asbasbasbag69
(g85
g71
NtRp4245
(dp4246
g74
(dp4247
sg83
g4197
sg76
(lp4248
g69
(g90
g71
NtRp4249
(dp4250
g74
(dp4251
g94
g95
ssg83
g4245
sg76
(lp4252
S'username'
p4253
asbag69
(g90
g71
NtRp4254
(dp4255
g74
(dp4256
g101
g102
ssg83
g4245
sg76
(lp4257
S':'
asbag69
(g90
g71
NtRp4258
(dp4259
g74
(dp4260
sg83
g4245
sg76
(lp4261
g69
(g70
g71
NtRp4262
(dp4263
g74
(dp4264
g82
I5
ssg83
g4258
sg76
(lp4265
S'mrigeshgaurav@gmail.com'
p4266
asbasbasbasbasbsS'etype'
p4267
S"<class 'urllib2.URLError'>"
p4268
sS'date'
p4269
S'Wed Jun 13 19:27:22 2012'
p4270
sS'response'
p4271
g69
(g70
g71
NtRp4272
(dp4273
g74
(dp4274
sg76
(lp4275
g69
(g78
g71
NtRp4276
(dp4277
g74
(dp4278
g82
I5
ssg83
Nsg76
(lp4279
g69
(g85
g71
NtRp4280
(dp4281
g74
(dp4282
sg83
g4276
sg76
(lp4283
g69
(g90
g71
NtRp4284
(dp4285
g74
(dp4286
g94
g95
ssg83
g4280
sg76
(lp4287
g167
asbag69
(g90
g71
NtRp4288
(dp4289
g74
(dp4290
g101
g102
ssg83
g4280
sg76
(lp4291
S':'
asbag69
(g90
g71
NtRp4292
(dp4293
g74
(dp4294
sg83
g4280
sg76
(lp4295
g69
(g70
g71
NtRp4296
(dp4297
g74
(dp4298
g82
I5
ssg83
g4292
sg76
(lp4299
S'<cStringIO.StringO object at 0x04E0A3C0>'
p4300
asbasbasbag69
(g85
g71
NtRp4301
(dp4302
g74
(dp4303
sg83
g4276
sg76
(lp4304
g69
(g90
g71
NtRp4305
(dp4306
g74
(dp4307
g94
g95
ssg83
g4301
sg76
(lp4308
g233
asbag69
(g90
g71
NtRp4309
(dp4310
g74
(dp4311
g101
g102
ssg83
g4301
sg76
(lp4312
S':'
asbag69
(g90
g71
NtRp4313
(dp4314
g74
(dp4315
sg83
g4301
sg76
(lp4316
g69
(g70
g71
NtRp4317
(dp4318
g74
(dp4319
g82
I5
ssg83
g4313
sg76
(lp4320
g69
(g78
g71
NtRp4321
(dp4322
g74
(dp4323
g82
I4
ssg83
Nsg76
(lp4324
g69
(g85
g71
NtRp4325
(dp4326
g74
(dp4327
sg83
g4321
sg76
(lp4328
g69
(g90
g71
NtRp4329
(dp4330
g74
(dp4331
g94
g95
ssg83
g4325
sg76
(lp4332
S'session_id_mycrawler'
p4333
asbag69
(g90
g71
NtRp4334
(dp4335
g74
(dp4336
g101
g102
ssg83
g4325
sg76
(lp4337
S':'
asbag69
(g90
g71
NtRp4338
(dp4339
g74
(dp4340
sg83
g4325
sg76
(lp4341
g69
(g70
g71
NtRp4342
(dp4343
g74
(dp4344
g82
I4
ssg83
g4338
sg76
(lp4345
g69
(g78
g71
NtRp4346
(dp4347
g74
(dp4348
g82
I3
ssg83
Nsg76
(lp4349
g69
(g85
g71
NtRp4350
(dp4351
g74
(dp4352
sg83
g4346
sg76
(lp4353
g69
(g90
g71
NtRp4354
(dp4355
g74
(dp4356
g94
g95
ssg83
g4350
sg76
(lp4357
g283
asbag69
(g90
g71
NtRp4358
(dp4359
g74
(dp4360
g101
g102
ssg83
g4350
sg76
(lp4361
S':'
asbag69
(g90
g71
NtRp4362
(dp4363
g74
(dp4364
sg83
g4350
sg76
(lp4365
g69
(g70
g71
NtRp4366
(dp4367
g74
(dp4368
g82
I3
ssg83
g4362
sg76
(lp4369
S''
asbasbasbag69
(g85
g71
NtRp4370
(dp4371
g74
(dp4372
sg83
g4346
sg76
(lp4373
g69
(g90
g71
NtRp4374
(dp4375
g74
(dp4376
g94
g95
ssg83
g4370
sg76
(lp4377
g304
asbag69
(g90
g71
NtRp4378
(dp4379
g74
(dp4380
g101
g102
ssg83
g4370
sg76
(lp4381
S':'
asbag69
(g90
g71
NtRp4382
(dp4383
g74
(dp4384
sg83
g4370
sg76
(lp4385
g69
(g70
g71
NtRp4386
(dp4387
g74
(dp4388
g82
I3
ssg83
g4382
sg76
(lp4389
S''
asbasbasbag69
(g85
g71
NtRp4390
(dp4391
g74
(dp4392
sg83
g4346
sg76
(lp4393
g69
(g90
g71
NtRp4394
(dp4395
g74
(dp4396
g94
g95
ssg83
g4390
sg76
(lp4397
g325
asbag69
(g90
g71
NtRp4398
(dp4399
g74
(dp4400
g101
g102
ssg83
g4390
sg76
(lp4401
S':'
asbag69
(g90
g71
NtRp4402
(dp4403
g74
(dp4404
sg83
g4390
sg76
(lp4405
g69
(g70
g71
NtRp4406
(dp4407
g74
(dp4408
g82
I3
ssg83
g4402
sg76
(lp4409
S''
asbasbasbag69
(g85
g71
NtRp4410
(dp4411
g74
(dp4412
sg83
g4346
sg76
(lp4413
g69
(g90
g71
NtRp4414
(dp4415
g74
(dp4416
g94
g95
ssg83
g4410
sg76
(lp4417
g346
asbag69
(g90
g71
NtRp4418
(dp4419
g74
(dp4420
g101
g102
ssg83
g4410
sg76
(lp4421
S':'
asbag69
(g90
g71
NtRp4422
(dp4423
g74
(dp4424
sg83
g4410
sg76
(lp4425
g69
(g70
g71
NtRp4426
(dp4427
g74
(dp4428
g82
I3
ssg83
g4422
sg76
(lp4429
S''
asbasbasbag69
(g85
g71
NtRp4430
(dp4431
g74
(dp4432
sg83
g4346
sg76
(lp4433
g69
(g90
g71
NtRp4434
(dp4435
g74
(dp4436
g94
g95
ssg83
g4430
sg76
(lp4437
g367
asbag69
(g90
g71
NtRp4438
(dp4439
g74
(dp4440
g101
g102
ssg83
g4430
sg76
(lp4441
S':'
asbag69
(g90
g71
NtRp4442
(dp4443
g74
(dp4444
sg83
g4430
sg76
(lp4445
g69
(g70
g71
NtRp4446
(dp4447
g74
(dp4448
g82
I3
ssg83
g4442
sg76
(lp4449
S''
asbasbasbag69
(g85
g71
NtRp4450
(dp4451
g74
(dp4452
sg83
g4346
sg76
(lp4453
g69
(g90
g71
NtRp4454
(dp4455
g74
(dp4456
g94
g95
ssg83
g4450
sg76
(lp4457
g388
asbag69
(g90
g71
NtRp4458
(dp4459
g74
(dp4460
g101
g102
ssg83
g4450
sg76
(lp4461
S':'
asbag69
(g90
g71
NtRp4462
(dp4463
g74
(dp4464
sg83
g4450
sg76
(lp4465
g69
(g70
g71
NtRp4466
(dp4467
g74
(dp4468
g82
I3
ssg83
g4462
sg76
(lp4469
S'/'
asbasbasbag69
(g85
g71
NtRp4470
(dp4471
g74
(dp4472
sg83
g4346
sg76
(lp4473
g69
(g90
g71
NtRp4474
(dp4475
g74
(dp4476
g94
g95
ssg83
g4470
sg76
(lp4477
g409
asbag69
(g90
g71
NtRp4478
(dp4479
g74
(dp4480
g101
g102
ssg83
g4470
sg76
(lp4481
S':'
asbag69
(g90
g71
NtRp4482
(dp4483
g74
(dp4484
sg83
g4470
sg76
(lp4485
g69
(g70
g71
NtRp4486
(dp4487
g74
(dp4488
g82
I3
ssg83
g4482
sg76
(lp4489
S''
asbasbasbag69
(g85
g71
NtRp4490
(dp4491
g74
(dp4492
sg83
g4346
sg76
(lp4493
g69
(g90
g71
NtRp4494
(dp4495
g74
(dp4496
g94
g95
ssg83
g4490
sg76
(lp4497
g430
asbag69
(g90
g71
NtRp4498
(dp4499
g74
(dp4500
g101
g102
ssg83
g4490
sg76
(lp4501
S':'
asbag69
(g90
g71
NtRp4502
(dp4503
g74
(dp4504
sg83
g4490
sg76
(lp4505
g69
(g70
g71
NtRp4506
(dp4507
g74
(dp4508
g82
I3
ssg83
g4502
sg76
(lp4509
S''
asbasbasbasbasbasbasbasbasbasbasbag69
(g85
g71
NtRp4510
(dp4511
g74
(dp4512
sg83
g4276
sg76
(lp4513
g69
(g90
g71
NtRp4514
(dp4515
g74
(dp4516
g94
g95
ssg83
g4510
sg76
(lp4517
S'delimiters'
p4518
asbag69
(g90
g71
NtRp4519
(dp4520
g74
(dp4521
g101
g102
ssg83
g4510
sg76
(lp4522
S':'
asbag69
(g90
g71
NtRp4523
(dp4524
g74
(dp4525
sg83
g4510
sg76
(lp4526
g69
(g70
g71
NtRp4527
(dp4528
g74
(dp4529
g82
I5
ssg83
g4523
sg76
(lp4530
g69
(g78
g71
NtRp4531
(dp4532
g74
(dp4533
g82
I4
ssg83
Nsg76
(lp4534
g69
(g85
g71
NtRp4535
(dp4536
g74
(dp4537
sg83
g4531
sg76
(lp4538
g69
(g90
g71
NtRp4539
(dp4540
g74
(dp4541
sg83
g4535
sg76
(lp4542
g69
(g70
g71
NtRp4543
(dp4544
g74
(dp4545
g82
I4
ssg83
g4539
sg76
(lp4546
S'{{'
p4547
asbasbasbag69
(g85
g71
NtRp4548
(dp4549
g74
(dp4550
sg83
g4531
sg76
(lp4551
g69
(g90
g71
NtRp4552
(dp4553
g74
(dp4554
sg83
g4548
sg76
(lp4555
g69
(g70
g71
NtRp4556
(dp4557
g74
(dp4558
g82
I4
ssg83
g4552
sg76
(lp4559
S'}}'
p4560
asbasbasbasbasbasbasbag69
(g85
g71
NtRp4561
(dp4562
g74
(dp4563
sg83
g4276
sg76
(lp4564
g69
(g90
g71
NtRp4565
(dp4566
g74
(dp4567
g94
g95
ssg83
g4561
sg76
(lp4568
S'files'
p4569
asbag69
(g90
g71
NtRp4570
(dp4571
g74
(dp4572
g101
g102
ssg83
g4561
sg76
(lp4573
S':'
asbag69
(g90
g71
NtRp4574
(dp4575
g74
(dp4576
sg83
g4561
sg76
(lp4577
g69
(g70
g71
NtRp4578
(dp4579
g74
(dp4580
g82
I5
ssg83
g4574
sg76
(lp4581
g69
(g78
g71
NtRp4582
(dp4583
g74
(dp4584
g82
I4
ssg83
Nsg76
(lp4585
sbasbasbasbag69
(g85
g71
NtRp4586
(dp4587
g74
(dp4588
sg83
g4276
sg76
(lp4589
g69
(g90
g71
NtRp4590
(dp4591
g74
(dp4592
g94
g95
ssg83
g4586
sg76
(lp4593
S'flash'
p4594
asbag69
(g90
g71
NtRp4595
(dp4596
g74
(dp4597
g101
g102
ssg83
g4586
sg76
(lp4598
S':'
asbag69
(g90
g71
NtRp4599
(dp4600
g74
(dp4601
sg83
g4586
sg76
(lp4602
g69
(g70
g71
NtRp4603
(dp4604
g74
(dp4605
g82
I5
ssg83
g4599
sg76
(lp4606
S''
asbasbasbag69
(g85
g71
NtRp4607
(dp4608
g74
(dp4609
sg83
g4276
sg76
(lp4610
g69
(g90
g71
NtRp4611
(dp4612
g74
(dp4613
g94
g95
ssg83
g4607
sg76
(lp4614
S'generic_patterns'
p4615
asbag69
(g90
g71
NtRp4616
(dp4617
g74
(dp4618
g101
g102
ssg83
g4607
sg76
(lp4619
S':'
asbag69
(g90
g71
NtRp4620
(dp4621
g74
(dp4622
sg83
g4607
sg76
(lp4623
g69
(g70
g71
NtRp4624
(dp4625
g74
(dp4626
g82
I5
ssg83
g4620
sg76
(lp4627
g69
(g78
g71
NtRp4628
(dp4629
g74
(dp4630
g82
I4
ssg83
Nsg76
(lp4631
g69
(g85
g71
NtRp4632
(dp4633
g74
(dp4634
sg83
g4628
sg76
(lp4635
g69
(g90
g71
NtRp4636
(dp4637
g74
(dp4638
sg83
g4632
sg76
(lp4639
g69
(g70
g71
NtRp4640
(dp4641
g74
(dp4642
g82
I4
ssg83
g4636
sg76
(lp4643
S'*'
asbasbasbasbasbasbasbag69
(g85
g71
NtRp4644
(dp4645
g74
(dp4646
sg83
g4276
sg76
(lp4647
g69
(g90
g71
NtRp4648
(dp4649
g74
(dp4650
g94
g95
ssg83
g4644
sg76
(lp4651
S'headers'
p4652
asbag69
(g90
g71
NtRp4653
(dp4654
g74
(dp4655
g101
g102
ssg83
g4644
sg76
(lp4656
S':'
asbag69
(g90
g71
NtRp4657
(dp4658
g74
(dp4659
sg83
g4644
sg76
(lp4660
g69
(g70
g71
NtRp4661
(dp4662
g74
(dp4663
g82
I5
ssg83
g4657
sg76
(lp4664
g69
(g78
g71
NtRp4665
(dp4666
g74
(dp4667
g82
I4
ssg83
Nsg76
(lp4668
g69
(g85
g71
NtRp4669
(dp4670
g74
(dp4671
sg83
g4665
sg76
(lp4672
g69
(g90
g71
NtRp4673
(dp4674
g74
(dp4675
g94
g95
ssg83
g4669
sg76
(lp4676
S'Cache-Control'
p4677
asbag69
(g90
g71
NtRp4678
(dp4679
g74
(dp4680
g101
g102
ssg83
g4669
sg76
(lp4681
S':'
asbag69
(g90
g71
NtRp4682
(dp4683
g74
(dp4684
sg83
g4669
sg76
(lp4685
g69
(g70
g71
NtRp4686
(dp4687
g74
(dp4688
g82
I4
ssg83
g4682
sg76
(lp4689
S'no-store, no-cache, must-revalidate, post-check=0, pre-check=0'
p4690
asbasbasbag69
(g85
g71
NtRp4691
(dp4692
g74
(dp4693
sg83
g4665
sg76
(lp4694
g69
(g90
g71
NtRp4695
(dp4696
g74
(dp4697
g94
g95
ssg83
g4691
sg76
(lp4698
S'Content-Type'
p4699
asbag69
(g90
g71
NtRp4700
(dp4701
g74
(dp4702
g101
g102
ssg83
g4691
sg76
(lp4703
S':'
asbag69
(g90
g71
NtRp4704
(dp4705
g74
(dp4706
sg83
g4691
sg76
(lp4707
g69
(g70
g71
NtRp4708
(dp4709
g74
(dp4710
g82
I4
ssg83
g4704
sg76
(lp4711
S'text/html; charset=utf-8'
p4712
asbasbasbag69
(g85
g71
NtRp4713
(dp4714
g74
(dp4715
sg83
g4665
sg76
(lp4716
g69
(g90
g71
NtRp4717
(dp4718
g74
(dp4719
g94
g95
ssg83
g4713
sg76
(lp4720
S'Expires'
p4721
asbag69
(g90
g71
NtRp4722
(dp4723
g74
(dp4724
g101
g102
ssg83
g4713
sg76
(lp4725
S':'
asbag69
(g90
g71
NtRp4726
(dp4727
g74
(dp4728
sg83
g4713
sg76
(lp4729
g69
(g70
g71
NtRp4730
(dp4731
g74
(dp4732
g82
I4
ssg83
g4726
sg76
(lp4733
S'Thu, 14 Jun 2012 02:26:57 GMT'
p4734
asbasbasbag69
(g85
g71
NtRp4735
(dp4736
g74
(dp4737
sg83
g4665
sg76
(lp4738
g69
(g90
g71
NtRp4739
(dp4740
g74
(dp4741
g94
g95
ssg83
g4735
sg76
(lp4742
S'Pragma'
p4743
asbag69
(g90
g71
NtRp4744
(dp4745
g74
(dp4746
g101
g102
ssg83
g4735
sg76
(lp4747
S':'
asbag69
(g90
g71
NtRp4748
(dp4749
g74
(dp4750
sg83
g4735
sg76
(lp4751
g69
(g70
g71
NtRp4752
(dp4753
g74
(dp4754
g82
I4
ssg83
g4748
sg76
(lp4755
S'no-cache'
p4756
asbasbasbag69
(g85
g71
NtRp4757
(dp4758
g74
(dp4759
sg83
g4665
sg76
(lp4760
g69
(g90
g71
NtRp4761
(dp4762
g74
(dp4763
g94
g95
ssg83
g4757
sg76
(lp4764
S'X-Powered-By'
p4765
asbag69
(g90
g71
NtRp4766
(dp4767
g74
(dp4768
g101
g102
ssg83
g4757
sg76
(lp4769
S':'
asbag69
(g90
g71
NtRp4770
(dp4771
g74
(dp4772
sg83
g4757
sg76
(lp4773
g69
(g70
g71
NtRp4774
(dp4775
g74
(dp4776
g82
I4
ssg83
g4770
sg76
(lp4777
S'web2py'
p4778
asbasbasbasbasbasbasbag69
(g85
g71
NtRp4779
(dp4780
g74
(dp4781
sg83
g4276
sg76
(lp4782
g69
(g90
g71
NtRp4783
(dp4784
g74
(dp4785
g94
g95
ssg83
g4779
sg76
(lp4786
S'menu'
p4787
asbag69
(g90
g71
NtRp4788
(dp4789
g74
(dp4790
g101
g102
ssg83
g4779
sg76
(lp4791
S':'
asbag69
(g90
g71
NtRp4792
(dp4793
g74
(dp4794
sg83
g4779
sg76
(lp4795
g69
(g70
g71
NtRp4796
(dp4797
g74
(dp4798
g82
I5
ssg83
g4792
sg76
(lp4799
g69
(g78
g71
NtRp4800
(dp4801
g74
(dp4802
g82
I4
ssg83
Nsg76
(lp4803
g69
(g85
g71
NtRp4804
(dp4805
g74
(dp4806
sg83
g4800
sg76
(lp4807
g69
(g90
g71
NtRp4808
(dp4809
g74
(dp4810
sg83
g4804
sg76
(lp4811
g69
(g70
g71
NtRp4812
(dp4813
g74
(dp4814
g82
I4
ssg83
g4808
sg76
(lp4815
g69
(g78
g71
NtRp4816
(dp4817
g74
(dp4818
g82
I3
ssg83
Nsg76
(lp4819
g69
(g85
g71
NtRp4820
(dp4821
g74
(dp4822
sg83
g4816
sg76
(lp4823
g69
(g90
g71
NtRp4824
(dp4825
g74
(dp4826
sg83
g4820
sg76
(lp4827
g69
(g70
g71
NtRp4828
(dp4829
g74
(dp4830
g82
I3
ssg83
g4824
sg76
(lp4831
cgluon.languages
lazyT_unpickle
p4832
(S't\x04\x00\x00\x00Home'
tRp4833
asbasbasbag69
(g85
g71
NtRp4834
(dp4835
g74
(dp4836
sg83
g4816
sg76
(lp4837
g69
(g90
g71
NtRp4838
(dp4839
g74
(dp4840
sg83
g4834
sg76
(lp4841
g69
(g70
g71
NtRp4842
(dp4843
g74
(dp4844
g82
I3
ssg83
g4838
sg76
(lp4845
g112
asbasbasbag69
(g85
g71
NtRp4846
(dp4847
g74
(dp4848
sg83
g4816
sg76
(lp4849
g69
(g90
g71
NtRp4850
(dp4851
g74
(dp4852
sg83
g4846
sg76
(lp4853
g69
(g70
g71
NtRp4854
(dp4855
g74
(dp4856
g82
I3
ssg83
g4850
sg76
(lp4857
S'/mycrawler/default/index'
p4858
asbasbasbag69
(g85
g71
NtRp4859
(dp4860
g74
(dp4861
sg83
g4816
sg76
(lp4862
g69
(g90
g71
NtRp4863
(dp4864
g74
(dp4865
sg83
g4859
sg76
(lp4866
g69
(g70
g71
NtRp4867
(dp4868
g74
(dp4869
g82
I3
ssg83
g4863
sg76
(lp4870
g69
(g78
g71
NtRp4871
(dp4872
g74
(dp4873
g82
I2
ssg83
Nsg76
(lp4874
sbasbasbasbasbasbasbasbag69
(g85
g71
NtRp4875
(dp4876
g74
(dp4877
sg83
g4800
sg76
(lp4878
g69
(g90
g71
NtRp4879
(dp4880
g74
(dp4881
sg83
g4875
sg76
(lp4882
g69
(g70
g71
NtRp4883
(dp4884
g74
(dp4885
g82
I4
ssg83
g4879
sg76
(lp4886
g69
(g78
g71
NtRp4887
(dp4888
g74
(dp4889
g82
I3
ssg83
Nsg76
(lp4890
g69
(g85
g71
NtRp4891
(dp4892
g74
(dp4893
sg83
g4887
sg76
(lp4894
g69
(g90
g71
NtRp4895
(dp4896
g74
(dp4897
sg83
g4891
sg76
(lp4898
g69
(g70
g71
NtRp4899
(dp4900
g74
(dp4901
g82
I3
ssg83
g4895
sg76
(lp4902
g69
(cgluon.html
SPAN
p4903
g71
NtRp4904
(dp4905
g74
(dp4906
g94
S'color:yellow'
p4907
ssg83
Nsg76
(lp4908
g4778
asbasbasbasbag69
(g85
g71
NtRp4909
(dp4910
g74
(dp4911
sg83
g4887
sg76
(lp4912
g69
(g90
g71
NtRp4913
(dp4914
g74
(dp4915
sg83
g4909
sg76
(lp4916
g69
(g70
g71
NtRp4917
(dp4918
g74
(dp4919
g82
I3
ssg83
g4913
sg76
(lp4920
g112
asbasbasbag69
(g85
g71
NtRp4921
(dp4922
g74
(dp4923
sg83
g4887
sg76
(lp4924
g69
(g90
g71
NtRp4925
(dp4926
g74
(dp4927
sg83
g4921
sg76
(lp4928
g69
(g70
g71
NtRp4929
(dp4930
g74
(dp4931
g82
I3
ssg83
g4925
sg76
(lp4932
S'None'
p4933
asbasbasbag69
(g85
g71
NtRp4934
(dp4935
g74
(dp4936
sg83
g4887
sg76
(lp4937
g69
(g90
g71
NtRp4938
(dp4939
g74
(dp4940
sg83
g4934
sg76
(lp4941
g69
(g70
g71
NtRp4942
(dp4943
g74
(dp4944
g82
I3
ssg83
g4938
sg76
(lp4945
g69
(g78
g71
NtRp4946
(dp4947
g74
(dp4948
g82
I2
ssg83
Nsg76
(lp4949
g69
(g85
g71
NtRp4950
(dp4951
g74
(dp4952
sg83
g4946
sg76
(lp4953
g69
(g90
g71
NtRp4954
(dp4955
g74
(dp4956
sg83
g4950
sg76
(lp4957
g69
(g70
g71
NtRp4958
(dp4959
g74
(dp4960
g82
I2
ssg83
g4954
sg76
(lp4961
g69
(g78
g71
NtRp4962
(dp4963
g74
(dp4964
g82
I1
ssg83
Nsg76
(lp4965
g69
(g85
g71
NtRp4966
(dp4967
g74
(dp4968
sg83
g4962
sg76
(lp4969
g69
(g90
g71
NtRp4970
(dp4971
g74
(dp4972
sg83
g4966
sg76
(lp4973
g69
(g70
g71
NtRp4974
(dp4975
g74
(dp4976
g82
I1
ssg83
g4970
sg76
(lp4977
g4832
(S's\x08\x00\x00\x00My Sites'
tRp4978
asbasbasbag69
(g85
g71
NtRp4979
(dp4980
g74
(dp4981
sg83
g4962
sg76
(lp4982
g69
(g90
g71
NtRp4983
(dp4984
g74
(dp4985
sg83
g4979
sg76
(lp4986
g69
(g70
g71
NtRp4987
(dp4988
g74
(dp4989
g82
I1
ssg83
g4983
sg76
(lp4990
I00
asbasbasbag69
(g85
g71
NtRp4991
(dp4992
g74
(dp4993
sg83
g4962
sg76
(lp4994
g69
(g90
g71
NtRp4995
(dp4996
g74
(dp4997
sg83
g4991
sg76
(lp4998
g69
(g70
g71
NtRp4999
(dp5000
g74
(dp5001
g82
I1
ssg83
g4995
sg76
(lp5002
S'/admin/default/site'
p5003
asbasbasbasbasbasbasbag69
(g85
g71
NtRp5004
(dp5005
g74
(dp5006
sg83
g4946
sg76
(lp5007
g69
(g90
g71
NtRp5008
(dp5009
g74
(dp5010
sg83
g5004
sg76
(lp5011
g69
(g70
g71
NtRp5012
(dp5013
g74
(dp5014
g82
I2
ssg83
g5008
sg76
(lp5015
g69
(g78
g71
NtRp5016
(dp5017
g74
(dp5018
g82
I1
ssg83
Nsg76
(lp5019
g69
(g85
g71
NtRp5020
(dp5021
g74
(dp5022
sg83
g5016
sg76
(lp5023
g69
(g90
g71
NtRp5024
(dp5025
g74
(dp5026
sg83
g5020
sg76
(lp5027
g69
(g70
g71
NtRp5028
(dp5029
g74
(dp5030
g82
I1
ssg83
g5024
sg76
(lp5031
g4832
(S's\x08\x00\x00\x00This App'
tRp5032
asbasbasbag69
(g85
g71
NtRp5033
(dp5034
g74
(dp5035
sg83
g5016
sg76
(lp5036
g69
(g90
g71
NtRp5037
(dp5038
g74
(dp5039
sg83
g5033
sg76
(lp5040
g69
(g70
g71
NtRp5041
(dp5042
g74
(dp5043
g82
I1
ssg83
g5037
sg76
(lp5044
I00
asbasbasbag69
(g85
g71
NtRp5045
(dp5046
g74
(dp5047
sg83
g5016
sg76
(lp5048
g69
(g90
g71
NtRp5049
(dp5050
g74
(dp5051
sg83
g5045
sg76
(lp5052
g69
(g70
g71
NtRp5053
(dp5054
g74
(dp5055
g82
I1
ssg83
g5049
sg76
(lp5056
S'/admin/default/design/mycrawler'
p5057
asbasbasbag69
(g85
g71
NtRp5058
(dp5059
g74
(dp5060
sg83
g5016
sg76
(lp5061
g69
(g90
g71
NtRp5062
(dp5063
g74
(dp5064
sg83
g5058
sg76
(lp5065
g69
(g70
g71
NtRp5066
(dp5067
g74
(dp5068
g82
I1
ssg83
g5062
sg76
(lp5069
(lp5070
(g4832
(S't\n\x00\x00\x00Controller'
tRp5071
I00
S'/admin/default/edit/mycrawler/controllers/default.py'
tp5072
a(g4832
(S't\x04\x00\x00\x00View'
tRp5073
I00
S'/admin/default/edit/mycrawler/views/default/search.html'
tp5074
a(g4832
(S't\x06\x00\x00\x00Layout'
tRp5075
I00
S'/admin/default/edit/mycrawler/views/layout.html'
tp5076
a(g4832
(S't\n\x00\x00\x00Stylesheet'
tRp5077
I00
S'/admin/default/edit/mycrawler/static/css/web2py.css'
tp5078
a(g4832
(S's\x08\x00\x00\x00DB Model'
tRp5079
I00
S'/admin/default/edit/mycrawler/models/db.py'
tp5080
a(g4832
(S's\n\x00\x00\x00Menu Model'
tRp5081
I00
S'/admin/default/edit/mycrawler/models/menu.py'
tp5082
a(g4832
(S't\x08\x00\x00\x00Database'
tRp5083
I00
S'/mycrawler/appadmin/index'
tp5084
a(g4832
(S't\x06\x00\x00\x00Errors'
tRp5085
I00
S'/admin/default/errors/mycrawler'
tp5086
a(g4832
(S't\x05\x00\x00\x00About'
tRp5087
I00
S'/admin/default/about/mycrawler'
tp5088
aasbasbasbasbasbasbasbag69
(g85
g71
NtRp5089
(dp5090
g74
(dp5091
sg83
g4946
sg76
(lp5092
g69
(g90
g71
NtRp5093
(dp5094
g74
(dp5095
sg83
g5089
sg76
(lp5096
g69
(g70
g71
NtRp5097
(dp5098
g74
(dp5099
g82
I2
ssg83
g5093
sg76
(lp5100
g69
(g78
g71
NtRp5101
(dp5102
g74
(dp5103
g82
I1
ssg83
Nsg76
(lp5104
g69
(g85
g71
NtRp5105
(dp5106
g74
(dp5107
sg83
g5101
sg76
(lp5108
g69
(g90
g71
NtRp5109
(dp5110
g74
(dp5111
sg83
g5105
sg76
(lp5112
g69
(g70
g71
NtRp5113
(dp5114
g74
(dp5115
g82
I1
ssg83
g5109
sg76
(lp5116
S'web2py.com'
p5117
asbasbasbag69
(g85
g71
NtRp5118
(dp5119
g74
(dp5120
sg83
g5101
sg76
(lp5121
g69
(g90
g71
NtRp5122
(dp5123
g74
(dp5124
sg83
g5118
sg76
(lp5125
g69
(g70
g71
NtRp5126
(dp5127
g74
(dp5128
g82
I1
ssg83
g5122
sg76
(lp5129
I00
asbasbasbag69
(g85
g71
NtRp5130
(dp5131
g74
(dp5132
sg83
g5101
sg76
(lp5133
g69
(g90
g71
NtRp5134
(dp5135
g74
(dp5136
sg83
g5130
sg76
(lp5137
g69
(g70
g71
NtRp5138
(dp5139
g74
(dp5140
g82
I1
ssg83
g5134
sg76
(lp5141
S'http://www.web2py.com'
p5142
asbasbasbag69
(g85
g71
NtRp5143
(dp5144
g74
(dp5145
sg83
g5101
sg76
(lp5146
g69
(g90
g71
NtRp5147
(dp5148
g74
(dp5149
sg83
g5143
sg76
(lp5150
g69
(g70
g71
NtRp5151
(dp5152
g74
(dp5153
g82
I1
ssg83
g5147
sg76
(lp5154
(lp5155
(g4832
(S't\x08\x00\x00\x00Download'
tRp5156
I00
S'http://www.web2py.com/examples/default/download'
p5157
tp5158
a(g4832
(S't\x07\x00\x00\x00Support'
tRp5159
I00
S'http://www.web2py.com/examples/default/support'
p5160
tp5161
a(g4832
(S't\x04\x00\x00\x00Demo'
tRp5162
I00
S'http://web2py.com/demo_admin'
p5163
tp5164
a(g4832
(S's\x0e\x00\x00\x00Quick Examples'
tRp5165
I00
S'http://web2py.com/examples/default/examples'
p5166
tp5167
a(g4832
(S't\x03\x00\x00\x00FAQ'
tRp5168
I00
S'http://web2py.com/AlterEgo'
p5169
tp5170
a(g4832
(S't\x06\x00\x00\x00Videos'
tRp5171
I00
S'http://www.web2py.com/examples/default/videos/'
p5172
tp5173
a(g4832
(S's\x11\x00\x00\x00Free Applications'
tRp5174
I00
S'http://web2py.com/appliances'
p5175
tp5176
a(g4832
(S't\x07\x00\x00\x00Plugins'
tRp5177
I00
S'http://web2py.com/plugins'
p5178
tp5179
a(g4832
(S't\x07\x00\x00\x00Layouts'
tRp5180
I00
S'http://web2py.com/layouts'
p5181
tp5182
a(g4832
(S't\x07\x00\x00\x00Recipes'
tRp5183
I00
S'http://web2pyslices.com/'
p5184
tp5185
a(g4832
(S't\x08\x00\x00\x00Semantic'
tRp5186
I00
S'http://web2py.com/semantic'
p5187
tp5188
aasbasbasbasbasbasbasbag69
(g85
g71
NtRp5189
(dp5190
g74
(dp5191
sg83
g4946
sg76
(lp5192
g69
(g90
g71
NtRp5193
(dp5194
g74
(dp5195
sg83
g5189
sg76
(lp5196
g69
(g70
g71
NtRp5197
(dp5198
g74
(dp5199
g82
I2
ssg83
g5193
sg76
(lp5200
g69
(g78
g71
NtRp5201
(dp5202
g74
(dp5203
g82
I1
ssg83
Nsg76
(lp5204
g69
(g85
g71
NtRp5205
(dp5206
g74
(dp5207
sg83
g5201
sg76
(lp5208
g69
(g90
g71
NtRp5209
(dp5210
g74
(dp5211
sg83
g5205
sg76
(lp5212
g69
(g70
g71
NtRp5213
(dp5214
g74
(dp5215
g82
I1
ssg83
g5209
sg76
(lp5216
g4832
(S't\r\x00\x00\x00Documentation'
tRp5217
asbasbasbag69
(g85
g71
NtRp5218
(dp5219
g74
(dp5220
sg83
g5201
sg76
(lp5221
g69
(g90
g71
NtRp5222
(dp5223
g74
(dp5224
sg83
g5218
sg76
(lp5225
g69
(g70
g71
NtRp5226
(dp5227
g74
(dp5228
g82
I1
ssg83
g5222
sg76
(lp5229
I00
asbasbasbag69
(g85
g71
NtRp5230
(dp5231
g74
(dp5232
sg83
g5201
sg76
(lp5233
g69
(g90
g71
NtRp5234
(dp5235
g74
(dp5236
sg83
g5230
sg76
(lp5237
g69
(g70
g71
NtRp5238
(dp5239
g74
(dp5240
g82
I1
ssg83
g5234
sg76
(lp5241
S'http://www.web2py.com/book'
p5242
asbasbasbag69
(g85
g71
NtRp5243
(dp5244
g74
(dp5245
sg83
g5201
sg76
(lp5246
g69
(g90
g71
NtRp5247
(dp5248
g74
(dp5249
sg83
g5243
sg76
(lp5250
g69
(g70
g71
NtRp5251
(dp5252
g74
(dp5253
g82
I1
ssg83
g5247
sg76
(lp5254
(lp5255
(g4832
(S't\x07\x00\x00\x00Preface'
tRp5256
I00
S'http://www.web2py.com/book/default/chapter/00'
p5257
tp5258
a(g4832
(S't\x0c\x00\x00\x00Introduction'
tRp5259
I00
S'http://www.web2py.com/book/default/chapter/01'
p5260
tp5261
a(g4832
(S't\x06\x00\x00\x00Python'
tRp5262
I00
S'http://www.web2py.com/book/default/chapter/02'
p5263
tp5264
a(g4832
(S't\x08\x00\x00\x00Overview'
tRp5265
I00
S'http://www.web2py.com/book/default/chapter/03'
p5266
tp5267
a(g4832
(S's\x08\x00\x00\x00The Core'
tRp5268
I00
S'http://www.web2py.com/book/default/chapter/04'
p5269
tp5270
a(g4832
(S's\t\x00\x00\x00The Views'
tRp5271
I00
S'http://www.web2py.com/book/default/chapter/05'
p5272
tp5273
a(g4832
(S't\x08\x00\x00\x00Database'
tRp5274
I00
S'http://www.web2py.com/book/default/chapter/06'
p5275
tp5276
a(g4832
(S's\x14\x00\x00\x00Forms and Validators'
tRp5277
I00
S'http://www.web2py.com/book/default/chapter/07'
p5278
tp5279
a(g4832
(S's\r\x00\x00\x00Email and SMS'
tRp5280
I00
S'http://www.web2py.com/book/default/chapter/08'
p5281
tp5282
a(g4832
(S's\x0e\x00\x00\x00Access Control'
tRp5283
I00
S'http://www.web2py.com/book/default/chapter/09'
p5284
tp5285
a(g4832
(S't\x08\x00\x00\x00Services'
tRp5286
I00
S'http://www.web2py.com/book/default/chapter/10'
p5287
tp5288
a(g4832
(S's\x0c\x00\x00\x00Ajax Recipes'
tRp5289
I00
S'http://www.web2py.com/book/default/chapter/11'
p5290
tp5291
a(g4832
(S's\x16\x00\x00\x00Components and Plugins'
tRp5292
I00
S'http://www.web2py.com/book/default/chapter/12'
p5293
tp5294
a(g4832
(S's\x12\x00\x00\x00Deployment Recipes'
tRp5295
I00
S'http://www.web2py.com/book/default/chapter/13'
p5296
tp5297
a(g4832
(S's\r\x00\x00\x00Other Recipes'
tRp5298
I00
S'http://www.web2py.com/book/default/chapter/14'
p5299
tp5300
a(g4832
(S's\r\x00\x00\x00Buy this book'
tRp5301
I00
S'http://stores.lulu.com/web2py'
p5302
tp5303
aasbasbasbasbasbasbasbag69
(g85
g71
NtRp5304
(dp5305
g74
(dp5306
sg83
g4946
sg76
(lp5307
g69
(g90
g71
NtRp5308
(dp5309
g74
(dp5310
sg83
g5304
sg76
(lp5311
g69
(g70
g71
NtRp5312
(dp5313
g74
(dp5314
g82
I2
ssg83
g5308
sg76
(lp5315
g69
(g78
g71
NtRp5316
(dp5317
g74
(dp5318
g82
I1
ssg83
Nsg76
(lp5319
g69
(g85
g71
NtRp5320
(dp5321
g74
(dp5322
sg83
g5316
sg76
(lp5323
g69
(g90
g71
NtRp5324
(dp5325
g74
(dp5326
sg83
g5320
sg76
(lp5327
g69
(g70
g71
NtRp5328
(dp5329
g74
(dp5330
g82
I1
ssg83
g5324
sg76
(lp5331
g4832
(S't\t\x00\x00\x00Community'
tRp5332
asbasbasbag69
(g85
g71
NtRp5333
(dp5334
g74
(dp5335
sg83
g5316
sg76
(lp5336
g69
(g90
g71
NtRp5337
(dp5338
g74
(dp5339
sg83
g5333
sg76
(lp5340
g69
(g70
g71
NtRp5341
(dp5342
g74
(dp5343
g82
I1
ssg83
g5337
sg76
(lp5344
I00
asbasbasbag69
(g85
g71
NtRp5345
(dp5346
g74
(dp5347
sg83
g5316
sg76
(lp5348
g69
(g90
g71
NtRp5349
(dp5350
g74
(dp5351
sg83
g5345
sg76
(lp5352
g69
(g70
g71
NtRp5353
(dp5354
g74
(dp5355
g82
I1
ssg83
g5349
sg76
(lp5356
Nasbasbasbag69
(g85
g71
NtRp5357
(dp5358
g74
(dp5359
sg83
g5316
sg76
(lp5360
g69
(g90
g71
NtRp5361
(dp5362
g74
(dp5363
sg83
g5357
sg76
(lp5364
g69
(g70
g71
NtRp5365
(dp5366
g74
(dp5367
g82
I1
ssg83
g5361
sg76
(lp5368
(lp5369
(g4832
(S't\x06\x00\x00\x00Groups'
tRp5370
I00
S'http://www.web2py.com/examples/default/usergroups'
p5371
tp5372
a(g4832
(S't\x07\x00\x00\x00Twitter'
tRp5373
I00
S'http://twitter.com/web2py'
p5374
tp5375
a(g4832
(S's\t\x00\x00\x00Live Chat'
tRp5376
I00
S'http://webchat.freenode.net/?channels=web2py'
p5377
tp5378
aasbasbasbasbasbasbasbag69
(g85
g71
NtRp5379
(dp5380
g74
(dp5381
sg83
g4946
sg76
(lp5382
g69
(g90
g71
NtRp5383
(dp5384
g74
(dp5385
sg83
g5379
sg76
(lp5386
g69
(g70
g71
NtRp5387
(dp5388
g74
(dp5389
g82
I2
ssg83
g5383
sg76
(lp5390
g69
(g78
g71
NtRp5391
(dp5392
g74
(dp5393
g82
I1
ssg83
Nsg76
(lp5394
g69
(g85
g71
NtRp5395
(dp5396
g74
(dp5397
sg83
g5391
sg76
(lp5398
g69
(g90
g71
NtRp5399
(dp5400
g74
(dp5401
sg83
g5395
sg76
(lp5402
g69
(g70
g71
NtRp5403
(dp5404
g74
(dp5405
g82
I1
ssg83
g5399
sg76
(lp5406
g4832
(S't\x07\x00\x00\x00Plugins'
tRp5407
asbasbasbag69
(g85
g71
NtRp5408
(dp5409
g74
(dp5410
sg83
g5391
sg76
(lp5411
g69
(g90
g71
NtRp5412
(dp5413
g74
(dp5414
sg83
g5408
sg76
(lp5415
g69
(g70
g71
NtRp5416
(dp5417
g74
(dp5418
g82
I1
ssg83
g5412
sg76
(lp5419
I00
asbasbasbag69
(g85
g71
NtRp5420
(dp5421
g74
(dp5422
sg83
g5391
sg76
(lp5423
g69
(g90
g71
NtRp5424
(dp5425
g74
(dp5426
sg83
g5420
sg76
(lp5427
g69
(g70
g71
NtRp5428
(dp5429
g74
(dp5430
g82
I1
ssg83
g5424
sg76
(lp5431
Nasbasbasbag69
(g85
g71
NtRp5432
(dp5433
g74
(dp5434
sg83
g5391
sg76
(lp5435
g69
(g90
g71
NtRp5436
(dp5437
g74
(dp5438
sg83
g5432
sg76
(lp5439
g69
(g70
g71
NtRp5440
(dp5441
g74
(dp5442
g82
I1
ssg83
g5436
sg76
(lp5443
(lp5444
(S'plugin_wiki'
p5445
I00
S'http://web2py.com/examples/default/download'
p5446
tp5447
a(g4832
(S's\r\x00\x00\x00Other Plugins'
tRp5448
I00
g5178
tp5449
a(g4832
(S's\x0e\x00\x00\x00Layout Plugins'
tRp5450
I00
g5181
tp5451
aasbasbasbasbasbasbasbasbasbasbasbasbasbasbasbasbasbasbasbag69
(g85
g71
NtRp5452
(dp5453
g74
(dp5454
sg83
g4276
sg76
(lp5455
g69
(g90
g71
NtRp5456
(dp5457
g74
(dp5458
g94
g95
ssg83
g5452
sg76
(lp5459
S'meta'
p5460
asbag69
(g90
g71
NtRp5461
(dp5462
g74
(dp5463
g101
g102
ssg83
g5452
sg76
(lp5464
S':'
asbag69
(g90
g71
NtRp5465
(dp5466
g74
(dp5467
sg83
g5452
sg76
(lp5468
g69
(g70
g71
NtRp5469
(dp5470
g74
(dp5471
g82
I5
ssg83
g5465
sg76
(lp5472
g69
(g78
g71
NtRp5473
(dp5474
g74
(dp5475
g82
I4
ssg83
Nsg76
(lp5476
g69
(g85
g71
NtRp5477
(dp5478
g74
(dp5479
sg83
g5473
sg76
(lp5480
g69
(g90
g71
NtRp5481
(dp5482
g74
(dp5483
g94
g95
ssg83
g5477
sg76
(lp5484
S'author'
p5485
asbag69
(g90
g71
NtRp5486
(dp5487
g74
(dp5488
g101
g102
ssg83
g5477
sg76
(lp5489
S':'
asbag69
(g90
g71
NtRp5490
(dp5491
g74
(dp5492
sg83
g5477
sg76
(lp5493
g69
(g70
g71
NtRp5494
(dp5495
g74
(dp5496
g82
I4
ssg83
g5490
sg76
(lp5497
S'Your Name <you@example.com>'
p5498
asbasbasbag69
(g85
g71
NtRp5499
(dp5500
g74
(dp5501
sg83
g5473
sg76
(lp5502
g69
(g90
g71
NtRp5503
(dp5504
g74
(dp5505
g94
g95
ssg83
g5499
sg76
(lp5506
S'copyright'
p5507
asbag69
(g90
g71
NtRp5508
(dp5509
g74
(dp5510
g101
g102
ssg83
g5499
sg76
(lp5511
S':'
asbag69
(g90
g71
NtRp5512
(dp5513
g74
(dp5514
sg83
g5499
sg76
(lp5515
g69
(g70
g71
NtRp5516
(dp5517
g74
(dp5518
g82
I4
ssg83
g5512
sg76
(lp5519
S'Copyright 2011'
p5520
asbasbasbag69
(g85
g71
NtRp5521
(dp5522
g74
(dp5523
sg83
g5473
sg76
(lp5524
g69
(g90
g71
NtRp5525
(dp5526
g74
(dp5527
g94
g95
ssg83
g5521
sg76
(lp5528
S'description'
p5529
asbag69
(g90
g71
NtRp5530
(dp5531
g74
(dp5532
g101
g102
ssg83
g5521
sg76
(lp5533
S':'
asbag69
(g90
g71
NtRp5534
(dp5535
g74
(dp5536
sg83
g5521
sg76
(lp5537
g69
(g70
g71
NtRp5538
(dp5539
g74
(dp5540
g82
I4
ssg83
g5534
sg76
(lp5541
S'a cool new app'
p5542
asbasbasbag69
(g85
g71
NtRp5543
(dp5544
g74
(dp5545
sg83
g5473
sg76
(lp5546
g69
(g90
g71
NtRp5547
(dp5548
g74
(dp5549
g94
g95
ssg83
g5543
sg76
(lp5550
S'generator'
p5551
asbag69
(g90
g71
NtRp5552
(dp5553
g74
(dp5554
g101
g102
ssg83
g5543
sg76
(lp5555
S':'
asbag69
(g90
g71
NtRp5556
(dp5557
g74
(dp5558
sg83
g5543
sg76
(lp5559
g69
(g70
g71
NtRp5560
(dp5561
g74
(dp5562
g82
I4
ssg83
g5556
sg76
(lp5563
S'Web2py Web Framework'
p5564
asbasbasbag69
(g85
g71
NtRp5565
(dp5566
g74
(dp5567
sg83
g5473
sg76
(lp5568
g69
(g90
g71
NtRp5569
(dp5570
g74
(dp5571
g94
g95
ssg83
g5565
sg76
(lp5572
S'keywords'
p5573
asbag69
(g90
g71
NtRp5574
(dp5575
g74
(dp5576
g101
g102
ssg83
g5565
sg76
(lp5577
S':'
asbag69
(g90
g71
NtRp5578
(dp5579
g74
(dp5580
sg83
g5565
sg76
(lp5581
g69
(g70
g71
NtRp5582
(dp5583
g74
(dp5584
g82
I4
ssg83
g5578
sg76
(lp5585
S'web2py, python, framework'
p5586
asbasbasbasbasbasbasbag69
(g85
g71
NtRp5587
(dp5588
g74
(dp5589
sg83
g4276
sg76
(lp5590
g69
(g90
g71
NtRp5591
(dp5592
g74
(dp5593
g94
g95
ssg83
g5587
sg76
(lp5594
S'postprocessing'
p5595
asbag69
(g90
g71
NtRp5596
(dp5597
g74
(dp5598
g101
g102
ssg83
g5587
sg76
(lp5599
S':'
asbag69
(g90
g71
NtRp5600
(dp5601
g74
(dp5602
sg83
g5587
sg76
(lp5603
g69
(g70
g71
NtRp5604
(dp5605
g74
(dp5606
g82
I5
ssg83
g5600
sg76
(lp5607
g69
(g78
g71
NtRp5608
(dp5609
g74
(dp5610
g82
I4
ssg83
Nsg76
(lp5611
sbasbasbasbag69
(g85
g71
NtRp5612
(dp5613
g74
(dp5614
sg83
g4276
sg76
(lp5615
g69
(g90
g71
NtRp5616
(dp5617
g74
(dp5618
g94
g95
ssg83
g5612
sg76
(lp5619
S'session_file'
p5620
asbag69
(g90
g71
NtRp5621
(dp5622
g74
(dp5623
g101
g102
ssg83
g5612
sg76
(lp5624
S':'
asbag69
(g90
g71
NtRp5625
(dp5626
g74
(dp5627
sg83
g5612
sg76
(lp5628
g69
(g70
g71
NtRp5629
(dp5630
g74
(dp5631
g82
I5
ssg83
g5625
sg76
(lp5632
S"<open file 'C:\\Documents and Settings\\agrover\\Desktop\\previous crawler\\web2py\\applications\\mycrawler\\sessions\\127.0.0.1-32a946d8-ad2c-43d8-be0f-c8249d02766a', mode 'rb+' at 0x01966650>"
p5633
asbasbasbag69
(g85
g71
NtRp5634
(dp5635
g74
(dp5636
sg83
g4276
sg76
(lp5637
g69
(g90
g71
NtRp5638
(dp5639
g74
(dp5640
g94
g95
ssg83
g5634
sg76
(lp5641
S'session_filename'
p5642
asbag69
(g90
g71
NtRp5643
(dp5644
g74
(dp5645
g101
g102
ssg83
g5634
sg76
(lp5646
S':'
asbag69
(g90
g71
NtRp5647
(dp5648
g74
(dp5649
sg83
g5634
sg76
(lp5650
g69
(g70
g71
NtRp5651
(dp5652
g74
(dp5653
g82
I5
ssg83
g5647
sg76
(lp5654
S'C:\\Documents and Settings\\agrover\\Desktop\\previous crawler\\web2py\\applications\\mycrawler\\sessions\\127.0.0.1-32a946d8-ad2c-43d8-be0f-c8249d02766a'
p5655
asbasbasbag69
(g85
g71
NtRp5656
(dp5657
g74
(dp5658
sg83
g4276
sg76
(lp5659
g69
(g90
g71
NtRp5660
(dp5661
g74
(dp5662
g94
g95
ssg83
g5656
sg76
(lp5663
S'session_id'
p5664
asbag69
(g90
g71
NtRp5665
(dp5666
g74
(dp5667
g101
g102
ssg83
g5656
sg76
(lp5668
S':'
asbag69
(g90
g71
NtRp5669
(dp5670
g74
(dp5671
sg83
g5656
sg76
(lp5672
g69
(g70
g71
NtRp5673
(dp5674
g74
(dp5675
g82
I5
ssg83
g5669
sg76
(lp5676
S'127.0.0.1-32a946d8-ad2c-43d8-be0f-c8249d02766a'
p5677
asbasbasbag69
(g85
g71
NtRp5678
(dp5679
g74
(dp5680
sg83
g4276
sg76
(lp5681
g69
(g90
g71
NtRp5682
(dp5683
g74
(dp5684
g94
g95
ssg83
g5678
sg76
(lp5685
S'session_id_name'
p5686
asbag69
(g90
g71
NtRp5687
(dp5688
g74
(dp5689
g101
g102
ssg83
g5678
sg76
(lp5690
S':'
asbag69
(g90
g71
NtRp5691
(dp5692
g74
(dp5693
sg83
g5678
sg76
(lp5694
g69
(g70
g71
NtRp5695
(dp5696
g74
(dp5697
g82
I5
ssg83
g5691
sg76
(lp5698
g4333
asbasbasbag69
(g85
g71
NtRp5699
(dp5700
g74
(dp5701
sg83
g4276
sg76
(lp5702
g69
(g90
g71
NtRp5703
(dp5704
g74
(dp5705
g94
g95
ssg83
g5699
sg76
(lp5706
S'session_locked'
p5707
asbag69
(g90
g71
NtRp5708
(dp5709
g74
(dp5710
g101
g102
ssg83
g5699
sg76
(lp5711
S':'
asbag69
(g90
g71
NtRp5712
(dp5713
g74
(dp5714
sg83
g5699
sg76
(lp5715
g69
(g70
g71
NtRp5716
(dp5717
g74
(dp5718
g82
I5
ssg83
g5712
sg76
(lp5719
g2039
asbasbasbag69
(g85
g71
NtRp5720
(dp5721
g74
(dp5722
sg83
g4276
sg76
(lp5723
g69
(g90
g71
NtRp5724
(dp5725
g74
(dp5726
g94
g95
ssg83
g5720
sg76
(lp5727
S'session_new'
p5728
asbag69
(g90
g71
NtRp5729
(dp5730
g74
(dp5731
g101
g102
ssg83
g5720
sg76
(lp5732
S':'
asbag69
(g90
g71
NtRp5733
(dp5734
g74
(dp5735
sg83
g5720
sg76
(lp5736
g69
(g70
g71
NtRp5737
(dp5738
g74
(dp5739
g82
I5
ssg83
g5733
sg76
(lp5740
g112
asbasbasbag69
(g85
g71
NtRp5741
(dp5742
g74
(dp5743
sg83
g4276
sg76
(lp5744
g69
(g90
g71
NtRp5745
(dp5746
g74
(dp5747
g94
g95
ssg83
g5741
sg76
(lp5748
S'status'
p5749
asbag69
(g90
g71
NtRp5750
(dp5751
g74
(dp5752
g101
g102
ssg83
g5741
sg76
(lp5753
S':'
asbag69
(g90
g71
NtRp5754
(dp5755
g74
(dp5756
sg83
g5741
sg76
(lp5757
g69
(g70
g71
NtRp5758
(dp5759
g74
(dp5760
g82
I5
ssg83
g5754
sg76
(lp5761
S'200'
p5762
asbasbasbag69
(g85
g71
NtRp5763
(dp5764
g74
(dp5765
sg83
g4276
sg76
(lp5766
g69
(g90
g71
NtRp5767
(dp5768
g74
(dp5769
g94
g95
ssg83
g5763
sg76
(lp5770
S'subtitle'
p5771
asbag69
(g90
g71
NtRp5772
(dp5773
g74
(dp5774
g101
g102
ssg83
g5763
sg76
(lp5775
S':'
asbag69
(g90
g71
NtRp5776
(dp5777
g74
(dp5778
sg83
g5763
sg76
(lp5779
g69
(g70
g71
NtRp5780
(dp5781
g74
(dp5782
g82
I5
ssg83
g5776
sg76
(lp5783
g4832
(S's\r\x00\x00\x00customize me!'
tRp5784
asbasbasbag69
(g85
g71
NtRp5785
(dp5786
g74
(dp5787
sg83
g4276
sg76
(lp5788
g69
(g90
g71
NtRp5789
(dp5790
g74
(dp5791
g94
g95
ssg83
g5785
sg76
(lp5792
S'title'
p5793
asbag69
(g90
g71
NtRp5794
(dp5795
g74
(dp5796
g101
g102
ssg83
g5785
sg76
(lp5797
S':'
asbag69
(g90
g71
NtRp5798
(dp5799
g74
(dp5800
sg83
g5785
sg76
(lp5801
g69
(g70
g71
NtRp5802
(dp5803
g74
(dp5804
g82
I5
ssg83
g5798
sg76
(lp5805
S'Mycrawler'
p5806
asbasbasbag69
(g85
g71
NtRp5807
(dp5808
g74
(dp5809
sg83
g4276
sg76
(lp5810
g69
(g90
g71
NtRp5811
(dp5812
g74
(dp5813
g94
g95
ssg83
g5807
sg76
(lp5814
g2998
asbag69
(g90
g71
NtRp5815
(dp5816
g74
(dp5817
g101
g102
ssg83
g5807
sg76
(lp5818
S':'
asbag69
(g90
g71
NtRp5819
(dp5820
g74
(dp5821
sg83
g5807
sg76
(lp5822
g69
(g70
g71
NtRp5823
(dp5824
g74
(dp5825
g82
I5
ssg83
g5819
sg76
(lp5826
g3011
asbasbasbag69
(g85
g71
NtRp5827
(dp5828
g74
(dp5829
sg83
g4276
sg76
(lp5830
g69
(g90
g71
NtRp5831
(dp5832
g74
(dp5833
g94
g95
ssg83
g5827
sg76
(lp5834
S'view'
p5835
asbag69
(g90
g71
NtRp5836
(dp5837
g74
(dp5838
g101
g102
ssg83
g5827
sg76
(lp5839
S':'
asbag69
(g90
g71
NtRp5840
(dp5841
g74
(dp5842
sg83
g5827
sg76
(lp5843
g69
(g70
g71
NtRp5844
(dp5845
g74
(dp5846
g82
I5
ssg83
g5840
sg76
(lp5847
S'default/search.html'
p5848
asbasbasbasbasbsS'locals'
p5849
(dp5850
S'err'
p5851
S"error(10054, 'An existing connection was forcibly closed by the remote host')"
p5852
sS'host_port'
p5853
S"'www.linkedin.com'"
p5854
sS'self'
p5855
S'<mechanize._urllib2_fork.HTTPHandler instance>'
p5856
sS'req'
p5857
S'<mechanize._request.Request instance>'
p5858
sg4652
S'{\'Accept-Encoding\': \'gzip\', \'Connection\': \'close\', \'Cookie\': \'lang="v=2&lang=en-us"; bcookie="v=2&1b6db1c7-1a5...44b7a4b30"; JSESSIONID="ajax:7644714206902137458"\', \'Host\': \'www.linkedin.com\', \'User-Agent\': \'Mozilla/5.0 (X11; U; Linux i686; en-US; rv:1.9.0...Gecko/2008071615 Fedora/3.0.1-1.fc9 Firefox/3.0.1\'}'
p5859
sS'http_class'
p5860
S'<class httplib.HTTPConnection>'
p5861
sS'h'
S'<httplib.HTTPConnection instance>'
p5862
sssS'traceback'
p5863
S'Traceback (most recent call last):\n  File "C:\\Documents and Settings\\agrover\\Desktop\\previous crawler\\web2py\\gluon\\restricted.py", line 205, in restricted\n    exec ccode in environment\n  File "C:\\Documents and Settings\\agrover\\Desktop\\previous crawler\\web2py\\applications\\mycrawler\\controllers/default.py", line 383, in <module>\n  File "C:\\Documents and Settings\\agrover\\Desktop\\previous crawler\\web2py\\gluon\\globals.py", line 173, in <lambda>\n    self._caller = lambda f: f()\n  File "C:\\Documents and Settings\\agrover\\Desktop\\previous crawler\\web2py\\applications\\mycrawler\\controllers/default.py", line 196, in search\n    br.submit()\n  File "build\\bdist.win32\\egg\\mechanize\\_mechanize.py", line 541, in submit\n    return self.open(self.click(*args, **kwds))\n  File "build\\bdist.win32\\egg\\mechanize\\_mechanize.py", line 203, in open\n    return self._mech_open(url, data, timeout=timeout)\n  File "build\\bdist.win32\\egg\\mechanize\\_mechanize.py", line 230, in _mech_open\n    response = UserAgentBase.open(self, request, data)\n  File "build\\bdist.win32\\egg\\mechanize\\_opener.py", line 204, in open\n    response = meth(req, response)\n  File "build\\bdist.win32\\egg\\mechanize\\_urllib2_fork.py", line 457, in http_response\n    \'http\', request, response, code, msg, hdrs)\n  File "build\\bdist.win32\\egg\\mechanize\\_opener.py", line 221, in error\n    result = apply(self._call_chain, args)\n  File "build\\bdist.win32\\egg\\mechanize\\_urllib2_fork.py", line 332, in _call_chain\n    result = func(*args)\n  File "build\\bdist.win32\\egg\\mechanize\\_urllib2_fork.py", line 571, in http_error_302\n    return self.parent.open(new)\n  File "build\\bdist.win32\\egg\\mechanize\\_mechanize.py", line 203, in open\n    return self._mech_open(url, data, timeout=timeout)\n  File "build\\bdist.win32\\egg\\mechanize\\_mechanize.py", line 230, in _mech_open\n    response = UserAgentBase.open(self, request, data)\n  File "build\\bdist.win32\\egg\\mechanize\\_opener.py", line 193, in open\n    response = urlopen(self, req, data)\n  File "build\\bdist.win32\\egg\\mechanize\\_urllib2_fork.py", line 344, in _open\n    \'_open\', req)\n  File "build\\bdist.win32\\egg\\mechanize\\_urllib2_fork.py", line 332, in _call_chain\n    result = func(*args)\n  File "build\\bdist.win32\\egg\\mechanize\\_urllib2_fork.py", line 1142, in http_open\n    return self.do_open(httplib.HTTPConnection, req)\n  File "build\\bdist.win32\\egg\\mechanize\\_urllib2_fork.py", line 1118, in do_open\n    raise URLError(err)\nURLError: <urlopen error [Errno 10054] An existing connection was forcibly closed by the remote host>\n'
p5864
s.