(dp1
S'output'
p2
S"<type 'exceptions.ValueError'> 'TITLE' is not in list"
p3
sS'layer'
p4
S'C:\\Documents and Settings\\agrover\\Desktop\\previous crawler\\web2py\\applications\\mycrawler\\controllers/default.py'
p5
sS'code'
p6
S'# -*- coding: utf-8 -*-\n# this file is released under public domain and you can use without limitations\n\n#########################################################################\n## This is a samples controller\n## - index is the default action of any application\n## - user is required for authentication and authorization\n## - download is for downloading files uploaded in the db (does streaming)\n## - call exposes all registered services (none by default)\n#########################################################################\nimport cStringIO\nimport csv\nimport re\nimport string\nimport subprocess\nimport time\n\n#country list\ncountry=[\'United States\', \'Afghanistan\', \'Aland Islands\', \'Albania\', \'Algeria\', \'American Samoa\', \'Andorra\', \'Angola\', \'Anguilla\', \'Antarctica\', \'Antigua and Barbuda\', \'Argentina\', \'Armenia\', \'Aruba\', \'Australia\', \'Austria\', \'Azerbaijan\', \'Bahamas\', \'Bahrain\', \'Bangladesh\', \'Barbados\', \'Belarus\', \'Belgium\', \'Belize\', \'Benin\', \'Bermuda\', \'Bhutan\', \'Bolivia\', \'Bosnia and Herzegovina\', \'Botswana\', \'Brazil\', \'British Indian Ocean Territory\', \'Brunei Darussalam\', \'Bulgaria\', \'Burkina Faso\', \'Burundi\', \'Cambodia\', \'Cameroon\', \'Canada\', \'Cape Verde\', \'Caribbean Nations\', \'Cayman Islands\', \'Central African Republic\', \'Chad\', \'Chile\', \'China\', \'Christmas Island\', \'Cocos (Keeling) Islands\', \'Colombia\', \'Comoros\', \'Congo\', \'Cook Islands\', \'Costa Rica\', "Cote D\'Ivoire (Ivory Coast)", \'Croatia\', \'Cuba\', \'Cyprus\', \'Czech Republic\', \'Democratic Republic of the Congo\', \'Denmark\', \'Djibouti\', \'Dominica\', \'Dominican Republic\', \'East Timor\', \'Ecuador\', \'Egypt\', \'El Salvador\', \'Equatorial Guinea\', \'Eritrea\', \'Estonia\', \'Ethiopia\', \'Falkland Islands (Malvinas)\', \'Faroe Islands\', \'Federated States of Micronesia\', \'Fiji\', \'Finland\', \'France\', \'French Guiana\', \'French Polynesia\', \'French Southern Territories\', \'Gabon\', \'Gambia\', \'Georgia\', \'Germany\', \'Ghana\', \'Gibraltar\', \'Greece\', \'Greenland\', \'Grenada\', \'Guadeloupe\', \'Guam\', \'Guatemala\', \'Guernsey\', \'Guinea\', \'Guinea-Bissau\', \'Guyana\', \'Haiti\', \'Honduras\', \'Hong Kong\', \'Hungary\', \'Iceland\', \'India\', \'Indonesia\', \'Iran\', \'Iraq\', \'Ireland\', \'Isle of Man\', \'Israel\', \'Italy\', \'Jamaica\', \'Japan\', \'Jersey\', \'Jordan\', \'Kazakhstan\', \'Kenya\', \'Kiribati\', \'Korea\', \'Korea (North)\', \'Kuwait\', \'Kyrgyzstan\', \'Laos\', \'Latvia\', \'Lebanon\', \'Lesotho\', \'Liberia\', \'Libya\', \'Liechtenstein\', \'Lithuania\', \'Luxembourg\', \'Macao\', \'Macedonia\', \'Madagascar\', \'Malawi\', \'Malaysia\', \'Maldives\', \'Mali\', \'Malta\', \'Marshall Islands\', \'Martinique\', \'Mauritania\', \'Mauritius\', \'Mayotte\', \'Mexico\', \'Moldova\', \'Monaco\', \'Mongolia\', \'Montenegro\', \'Montserrat\', \'Morocco\', \'Mozambique\', \'Myanmar\', \'Namibia\', \'Nauru\', \'Nepal\', \'Netherlands\', \'Netherlands Antilles\', \'New Caledonia\', \'New Zealand\', \'Nicaragua\', \'Niger\', \'Nigeria\', \'Niue\', \'Norfolk Island\', \'Northern Mariana Islands\', \'Norway\', \'Oman\', \'Pakistan\', \'Palau\', \'Palestinian Territory\', \'Panama\', \'Papua New Guinea\', \'Paraguay\', \'Peru\', \'Philippines\', \'Pitcairn\', \'Poland\', \'Portugal\', \'Puerto Rico\', \'Qatar\', \'Reunion\', \'Romania\', \'Russian Federation\', \'Rwanda\', \'Saint Helena\', \'Saint Kitts and Nevis\', \'Saint Lucia\', \'Saint Pierre and Miquelon\', \'Saint Vincent and the Grenadines\', \'Samoa\', \'San Marino\', \'Sao Tome and Principe\', \'Saudi Arabia\', \'Senegal\', \'Serbia\', \'Seychelles\', \'Sierra Leone\', \'Singapore\', \'Slovak Republic\', \'Slovenia\', \'Solomon Islands\', \'Somalia\', \'South Africa\', \'Spain\', \'Sri Lanka\', \'Sudan\', \'Suriname\', \'Svalbard and Jan Mayen\', \'Swaziland\', \'Sweden\', \'Switzerland\', \'Syria\', \'Taiwan\', \'Tajikistan\', \'Tanzania\', \'Thailand\', \'Timor-Leste\', \'Togo\', \'Tokelau\', \'Tonga\', \'Trinidad and Tobago\', \'Tunisia\', \'Turkey\', \'Turkmenistan\', \'Turks and Caicos Islands\', \'Tuvalu\', \'Uganda\', \'Ukraine\', \'United Arab Emirates\', \'United Kingdom\', \'Uruguay\', \'Uzbekistan\', \'Vanuatu\', \'Vatican City State (Holy See)\', \'Venezuela\', \'Vietnam\', \'Virgin Islands (British)\', \'Virgin Islands (U.S.)\', \'Wallis and Futuna\', \'Western Sahara\', \'Yemen\', \'Zambia\', \'Zimbabwe\', \'Other\']\n\n#country id list    \ncountryid=[\'us\', \'af\', \'ax\', \'al\', \'dz\', \'as\', \'ad\', \'ao\', \'ai\', \'aq\', \'ag\', \'ar\', \'am\', \'aw\', \'au\', \'at\', \'az\', \'bs\', \'bh\', \'bd\', \'bb\', \'by\', \'be\', \'bz\', \'bj\', \'bm\', \'bt\', \'bo\', \'ba\', \'bw\', \'br\', \'io\', \'bn\', \'bg\', \'bf\', \'bi\', \'kh\', \'cm\', \'ca\', \'cv\', \'cb\', \'ky\', \'cf\', \'td\', \'cl\', \'cn\', \'cx\', \'cc\', \'co\', \'km\', \'cg\', \'ck\', \'cr\', \'ci\', \'hr\', \'cu\', \'cy\', \'cz\', \'cd\', \'dk\', \'dj\', \'dm\', \'do\', \'tp\', \'ec\', \'eg\', \'sv\', \'gq\', \'er\', \'ee\', \'et\', \'fk\', \'fo\', \'fm\', \'fj\', \'fi\', \'fr\', \'gf\', \'pf\', \'tf\', \'ga\', \'gm\', \'ge\', \'de\', \'gh\', \'gi\', \'gr\', \'gl\', \'gd\', \'gp\', \'gu\', \'gt\', \'gg\', \'gn\', \'gw\', \'gy\', \'ht\', \'hn\', \'hk\', \'hu\', \'is\', \'in\', \'id\', \'ir\', \'iq\', \'ie\', \'im\', \'il\', \'it\', \'jm\', \'jp\', \'je\', \'jo\', \'kz\', \'ke\', \'ki\', \'kr\', \'kp\', \'kw\', \'kg\', \'la\', \'lv\', \'lb\', \'ls\', \'lr\', \'ly\', \'li\', \'lt\', \'lu\', \'mo\', \'mk\', \'mg\', \'mw\', \'my\', \'mv\', \'ml\', \'mt\', \'mh\', \'mq\', \'mr\', \'mu\', \'yt\', \'mx\', \'md\', \'mc\', \'mn\', \'me\', \'ms\', \'ma\', \'mz\', \'mm\', \'na\', \'nr\', \'np\', \'nl\', \'an\', \'nc\', \'nz\', \'ni\', \'ne\', \'ng\', \'nu\', \'nf\', \'mp\', \'no\', \'om\', \'pk\', \'pw\', \'ps\', \'pa\', \'pg\', \'py\', \'pe\', \'ph\', \'pn\', \'pl\', \'pt\', \'pr\', \'qa\', \'re\', \'ro\', \'ru\', \'rw\', \'sh\', \'kn\', \'lc\', \'pm\', \'vc\', \'ws\', \'sm\', \'st\', \'sa\', \'sn\', \'rs\', \'sc\', \'sl\', \'sg\', \'sk\', \'si\', \'sb\', \'so\', \'za\', \'es\', \'lk\', \'sd\', \'sr\', \'sj\', \'sz\', \'se\', \'ch\', \'sy\', \'tw\', \'tj\', \'tz\', \'th\', \'tl\', \'tg\', \'tk\', \'to\', \'tt\', \'tn\', \'tr\', \'tm\', \'tc\', \'tv\', \'ug\', \'ua\', \'ae\', \'gb\', \'uy\', \'uz\', \'vu\', \'va\', \'ve\', \'vn\', \'vg\', \'vi\', \'wf\', \'eh\', \'ye\', \'zm\', \'zw\', \'oo\']\n\n#industries list\nindustries=[\'All Industries\',\'Accounting\', \'Airlines/Aviation\', \'Alternative Dispute Resolution\', \'Alternative Medicine\', \'Animation\', \'Apparel & Fashion\', \'Architecture & Planning\', \'Arts and Crafts\', \'Automotive\', \'Aviation & Aerospace\', \'Banking\', \'Biotechnology\', \'Broadcast Media\', \'Building Materials\', \'Business Supplies and Equipment\', \'Capital Markets\', \'Chemicals\', \'Civic & Social Organization\', \'Civil Engineering\', \'Commercial Real Estate\', \'Computer & Network Security\', \'Computer Games\', \'Computer Hardware\', \'Computer Networking\', \'Computer Software\', \'Construction\', \'Consumer Electronics\', \'Consumer Goods\', \'Consumer Services\', \'Cosmetics\', \'Dairy\', \'Defense & Space\', \'Design\', \'Education Management\', \'E-Learning\', \'Electrical/Electronic Manufacturing\', \'Entertainment\', \'Environmental Services\', \'Events Services\', \'Executive Office\', \'Facilities Services\', \'Farming\', \'Financial Services\', \'Fine Art\', \'Fishery\', \'Food & Beverages\', \'Food Production\', \'Fund-Raising\', \'Furniture\', \'Gambling & Casinos\', \'Glass, Ceramics & Concrete\', \'Government Administration\', \'Government Relations\', \'Graphic Design\', \'Health, Wellness and Fitness\', \'Higher Education\', \'Hospital & Health Care\', \'Hospitality\', \'Human Resources\', \'Import and Export\', \'Individual & Family Services\', \'Industrial Automation\', \'Information Services\', \'Information Technology and Services\', \'Insurance\', \'International Affairs\', \'International Trade and Development\', \'Internet\', \'Investment Banking\', \'Investment Management\', \'Judiciary\', \'Law Enforcement\', \'Law Practice\', \'Legal Services\', \'Legislative Office\', \'Leisure, Travel & Tourism\', \'Libraries\', \'Logistics and Supply Chain\', \'Luxury Goods & Jewelry\', \'Machinery\', \'Management Consulting\', \'Maritime\', \'Marketing and Advertising\', \'Market Research\', \'Mechanical or Industrial Engineering\', \'Media Production\', \'Medical Devices\', \'Medical Practice\', \'Mental Health Care\', \'Military\', \'Mining & Metals\', \'Motion Pictures and Film\', \'Museums and Institutions\', \'Music\', \'Nanotechnology\', \'Newspapers\', \'Nonprofit Organization Management\', \'Oil & Energy\', \'Online Media\', \'Outsourcing/Offshoring\', \'Package/Freight Delivery\', \'Packaging and Containers\', \'Paper & Forest Products\', \'Performing Arts\', \'Pharmaceuticals\', \'Philanthropy\', \'Photography\', \'Plastics\', \'Political Organization\', \'Primary/Secondary Education\', \'Printing\', \'Professional Training & Coaching\', \'Program Development\', \'Public Policy\', \'Public Relations and Communications\', \'Public Safety\', \'Publishing\', \'Railroad Manufacture\', \'Ranching\', \'Real Estate\', \'Recreational Facilities and Services\', \'Religious Institutions\', \'Renewables & Environment\', \'Research\', \'Restaurants\', \'Retail\', \'Security and Investigations\', \'Semiconductors\', \'Shipbuilding\', \'Sporting Goods\', \'Sports\', \'Staffing and Recruiting\', \'Supermarkets\', \'Telecommunications\', \'Textiles\', \'Think Tanks\', \'Tobacco\', \'Translation and Localization\', \'Transportation/Trucking/Railroad\', \'Utilities\', \'Venture Capital & Private Equity\', \'Veterinary\', \'Warehousing\', \'Wholesale\', \'Wine and Spirits\', \'Wireless\', \'Writing and Editing\']\n\n#seniority list\nseniority=[\'All Seniority Levels\', \'Manager\', \'Owner\', \'Partner\', \'CXO\', \'VP\', \'Director\', \'Senior\', \'Entry\', \'Students & Interns\', \'Volunteer\']\n\n#functions list\nfunctions=[\'All Functions\', \'Academics\', \'Accounting\', \'Administrative\', \'Business development\', \'Buyer\', \'Consultant\', \'Creative\', \'Engineering\', \'Entrepreneur\', \'Finance\', \'Human resources\', \'Information technology\', \'Legal\', \'Marketing\', \'Medical\', \'Operations\', \'Product\', \'Public relations\', \'Real estate\', \'Sales\', \'Support\']\n\n#options in title and company\ncurrentpast=[\'CP\', \'C\',\'P\', \'PNC\']\n\n#options list\ncp=[\'Current or Past\',\'Current\',\'Past\',\'Past not Current\']\n\n#THIS IS THE LOGIN PAGE\ndef index():\n    """\n    example action using the internationalization operator T and flash\n    rendered by views/default/index.html or views/generic.html\n    """\n    #login form\n    form = SQLFORM.factory(\n       Field(\'LinkedIn_User_Id\'),\n       Field(\'Password\',type=\'password\'))\n       \n    #checking if there is already a user logged in,i.e. creating a session\n    if session.username:\n        session.flash =\'Login Successful\'\n        redirect(URL(r=request,f=\'enter_info\')) \n       \n\n    session.username=request.vars.LinkedIn_User_Id\n    session.password=request.vars.Password\n    #if form is accepted call enterinfo function\n    if form.process().accepted:\n        session.flash =T(session.username + \' is logged in\')\n        redirect(URL(r=request,f=\'enter_info\')) \n    return dict(form=form)   \n\ndef user():\n    """\n    exposes:\n    http://..../[app]/default/user/login\n    http://..../[app]/default/user/logout\n    http://..../[app]/default/user/register\n    http://..../[app]/default/user/profile\n    http://..../[app]/default/user/retrieve_password\n    http://..../[app]/default/user/change_password\n    use @auth.requires_login()\n        @auth.requires_membership(\'group name\')\n        @auth.requires_permission(\'read\',\'table name\',record_id)\n    to decorate functions that need access control\n    """\n    return dict(form=auth())\n\n\ndef download():\n    """\n    allows downloading of uploaded files\n    http://..../[app]/default/download/[filename]\n    """\n    return response.download(request,db)\n\n\ndef call():\n    """\n    exposes services. for example:\n    http://..../[app]/default/call/jsonrpc\n    decorate with @services.jsonrpc the functions to expose\n    supports xml, json, xmlrpc, jsonrpc, amfrpc, rss, csv\n    """\n    return service()\n\n\n@auth.requires_signature()\ndef data():\n    """\n    http://..../[app]/default/data/tables\n    http://..../[app]/default/data/create/[table]\n    http://..../[app]/default/data/read/[table]/[id]\n    http://..../[app]/default/data/update/[table]/[id]\n    http://..../[app]/default/data/delete/[table]/[id]\n    http://..../[app]/default/data/select/[table]\n    http://..../[app]/default/data/search/[table]\n    but URLs must be signed, i.e. linked with\n      A(\'table\',_href=URL(\'data/tables\',user_signature=True))\n    or with the signed load operator\n      LOAD(\'default\',\'data.load\',args=\'tables\',ajax=True,user_signature=True)\n    """\n    return dict(form=crud())\n\n  \ndef enter_info():\n    #form for entering information\n    form = SQLFORM.factory(\n       Field(\'First_Name\'),\n       Field(\'Last_Name\'),\n       Field(\'Keywords\'),\n       Field(\'Title\'),\n       Field(\'Title_Options\',requires=IS_IN_SET(cp),default=\'Current or Past\'),\n       Field(\'Company\'),\n       Field(\'Company_Options\',requires=IS_IN_SET(cp),default=\'Current or Past\'),\n       Field(\'School\'),\n       Field(\'File_Name\',requires=IS_NOT_EMPTY()),\n       Field(\'Country\',requires=IS_IN_SET(country),default=\'United States\'),\n       Field(\'Industry\',requires=IS_IN_SET(industries,multiple=\'multiple\'),default=\'All Industries\'),\n       Field(\'Seniority_Levels\',requires=IS_IN_SET(seniority,multiple=\'multiple\'),default=\'All Seniority Levels\'),\n       Field(\'Functions\',requires=IS_IN_SET(functions,multiple=\'multiple\'),default=\'All Functions\'))\n\n    #response.flash = \'Refresh Page After Each Query\'\n    #if form accepted redirect to search function\n    if form.process().accepted:\n        session.flash = \'Refresh Page After Each Query\'\n        redirect(URL(r=request,f=\'search\',vars=request.vars))\n    elif form.errors:\n        response.flash = \'form has errors\'\n    return dict(form=form)\n    \n    \n#actual search is done here\ndef search():\n    import mechanize\n    import cookielib\n    import html2text\n    from bs4 import BeautifulSoup\n    # Browser    \n    br = mechanize.Browser()\n\n    # Cookie Jar\n    cj = cookielib.LWPCookieJar()\n    br.set_cookiejar(cj)\n\n    # Browser options\n    br.set_handle_equiv(True)\n    br.set_handle_gzip(True)\n    br.set_handle_redirect(True)\n    br.set_handle_referer(True)\n    br.set_handle_robots(False)\n\n    # Follows refresh 0 but not hangs on refresh > 0\n    br.set_handle_refresh(mechanize._http.HTTPRefreshProcessor(), max_time=1)\n\n    # User-Agent (this is cheating, ok?)\n    br.addheaders = [(\'User-agent\', \'Mozilla/5.0 (X11; U; Linux i686; en-US; rv:1.9.0.1) Gecko/2008071615 Fedora/3.0.1-1.fc9 Firefox/3.0.1\')]\n\n\n    # The site we will navigate into, handling it\'s session    \n    br.open(\'https://www.linkedin.com\')\n\n    # Select the first (index zero) form\n    br.select_form(nr=0)\n\n    # User credentials\n    #br.form[\'session_key\'] = \'mrigeshgaurav@gmail.com\'\n    #br.form[\'session_password\'] = \'modeln@1234\'\n    \n    #entering username and password user provided at login\n    br.form[\'session_key\'] = session.username\n    br.form[\'session_password\'] = session.password\n    \n    \n    # Login by submitting form br\n    br.submit()\n    \n    #opening the advanced search page straight away\n    br.open(\'http://www.linkedin.com/search?trk=advsrch\')\n    \n    #selecting the 1st form\n    br.select_form(nr=1)\n\n    #entering various fields and filters\n    if request.vars.Last_Name:\n        br["lname"]=request.vars.Last_Name\n\n    if request.vars.First_Name:\n        br["fname"]=request.vars.First_Name\n    \n    if request.vars.Keywords:\n        br["keywords"]=request.vars.Keywords\n\n    if request.vars.Company:\n        br["company"]=request.vars.Company\n        br["currentCompany"]=[currentpast[cp.index(request.vars.Company_Options)]]\n\n    if request.vars.School:\n        br["school"]=request.vars.School\n\n    if request.vars.Title:\n        br["title"]=request.vars.Title\n        br["currentTitle"]=[currentpast[cp.index(request.vars.Title_Options)]]\n        \n    if request.vars.Country:\n        br["countryCode"]=[countryid[country.index(request.vars.Country)]]\n    \n    if request.vars.Industry and request.vars.Industry!=\'All Industries\':\n        if isinstance(request.vars.Industry,list):\n            for i in request.vars.Industry:\n                br.find_control("facet_I").items[industries.index(i)-1].selected=True\n        else:\n            br.find_control("facet_I").items[industries.index(request.vars.Industry)-1].selected=True\n    try:        \n        if request.vars.Seniority_Levels and request.vars.Seniority_Levels!=\'All Seniority Levels\':\n            if isinstance(request.vars.Seniority_Levels,list):\n                for i in request.vars.Seniority_Levels:\n                    br.find_control("facet_SE").items[seniority.index(i)-1].selected=True\n            else:\n                br.find_control("facet_SE").items[seniority.index(request.vars.Seniority_Levels)-1].selected=True\n            \n        if request.vars.Functions and request.vars.Functions!=\'All Functions\':\n            if isinstance(request.vars.Functions,list):\n                for i in request.vars.Functions:\n                    br.find_control("facet_FA").items[functions.index(i)-1].selected=True\n            else:\n                br.find_control("facet_FA").items[functions.index(request.vars.Functions)-1].selected=True\n    except:\n        flag=1\n        \n    #submitting the form\n    br.submit()\n    \n    #lists for retreiving the required data\n    view_profile=[]\n    firstname=[]\n    titl=[]\n    location=[]\n    industry=[]\n    current=[]\n    middlename=[]\n    lastname=[]\n    company=[]\n    emailid=[]\n    \n    #flag to make sure we get entries on 1st page\n    flag=1\n    \n    #writing into file with given filename\n    global csv_response\n\n    csv_response = cStringIO.StringIO()\n    \n    spamWriter = csv.writer(csv_response, delimiter=\',\')\n    \n    #spamWriter = csv.writer(open(request.vars.File_Name+\'.csv\', \'wb\'), delimiter=\',\')\n    soup = BeautifulSoup(br.response().read())\n    spamWriter.writerow([\'FIRSTNAME\',\'MIDDLENAME\',\'LASTNAME\',\'TITLE\',\'CURRENT\',\'LOCATION\',\'INDUSTRY\',\'PROFLEURL\',\'COMPANYNAME\',\'EMAIL\'])\n    \n    #scans till there is a link to "next page"\n    while soup.find(\'a\',{"class" : "paginator-next"}) or flag==1:\n        flag=0\n        soup = BeautifulSoup(br.response().read())\n        view_profile=[]\n        firstname=[]\n        titl=[]\n        location=[]\n        industry=[]\n        current=[]\n        middlename=[]\n        lastname=[]\n        company=[]\n        emailid=[]\n        \n        #parsing for the html response to get information\n        for k in soup.find_all(\'dl\',{"class" : "vcard-basic"}):\n            if k.find(\'dd\',{"class" : "title"}):\n                    titl.append(k.find(\'dd\',{"class" : "title"}).get_text())\n            else:\n                    titl.append(\'NONE\')\n                            \n            if k.find(\'span\',{"class" : "location"}):\n                    location.append(k.find(\'span\',{"class" : "location"}).get_text())\n            else:\n                    location.append(\'NONE\')\n            if k.find(\'span\',{"class" : "industry"}):\n                    industry.append(k.find(\'span\',{"class" : "industry"}).get_text())\n            else:\n                    industry.append(\'NONE\')\n                \n        for k in soup.find_all(\'dl\',{"class" : "vcard-expanded"}):\n            temp1=[]\n            temp2=[]\n            if k.find(\'span\',{"class" : "current-details more-text"}):\n                    less=k.find(\'span\',{"class" : "current-details more-text"}).get_text()\n                    temp1=less[0:len(less)-4].encode(\'utf-8\').split(\' at \',1)\n                    if(len(temp1)>1):\n                        try:\n                            temp2=temp1[1].encode(\'utf-8\').split(\',\',1)\n                        except:\n                            temp2=[\'NONE\']\n                    else:\n                        temp2=[\'NONE\']\n                    company.append(temp2[0])\n                    current.append(less[0:len(less)-4])\n            elif k.find(\'span\',{"class" : "current-details"}):\n                    less=k.find(\'span\',{"class" : "current-details"}).get_text()\n                    current.append(less)\n                    temp1=less.encode(\'utf-8\').split(\' at \',1)\n                    if(len(temp1)>1):\n                        try:\n                            temp2=temp1[1].encode(\'utf-8\').split(\',\',1)\n                        except:\n                            temp2=[\'NONE\']\n                    else:\n                        temp2=[\'NONE\']\n                    company.append(temp2[0])\n            else:\n                    current.append(\'NONE\')\n                    company.append(\'NONE\')\n               \n        for l in soup.find_all(\'a\',{"title" : "View Profile"}):\n            temp=[]\n            view_profile.append(\'http://www.linkedin.com\'+l.get(\'href\'))\n            temp.append(l.get_text().encode(\'utf-8\').split(None,2))\n            if temp[0][0]:\n                firstname.append(temp[0][0].strip())\n            else:\n                firstname.append(\'None\')\n            if temp[0][1] and (len(temp[0])-1)==1:\n                lastname.append(temp[0][1].strip())\n                middlename.append(\'None\')\n            else:\n                lastname.append(temp[0][len(temp[0])-1].strip())\n                middlename.append(temp[0][1])\n\n        \n        for i in range(0,len(firstname)):\n            e=\'\'\n            w=\'\'\n            for row in db(db.email_info.Company_Name==company[i]).select():\n                if row.First_String==\'firstname\':\n                    e=e+firstname[i]\n                if row.First_String==\'f\':    \n                    e=e+firstname[i][0]\n                if row.First_String==\'lastname\':\n                    e=e+lastname[i]\n                if row.First_String==\'l\':\n                    e=e+lastname[i][0]\n                \n                e=e+row.Delimiter\n                 \n                if row.Second_String==\'firstname\':\n                    e=e+firstname[i]\n                if row.Second_String==\'f\':    \n                    e=e+firstname[i][0]\n                if row.Second_String==\'lastname\':\n                    e=e+lastname[i]\n                if row.Second_String==\'l\':\n                    e=e+lastname[i][0]\n                e=e+\'@\'\n                e=e+row.Domain_Name\n                w=string.lower(e)                                    \n                emailid.append(w)\n                \n            if e==\'\':\n                for r in db(db.email_info.id > 0).select():\n                    if company[i].startswith(r.Company_Name):\n                        First_String=r.First_String\n                        Delimiter=r.Delimiter\n                        Second_String=r.Second_String\n                        Domain_Name=r.Domain_Name\n                    \n                        if First_String==\'firstname\':\n                            e=e+firstname[i]\n                        if First_String==\'f\':    \n                            e=e+firstname[i][0]\n                        if First_String==\'lastname\':\n                            e=e+lastname[i]\n                        if First_String==\'l\':\n                            e=e+lastname[i][0]\n                \n                        e=e+Delimiter\n                 \n                        if Second_String==\'firstname\':\n                            e=e+firstname[i]\n                        if Second_String==\'f\':    \n                            e=e+firstname[i][0]\n                        if Second_String==\'lastname\':\n                            e=e+lastname[i]\n                        if Second_String==\'l\':\n                            e=e+lastname[i][0]\n                        e=e+\'@\'\n                        e=e+Domain_Name\n                        w=string.lower(e)                                    \n                        emailid.append(w)\n                        break\n                  \n                    if r.Company_Name.startswith(company[i]):\n                        First_String=r.First_String\n                        Delimiter=r.Delimiter\n                        Second_String=r.Second_String\n                        Domain_Name=r.Domain_Name\n                    \n                        if First_String==\'firstname\':\n                            e=e+firstname[i]\n                        if First_String==\'f\':    \n                            e=e+firstname[i][0]\n                        if First_String==\'lastname\':\n                            e=e+lastname[i]\n                        if First_String==\'l\':\n                            e=e+lastname[i][0]\n                \n                        e=e+Delimiter\n                 \n                        if Second_String==\'firstname\':\n                            e=e+firstname[i]\n                        if Second_String==\'f\':    \n                            e=e+firstname[i][0]\n                        if Second_String==\'lastname\':\n                            e=e+lastname[i]\n                        if Second_String==\'l\':\n                            e=e+lastname[i][0]\n                        e=e+\'@\'\n                        e=e+Domain_Name\n                        w=string.lower(e)                                    \n                        emailid.append(w)\n                        break    \n                        \n            if e==\'\':\n                emailid.append(\'NONE\')        \n\n        \n        for i in range(0,len(firstname)):\n            try:\n                spamWriter.writerow([firstname[i].encode(\'utf-8\').strip(),middlename[i].encode(\'utf-8\').strip(),lastname[i].encode(\'utf-8\').strip(),titl[i].encode(\'utf-8\').strip(),current[i].encode(\'utf-8\').strip(),location[i].encode(\'utf-8\').strip(),industry[i].encode(\'utf-8\').strip(),view_profile[i].encode(\'utf-8\').strip(),company[i].encode(\'utf-8\').strip(),emailid[i].encode(\'utf-8\').strip()])\n            except:\n                continue\n        if soup.find(\'a\',{"class" : "paginator-next"}):\n            br.open(\'http://www.linkedin.com\'+ soup.find(\'a\',{"class" : "paginator-next"}).get(\'href\'))\n        #soup = BeautifulSoup(br.response().read())\n        \n    response.headers[\'Content-Type\'] = \'text/csv\'\n    response.headers[\'Content-Disposition\'] = \'attachment; filename=%s.csv\' % request.vars.File_Name\n    return csv_response.getvalue()\n\n#for adding company information into the database    \ndef email_info():\n     name=SQLFORM(db.email_info)\n     if(name.accepts(request.vars,session)):\n         #db.playlist.insert(playlist_id=request.vars.id)\n         session.flash=\'New Entry Made\'\n         redirect(URL(r=request,f=\'email_info\'))\n     return dict(name=name)\n     \n#list companies present in table     \ndef list_companies():\n    return dict(companies=db(db.email_info.id>0).select())\n\n#logout          \ndef logout():\n    session.username=[]\n    session.password=[]\n    session.flash =T(\'Logout Successful\')\n    redirect(URL(r=request,f=\'index\'))\n\n#del a company from database    \ndef delete():\n    db(db.email_info.id==request.args(0)).delete()\n    session.flash=\'Company Info Deleted\'\n    redirect(URL(r=request,f=\'list_companies\'))\n\n#extract all contacts on the local machine    \ndef extract():  \n    subprocess.call("java -cp \\"C:\\\\Documents and Settings\\\\agrover\\\\Desktop\\\\previous crawler\\\\web2py\\\\applications\\\\mycrawler\\\\dataloader\\\\*\\" -Dsalesforce.config.dir=\\"C:\\\\Documents and Settings\\\\agrover\\\\Desktop\\\\previous crawler\\\\web2py\\\\applications\\\\mycrawler\\\\dataloader\\\\econtacts\\\\config\\" com.salesforce.dataloader.process.ProcessRunner process.name=econtacts")\n    \n    #this script is used for adding company name to the contacts extracted from the salesforce.com\n    #1st give the name of the file which is taken as input\n    #then give name of the file where you want new data with appended field to be stored\n    #then give the name of the file where all accounts are stored i.e. where company names(account names) are hashed to accountids\n\n\n    #opening input file which needs to be edited\n    #infile=raw_input(\'Enter Input Filename for Editing (eg extracted.csv):\')\n    o=open(\'C:\\\\Documents and Settings\\\\agrover\\\\Desktop\\\\previous crawler\\\\web2py\\\\applications\\\\mycrawler\\\\dataloader\\\\econtacts.csv\', \'rb\')\n    inp = csv.reader(o, delimiter=\',\')\n\n    #opening new file for writing data\n    #newin=raw_input(\'Enter Input Filename for Newfile (eg extracted.csv):\')\n    w=open(\'C:\\\\Documents and Settings\\\\agrover\\\\Desktop\\\\previous crawler\\\\web2py\\\\applications\\\\mycrawler\\\\dataloader\\\\contacts.csv\',\'wb\')\n    wri=csv.writer(w,delimiter=\',\')\n\n    #opening file from where company names will be matched to the accountids\n    #in1=raw_input(\'Enter accounts filename (eg allaccounts.csv):\')\n    a = open(\'C:\\\\Documents and Settings\\\\agrover\\\\Desktop\\\\previous crawler\\\\web2py\\\\applications\\\\mycrawler\\\\dataloader\\\\allaccount.csv\', \'rb\')\n    acc = csv.reader(a, delimiter=\',\')\n\n    #stores header line\n    headers=inp.next()\n    head1=acc.next()\n\n    keys=set()\n\n    accid=dict()\n    \n    #finding index for field ID in accounts file\n    id=head1.index(\'ID\')\n    #finding index for field NAME in accounts file\n    accountname=head1.index(\'NAME\')\n\n    #finding index of accountid in the input file\n    accountid=headers.index(\'ACCOUNTID\')\n\n    #creating a dictionary where accountids are mapped to accountnames(companynames)\n    #acc means accessing accounts file\n\n    for entry in acc:\n        #search in a set is order 1 where as search in list is order N...\n        keys.add(entry[id])\n        accid[entry[id]]=entry[accountname]\n\n    #writing new header line in the new file generated\n    headers.append(\'COMPANYNAME\')\n    wri.writerow(headers)\n\n    #inp means accessing input file\n\n    for entry in inp:\n        #for each entry in input file we check if accountid is present in the set generated from accounts file\n        #if we use accid.keys() instead of set keys it will take N^2 time hence using set\n    \n        if(entry[accountid] in keys):\n            entry.append(accid[entry[accountid]])\n            wri.writerow(entry)\n        else:\n            entry.append(\'None\')\n            wri.writerow(entry)\n\n\n    w.close()\n    o.close()\n    a.close()\n\n    cpy()\n    #redirect(URL(r=request,f=\'enter_info\'))\n    return cp_response.getvalue()\n\n#for writing into the file\ndef cpy():\n    global cp_response\n    cp_response = cStringIO.StringIO()\n    writer = csv.writer(cp_response, delimiter=\',\')\n    o=open(\'C:\\\\Documents and Settings\\\\agrover\\\\Desktop\\\\previous crawler\\\\web2py\\\\applications\\\\mycrawler\\\\dataloader\\\\contacts.csv\', \'rb\')\n    reader = csv.reader(o, delimiter=\',\')\n    for row in reader:\n        writer.writerow(row)\n        \n    response.headers[\'Content-Type\'] = \'text/csv\'\n    response.headers[\'Content-Disposition\'] = \'attachment; filename=allcontacts.csv\'\n    \n#opens check data page.....   \ndef upload():\n    global fname\n    global saveas\n    form = SQLFORM(db.files)\n    if form.process().accepted:\n       fname=form.vars.Upload_File\n       saveas=request.vars.Save_As\n       temp()\n       db(db.files.id>0).delete()\n       return up_response.getvalue()\n    elif form.errors:\n       response.flash = \'form has errors\'\n         \n    return dict(form=form)\n    \n#checking data by comparing it with salesforce data...    \ndef temp():\n    global up_response\n    global fname\n    \n    up_response = cStringIO.StringIO()\n    writer = csv.writer(up_response, delimiter=\',\')\n    \n    k=\'C:\\\\Documents and Settings\\\\agrover\\\\Desktop\\\\previous crawler\\\\web2py\\\\applications\\\\mycrawler\\\\uploads\\\\\' + fname\n    c=open(k, \'rb\')\n    check = csv.reader(c, delimiter=\',\')\n    \n    #infile=raw_input(\'Enter Input Filename for Comparing (eg extracted.csv):\')\n    o=open(\'C:\\\\Documents and Settings\\\\agrover\\\\Desktop\\\\previous crawler\\\\web2py\\\\applications\\\\mycrawler\\\\dataloader\\\\contacts.csv\', \'rb\')\n    inp = csv.reader(o, delimiter=\',\')\n\n    #checkfile=raw_input(\'Enter Input Filename to be checked (eg in.csv):\')\n    #c=open(checkfile, \'rb\')\n\n\n    head1=check.next()\n    headers=inp.next()\n\n    email=headers.index(\'EMAIL\')\n    firstname=headers.index(\'FIRSTNAME\')\n    lastname=headers.index(\'LASTNAME\')\n\n    companyname=headers.index(\'COMPANYNAME\')\n\n    em=head1.index(\'EMAIL\')\n    fname=head1.index(\'FIRSTNAME\')\n    lname=head1.index(\'LASTNAME\')\n    title=head1.index(\'TITLE\')\n    cname=head1.index(\'COMPANYNAME\')\n\n    unique=[]\n    kept=set()\n    kept1=set()\n    records=dict()\n\n    for entry in inp:\n        if(entry[email] not in kept):\n            records[entry[email]]=entry;\n        if((entry[firstname]+entry[lastname]+entry[companyname]) not in kept1):\n            records[(entry[firstname]+entry[lastname]+entry[companyname])]=entry\n        kept.add(entry[email])\n        kept1.add(entry[firstname]+entry[lastname]+entry[companyname])\n\n    # and (entry[fname]+entry[lname]+entry[aid]) not in kept1\n    for entry in check:\n        if((entry[em] not in kept or entry[em]==\'\' or entry[em]==\'NONE\') and ((entry[fname]+entry[lname]+entry[cname]) not in kept1)):\n            kept.add(entry[em])\n            records[entry[em]]=[\'None\',\'None\',entry[lname],entry[fname],entry[em],entry[title],\'None\',\'None\',\'None\',\'None\',\'None\',\'None\',\'None\',\'None\',\'None\',\'None\',\'None\',\'None\',entry[cname]]\n            records[(entry[fname]+entry[lname]+entry[cname])]=[\'None\',\'None\',entry[lname],entry[fname],entry[em],entry[title],\'None\',\'None\',\'None\',\'None\',\'None\',\'None\',\'None\',\'None\',\'None\',\'None\',\'None\',\'None\',entry[cname]]\n            kept1.add(entry[fname]+entry[lname]+entry[cname])\n            \n            unique.append([\'None\',\'None\',entry[lname],entry[fname],entry[em],entry[title],\'None\',\'None\',\'None\',\'None\',\'None\',\'None\',\'None\',\'None\',\'None\',\'None\',\'None\',\'None\',entry[cname]])\n        elif (entry[em] in kept and entry[em]!=\'\'):\n           # print entry[em]\n            unique.append(records[entry[em]])\n        else:\n           # print entry[fname]\n            unique.append(records[entry[fname]+entry[lname]+entry[cname]])\n    \n\n       \n    writer.writerow(headers)\n    for i in unique:\n        writer.writerow(list(i))\n    response.headers[\'Content-Type\'] = \'text/csv\'\n    response.headers[\'Content-Disposition\'] = \'attachment; filename=%s.csv\' % saveas\n    o.close()\n    c.close()\n\n#save contacts on server as well as append a new term company name    \ndef contactsonserver():  \n    subprocess.call("java -cp \\"C:\\\\Documents and Settings\\\\agrover\\\\Desktop\\\\previous crawler\\\\web2py\\\\applications\\\\mycrawler\\\\dataloader\\\\*\\" -Dsalesforce.config.dir=\\"C:\\\\Documents and Settings\\\\agrover\\\\Desktop\\\\previous crawler\\\\web2py\\\\applications\\\\mycrawler\\\\dataloader\\\\econtacts\\\\config\\" com.salesforce.dataloader.process.ProcessRunner process.name=econtacts")\n    \n    #this script is used for adding company name to the contacts extracted from the salesforce.com\n    #1st give the name of the file which is taken as input\n    #then give name of the file where you want new data with appended field to be stored\n    #then give the name of the file where all accounts are stored i.e. where company names(account names) are hashed to accountids\n\n\n    #opening input file which needs to be edited\n    #infile=raw_input(\'Enter Input Filename for Editing (eg extracted.csv):\')\n    o=open(\'C:\\\\Documents and Settings\\\\agrover\\\\Desktop\\\\previous crawler\\\\web2py\\\\applications\\\\mycrawler\\\\dataloader\\\\econtacts.csv\', \'rb\')\n    inp = csv.reader(o, delimiter=\',\')\n\n    #opening new file for writing data\n    #newin=raw_input(\'Enter Input Filename for Newfile (eg extracted.csv):\')\n    w=open(\'C:\\\\Documents and Settings\\\\agrover\\\\Desktop\\\\previous crawler\\\\web2py\\\\applications\\\\mycrawler\\\\dataloader\\\\contacts.csv\',\'wb\')\n    wri=csv.writer(w,delimiter=\',\')\n\n    #opening file from where company names will be matched to the accountids\n    #in1=raw_input(\'Enter accounts filename (eg allaccounts.csv):\')\n    a = open(\'C:\\\\Documents and Settings\\\\agrover\\\\Desktop\\\\previous crawler\\\\web2py\\\\applications\\\\mycrawler\\\\dataloader\\\\allaccount.csv\', \'rb\')\n    acc = csv.reader(a, delimiter=\',\')\n\n    #stores header line\n    headers=inp.next()\n    head1=acc.next()\n\n    keys=set()\n\n    accid=dict()\n    \n    #finding index for field ID in accounts file\n    id=head1.index(\'ID\')\n    #finding index for field NAME in accounts file\n    accountname=head1.index(\'NAME\')\n\n    #finding index of accountid in the input file\n    accountid=headers.index(\'ACCOUNTID\')\n\n    #creating a dictionary where accountids are mapped to accountnames(companynames)\n    #acc means accessing accounts file\n\n    for entry in acc:\n        #search in a set is order 1 where as search in list is order N...\n        keys.add(entry[id])\n        accid[entry[id]]=entry[accountname]\n\n    #writing new header line in the new file generated\n    headers.append(\'COMPANYNAME\')\n    wri.writerow(headers)\n\n    #inp means accessing input file\n\n    for entry in inp:\n        #for each entry in input file we check if accountid is present in the set generated from accounts file\n        #if we use accid.keys() instead of set keys it will take N^2 time hence using set\n    \n        if(entry[accountid] in keys):\n            entry.append(accid[entry[accountid]])\n            wri.writerow(entry)\n        else:\n            entry.append(\'None\')\n            wri.writerow(entry)\n\n\n    w.close()\n    o.close()\n    a.close()\n    session.flash=\'Contacts Updated\'\n    redirect(URL(r=request,f=\'upload\'))\n    return dict()\n    \n#update accounts on server    \ndef accountsonserver():  \n    subprocess.call("java -cp \\"C:\\\\Documents and Settings\\\\agrover\\\\Desktop\\\\previous crawler\\\\web2py\\\\applications\\\\mycrawler\\\\dataloader\\\\*\\" -Dsalesforce.config.dir=\\"C:\\\\Documents and Settings\\\\agrover\\\\Desktop\\\\previous crawler\\\\web2py\\\\applications\\\\mycrawler\\\\dataloader\\\\eaccounts\\\\config\\" com.salesforce.dataloader.process.ProcessRunner process.name=eaccounts")\n    session.flash=\'Accounts Updated\'   \n    redirect(URL(r=request,f=\'upload\'))\n    return dict()\n\n#save accounts on pc    \ndef accountsonpc():\n    subprocess.call("java -cp \\"C:\\\\Documents and Settings\\\\agrover\\\\Desktop\\\\previous crawler\\\\web2py\\\\applications\\\\mycrawler\\\\dataloader\\\\*\\" -Dsalesforce.config.dir=\\"C:\\\\Documents and Settings\\\\agrover\\\\Desktop\\\\previous crawler\\\\web2py\\\\applications\\\\mycrawler\\\\dataloader\\\\eaccounts\\\\config\\" com.salesforce.dataloader.process.ProcessRunner process.name=eaccounts")\n    acc_response = cStringIO.StringIO()\n    accwrite = csv.writer(acc_response, delimiter=\',\')\n    \n    a = open(\'C:\\\\Documents and Settings\\\\agrover\\\\Desktop\\\\previous crawler\\\\web2py\\\\applications\\\\mycrawler\\\\dataloader\\\\allaccount.csv\', \'rb\')\n    acc = csv.reader(a, delimiter=\',\')\n    \n    for entry in acc:\n        accwrite.writerow(entry)           \n    response.headers[\'Content-Type\'] = \'text/csv\'\n    response.headers[\'Content-Disposition\'] = \'attachment; filename=accounts.csv\'\n    a.close()\n    return acc_response.getvalue()\n    return dict()\n    \n#finish\n\n\n###########################################################################################################    \n    #redirect(URL(r=request,f=\'enter_info\'))       \n    #for link in soup.find_all(\'a\'):\n    #    if link.get(\'title\')==\'View Profile\':\n    #        #print(link.get(\'href\'))\n    #        #print link.get_text()\n    #        view_profile.append(\'http://www.linkedin.com\'+link.get(\'href\'))\n    #        name.append(link.get_text())\n#for l in soup.find_all("span", { "class" : "given-name" }):\n    #print l.get_text()\n\n        \n\n#    for l in soup.find_all(\'dd\',{"class" : "title"}):\n        #print l.get_text()\n#        titl.append(l.get_text())\n    \n#    for l in soup.find_all(\'span\',{"class" : "location"}):\n        #print l.get_text()\n#        location.append(l.get_text())\n\n#    for l in soup.find_all(\'span\',{"class" : "industry"}):\n        #print l.get_text()\n#        industry.append(l.get_text())\n        \n#    for l in soup.find_all(\'span\', {"class" : "current-details"}):\n#        k=l.get_text()\n#        if k[len(k)-4:len(k)]!=\'more\':\n#            current.append(k)\n        #elif(l.get["class"]==\'current-details more text\'):\n        #    current.append(l.get_text())\n    #for l in soup.find_all(\'span\',{"class" : "current-details"}):\n        #print l.get_text()\n        #current.append(l.get_text())\n\n    \n    #global filename,csv_response\n\n    #csv_response = cStringIO.StringIO()\n    \n    #spamWriter = csv.writer(csv_response, delimiter=\',\')\n    \n    #spamWriter.writerow([\'NAME\',\'JOB-TITLE\',\'COMPANY-NAME\',\'LOCATION\',\'INDUSTRY\',\'PROFLE-URL\'])\n   \n    #spamWriter = csv.writer(open(request.vars.File_Name+\'.csv\', \'wb\'), delimiter=\',\')\n    #spamWriter.writerow([\'NAME\',\'JOB-TITLE\',\'Current\',\'LOCATION\',\'INDUSTRY\',\'PROFLE-URL\'])\n    #for i in range(1,10):\n    #    spamWriter.writerow([name[i].encode(\'utf-8\'),titl[i],current[i],location[i],industry[i],view_profile[i]])\n        \n        \n    #,titl[i],current[i],location[i],industry[i],view_profile[i]\n    #response.headers[\'Content-Type\'] = \'text/csv\'\n    #response.headers[\'Content-Disposition\'] = \'attachment; filename=%s\' % request.vars.File_Name\n\n    \n    #return dict(view_profile=view_profile,name=name,location=location,industry=industry,titl=titl,current=current)\n\nresponse._vars=response._caller(upload)\n'
p7
sS'snapshot'
p8
(dp9
S'exception'
p10
(dp11
S'__hash__'
p12
S"<method-wrapper '__hash__' of exceptions.ValueError object>"
p13
sS'__setattr__'
p14
S"<method-wrapper '__setattr__' of exceptions.ValueError object>"
p15
sS'__reduce_ex__'
p16
S'<built-in method __reduce_ex__ of exceptions.ValueError object>'
p17
sS'__getslice__'
p18
S"<method-wrapper '__getslice__' of exceptions.ValueError object>"
p19
sS'__getitem__'
p20
S"<method-wrapper '__getitem__' of exceptions.ValueError object>"
p21
sS'__setstate__'
p22
S'<built-in method __setstate__ of exceptions.ValueError object>'
p23
sS'__reduce__'
p24
S'<built-in method __reduce__ of exceptions.ValueError object>'
p25
sS'__str__'
p26
S"<method-wrapper '__str__' of exceptions.ValueError object>"
p27
sS'__format__'
p28
S'<built-in method __format__ of exceptions.ValueError object>'
p29
sS'__getattribute__'
p30
S"<method-wrapper '__getattribute__' of exceptions.ValueError object>"
p31
sS'__class__'
p32
S"<type 'exceptions.ValueError'>"
p33
sS'__unicode__'
p34
S'<built-in method __unicode__ of exceptions.ValueError object>'
p35
sS'__delattr__'
p36
S"<method-wrapper '__delattr__' of exceptions.ValueError object>"
p37
sS'__subclasshook__'
p38
S'<built-in method __subclasshook__ of type object>'
p39
sS'__repr__'
p40
S"<method-wrapper '__repr__' of exceptions.ValueError object>"
p41
sS'args'
p42
S'("\'TITLE\' is not in list",)'
p43
sS'__dict__'
p44
S'{}'
p45
sS'__sizeof__'
p46
S'<built-in method __sizeof__ of exceptions.ValueError object>'
p47
sS'__doc__'
p48
S"'Inappropriate argument value (of correct type).'"
p49
sS'__init__'
p50
S"<method-wrapper '__init__' of exceptions.ValueError object>"
p51
sS'__new__'
p52
S'<built-in method __new__ of type object>'
p53
ssS'evalue'
p54
S"'TITLE' is not in list"
p55
sS'request'
p56
ccopy_reg
_reconstructor
p57
(cgluon.html
BEAUTIFY
p58
c__builtin__
object
p59
NtRp60
(dp61
S'attributes'
p62
(dp63
sS'components'
p64
(lp65
g57
(cgluon.html
TABLE
p66
g59
NtRp67
(dp68
g62
(dp69
S'level'
p70
I5
ssS'parent'
p71
Nsg64
(lp72
g57
(cgluon.html
TR
p73
g59
NtRp74
(dp75
g62
(dp76
sg71
g67
sg64
(lp77
g57
(cgluon.html
TD
p78
g59
NtRp79
(dp80
g62
(dp81
S'_style'
p82
S'font-weight:bold;vertical-align:top'
p83
ssg71
g74
sg64
(lp84
S'ajax'
p85
asbag57
(g78
g59
NtRp86
(dp87
g62
(dp88
S'_valign'
p89
S'top'
p90
ssg71
g74
sg64
(lp91
S':'
asbag57
(g78
g59
NtRp92
(dp93
g62
(dp94
sg71
g74
sg64
(lp95
g57
(g58
g59
NtRp96
(dp97
g62
(dp98
g70
I5
ssg71
g92
sg64
(lp99
S'False'
p100
asbasbasbag57
(g73
g59
NtRp101
(dp102
g62
(dp103
sg71
g67
sg64
(lp104
g57
(g78
g59
NtRp105
(dp106
g62
(dp107
g82
g83
ssg71
g101
sg64
(lp108
S'application'
p109
asbag57
(g78
g59
NtRp110
(dp111
g62
(dp112
g89
g90
ssg71
g101
sg64
(lp113
S':'
asbag57
(g78
g59
NtRp114
(dp115
g62
(dp116
sg71
g101
sg64
(lp117
g57
(g58
g59
NtRp118
(dp119
g62
(dp120
g70
I5
ssg71
g114
sg64
(lp121
S'mycrawler'
p122
asbasbasbag57
(g73
g59
NtRp123
(dp124
g62
(dp125
sg71
g67
sg64
(lp126
g57
(g78
g59
NtRp127
(dp128
g62
(dp129
g82
g83
ssg71
g123
sg64
(lp130
g42
asbag57
(g78
g59
NtRp131
(dp132
g62
(dp133
g89
g90
ssg71
g123
sg64
(lp134
S':'
asbag57
(g78
g59
NtRp135
(dp136
g62
(dp137
sg71
g123
sg64
(lp138
g57
(g58
g59
NtRp139
(dp140
g62
(dp141
g70
I5
ssg71
g135
sg64
(lp142
g57
(g66
g59
NtRp143
(dp144
g62
(dp145
g70
I4
ssg71
Nsg64
(lp146
sbasbasbasbag57
(g73
g59
NtRp147
(dp148
g62
(dp149
sg71
g67
sg64
(lp150
g57
(g78
g59
NtRp151
(dp152
g62
(dp153
g82
g83
ssg71
g147
sg64
(lp154
S'body'
p155
asbag57
(g78
g59
NtRp156
(dp157
g62
(dp158
g89
g90
ssg71
g147
sg64
(lp159
S':'
asbag57
(g78
g59
NtRp160
(dp161
g62
(dp162
sg71
g147
sg64
(lp163
g57
(g58
g59
NtRp164
(dp165
g62
(dp166
g70
I5
ssg71
g160
sg64
(lp167
S"<open file '<fdopen>', mode 'w+b' at 0x04BF4EE8>"
p168
asbasbasbag57
(g73
g59
NtRp169
(dp170
g62
(dp171
sg71
g67
sg64
(lp172
g57
(g78
g59
NtRp173
(dp174
g62
(dp175
g82
g83
ssg71
g169
sg64
(lp176
S'client'
p177
asbag57
(g78
g59
NtRp178
(dp179
g62
(dp180
g89
g90
ssg71
g169
sg64
(lp181
S':'
asbag57
(g78
g59
NtRp182
(dp183
g62
(dp184
sg71
g169
sg64
(lp185
g57
(g58
g59
NtRp186
(dp187
g62
(dp188
g70
I5
ssg71
g182
sg64
(lp189
S'127.0.0.1'
p190
asbasbasbag57
(g73
g59
NtRp191
(dp192
g62
(dp193
sg71
g67
sg64
(lp194
g57
(g78
g59
NtRp195
(dp196
g62
(dp197
g82
g83
ssg71
g191
sg64
(lp198
S'controller'
p199
asbag57
(g78
g59
NtRp200
(dp201
g62
(dp202
g89
g90
ssg71
g191
sg64
(lp203
S':'
asbag57
(g78
g59
NtRp204
(dp205
g62
(dp206
sg71
g191
sg64
(lp207
g57
(g58
g59
NtRp208
(dp209
g62
(dp210
g70
I5
ssg71
g204
sg64
(lp211
S'default'
p212
asbasbasbag57
(g73
g59
NtRp213
(dp214
g62
(dp215
sg71
g67
sg64
(lp216
g57
(g78
g59
NtRp217
(dp218
g62
(dp219
g82
g83
ssg71
g213
sg64
(lp220
S'cookies'
p221
asbag57
(g78
g59
NtRp222
(dp223
g62
(dp224
g89
g90
ssg71
g213
sg64
(lp225
S':'
asbag57
(g78
g59
NtRp226
(dp227
g62
(dp228
sg71
g213
sg64
(lp229
g57
(g58
g59
NtRp230
(dp231
g62
(dp232
g70
I5
ssg71
g226
sg64
(lp233
g57
(g66
g59
NtRp234
(dp235
g62
(dp236
g70
I4
ssg71
Nsg64
(lp237
g57
(g73
g59
NtRp238
(dp239
g62
(dp240
sg71
g234
sg64
(lp241
g57
(g78
g59
NtRp242
(dp243
g62
(dp244
g82
g83
ssg71
g238
sg64
(lp245
S'session_id_admin'
p246
asbag57
(g78
g59
NtRp247
(dp248
g62
(dp249
g89
g90
ssg71
g238
sg64
(lp250
S':'
asbag57
(g78
g59
NtRp251
(dp252
g62
(dp253
sg71
g238
sg64
(lp254
g57
(g58
g59
NtRp255
(dp256
g62
(dp257
g70
I4
ssg71
g251
sg64
(lp258
g57
(g66
g59
NtRp259
(dp260
g62
(dp261
g70
I3
ssg71
Nsg64
(lp262
g57
(g73
g59
NtRp263
(dp264
g62
(dp265
sg71
g259
sg64
(lp266
g57
(g78
g59
NtRp267
(dp268
g62
(dp269
g82
g83
ssg71
g263
sg64
(lp270
S'comment'
p271
asbag57
(g78
g59
NtRp272
(dp273
g62
(dp274
g89
g90
ssg71
g263
sg64
(lp275
S':'
asbag57
(g78
g59
NtRp276
(dp277
g62
(dp278
sg71
g263
sg64
(lp279
g57
(g58
g59
NtRp280
(dp281
g62
(dp282
g70
I3
ssg71
g276
sg64
(lp283
S''
asbasbasbag57
(g73
g59
NtRp284
(dp285
g62
(dp286
sg71
g259
sg64
(lp287
g57
(g78
g59
NtRp288
(dp289
g62
(dp290
g82
g83
ssg71
g284
sg64
(lp291
S'domain'
p292
asbag57
(g78
g59
NtRp293
(dp294
g62
(dp295
g89
g90
ssg71
g284
sg64
(lp296
S':'
asbag57
(g78
g59
NtRp297
(dp298
g62
(dp299
sg71
g284
sg64
(lp300
g57
(g58
g59
NtRp301
(dp302
g62
(dp303
g70
I3
ssg71
g297
sg64
(lp304
S''
asbasbasbag57
(g73
g59
NtRp305
(dp306
g62
(dp307
sg71
g259
sg64
(lp308
g57
(g78
g59
NtRp309
(dp310
g62
(dp311
g82
g83
ssg71
g305
sg64
(lp312
S'expires'
p313
asbag57
(g78
g59
NtRp314
(dp315
g62
(dp316
g89
g90
ssg71
g305
sg64
(lp317
S':'
asbag57
(g78
g59
NtRp318
(dp319
g62
(dp320
sg71
g305
sg64
(lp321
g57
(g58
g59
NtRp322
(dp323
g62
(dp324
g70
I3
ssg71
g318
sg64
(lp325
S''
asbasbasbag57
(g73
g59
NtRp326
(dp327
g62
(dp328
sg71
g259
sg64
(lp329
g57
(g78
g59
NtRp330
(dp331
g62
(dp332
g82
g83
ssg71
g326
sg64
(lp333
S'httponly'
p334
asbag57
(g78
g59
NtRp335
(dp336
g62
(dp337
g89
g90
ssg71
g326
sg64
(lp338
S':'
asbag57
(g78
g59
NtRp339
(dp340
g62
(dp341
sg71
g326
sg64
(lp342
g57
(g58
g59
NtRp343
(dp344
g62
(dp345
g70
I3
ssg71
g339
sg64
(lp346
S''
asbasbasbag57
(g73
g59
NtRp347
(dp348
g62
(dp349
sg71
g259
sg64
(lp350
g57
(g78
g59
NtRp351
(dp352
g62
(dp353
g82
g83
ssg71
g347
sg64
(lp354
S'max-age'
p355
asbag57
(g78
g59
NtRp356
(dp357
g62
(dp358
g89
g90
ssg71
g347
sg64
(lp359
S':'
asbag57
(g78
g59
NtRp360
(dp361
g62
(dp362
sg71
g347
sg64
(lp363
g57
(g58
g59
NtRp364
(dp365
g62
(dp366
g70
I3
ssg71
g360
sg64
(lp367
S''
asbasbasbag57
(g73
g59
NtRp368
(dp369
g62
(dp370
sg71
g259
sg64
(lp371
g57
(g78
g59
NtRp372
(dp373
g62
(dp374
g82
g83
ssg71
g368
sg64
(lp375
S'path'
p376
asbag57
(g78
g59
NtRp377
(dp378
g62
(dp379
g89
g90
ssg71
g368
sg64
(lp380
S':'
asbag57
(g78
g59
NtRp381
(dp382
g62
(dp383
sg71
g368
sg64
(lp384
g57
(g58
g59
NtRp385
(dp386
g62
(dp387
g70
I3
ssg71
g381
sg64
(lp388
S''
asbasbasbag57
(g73
g59
NtRp389
(dp390
g62
(dp391
sg71
g259
sg64
(lp392
g57
(g78
g59
NtRp393
(dp394
g62
(dp395
g82
g83
ssg71
g389
sg64
(lp396
S'secure'
p397
asbag57
(g78
g59
NtRp398
(dp399
g62
(dp400
g89
g90
ssg71
g389
sg64
(lp401
S':'
asbag57
(g78
g59
NtRp402
(dp403
g62
(dp404
sg71
g389
sg64
(lp405
g57
(g58
g59
NtRp406
(dp407
g62
(dp408
g70
I3
ssg71
g402
sg64
(lp409
S''
asbasbasbag57
(g73
g59
NtRp410
(dp411
g62
(dp412
sg71
g259
sg64
(lp413
g57
(g78
g59
NtRp414
(dp415
g62
(dp416
g82
g83
ssg71
g410
sg64
(lp417
S'version'
p418
asbag57
(g78
g59
NtRp419
(dp420
g62
(dp421
g89
g90
ssg71
g410
sg64
(lp422
S':'
asbag57
(g78
g59
NtRp423
(dp424
g62
(dp425
sg71
g410
sg64
(lp426
g57
(g58
g59
NtRp427
(dp428
g62
(dp429
g70
I3
ssg71
g423
sg64
(lp430
S''
asbasbasbasbasbasbasbag57
(g73
g59
NtRp431
(dp432
g62
(dp433
sg71
g234
sg64
(lp434
g57
(g78
g59
NtRp435
(dp436
g62
(dp437
g82
g83
ssg71
g431
sg64
(lp438
S'session_id_mycrawler'
p439
asbag57
(g78
g59
NtRp440
(dp441
g62
(dp442
g89
g90
ssg71
g431
sg64
(lp443
S':'
asbag57
(g78
g59
NtRp444
(dp445
g62
(dp446
sg71
g431
sg64
(lp447
g57
(g58
g59
NtRp448
(dp449
g62
(dp450
g70
I4
ssg71
g444
sg64
(lp451
g57
(g66
g59
NtRp452
(dp453
g62
(dp454
g70
I3
ssg71
Nsg64
(lp455
g57
(g73
g59
NtRp456
(dp457
g62
(dp458
sg71
g452
sg64
(lp459
g57
(g78
g59
NtRp460
(dp461
g62
(dp462
g82
g83
ssg71
g456
sg64
(lp463
g271
asbag57
(g78
g59
NtRp464
(dp465
g62
(dp466
g89
g90
ssg71
g456
sg64
(lp467
S':'
asbag57
(g78
g59
NtRp468
(dp469
g62
(dp470
sg71
g456
sg64
(lp471
g57
(g58
g59
NtRp472
(dp473
g62
(dp474
g70
I3
ssg71
g468
sg64
(lp475
S''
asbasbasbag57
(g73
g59
NtRp476
(dp477
g62
(dp478
sg71
g452
sg64
(lp479
g57
(g78
g59
NtRp480
(dp481
g62
(dp482
g82
g83
ssg71
g476
sg64
(lp483
g292
asbag57
(g78
g59
NtRp484
(dp485
g62
(dp486
g89
g90
ssg71
g476
sg64
(lp487
S':'
asbag57
(g78
g59
NtRp488
(dp489
g62
(dp490
sg71
g476
sg64
(lp491
g57
(g58
g59
NtRp492
(dp493
g62
(dp494
g70
I3
ssg71
g488
sg64
(lp495
S''
asbasbasbag57
(g73
g59
NtRp496
(dp497
g62
(dp498
sg71
g452
sg64
(lp499
g57
(g78
g59
NtRp500
(dp501
g62
(dp502
g82
g83
ssg71
g496
sg64
(lp503
g313
asbag57
(g78
g59
NtRp504
(dp505
g62
(dp506
g89
g90
ssg71
g496
sg64
(lp507
S':'
asbag57
(g78
g59
NtRp508
(dp509
g62
(dp510
sg71
g496
sg64
(lp511
g57
(g58
g59
NtRp512
(dp513
g62
(dp514
g70
I3
ssg71
g508
sg64
(lp515
S''
asbasbasbag57
(g73
g59
NtRp516
(dp517
g62
(dp518
sg71
g452
sg64
(lp519
g57
(g78
g59
NtRp520
(dp521
g62
(dp522
g82
g83
ssg71
g516
sg64
(lp523
g334
asbag57
(g78
g59
NtRp524
(dp525
g62
(dp526
g89
g90
ssg71
g516
sg64
(lp527
S':'
asbag57
(g78
g59
NtRp528
(dp529
g62
(dp530
sg71
g516
sg64
(lp531
g57
(g58
g59
NtRp532
(dp533
g62
(dp534
g70
I3
ssg71
g528
sg64
(lp535
S''
asbasbasbag57
(g73
g59
NtRp536
(dp537
g62
(dp538
sg71
g452
sg64
(lp539
g57
(g78
g59
NtRp540
(dp541
g62
(dp542
g82
g83
ssg71
g536
sg64
(lp543
g355
asbag57
(g78
g59
NtRp544
(dp545
g62
(dp546
g89
g90
ssg71
g536
sg64
(lp547
S':'
asbag57
(g78
g59
NtRp548
(dp549
g62
(dp550
sg71
g536
sg64
(lp551
g57
(g58
g59
NtRp552
(dp553
g62
(dp554
g70
I3
ssg71
g548
sg64
(lp555
S''
asbasbasbag57
(g73
g59
NtRp556
(dp557
g62
(dp558
sg71
g452
sg64
(lp559
g57
(g78
g59
NtRp560
(dp561
g62
(dp562
g82
g83
ssg71
g556
sg64
(lp563
g376
asbag57
(g78
g59
NtRp564
(dp565
g62
(dp566
g89
g90
ssg71
g556
sg64
(lp567
S':'
asbag57
(g78
g59
NtRp568
(dp569
g62
(dp570
sg71
g556
sg64
(lp571
g57
(g58
g59
NtRp572
(dp573
g62
(dp574
g70
I3
ssg71
g568
sg64
(lp575
S''
asbasbasbag57
(g73
g59
NtRp576
(dp577
g62
(dp578
sg71
g452
sg64
(lp579
g57
(g78
g59
NtRp580
(dp581
g62
(dp582
g82
g83
ssg71
g576
sg64
(lp583
g397
asbag57
(g78
g59
NtRp584
(dp585
g62
(dp586
g89
g90
ssg71
g576
sg64
(lp587
S':'
asbag57
(g78
g59
NtRp588
(dp589
g62
(dp590
sg71
g576
sg64
(lp591
g57
(g58
g59
NtRp592
(dp593
g62
(dp594
g70
I3
ssg71
g588
sg64
(lp595
S''
asbasbasbag57
(g73
g59
NtRp596
(dp597
g62
(dp598
sg71
g452
sg64
(lp599
g57
(g78
g59
NtRp600
(dp601
g62
(dp602
g82
g83
ssg71
g596
sg64
(lp603
g418
asbag57
(g78
g59
NtRp604
(dp605
g62
(dp606
g89
g90
ssg71
g596
sg64
(lp607
S':'
asbag57
(g78
g59
NtRp608
(dp609
g62
(dp610
sg71
g596
sg64
(lp611
g57
(g58
g59
NtRp612
(dp613
g62
(dp614
g70
I3
ssg71
g608
sg64
(lp615
S''
asbasbasbasbasbasbasbag57
(g73
g59
NtRp616
(dp617
g62
(dp618
sg71
g234
sg64
(lp619
g57
(g78
g59
NtRp620
(dp621
g62
(dp622
g82
g83
ssg71
g616
sg64
(lp623
S'session_id_welcome'
p624
asbag57
(g78
g59
NtRp625
(dp626
g62
(dp627
g89
g90
ssg71
g616
sg64
(lp628
S':'
asbag57
(g78
g59
NtRp629
(dp630
g62
(dp631
sg71
g616
sg64
(lp632
g57
(g58
g59
NtRp633
(dp634
g62
(dp635
g70
I4
ssg71
g629
sg64
(lp636
g57
(g66
g59
NtRp637
(dp638
g62
(dp639
g70
I3
ssg71
Nsg64
(lp640
g57
(g73
g59
NtRp641
(dp642
g62
(dp643
sg71
g637
sg64
(lp644
g57
(g78
g59
NtRp645
(dp646
g62
(dp647
g82
g83
ssg71
g641
sg64
(lp648
g271
asbag57
(g78
g59
NtRp649
(dp650
g62
(dp651
g89
g90
ssg71
g641
sg64
(lp652
S':'
asbag57
(g78
g59
NtRp653
(dp654
g62
(dp655
sg71
g641
sg64
(lp656
g57
(g58
g59
NtRp657
(dp658
g62
(dp659
g70
I3
ssg71
g653
sg64
(lp660
S''
asbasbasbag57
(g73
g59
NtRp661
(dp662
g62
(dp663
sg71
g637
sg64
(lp664
g57
(g78
g59
NtRp665
(dp666
g62
(dp667
g82
g83
ssg71
g661
sg64
(lp668
g292
asbag57
(g78
g59
NtRp669
(dp670
g62
(dp671
g89
g90
ssg71
g661
sg64
(lp672
S':'
asbag57
(g78
g59
NtRp673
(dp674
g62
(dp675
sg71
g661
sg64
(lp676
g57
(g58
g59
NtRp677
(dp678
g62
(dp679
g70
I3
ssg71
g673
sg64
(lp680
S''
asbasbasbag57
(g73
g59
NtRp681
(dp682
g62
(dp683
sg71
g637
sg64
(lp684
g57
(g78
g59
NtRp685
(dp686
g62
(dp687
g82
g83
ssg71
g681
sg64
(lp688
g313
asbag57
(g78
g59
NtRp689
(dp690
g62
(dp691
g89
g90
ssg71
g681
sg64
(lp692
S':'
asbag57
(g78
g59
NtRp693
(dp694
g62
(dp695
sg71
g681
sg64
(lp696
g57
(g58
g59
NtRp697
(dp698
g62
(dp699
g70
I3
ssg71
g693
sg64
(lp700
S''
asbasbasbag57
(g73
g59
NtRp701
(dp702
g62
(dp703
sg71
g637
sg64
(lp704
g57
(g78
g59
NtRp705
(dp706
g62
(dp707
g82
g83
ssg71
g701
sg64
(lp708
g334
asbag57
(g78
g59
NtRp709
(dp710
g62
(dp711
g89
g90
ssg71
g701
sg64
(lp712
S':'
asbag57
(g78
g59
NtRp713
(dp714
g62
(dp715
sg71
g701
sg64
(lp716
g57
(g58
g59
NtRp717
(dp718
g62
(dp719
g70
I3
ssg71
g713
sg64
(lp720
S''
asbasbasbag57
(g73
g59
NtRp721
(dp722
g62
(dp723
sg71
g637
sg64
(lp724
g57
(g78
g59
NtRp725
(dp726
g62
(dp727
g82
g83
ssg71
g721
sg64
(lp728
g355
asbag57
(g78
g59
NtRp729
(dp730
g62
(dp731
g89
g90
ssg71
g721
sg64
(lp732
S':'
asbag57
(g78
g59
NtRp733
(dp734
g62
(dp735
sg71
g721
sg64
(lp736
g57
(g58
g59
NtRp737
(dp738
g62
(dp739
g70
I3
ssg71
g733
sg64
(lp740
S''
asbasbasbag57
(g73
g59
NtRp741
(dp742
g62
(dp743
sg71
g637
sg64
(lp744
g57
(g78
g59
NtRp745
(dp746
g62
(dp747
g82
g83
ssg71
g741
sg64
(lp748
g376
asbag57
(g78
g59
NtRp749
(dp750
g62
(dp751
g89
g90
ssg71
g741
sg64
(lp752
S':'
asbag57
(g78
g59
NtRp753
(dp754
g62
(dp755
sg71
g741
sg64
(lp756
g57
(g58
g59
NtRp757
(dp758
g62
(dp759
g70
I3
ssg71
g753
sg64
(lp760
S''
asbasbasbag57
(g73
g59
NtRp761
(dp762
g62
(dp763
sg71
g637
sg64
(lp764
g57
(g78
g59
NtRp765
(dp766
g62
(dp767
g82
g83
ssg71
g761
sg64
(lp768
g397
asbag57
(g78
g59
NtRp769
(dp770
g62
(dp771
g89
g90
ssg71
g761
sg64
(lp772
S':'
asbag57
(g78
g59
NtRp773
(dp774
g62
(dp775
sg71
g761
sg64
(lp776
g57
(g58
g59
NtRp777
(dp778
g62
(dp779
g70
I3
ssg71
g773
sg64
(lp780
S''
asbasbasbag57
(g73
g59
NtRp781
(dp782
g62
(dp783
sg71
g637
sg64
(lp784
g57
(g78
g59
NtRp785
(dp786
g62
(dp787
g82
g83
ssg71
g781
sg64
(lp788
g418
asbag57
(g78
g59
NtRp789
(dp790
g62
(dp791
g89
g90
ssg71
g781
sg64
(lp792
S':'
asbag57
(g78
g59
NtRp793
(dp794
g62
(dp795
sg71
g781
sg64
(lp796
g57
(g58
g59
NtRp797
(dp798
g62
(dp799
g70
I3
ssg71
g793
sg64
(lp800
S''
asbasbasbasbasbasbasbasbasbasbasbag57
(g73
g59
NtRp801
(dp802
g62
(dp803
sg71
g67
sg64
(lp804
g57
(g78
g59
NtRp805
(dp806
g62
(dp807
g82
g83
ssg71
g801
sg64
(lp808
S'env'
p809
asbag57
(g78
g59
NtRp810
(dp811
g62
(dp812
g89
g90
ssg71
g801
sg64
(lp813
S':'
asbag57
(g78
g59
NtRp814
(dp815
g62
(dp816
sg71
g801
sg64
(lp817
g57
(g58
g59
NtRp818
(dp819
g62
(dp820
g70
I5
ssg71
g814
sg64
(lp821
g57
(g66
g59
NtRp822
(dp823
g62
(dp824
g70
I4
ssg71
Nsg64
(lp825
g57
(g73
g59
NtRp826
(dp827
g62
(dp828
sg71
g822
sg64
(lp829
g57
(g78
g59
NtRp830
(dp831
g62
(dp832
g82
g83
ssg71
g826
sg64
(lp833
S'app_folders'
p834
asbag57
(g78
g59
NtRp835
(dp836
g62
(dp837
g89
g90
ssg71
g826
sg64
(lp838
S':'
asbag57
(g78
g59
NtRp839
(dp840
g62
(dp841
sg71
g826
sg64
(lp842
g57
(g58
g59
NtRp843
(dp844
g62
(dp845
g70
I4
ssg71
g839
sg64
(lp846
S"set(['C:\\\\Documents and Settings\\\\agrover\\\\Desktop\\\\previous crawler\\\\web2py\\\\applications\\\\admin\\\\', 'C:\\\\Documents and Settings\\\\agrover\\\\Desktop\\\\previous crawler\\\\web2py\\\\applications\\\\mycrawler\\\\', 'C:\\\\Documents and Settings\\\\agrover\\\\Desktop\\\\previous crawler\\\\web2py\\\\applications\\\\welcome\\\\'])"
p847
asbasbasbag57
(g73
g59
NtRp848
(dp849
g62
(dp850
sg71
g822
sg64
(lp851
g57
(g78
g59
NtRp852
(dp853
g62
(dp854
g82
g83
ssg71
g848
sg64
(lp855
S'applications_parent'
p856
asbag57
(g78
g59
NtRp857
(dp858
g62
(dp859
g89
g90
ssg71
g848
sg64
(lp860
S':'
asbag57
(g78
g59
NtRp861
(dp862
g62
(dp863
sg71
g848
sg64
(lp864
g57
(g58
g59
NtRp865
(dp866
g62
(dp867
g70
I4
ssg71
g861
sg64
(lp868
S'C:\\Documents and Settings\\agrover\\Desktop\\previous crawler\\web2py'
p869
asbasbasbag57
(g73
g59
NtRp870
(dp871
g62
(dp872
sg71
g822
sg64
(lp873
g57
(g78
g59
NtRp874
(dp875
g62
(dp876
g82
g83
ssg71
g870
sg64
(lp877
S'cmd_args'
p878
asbag57
(g78
g59
NtRp879
(dp880
g62
(dp881
g89
g90
ssg71
g870
sg64
(lp882
S':'
asbag57
(g78
g59
NtRp883
(dp884
g62
(dp885
sg71
g870
sg64
(lp886
g57
(g58
g59
NtRp887
(dp888
g62
(dp889
g70
I4
ssg71
g883
sg64
(lp890
g57
(g66
g59
NtRp891
(dp892
g62
(dp893
g70
I3
ssg71
Nsg64
(lp894
sbasbasbasbag57
(g73
g59
NtRp895
(dp896
g62
(dp897
sg71
g822
sg64
(lp898
g57
(g78
g59
NtRp899
(dp900
g62
(dp901
g82
g83
ssg71
g895
sg64
(lp902
S'cmd_options'
p903
asbag57
(g78
g59
NtRp904
(dp905
g62
(dp906
g89
g90
ssg71
g895
sg64
(lp907
S':'
asbag57
(g78
g59
NtRp908
(dp909
g62
(dp910
sg71
g895
sg64
(lp911
g57
(g58
g59
NtRp912
(dp913
g62
(dp914
g70
I4
ssg71
g908
sg64
(lp915
S"<Values at 0x16d63f0: {'verbose': False, 'ip': '127.0.0.1', 'shutdown_timeout': 5, 'taskbar': False, 'nocron': False, 'pid_filename': 'httpserver.pid', 'maxthreads': None, 'softcron': False, 'server_name': 'mniagrover', 'bpython': False, 'nogui': False, 'port': 8000, 'extcron': False, 'debuglevel': 30, 'test': None, 'folder': 'C:\\\\Documents and Settings\\\\agrover\\\\Desktop\\\\previous crawler\\\\web2py', 'config': '', 'import_models': False, 'winservice': '', 'shell': None, 'run': '', 'log_filename': 'httpserver.log', 'args': [''], 'socket_timeout': 5, 'ssl_ca_certificate': None, 'scheduler': None, 'profiler_filename': None, 'ssl_private_key': '', 'password': '<ask>', 'request_queue_size': 5, 'ssl_certificate': '', 'cronjob': False, 'numthreads': None, 'quiet': False, 'interfaces': None, 'minthreads': None, 'timeout': 10, 'plain': False, 'nobanner': False}>"
p916
asbasbasbag57
(g73
g59
NtRp917
(dp918
g62
(dp919
sg71
g822
sg64
(lp920
g57
(g78
g59
NtRp921
(dp922
g62
(dp923
g82
g83
ssg71
g917
sg64
(lp924
S'content_length'
p925
asbag57
(g78
g59
NtRp926
(dp927
g62
(dp928
g89
g90
ssg71
g917
sg64
(lp929
S':'
asbag57
(g78
g59
NtRp930
(dp931
g62
(dp932
sg71
g917
sg64
(lp933
g57
(g58
g59
NtRp934
(dp935
g62
(dp936
g70
I4
ssg71
g930
sg64
(lp937
S'26615'
p938
asbasbasbag57
(g73
g59
NtRp939
(dp940
g62
(dp941
sg71
g822
sg64
(lp942
g57
(g78
g59
NtRp943
(dp944
g62
(dp945
g82
g83
ssg71
g939
sg64
(lp946
S'content_type'
p947
asbag57
(g78
g59
NtRp948
(dp949
g62
(dp950
g89
g90
ssg71
g939
sg64
(lp951
S':'
asbag57
(g78
g59
NtRp952
(dp953
g62
(dp954
sg71
g939
sg64
(lp955
g57
(g58
g59
NtRp956
(dp957
g62
(dp958
g70
I4
ssg71
g952
sg64
(lp959
S'multipart/form-data; boundary=---------------------------184228830106'
p960
asbasbasbag57
(g73
g59
NtRp961
(dp962
g62
(dp963
sg71
g822
sg64
(lp964
g57
(g78
g59
NtRp965
(dp966
g62
(dp967
g82
g83
ssg71
g961
sg64
(lp968
S'db_sessions'
p969
asbag57
(g78
g59
NtRp970
(dp971
g62
(dp972
g89
g90
ssg71
g961
sg64
(lp973
S':'
asbag57
(g78
g59
NtRp974
(dp975
g62
(dp976
sg71
g961
sg64
(lp977
g57
(g58
g59
NtRp978
(dp979
g62
(dp980
g70
I4
ssg71
g974
sg64
(lp981
S'set([])'
p982
asbasbasbag57
(g73
g59
NtRp983
(dp984
g62
(dp985
sg71
g822
sg64
(lp986
g57
(g78
g59
NtRp987
(dp988
g62
(dp989
g82
g83
ssg71
g983
sg64
(lp990
S'debugging'
p991
asbag57
(g78
g59
NtRp992
(dp993
g62
(dp994
g89
g90
ssg71
g983
sg64
(lp995
S':'
asbag57
(g78
g59
NtRp996
(dp997
g62
(dp998
sg71
g983
sg64
(lp999
g57
(g58
g59
NtRp1000
(dp1001
g62
(dp1002
g70
I4
ssg71
g996
sg64
(lp1003
g100
asbasbasbag57
(g73
g59
NtRp1004
(dp1005
g62
(dp1006
sg71
g822
sg64
(lp1007
g57
(g78
g59
NtRp1008
(dp1009
g62
(dp1010
g82
g83
ssg71
g1004
sg64
(lp1011
S'gluon_parent'
p1012
asbag57
(g78
g59
NtRp1013
(dp1014
g62
(dp1015
g89
g90
ssg71
g1004
sg64
(lp1016
S':'
asbag57
(g78
g59
NtRp1017
(dp1018
g62
(dp1019
sg71
g1004
sg64
(lp1020
g57
(g58
g59
NtRp1021
(dp1022
g62
(dp1023
g70
I4
ssg71
g1017
sg64
(lp1024
S'C:\\Documents and Settings\\agrover\\Desktop\\previous crawler\\web2py'
p1025
asbasbasbag57
(g73
g59
NtRp1026
(dp1027
g62
(dp1028
sg71
g822
sg64
(lp1029
g57
(g78
g59
NtRp1030
(dp1031
g62
(dp1032
g82
g83
ssg71
g1026
sg64
(lp1033
S'http_accept'
p1034
asbag57
(g78
g59
NtRp1035
(dp1036
g62
(dp1037
g89
g90
ssg71
g1026
sg64
(lp1038
S':'
asbag57
(g78
g59
NtRp1039
(dp1040
g62
(dp1041
sg71
g1026
sg64
(lp1042
g57
(g58
g59
NtRp1043
(dp1044
g62
(dp1045
g70
I4
ssg71
g1039
sg64
(lp1046
S'text/html,application/xhtml+xml,application/xml;q=0.9,*/*;q=0.8'
p1047
asbasbasbag57
(g73
g59
NtRp1048
(dp1049
g62
(dp1050
sg71
g822
sg64
(lp1051
g57
(g78
g59
NtRp1052
(dp1053
g62
(dp1054
g82
g83
ssg71
g1048
sg64
(lp1055
S'http_accept_encoding'
p1056
asbag57
(g78
g59
NtRp1057
(dp1058
g62
(dp1059
g89
g90
ssg71
g1048
sg64
(lp1060
S':'
asbag57
(g78
g59
NtRp1061
(dp1062
g62
(dp1063
sg71
g1048
sg64
(lp1064
g57
(g58
g59
NtRp1065
(dp1066
g62
(dp1067
g70
I4
ssg71
g1061
sg64
(lp1068
S'gzip, deflate'
p1069
asbasbasbag57
(g73
g59
NtRp1070
(dp1071
g62
(dp1072
sg71
g822
sg64
(lp1073
g57
(g78
g59
NtRp1074
(dp1075
g62
(dp1076
g82
g83
ssg71
g1070
sg64
(lp1077
S'http_accept_language'
p1078
asbag57
(g78
g59
NtRp1079
(dp1080
g62
(dp1081
g89
g90
ssg71
g1070
sg64
(lp1082
S':'
asbag57
(g78
g59
NtRp1083
(dp1084
g62
(dp1085
sg71
g1070
sg64
(lp1086
g57
(g58
g59
NtRp1087
(dp1088
g62
(dp1089
g70
I4
ssg71
g1083
sg64
(lp1090
S'en-us,en;q=0.5'
p1091
asbasbasbag57
(g73
g59
NtRp1092
(dp1093
g62
(dp1094
sg71
g822
sg64
(lp1095
g57
(g78
g59
NtRp1096
(dp1097
g62
(dp1098
g82
g83
ssg71
g1092
sg64
(lp1099
S'http_connection'
p1100
asbag57
(g78
g59
NtRp1101
(dp1102
g62
(dp1103
g89
g90
ssg71
g1092
sg64
(lp1104
S':'
asbag57
(g78
g59
NtRp1105
(dp1106
g62
(dp1107
sg71
g1092
sg64
(lp1108
g57
(g58
g59
NtRp1109
(dp1110
g62
(dp1111
g70
I4
ssg71
g1105
sg64
(lp1112
S'keep-alive'
p1113
asbasbasbag57
(g73
g59
NtRp1114
(dp1115
g62
(dp1116
sg71
g822
sg64
(lp1117
g57
(g78
g59
NtRp1118
(dp1119
g62
(dp1120
g82
g83
ssg71
g1114
sg64
(lp1121
S'http_content_length'
p1122
asbag57
(g78
g59
NtRp1123
(dp1124
g62
(dp1125
g89
g90
ssg71
g1114
sg64
(lp1126
S':'
asbag57
(g78
g59
NtRp1127
(dp1128
g62
(dp1129
sg71
g1114
sg64
(lp1130
g57
(g58
g59
NtRp1131
(dp1132
g62
(dp1133
g70
I4
ssg71
g1127
sg64
(lp1134
g938
asbasbasbag57
(g73
g59
NtRp1135
(dp1136
g62
(dp1137
sg71
g822
sg64
(lp1138
g57
(g78
g59
NtRp1139
(dp1140
g62
(dp1141
g82
g83
ssg71
g1135
sg64
(lp1142
S'http_content_type'
p1143
asbag57
(g78
g59
NtRp1144
(dp1145
g62
(dp1146
g89
g90
ssg71
g1135
sg64
(lp1147
S':'
asbag57
(g78
g59
NtRp1148
(dp1149
g62
(dp1150
sg71
g1135
sg64
(lp1151
g57
(g58
g59
NtRp1152
(dp1153
g62
(dp1154
g70
I4
ssg71
g1148
sg64
(lp1155
g960
asbasbasbag57
(g73
g59
NtRp1156
(dp1157
g62
(dp1158
sg71
g822
sg64
(lp1159
g57
(g78
g59
NtRp1160
(dp1161
g62
(dp1162
g82
g83
ssg71
g1156
sg64
(lp1163
S'http_cookie'
p1164
asbag57
(g78
g59
NtRp1165
(dp1166
g62
(dp1167
g89
g90
ssg71
g1156
sg64
(lp1168
S':'
asbag57
(g78
g59
NtRp1169
(dp1170
g62
(dp1171
sg71
g1156
sg64
(lp1172
g57
(g58
g59
NtRp1173
(dp1174
g62
(dp1175
g70
I4
ssg71
g1169
sg64
(lp1176
S'session_id_welcome=127.0.0.1-183c78c4-ffb3-4ecf-bad4-9010451b16fb; session_id_admin=127.0.0.1-c156fdf1-5f20-41e8-ad52-557b3d8889a0; session_id_mycrawler=127.0.0.1-e33c895d-efcf-4795-8169-7cf95d1f13b6'
p1177
asbasbasbag57
(g73
g59
NtRp1178
(dp1179
g62
(dp1180
sg71
g822
sg64
(lp1181
g57
(g78
g59
NtRp1182
(dp1183
g62
(dp1184
g82
g83
ssg71
g1178
sg64
(lp1185
S'http_host'
p1186
asbag57
(g78
g59
NtRp1187
(dp1188
g62
(dp1189
g89
g90
ssg71
g1178
sg64
(lp1190
S':'
asbag57
(g78
g59
NtRp1191
(dp1192
g62
(dp1193
sg71
g1178
sg64
(lp1194
g57
(g58
g59
NtRp1195
(dp1196
g62
(dp1197
g70
I4
ssg71
g1191
sg64
(lp1198
S'127.0.0.1:8000'
p1199
asbasbasbag57
(g73
g59
NtRp1200
(dp1201
g62
(dp1202
sg71
g822
sg64
(lp1203
g57
(g78
g59
NtRp1204
(dp1205
g62
(dp1206
g82
g83
ssg71
g1200
sg64
(lp1207
S'http_referer'
p1208
asbag57
(g78
g59
NtRp1209
(dp1210
g62
(dp1211
g89
g90
ssg71
g1200
sg64
(lp1212
S':'
asbag57
(g78
g59
NtRp1213
(dp1214
g62
(dp1215
sg71
g1200
sg64
(lp1216
g57
(g58
g59
NtRp1217
(dp1218
g62
(dp1219
g70
I4
ssg71
g1213
sg64
(lp1220
S'http://127.0.0.1:8000/mycrawler/default/upload'
p1221
asbasbasbag57
(g73
g59
NtRp1222
(dp1223
g62
(dp1224
sg71
g822
sg64
(lp1225
g57
(g78
g59
NtRp1226
(dp1227
g62
(dp1228
g82
g83
ssg71
g1222
sg64
(lp1229
S'http_user_agent'
p1230
asbag57
(g78
g59
NtRp1231
(dp1232
g62
(dp1233
g89
g90
ssg71
g1222
sg64
(lp1234
S':'
asbag57
(g78
g59
NtRp1235
(dp1236
g62
(dp1237
sg71
g1222
sg64
(lp1238
g57
(g58
g59
NtRp1239
(dp1240
g62
(dp1241
g70
I4
ssg71
g1235
sg64
(lp1242
S'Mozilla/5.0 (Windows NT 5.1; rv:13.0) Gecko/20100101 Firefox/13.0.1'
p1243
asbasbasbag57
(g73
g59
NtRp1244
(dp1245
g62
(dp1246
sg71
g822
sg64
(lp1247
g57
(g78
g59
NtRp1248
(dp1249
g62
(dp1250
g82
g83
ssg71
g1244
sg64
(lp1251
S'is_jython'
p1252
asbag57
(g78
g59
NtRp1253
(dp1254
g62
(dp1255
g89
g90
ssg71
g1244
sg64
(lp1256
S':'
asbag57
(g78
g59
NtRp1257
(dp1258
g62
(dp1259
sg71
g1244
sg64
(lp1260
g57
(g58
g59
NtRp1261
(dp1262
g62
(dp1263
g70
I4
ssg71
g1257
sg64
(lp1264
g100
asbasbasbag57
(g73
g59
NtRp1265
(dp1266
g62
(dp1267
sg71
g822
sg64
(lp1268
g57
(g78
g59
NtRp1269
(dp1270
g62
(dp1271
g82
g83
ssg71
g1265
sg64
(lp1272
S'is_pypy'
p1273
asbag57
(g78
g59
NtRp1274
(dp1275
g62
(dp1276
g89
g90
ssg71
g1265
sg64
(lp1277
S':'
asbag57
(g78
g59
NtRp1278
(dp1279
g62
(dp1280
sg71
g1265
sg64
(lp1281
g57
(g58
g59
NtRp1282
(dp1283
g62
(dp1284
g70
I4
ssg71
g1278
sg64
(lp1285
g100
asbasbasbag57
(g73
g59
NtRp1286
(dp1287
g62
(dp1288
sg71
g822
sg64
(lp1289
g57
(g78
g59
NtRp1290
(dp1291
g62
(dp1292
g82
g83
ssg71
g1286
sg64
(lp1293
S'path_info'
p1294
asbag57
(g78
g59
NtRp1295
(dp1296
g62
(dp1297
g89
g90
ssg71
g1286
sg64
(lp1298
S':'
asbag57
(g78
g59
NtRp1299
(dp1300
g62
(dp1301
sg71
g1286
sg64
(lp1302
g57
(g58
g59
NtRp1303
(dp1304
g62
(dp1305
g70
I4
ssg71
g1299
sg64
(lp1306
S'/mycrawler/default/upload'
p1307
asbasbasbag57
(g73
g59
NtRp1308
(dp1309
g62
(dp1310
sg71
g822
sg64
(lp1311
g57
(g78
g59
NtRp1312
(dp1313
g62
(dp1314
g82
g83
ssg71
g1308
sg64
(lp1315
S'query_string'
p1316
asbag57
(g78
g59
NtRp1317
(dp1318
g62
(dp1319
g89
g90
ssg71
g1308
sg64
(lp1320
S':'
asbag57
(g78
g59
NtRp1321
(dp1322
g62
(dp1323
sg71
g1308
sg64
(lp1324
g57
(g58
g59
NtRp1325
(dp1326
g62
(dp1327
g70
I4
ssg71
g1321
sg64
(lp1328
S''
asbasbasbag57
(g73
g59
NtRp1329
(dp1330
g62
(dp1331
sg71
g822
sg64
(lp1332
g57
(g78
g59
NtRp1333
(dp1334
g62
(dp1335
g82
g83
ssg71
g1329
sg64
(lp1336
S'remote_addr'
p1337
asbag57
(g78
g59
NtRp1338
(dp1339
g62
(dp1340
g89
g90
ssg71
g1329
sg64
(lp1341
S':'
asbag57
(g78
g59
NtRp1342
(dp1343
g62
(dp1344
sg71
g1329
sg64
(lp1345
g57
(g58
g59
NtRp1346
(dp1347
g62
(dp1348
g70
I4
ssg71
g1342
sg64
(lp1349
g190
asbasbasbag57
(g73
g59
NtRp1350
(dp1351
g62
(dp1352
sg71
g822
sg64
(lp1353
g57
(g78
g59
NtRp1354
(dp1355
g62
(dp1356
g82
g83
ssg71
g1350
sg64
(lp1357
S'remote_port'
p1358
asbag57
(g78
g59
NtRp1359
(dp1360
g62
(dp1361
g89
g90
ssg71
g1350
sg64
(lp1362
S':'
asbag57
(g78
g59
NtRp1363
(dp1364
g62
(dp1365
sg71
g1350
sg64
(lp1366
g57
(g58
g59
NtRp1367
(dp1368
g62
(dp1369
g70
I4
ssg71
g1363
sg64
(lp1370
S'1358'
p1371
asbasbasbag57
(g73
g59
NtRp1372
(dp1373
g62
(dp1374
sg71
g822
sg64
(lp1375
g57
(g78
g59
NtRp1376
(dp1377
g62
(dp1378
g82
g83
ssg71
g1372
sg64
(lp1379
S'request_method'
p1380
asbag57
(g78
g59
NtRp1381
(dp1382
g62
(dp1383
g89
g90
ssg71
g1372
sg64
(lp1384
S':'
asbag57
(g78
g59
NtRp1385
(dp1386
g62
(dp1387
sg71
g1372
sg64
(lp1388
g57
(g58
g59
NtRp1389
(dp1390
g62
(dp1391
g70
I4
ssg71
g1385
sg64
(lp1392
S'POST'
p1393
asbasbasbag57
(g73
g59
NtRp1394
(dp1395
g62
(dp1396
sg71
g822
sg64
(lp1397
g57
(g78
g59
NtRp1398
(dp1399
g62
(dp1400
g82
g83
ssg71
g1394
sg64
(lp1401
S'script_name'
p1402
asbag57
(g78
g59
NtRp1403
(dp1404
g62
(dp1405
g89
g90
ssg71
g1394
sg64
(lp1406
S':'
asbag57
(g78
g59
NtRp1407
(dp1408
g62
(dp1409
sg71
g1394
sg64
(lp1410
g57
(g58
g59
NtRp1411
(dp1412
g62
(dp1413
g70
I4
ssg71
g1407
sg64
(lp1414
S''
asbasbasbag57
(g73
g59
NtRp1415
(dp1416
g62
(dp1417
sg71
g822
sg64
(lp1418
g57
(g78
g59
NtRp1419
(dp1420
g62
(dp1421
g82
g83
ssg71
g1415
sg64
(lp1422
S'server_name'
p1423
asbag57
(g78
g59
NtRp1424
(dp1425
g62
(dp1426
g89
g90
ssg71
g1415
sg64
(lp1427
S':'
asbag57
(g78
g59
NtRp1428
(dp1429
g62
(dp1430
sg71
g1415
sg64
(lp1431
g57
(g58
g59
NtRp1432
(dp1433
g62
(dp1434
g70
I4
ssg71
g1428
sg64
(lp1435
S'mniagrover'
p1436
asbasbasbag57
(g73
g59
NtRp1437
(dp1438
g62
(dp1439
sg71
g822
sg64
(lp1440
g57
(g78
g59
NtRp1441
(dp1442
g62
(dp1443
g82
g83
ssg71
g1437
sg64
(lp1444
S'server_port'
p1445
asbag57
(g78
g59
NtRp1446
(dp1447
g62
(dp1448
g89
g90
ssg71
g1437
sg64
(lp1449
S':'
asbag57
(g78
g59
NtRp1450
(dp1451
g62
(dp1452
sg71
g1437
sg64
(lp1453
g57
(g58
g59
NtRp1454
(dp1455
g62
(dp1456
g70
I4
ssg71
g1450
sg64
(lp1457
S'8000'
p1458
asbasbasbag57
(g73
g59
NtRp1459
(dp1460
g62
(dp1461
sg71
g822
sg64
(lp1462
g57
(g78
g59
NtRp1463
(dp1464
g62
(dp1465
g82
g83
ssg71
g1459
sg64
(lp1466
S'server_protocol'
p1467
asbag57
(g78
g59
NtRp1468
(dp1469
g62
(dp1470
g89
g90
ssg71
g1459
sg64
(lp1471
S':'
asbag57
(g78
g59
NtRp1472
(dp1473
g62
(dp1474
sg71
g1459
sg64
(lp1475
g57
(g58
g59
NtRp1476
(dp1477
g62
(dp1478
g70
I4
ssg71
g1472
sg64
(lp1479
S'HTTP/1.1'
p1480
asbasbasbag57
(g73
g59
NtRp1481
(dp1482
g62
(dp1483
sg71
g822
sg64
(lp1484
g57
(g78
g59
NtRp1485
(dp1486
g62
(dp1487
g82
g83
ssg71
g1481
sg64
(lp1488
S'server_software'
p1489
asbag57
(g78
g59
NtRp1490
(dp1491
g62
(dp1492
g89
g90
ssg71
g1481
sg64
(lp1493
S':'
asbag57
(g78
g59
NtRp1494
(dp1495
g62
(dp1496
sg71
g1481
sg64
(lp1497
g57
(g58
g59
NtRp1498
(dp1499
g62
(dp1500
g70
I4
ssg71
g1494
sg64
(lp1501
S'Rocket 1.2.4'
p1502
asbasbasbag57
(g73
g59
NtRp1503
(dp1504
g62
(dp1505
sg71
g822
sg64
(lp1506
g57
(g78
g59
NtRp1507
(dp1508
g62
(dp1509
g82
g83
ssg71
g1503
sg64
(lp1510
S'web2py_crontype'
p1511
asbag57
(g78
g59
NtRp1512
(dp1513
g62
(dp1514
g89
g90
ssg71
g1503
sg64
(lp1515
S':'
asbag57
(g78
g59
NtRp1516
(dp1517
g62
(dp1518
sg71
g1503
sg64
(lp1519
g57
(g58
g59
NtRp1520
(dp1521
g62
(dp1522
g70
I4
ssg71
g1516
sg64
(lp1523
S'hard'
p1524
asbasbasbag57
(g73
g59
NtRp1525
(dp1526
g62
(dp1527
sg71
g822
sg64
(lp1528
g57
(g78
g59
NtRp1529
(dp1530
g62
(dp1531
g82
g83
ssg71
g1525
sg64
(lp1532
S'web2py_path'
p1533
asbag57
(g78
g59
NtRp1534
(dp1535
g62
(dp1536
g89
g90
ssg71
g1525
sg64
(lp1537
S':'
asbag57
(g78
g59
NtRp1538
(dp1539
g62
(dp1540
sg71
g1525
sg64
(lp1541
g57
(g58
g59
NtRp1542
(dp1543
g62
(dp1544
g70
I4
ssg71
g1538
sg64
(lp1545
g869
asbasbasbag57
(g73
g59
NtRp1546
(dp1547
g62
(dp1548
sg71
g822
sg64
(lp1549
g57
(g78
g59
NtRp1550
(dp1551
g62
(dp1552
g82
g83
ssg71
g1546
sg64
(lp1553
S'web2py_version'
p1554
asbag57
(g78
g59
NtRp1555
(dp1556
g62
(dp1557
g89
g90
ssg71
g1546
sg64
(lp1558
S':'
asbag57
(g78
g59
NtRp1559
(dp1560
g62
(dp1561
sg71
g1546
sg64
(lp1562
g57
(g58
g59
NtRp1563
(dp1564
g62
(dp1565
g70
I4
ssg71
g1559
sg64
(lp1566
g57
(g66
g59
NtRp1567
(dp1568
g62
(dp1569
g70
I3
ssg71
Nsg64
(lp1570
g57
(g73
g59
NtRp1571
(dp1572
g62
(dp1573
sg71
g1567
sg64
(lp1574
g57
(g78
g59
NtRp1575
(dp1576
g62
(dp1577
sg71
g1571
sg64
(lp1578
g57
(g58
g59
NtRp1579
(dp1580
g62
(dp1581
g70
I3
ssg71
g1575
sg64
(lp1582
S'1'
asbasbasbag57
(g73
g59
NtRp1583
(dp1584
g62
(dp1585
sg71
g1567
sg64
(lp1586
g57
(g78
g59
NtRp1587
(dp1588
g62
(dp1589
sg71
g1583
sg64
(lp1590
g57
(g58
g59
NtRp1591
(dp1592
g62
(dp1593
g70
I3
ssg71
g1587
sg64
(lp1594
S'99'
p1595
asbasbasbag57
(g73
g59
NtRp1596
(dp1597
g62
(dp1598
sg71
g1567
sg64
(lp1599
g57
(g78
g59
NtRp1600
(dp1601
g62
(dp1602
sg71
g1596
sg64
(lp1603
g57
(g58
g59
NtRp1604
(dp1605
g62
(dp1606
g70
I3
ssg71
g1600
sg64
(lp1607
S'7'
asbasbasbag57
(g73
g59
NtRp1608
(dp1609
g62
(dp1610
sg71
g1567
sg64
(lp1611
g57
(g78
g59
NtRp1612
(dp1613
g62
(dp1614
sg71
g1608
sg64
(lp1615
g57
(g58
g59
NtRp1616
(dp1617
g62
(dp1618
g70
I3
ssg71
g1612
sg64
(lp1619
S'datetime.datetime(2012, 3, 4, 22, 12, 8)'
p1620
asbasbasbag57
(g73
g59
NtRp1621
(dp1622
g62
(dp1623
sg71
g1567
sg64
(lp1624
g57
(g78
g59
NtRp1625
(dp1626
g62
(dp1627
sg71
g1621
sg64
(lp1628
g57
(g58
g59
NtRp1629
(dp1630
g62
(dp1631
g70
I3
ssg71
g1625
sg64
(lp1632
S'stable'
p1633
asbasbasbasbasbasbasbag57
(g73
g59
NtRp1634
(dp1635
g62
(dp1636
sg71
g822
sg64
(lp1637
g57
(g78
g59
NtRp1638
(dp1639
g62
(dp1640
g82
g83
ssg71
g1634
sg64
(lp1641
S'wsgi_errors'
p1642
asbag57
(g78
g59
NtRp1643
(dp1644
g62
(dp1645
g89
g90
ssg71
g1634
sg64
(lp1646
S':'
asbag57
(g78
g59
NtRp1647
(dp1648
g62
(dp1649
sg71
g1634
sg64
(lp1650
g57
(g58
g59
NtRp1651
(dp1652
g62
(dp1653
g70
I4
ssg71
g1647
sg64
(lp1654
S"<open file '<stderr>', mode 'w' at 0x00A550D0>"
p1655
asbasbasbag57
(g73
g59
NtRp1656
(dp1657
g62
(dp1658
sg71
g822
sg64
(lp1659
g57
(g78
g59
NtRp1660
(dp1661
g62
(dp1662
g82
g83
ssg71
g1656
sg64
(lp1663
S'wsgi_file_wrapper'
p1664
asbag57
(g78
g59
NtRp1665
(dp1666
g62
(dp1667
g89
g90
ssg71
g1656
sg64
(lp1668
S':'
asbag57
(g78
g59
NtRp1669
(dp1670
g62
(dp1671
sg71
g1656
sg64
(lp1672
g57
(g58
g59
NtRp1673
(dp1674
g62
(dp1675
g70
I4
ssg71
g1669
sg64
(lp1676
S'<class wsgiref.util.FileWrapper at 0x015E8AB0>'
p1677
asbasbasbag57
(g73
g59
NtRp1678
(dp1679
g62
(dp1680
sg71
g822
sg64
(lp1681
g57
(g78
g59
NtRp1682
(dp1683
g62
(dp1684
g82
g83
ssg71
g1678
sg64
(lp1685
S'wsgi_input'
p1686
asbag57
(g78
g59
NtRp1687
(dp1688
g62
(dp1689
g89
g90
ssg71
g1678
sg64
(lp1690
S':'
asbag57
(g78
g59
NtRp1691
(dp1692
g62
(dp1693
sg71
g1678
sg64
(lp1694
g57
(g58
g59
NtRp1695
(dp1696
g62
(dp1697
g70
I4
ssg71
g1691
sg64
(lp1698
S'<socket._fileobject object at 0x04BB4530>'
p1699
asbasbasbag57
(g73
g59
NtRp1700
(dp1701
g62
(dp1702
sg71
g822
sg64
(lp1703
g57
(g78
g59
NtRp1704
(dp1705
g62
(dp1706
g82
g83
ssg71
g1700
sg64
(lp1707
S'wsgi_multiprocess'
p1708
asbag57
(g78
g59
NtRp1709
(dp1710
g62
(dp1711
g89
g90
ssg71
g1700
sg64
(lp1712
S':'
asbag57
(g78
g59
NtRp1713
(dp1714
g62
(dp1715
sg71
g1700
sg64
(lp1716
g57
(g58
g59
NtRp1717
(dp1718
g62
(dp1719
g70
I4
ssg71
g1713
sg64
(lp1720
g100
asbasbasbag57
(g73
g59
NtRp1721
(dp1722
g62
(dp1723
sg71
g822
sg64
(lp1724
g57
(g78
g59
NtRp1725
(dp1726
g62
(dp1727
g82
g83
ssg71
g1721
sg64
(lp1728
S'wsgi_multithread'
p1729
asbag57
(g78
g59
NtRp1730
(dp1731
g62
(dp1732
g89
g90
ssg71
g1721
sg64
(lp1733
S':'
asbag57
(g78
g59
NtRp1734
(dp1735
g62
(dp1736
sg71
g1721
sg64
(lp1737
g57
(g58
g59
NtRp1738
(dp1739
g62
(dp1740
g70
I4
ssg71
g1734
sg64
(lp1741
S'True'
p1742
asbasbasbag57
(g73
g59
NtRp1743
(dp1744
g62
(dp1745
sg71
g822
sg64
(lp1746
g57
(g78
g59
NtRp1747
(dp1748
g62
(dp1749
g82
g83
ssg71
g1743
sg64
(lp1750
S'wsgi_run_once'
p1751
asbag57
(g78
g59
NtRp1752
(dp1753
g62
(dp1754
g89
g90
ssg71
g1743
sg64
(lp1755
S':'
asbag57
(g78
g59
NtRp1756
(dp1757
g62
(dp1758
sg71
g1743
sg64
(lp1759
g57
(g58
g59
NtRp1760
(dp1761
g62
(dp1762
g70
I4
ssg71
g1756
sg64
(lp1763
g100
asbasbasbag57
(g73
g59
NtRp1764
(dp1765
g62
(dp1766
sg71
g822
sg64
(lp1767
g57
(g78
g59
NtRp1768
(dp1769
g62
(dp1770
g82
g83
ssg71
g1764
sg64
(lp1771
S'wsgi_url_scheme'
p1772
asbag57
(g78
g59
NtRp1773
(dp1774
g62
(dp1775
g89
g90
ssg71
g1764
sg64
(lp1776
S':'
asbag57
(g78
g59
NtRp1777
(dp1778
g62
(dp1779
sg71
g1764
sg64
(lp1780
g57
(g58
g59
NtRp1781
(dp1782
g62
(dp1783
g70
I4
ssg71
g1777
sg64
(lp1784
S'http'
p1785
asbasbasbag57
(g73
g59
NtRp1786
(dp1787
g62
(dp1788
sg71
g822
sg64
(lp1789
g57
(g78
g59
NtRp1790
(dp1791
g62
(dp1792
g82
g83
ssg71
g1786
sg64
(lp1793
S'wsgi_version'
p1794
asbag57
(g78
g59
NtRp1795
(dp1796
g62
(dp1797
g89
g90
ssg71
g1786
sg64
(lp1798
S':'
asbag57
(g78
g59
NtRp1799
(dp1800
g62
(dp1801
sg71
g1786
sg64
(lp1802
g57
(g58
g59
NtRp1803
(dp1804
g62
(dp1805
g70
I4
ssg71
g1799
sg64
(lp1806
g57
(g66
g59
NtRp1807
(dp1808
g62
(dp1809
g70
I3
ssg71
Nsg64
(lp1810
g57
(g73
g59
NtRp1811
(dp1812
g62
(dp1813
sg71
g1807
sg64
(lp1814
g57
(g78
g59
NtRp1815
(dp1816
g62
(dp1817
sg71
g1811
sg64
(lp1818
g57
(g58
g59
NtRp1819
(dp1820
g62
(dp1821
g70
I3
ssg71
g1815
sg64
(lp1822
S'1'
asbasbasbag57
(g73
g59
NtRp1823
(dp1824
g62
(dp1825
sg71
g1807
sg64
(lp1826
g57
(g78
g59
NtRp1827
(dp1828
g62
(dp1829
sg71
g1823
sg64
(lp1830
g57
(g58
g59
NtRp1831
(dp1832
g62
(dp1833
g70
I3
ssg71
g1827
sg64
(lp1834
S'0'
asbasbasbasbasbasbasbasbasbasbasbag57
(g73
g59
NtRp1835
(dp1836
g62
(dp1837
sg71
g67
sg64
(lp1838
g57
(g78
g59
NtRp1839
(dp1840
g62
(dp1841
g82
g83
ssg71
g1835
sg64
(lp1842
S'extension'
p1843
asbag57
(g78
g59
NtRp1844
(dp1845
g62
(dp1846
g89
g90
ssg71
g1835
sg64
(lp1847
S':'
asbag57
(g78
g59
NtRp1848
(dp1849
g62
(dp1850
sg71
g1835
sg64
(lp1851
g57
(g58
g59
NtRp1852
(dp1853
g62
(dp1854
g70
I5
ssg71
g1848
sg64
(lp1855
S'html'
p1856
asbasbasbag57
(g73
g59
NtRp1857
(dp1858
g62
(dp1859
sg71
g67
sg64
(lp1860
g57
(g78
g59
NtRp1861
(dp1862
g62
(dp1863
g82
g83
ssg71
g1857
sg64
(lp1864
S'folder'
p1865
asbag57
(g78
g59
NtRp1866
(dp1867
g62
(dp1868
g89
g90
ssg71
g1857
sg64
(lp1869
S':'
asbag57
(g78
g59
NtRp1870
(dp1871
g62
(dp1872
sg71
g1857
sg64
(lp1873
g57
(g58
g59
NtRp1874
(dp1875
g62
(dp1876
g70
I5
ssg71
g1870
sg64
(lp1877
S'C:\\Documents and Settings\\agrover\\Desktop\\previous crawler\\web2py\\applications\\mycrawler\\'
p1878
asbasbasbag57
(g73
g59
NtRp1879
(dp1880
g62
(dp1881
sg71
g67
sg64
(lp1882
g57
(g78
g59
NtRp1883
(dp1884
g62
(dp1885
g82
g83
ssg71
g1879
sg64
(lp1886
S'function'
p1887
asbag57
(g78
g59
NtRp1888
(dp1889
g62
(dp1890
g89
g90
ssg71
g1879
sg64
(lp1891
S':'
asbag57
(g78
g59
NtRp1892
(dp1893
g62
(dp1894
sg71
g1879
sg64
(lp1895
g57
(g58
g59
NtRp1896
(dp1897
g62
(dp1898
g70
I5
ssg71
g1892
sg64
(lp1899
S'upload'
p1900
asbasbasbag57
(g73
g59
NtRp1901
(dp1902
g62
(dp1903
sg71
g67
sg64
(lp1904
g57
(g78
g59
NtRp1905
(dp1906
g62
(dp1907
g82
g83
ssg71
g1901
sg64
(lp1908
S'get_vars'
p1909
asbag57
(g78
g59
NtRp1910
(dp1911
g62
(dp1912
g89
g90
ssg71
g1901
sg64
(lp1913
S':'
asbag57
(g78
g59
NtRp1914
(dp1915
g62
(dp1916
sg71
g1901
sg64
(lp1917
g57
(g58
g59
NtRp1918
(dp1919
g62
(dp1920
g70
I5
ssg71
g1914
sg64
(lp1921
g57
(g66
g59
NtRp1922
(dp1923
g62
(dp1924
g70
I4
ssg71
Nsg64
(lp1925
sbasbasbasbag57
(g73
g59
NtRp1926
(dp1927
g62
(dp1928
sg71
g67
sg64
(lp1929
g57
(g78
g59
NtRp1930
(dp1931
g62
(dp1932
g82
g83
ssg71
g1926
sg64
(lp1933
S'global_settings'
p1934
asbag57
(g78
g59
NtRp1935
(dp1936
g62
(dp1937
g89
g90
ssg71
g1926
sg64
(lp1938
S':'
asbag57
(g78
g59
NtRp1939
(dp1940
g62
(dp1941
sg71
g1926
sg64
(lp1942
g57
(g58
g59
NtRp1943
(dp1944
g62
(dp1945
g70
I5
ssg71
g1939
sg64
(lp1946
g57
(g66
g59
NtRp1947
(dp1948
g62
(dp1949
g70
I4
ssg71
Nsg64
(lp1950
g57
(g73
g59
NtRp1951
(dp1952
g62
(dp1953
sg71
g1947
sg64
(lp1954
g57
(g78
g59
NtRp1955
(dp1956
g62
(dp1957
g82
g83
ssg71
g1951
sg64
(lp1958
g834
asbag57
(g78
g59
NtRp1959
(dp1960
g62
(dp1961
g89
g90
ssg71
g1951
sg64
(lp1962
S':'
asbag57
(g78
g59
NtRp1963
(dp1964
g62
(dp1965
sg71
g1951
sg64
(lp1966
g57
(g58
g59
NtRp1967
(dp1968
g62
(dp1969
g70
I4
ssg71
g1963
sg64
(lp1970
S"set(['C:\\\\Documents and Settings\\\\agrover\\\\Desktop\\\\previous crawler\\\\web2py\\\\applications\\\\admin\\\\', 'C:\\\\Documents and Settings\\\\agrover\\\\Desktop\\\\previous crawler\\\\web2py\\\\applications\\\\mycrawler\\\\', 'C:\\\\Documents and Settings\\\\agrover\\\\Desktop\\\\previous crawler\\\\web2py\\\\applications\\\\welcome\\\\'])"
p1971
asbasbasbag57
(g73
g59
NtRp1972
(dp1973
g62
(dp1974
sg71
g1947
sg64
(lp1975
g57
(g78
g59
NtRp1976
(dp1977
g62
(dp1978
g82
g83
ssg71
g1972
sg64
(lp1979
g856
asbag57
(g78
g59
NtRp1980
(dp1981
g62
(dp1982
g89
g90
ssg71
g1972
sg64
(lp1983
S':'
asbag57
(g78
g59
NtRp1984
(dp1985
g62
(dp1986
sg71
g1972
sg64
(lp1987
g57
(g58
g59
NtRp1988
(dp1989
g62
(dp1990
g70
I4
ssg71
g1984
sg64
(lp1991
g869
asbasbasbag57
(g73
g59
NtRp1992
(dp1993
g62
(dp1994
sg71
g1947
sg64
(lp1995
g57
(g78
g59
NtRp1996
(dp1997
g62
(dp1998
g82
g83
ssg71
g1992
sg64
(lp1999
g878
asbag57
(g78
g59
NtRp2000
(dp2001
g62
(dp2002
g89
g90
ssg71
g1992
sg64
(lp2003
S':'
asbag57
(g78
g59
NtRp2004
(dp2005
g62
(dp2006
sg71
g1992
sg64
(lp2007
g57
(g58
g59
NtRp2008
(dp2009
g62
(dp2010
g70
I4
ssg71
g2004
sg64
(lp2011
g57
(g66
g59
NtRp2012
(dp2013
g62
(dp2014
g70
I3
ssg71
Nsg64
(lp2015
sbasbasbasbag57
(g73
g59
NtRp2016
(dp2017
g62
(dp2018
sg71
g1947
sg64
(lp2019
g57
(g78
g59
NtRp2020
(dp2021
g62
(dp2022
g82
g83
ssg71
g2016
sg64
(lp2023
g903
asbag57
(g78
g59
NtRp2024
(dp2025
g62
(dp2026
g89
g90
ssg71
g2016
sg64
(lp2027
S':'
asbag57
(g78
g59
NtRp2028
(dp2029
g62
(dp2030
sg71
g2016
sg64
(lp2031
g57
(g58
g59
NtRp2032
(dp2033
g62
(dp2034
g70
I4
ssg71
g2028
sg64
(lp2035
S"<Values at 0x16d63f0: {'verbose': False, 'ip': '127.0.0.1', 'shutdown_timeout': 5, 'taskbar': False, 'nocron': False, 'pid_filename': 'httpserver.pid', 'maxthreads': None, 'softcron': False, 'server_name': 'mniagrover', 'bpython': False, 'nogui': False, 'port': 8000, 'extcron': False, 'debuglevel': 30, 'test': None, 'folder': 'C:\\\\Documents and Settings\\\\agrover\\\\Desktop\\\\previous crawler\\\\web2py', 'config': '', 'import_models': False, 'winservice': '', 'shell': None, 'run': '', 'log_filename': 'httpserver.log', 'args': [''], 'socket_timeout': 5, 'ssl_ca_certificate': None, 'scheduler': None, 'profiler_filename': None, 'ssl_private_key': '', 'password': '<ask>', 'request_queue_size': 5, 'ssl_certificate': '', 'cronjob': False, 'numthreads': None, 'quiet': False, 'interfaces': None, 'minthreads': None, 'timeout': 10, 'plain': False, 'nobanner': False}>"
p2036
asbasbasbag57
(g73
g59
NtRp2037
(dp2038
g62
(dp2039
sg71
g1947
sg64
(lp2040
g57
(g78
g59
NtRp2041
(dp2042
g62
(dp2043
g82
g83
ssg71
g2037
sg64
(lp2044
g969
asbag57
(g78
g59
NtRp2045
(dp2046
g62
(dp2047
g89
g90
ssg71
g2037
sg64
(lp2048
S':'
asbag57
(g78
g59
NtRp2049
(dp2050
g62
(dp2051
sg71
g2037
sg64
(lp2052
g57
(g58
g59
NtRp2053
(dp2054
g62
(dp2055
g70
I4
ssg71
g2049
sg64
(lp2056
S'set([])'
p2057
asbasbasbag57
(g73
g59
NtRp2058
(dp2059
g62
(dp2060
sg71
g1947
sg64
(lp2061
g57
(g78
g59
NtRp2062
(dp2063
g62
(dp2064
g82
g83
ssg71
g2058
sg64
(lp2065
g991
asbag57
(g78
g59
NtRp2066
(dp2067
g62
(dp2068
g89
g90
ssg71
g2058
sg64
(lp2069
S':'
asbag57
(g78
g59
NtRp2070
(dp2071
g62
(dp2072
sg71
g2058
sg64
(lp2073
g57
(g58
g59
NtRp2074
(dp2075
g62
(dp2076
g70
I4
ssg71
g2070
sg64
(lp2077
g100
asbasbasbag57
(g73
g59
NtRp2078
(dp2079
g62
(dp2080
sg71
g1947
sg64
(lp2081
g57
(g78
g59
NtRp2082
(dp2083
g62
(dp2084
g82
g83
ssg71
g2078
sg64
(lp2085
g1012
asbag57
(g78
g59
NtRp2086
(dp2087
g62
(dp2088
g89
g90
ssg71
g2078
sg64
(lp2089
S':'
asbag57
(g78
g59
NtRp2090
(dp2091
g62
(dp2092
sg71
g2078
sg64
(lp2093
g57
(g58
g59
NtRp2094
(dp2095
g62
(dp2096
g70
I4
ssg71
g2090
sg64
(lp2097
g1025
asbasbasbag57
(g73
g59
NtRp2098
(dp2099
g62
(dp2100
sg71
g1947
sg64
(lp2101
g57
(g78
g59
NtRp2102
(dp2103
g62
(dp2104
g82
g83
ssg71
g2098
sg64
(lp2105
g1252
asbag57
(g78
g59
NtRp2106
(dp2107
g62
(dp2108
g89
g90
ssg71
g2098
sg64
(lp2109
S':'
asbag57
(g78
g59
NtRp2110
(dp2111
g62
(dp2112
sg71
g2098
sg64
(lp2113
g57
(g58
g59
NtRp2114
(dp2115
g62
(dp2116
g70
I4
ssg71
g2110
sg64
(lp2117
g100
asbasbasbag57
(g73
g59
NtRp2118
(dp2119
g62
(dp2120
sg71
g1947
sg64
(lp2121
g57
(g78
g59
NtRp2122
(dp2123
g62
(dp2124
g82
g83
ssg71
g2118
sg64
(lp2125
g1273
asbag57
(g78
g59
NtRp2126
(dp2127
g62
(dp2128
g89
g90
ssg71
g2118
sg64
(lp2129
S':'
asbag57
(g78
g59
NtRp2130
(dp2131
g62
(dp2132
sg71
g2118
sg64
(lp2133
g57
(g58
g59
NtRp2134
(dp2135
g62
(dp2136
g70
I4
ssg71
g2130
sg64
(lp2137
g100
asbasbasbag57
(g73
g59
NtRp2138
(dp2139
g62
(dp2140
sg71
g1947
sg64
(lp2141
g57
(g78
g59
NtRp2142
(dp2143
g62
(dp2144
g82
g83
ssg71
g2138
sg64
(lp2145
g1511
asbag57
(g78
g59
NtRp2146
(dp2147
g62
(dp2148
g89
g90
ssg71
g2138
sg64
(lp2149
S':'
asbag57
(g78
g59
NtRp2150
(dp2151
g62
(dp2152
sg71
g2138
sg64
(lp2153
g57
(g58
g59
NtRp2154
(dp2155
g62
(dp2156
g70
I4
ssg71
g2150
sg64
(lp2157
g1524
asbasbasbag57
(g73
g59
NtRp2158
(dp2159
g62
(dp2160
sg71
g1947
sg64
(lp2161
g57
(g78
g59
NtRp2162
(dp2163
g62
(dp2164
g82
g83
ssg71
g2158
sg64
(lp2165
g1554
asbag57
(g78
g59
NtRp2166
(dp2167
g62
(dp2168
g89
g90
ssg71
g2158
sg64
(lp2169
S':'
asbag57
(g78
g59
NtRp2170
(dp2171
g62
(dp2172
sg71
g2158
sg64
(lp2173
g57
(g58
g59
NtRp2174
(dp2175
g62
(dp2176
g70
I4
ssg71
g2170
sg64
(lp2177
g57
(g66
g59
NtRp2178
(dp2179
g62
(dp2180
g70
I3
ssg71
Nsg64
(lp2181
g57
(g73
g59
NtRp2182
(dp2183
g62
(dp2184
sg71
g2178
sg64
(lp2185
g57
(g78
g59
NtRp2186
(dp2187
g62
(dp2188
sg71
g2182
sg64
(lp2189
g57
(g58
g59
NtRp2190
(dp2191
g62
(dp2192
g70
I3
ssg71
g2186
sg64
(lp2193
S'1'
asbasbasbag57
(g73
g59
NtRp2194
(dp2195
g62
(dp2196
sg71
g2178
sg64
(lp2197
g57
(g78
g59
NtRp2198
(dp2199
g62
(dp2200
sg71
g2194
sg64
(lp2201
g57
(g58
g59
NtRp2202
(dp2203
g62
(dp2204
g70
I3
ssg71
g2198
sg64
(lp2205
S'99'
p2206
asbasbasbag57
(g73
g59
NtRp2207
(dp2208
g62
(dp2209
sg71
g2178
sg64
(lp2210
g57
(g78
g59
NtRp2211
(dp2212
g62
(dp2213
sg71
g2207
sg64
(lp2214
g57
(g58
g59
NtRp2215
(dp2216
g62
(dp2217
g70
I3
ssg71
g2211
sg64
(lp2218
S'7'
asbasbasbag57
(g73
g59
NtRp2219
(dp2220
g62
(dp2221
sg71
g2178
sg64
(lp2222
g57
(g78
g59
NtRp2223
(dp2224
g62
(dp2225
sg71
g2219
sg64
(lp2226
g57
(g58
g59
NtRp2227
(dp2228
g62
(dp2229
g70
I3
ssg71
g2223
sg64
(lp2230
S'datetime.datetime(2012, 3, 4, 22, 12, 8)'
p2231
asbasbasbag57
(g73
g59
NtRp2232
(dp2233
g62
(dp2234
sg71
g2178
sg64
(lp2235
g57
(g78
g59
NtRp2236
(dp2237
g62
(dp2238
sg71
g2232
sg64
(lp2239
g57
(g58
g59
NtRp2240
(dp2241
g62
(dp2242
g70
I3
ssg71
g2236
sg64
(lp2243
g1633
asbasbasbasbasbasbasbasbasbasbasbag57
(g73
g59
NtRp2244
(dp2245
g62
(dp2246
sg71
g67
sg64
(lp2247
g57
(g78
g59
NtRp2248
(dp2249
g62
(dp2250
g82
g83
ssg71
g2244
sg64
(lp2251
S'is_https'
p2252
asbag57
(g78
g59
NtRp2253
(dp2254
g62
(dp2255
g89
g90
ssg71
g2244
sg64
(lp2256
S':'
asbag57
(g78
g59
NtRp2257
(dp2258
g62
(dp2259
sg71
g2244
sg64
(lp2260
g57
(g58
g59
NtRp2261
(dp2262
g62
(dp2263
g70
I5
ssg71
g2257
sg64
(lp2264
g100
asbasbasbag57
(g73
g59
NtRp2265
(dp2266
g62
(dp2267
sg71
g67
sg64
(lp2268
g57
(g78
g59
NtRp2269
(dp2270
g62
(dp2271
g82
g83
ssg71
g2265
sg64
(lp2272
S'is_local'
p2273
asbag57
(g78
g59
NtRp2274
(dp2275
g62
(dp2276
g89
g90
ssg71
g2265
sg64
(lp2277
S':'
asbag57
(g78
g59
NtRp2278
(dp2279
g62
(dp2280
sg71
g2265
sg64
(lp2281
g57
(g58
g59
NtRp2282
(dp2283
g62
(dp2284
g70
I5
ssg71
g2278
sg64
(lp2285
g1742
asbasbasbag57
(g73
g59
NtRp2286
(dp2287
g62
(dp2288
sg71
g67
sg64
(lp2289
g57
(g78
g59
NtRp2290
(dp2291
g62
(dp2292
g82
g83
ssg71
g2286
sg64
(lp2293
S'is_restful'
p2294
asbag57
(g78
g59
NtRp2295
(dp2296
g62
(dp2297
g89
g90
ssg71
g2286
sg64
(lp2298
S':'
asbag57
(g78
g59
NtRp2299
(dp2300
g62
(dp2301
sg71
g2286
sg64
(lp2302
g57
(g58
g59
NtRp2303
(dp2304
g62
(dp2305
g70
I5
ssg71
g2299
sg64
(lp2306
g100
asbasbasbag57
(g73
g59
NtRp2307
(dp2308
g62
(dp2309
sg71
g67
sg64
(lp2310
g57
(g78
g59
NtRp2311
(dp2312
g62
(dp2313
g82
g83
ssg71
g2307
sg64
(lp2314
S'now'
p2315
asbag57
(g78
g59
NtRp2316
(dp2317
g62
(dp2318
g89
g90
ssg71
g2307
sg64
(lp2319
S':'
asbag57
(g78
g59
NtRp2320
(dp2321
g62
(dp2322
sg71
g2307
sg64
(lp2323
g57
(g58
g59
NtRp2324
(dp2325
g62
(dp2326
g70
I5
ssg71
g2320
sg64
(lp2327
S'datetime.datetime(2012, 7, 9, 16, 23, 9, 281000)'
p2328
asbasbasbag57
(g73
g59
NtRp2329
(dp2330
g62
(dp2331
sg71
g67
sg64
(lp2332
g57
(g78
g59
NtRp2333
(dp2334
g62
(dp2335
g82
g83
ssg71
g2329
sg64
(lp2336
S'post_vars'
p2337
asbag57
(g78
g59
NtRp2338
(dp2339
g62
(dp2340
g89
g90
ssg71
g2329
sg64
(lp2341
S':'
asbag57
(g78
g59
NtRp2342
(dp2343
g62
(dp2344
sg71
g2329
sg64
(lp2345
g57
(g58
g59
NtRp2346
(dp2347
g62
(dp2348
g70
I5
ssg71
g2342
sg64
(lp2349
g57
(g66
g59
NtRp2350
(dp2351
g62
(dp2352
g70
I4
ssg71
Nsg64
(lp2353
g57
(g73
g59
NtRp2354
(dp2355
g62
(dp2356
sg71
g2350
sg64
(lp2357
g57
(g78
g59
NtRp2358
(dp2359
g62
(dp2360
g82
g83
ssg71
g2354
sg64
(lp2361
S'Save_As'
p2362
asbag57
(g78
g59
NtRp2363
(dp2364
g62
(dp2365
g89
g90
ssg71
g2354
sg64
(lp2366
S':'
asbag57
(g78
g59
NtRp2367
(dp2368
g62
(dp2369
sg71
g2354
sg64
(lp2370
g57
(g58
g59
NtRp2371
(dp2372
g62
(dp2373
g70
I4
ssg71
g2367
sg64
(lp2374
S'plz1'
p2375
asbasbasbag57
(g73
g59
NtRp2376
(dp2377
g62
(dp2378
sg71
g2350
sg64
(lp2379
g57
(g78
g59
NtRp2380
(dp2381
g62
(dp2382
g82
g83
ssg71
g2376
sg64
(lp2383
S'Upload_File'
p2384
asbag57
(g78
g59
NtRp2385
(dp2386
g62
(dp2387
g89
g90
ssg71
g2376
sg64
(lp2388
S':'
asbag57
(g78
g59
NtRp2389
(dp2390
g62
(dp2391
sg71
g2376
sg64
(lp2392
g57
(g58
g59
NtRp2393
(dp2394
g62
(dp2395
g70
I4
ssg71
g2389
sg64
(lp2396
S'FieldStorage object'
p2397
asbasbasbasbasbasbasbag57
(g73
g59
NtRp2398
(dp2399
g62
(dp2400
sg71
g67
sg64
(lp2401
g57
(g78
g59
NtRp2402
(dp2403
g62
(dp2404
g82
g83
ssg71
g2398
sg64
(lp2405
S'url'
p2406
asbag57
(g78
g59
NtRp2407
(dp2408
g62
(dp2409
g89
g90
ssg71
g2398
sg64
(lp2410
S':'
asbag57
(g78
g59
NtRp2411
(dp2412
g62
(dp2413
sg71
g2398
sg64
(lp2414
g57
(g58
g59
NtRp2415
(dp2416
g62
(dp2417
g70
I5
ssg71
g2411
sg64
(lp2418
S'/mycrawler/default/upload'
p2419
asbasbasbag57
(g73
g59
NtRp2420
(dp2421
g62
(dp2422
sg71
g67
sg64
(lp2423
g57
(g78
g59
NtRp2424
(dp2425
g62
(dp2426
g82
g83
ssg71
g2420
sg64
(lp2427
S'utcnow'
p2428
asbag57
(g78
g59
NtRp2429
(dp2430
g62
(dp2431
g89
g90
ssg71
g2420
sg64
(lp2432
S':'
asbag57
(g78
g59
NtRp2433
(dp2434
g62
(dp2435
sg71
g2420
sg64
(lp2436
g57
(g58
g59
NtRp2437
(dp2438
g62
(dp2439
g70
I5
ssg71
g2433
sg64
(lp2440
S'datetime.datetime(2012, 7, 9, 23, 23, 9, 281000)'
p2441
asbasbasbag57
(g73
g59
NtRp2442
(dp2443
g62
(dp2444
sg71
g67
sg64
(lp2445
g57
(g78
g59
NtRp2446
(dp2447
g62
(dp2448
g82
g83
ssg71
g2442
sg64
(lp2449
S'uuid'
p2450
asbag57
(g78
g59
NtRp2451
(dp2452
g62
(dp2453
g89
g90
ssg71
g2442
sg64
(lp2454
S':'
asbag57
(g78
g59
NtRp2455
(dp2456
g62
(dp2457
sg71
g2442
sg64
(lp2458
g57
(g58
g59
NtRp2459
(dp2460
g62
(dp2461
g70
I5
ssg71
g2455
sg64
(lp2462
S'mycrawler/127.0.0.1.2012-07-09.16-23-09.d3f4ed2b-f4bb-4b82-9d4a-587bfd0c0031'
p2463
asbasbasbag57
(g73
g59
NtRp2464
(dp2465
g62
(dp2466
sg71
g67
sg64
(lp2467
g57
(g78
g59
NtRp2468
(dp2469
g62
(dp2470
g82
g83
ssg71
g2464
sg64
(lp2471
S'vars'
p2472
asbag57
(g78
g59
NtRp2473
(dp2474
g62
(dp2475
g89
g90
ssg71
g2464
sg64
(lp2476
S':'
asbag57
(g78
g59
NtRp2477
(dp2478
g62
(dp2479
sg71
g2464
sg64
(lp2480
g57
(g58
g59
NtRp2481
(dp2482
g62
(dp2483
g70
I5
ssg71
g2477
sg64
(lp2484
g57
(g66
g59
NtRp2485
(dp2486
g62
(dp2487
g70
I4
ssg71
Nsg64
(lp2488
g57
(g73
g59
NtRp2489
(dp2490
g62
(dp2491
sg71
g2485
sg64
(lp2492
g57
(g78
g59
NtRp2493
(dp2494
g62
(dp2495
g82
g83
ssg71
g2489
sg64
(lp2496
g2362
asbag57
(g78
g59
NtRp2497
(dp2498
g62
(dp2499
g89
g90
ssg71
g2489
sg64
(lp2500
S':'
asbag57
(g78
g59
NtRp2501
(dp2502
g62
(dp2503
sg71
g2489
sg64
(lp2504
g57
(g58
g59
NtRp2505
(dp2506
g62
(dp2507
g70
I4
ssg71
g2501
sg64
(lp2508
g2375
asbasbasbag57
(g73
g59
NtRp2509
(dp2510
g62
(dp2511
sg71
g2485
sg64
(lp2512
g57
(g78
g59
NtRp2513
(dp2514
g62
(dp2515
g82
g83
ssg71
g2509
sg64
(lp2516
g2384
asbag57
(g78
g59
NtRp2517
(dp2518
g62
(dp2519
g89
g90
ssg71
g2509
sg64
(lp2520
S':'
asbag57
(g78
g59
NtRp2521
(dp2522
g62
(dp2523
sg71
g2509
sg64
(lp2524
g57
(g58
g59
NtRp2525
(dp2526
g62
(dp2527
g70
I4
ssg71
g2521
sg64
(lp2528
g2397
asbasbasbasbasbasbasbag57
(g73
g59
NtRp2529
(dp2530
g62
(dp2531
sg71
g67
sg64
(lp2532
g57
(g78
g59
NtRp2533
(dp2534
g62
(dp2535
g82
g83
ssg71
g2529
sg64
(lp2536
S'wsgi'
p2537
asbag57
(g78
g59
NtRp2538
(dp2539
g62
(dp2540
g89
g90
ssg71
g2529
sg64
(lp2541
S':'
asbag57
(g78
g59
NtRp2542
(dp2543
g62
(dp2544
sg71
g2529
sg64
(lp2545
g57
(g58
g59
NtRp2546
(dp2547
g62
(dp2548
g70
I5
ssg71
g2542
sg64
(lp2549
g57
(g66
g59
NtRp2550
(dp2551
g62
(dp2552
g70
I4
ssg71
Nsg64
(lp2553
g57
(g73
g59
NtRp2554
(dp2555
g62
(dp2556
sg71
g2550
sg64
(lp2557
g57
(g78
g59
NtRp2558
(dp2559
g62
(dp2560
g82
g83
ssg71
g2554
sg64
(lp2561
S'environ'
p2562
asbag57
(g78
g59
NtRp2563
(dp2564
g62
(dp2565
g89
g90
ssg71
g2554
sg64
(lp2566
S':'
asbag57
(g78
g59
NtRp2567
(dp2568
g62
(dp2569
sg71
g2554
sg64
(lp2570
g57
(g58
g59
NtRp2571
(dp2572
g62
(dp2573
g70
I4
ssg71
g2567
sg64
(lp2574
g57
(g66
g59
NtRp2575
(dp2576
g62
(dp2577
g70
I3
ssg71
Nsg64
(lp2578
g57
(g73
g59
NtRp2579
(dp2580
g62
(dp2581
sg71
g2575
sg64
(lp2582
g57
(g78
g59
NtRp2583
(dp2584
g62
(dp2585
g82
g83
ssg71
g2579
sg64
(lp2586
S'CONTENT_LENGTH'
p2587
asbag57
(g78
g59
NtRp2588
(dp2589
g62
(dp2590
g89
g90
ssg71
g2579
sg64
(lp2591
S':'
asbag57
(g78
g59
NtRp2592
(dp2593
g62
(dp2594
sg71
g2579
sg64
(lp2595
g57
(g58
g59
NtRp2596
(dp2597
g62
(dp2598
g70
I3
ssg71
g2592
sg64
(lp2599
g938
asbasbasbag57
(g73
g59
NtRp2600
(dp2601
g62
(dp2602
sg71
g2575
sg64
(lp2603
g57
(g78
g59
NtRp2604
(dp2605
g62
(dp2606
g82
g83
ssg71
g2600
sg64
(lp2607
S'CONTENT_TYPE'
p2608
asbag57
(g78
g59
NtRp2609
(dp2610
g62
(dp2611
g89
g90
ssg71
g2600
sg64
(lp2612
S':'
asbag57
(g78
g59
NtRp2613
(dp2614
g62
(dp2615
sg71
g2600
sg64
(lp2616
g57
(g58
g59
NtRp2617
(dp2618
g62
(dp2619
g70
I3
ssg71
g2613
sg64
(lp2620
g960
asbasbasbag57
(g73
g59
NtRp2621
(dp2622
g62
(dp2623
sg71
g2575
sg64
(lp2624
g57
(g78
g59
NtRp2625
(dp2626
g62
(dp2627
g82
g83
ssg71
g2621
sg64
(lp2628
S'HTTP_ACCEPT'
p2629
asbag57
(g78
g59
NtRp2630
(dp2631
g62
(dp2632
g89
g90
ssg71
g2621
sg64
(lp2633
S':'
asbag57
(g78
g59
NtRp2634
(dp2635
g62
(dp2636
sg71
g2621
sg64
(lp2637
g57
(g58
g59
NtRp2638
(dp2639
g62
(dp2640
g70
I3
ssg71
g2634
sg64
(lp2641
g1047
asbasbasbag57
(g73
g59
NtRp2642
(dp2643
g62
(dp2644
sg71
g2575
sg64
(lp2645
g57
(g78
g59
NtRp2646
(dp2647
g62
(dp2648
g82
g83
ssg71
g2642
sg64
(lp2649
S'HTTP_ACCEPT_ENCODING'
p2650
asbag57
(g78
g59
NtRp2651
(dp2652
g62
(dp2653
g89
g90
ssg71
g2642
sg64
(lp2654
S':'
asbag57
(g78
g59
NtRp2655
(dp2656
g62
(dp2657
sg71
g2642
sg64
(lp2658
g57
(g58
g59
NtRp2659
(dp2660
g62
(dp2661
g70
I3
ssg71
g2655
sg64
(lp2662
g1069
asbasbasbag57
(g73
g59
NtRp2663
(dp2664
g62
(dp2665
sg71
g2575
sg64
(lp2666
g57
(g78
g59
NtRp2667
(dp2668
g62
(dp2669
g82
g83
ssg71
g2663
sg64
(lp2670
S'HTTP_ACCEPT_LANGUAGE'
p2671
asbag57
(g78
g59
NtRp2672
(dp2673
g62
(dp2674
g89
g90
ssg71
g2663
sg64
(lp2675
S':'
asbag57
(g78
g59
NtRp2676
(dp2677
g62
(dp2678
sg71
g2663
sg64
(lp2679
g57
(g58
g59
NtRp2680
(dp2681
g62
(dp2682
g70
I3
ssg71
g2676
sg64
(lp2683
g1091
asbasbasbag57
(g73
g59
NtRp2684
(dp2685
g62
(dp2686
sg71
g2575
sg64
(lp2687
g57
(g78
g59
NtRp2688
(dp2689
g62
(dp2690
g82
g83
ssg71
g2684
sg64
(lp2691
S'HTTP_CONNECTION'
p2692
asbag57
(g78
g59
NtRp2693
(dp2694
g62
(dp2695
g89
g90
ssg71
g2684
sg64
(lp2696
S':'
asbag57
(g78
g59
NtRp2697
(dp2698
g62
(dp2699
sg71
g2684
sg64
(lp2700
g57
(g58
g59
NtRp2701
(dp2702
g62
(dp2703
g70
I3
ssg71
g2697
sg64
(lp2704
g1113
asbasbasbag57
(g73
g59
NtRp2705
(dp2706
g62
(dp2707
sg71
g2575
sg64
(lp2708
g57
(g78
g59
NtRp2709
(dp2710
g62
(dp2711
g82
g83
ssg71
g2705
sg64
(lp2712
S'HTTP_CONTENT_LENGTH'
p2713
asbag57
(g78
g59
NtRp2714
(dp2715
g62
(dp2716
g89
g90
ssg71
g2705
sg64
(lp2717
S':'
asbag57
(g78
g59
NtRp2718
(dp2719
g62
(dp2720
sg71
g2705
sg64
(lp2721
g57
(g58
g59
NtRp2722
(dp2723
g62
(dp2724
g70
I3
ssg71
g2718
sg64
(lp2725
g938
asbasbasbag57
(g73
g59
NtRp2726
(dp2727
g62
(dp2728
sg71
g2575
sg64
(lp2729
g57
(g78
g59
NtRp2730
(dp2731
g62
(dp2732
g82
g83
ssg71
g2726
sg64
(lp2733
S'HTTP_CONTENT_TYPE'
p2734
asbag57
(g78
g59
NtRp2735
(dp2736
g62
(dp2737
g89
g90
ssg71
g2726
sg64
(lp2738
S':'
asbag57
(g78
g59
NtRp2739
(dp2740
g62
(dp2741
sg71
g2726
sg64
(lp2742
g57
(g58
g59
NtRp2743
(dp2744
g62
(dp2745
g70
I3
ssg71
g2739
sg64
(lp2746
g960
asbasbasbag57
(g73
g59
NtRp2747
(dp2748
g62
(dp2749
sg71
g2575
sg64
(lp2750
g57
(g78
g59
NtRp2751
(dp2752
g62
(dp2753
g82
g83
ssg71
g2747
sg64
(lp2754
S'HTTP_COOKIE'
p2755
asbag57
(g78
g59
NtRp2756
(dp2757
g62
(dp2758
g89
g90
ssg71
g2747
sg64
(lp2759
S':'
asbag57
(g78
g59
NtRp2760
(dp2761
g62
(dp2762
sg71
g2747
sg64
(lp2763
g57
(g58
g59
NtRp2764
(dp2765
g62
(dp2766
g70
I3
ssg71
g2760
sg64
(lp2767
g1177
asbasbasbag57
(g73
g59
NtRp2768
(dp2769
g62
(dp2770
sg71
g2575
sg64
(lp2771
g57
(g78
g59
NtRp2772
(dp2773
g62
(dp2774
g82
g83
ssg71
g2768
sg64
(lp2775
S'HTTP_HOST'
p2776
asbag57
(g78
g59
NtRp2777
(dp2778
g62
(dp2779
g89
g90
ssg71
g2768
sg64
(lp2780
S':'
asbag57
(g78
g59
NtRp2781
(dp2782
g62
(dp2783
sg71
g2768
sg64
(lp2784
g57
(g58
g59
NtRp2785
(dp2786
g62
(dp2787
g70
I3
ssg71
g2781
sg64
(lp2788
g1199
asbasbasbag57
(g73
g59
NtRp2789
(dp2790
g62
(dp2791
sg71
g2575
sg64
(lp2792
g57
(g78
g59
NtRp2793
(dp2794
g62
(dp2795
g82
g83
ssg71
g2789
sg64
(lp2796
S'HTTP_REFERER'
p2797
asbag57
(g78
g59
NtRp2798
(dp2799
g62
(dp2800
g89
g90
ssg71
g2789
sg64
(lp2801
S':'
asbag57
(g78
g59
NtRp2802
(dp2803
g62
(dp2804
sg71
g2789
sg64
(lp2805
g57
(g58
g59
NtRp2806
(dp2807
g62
(dp2808
g70
I3
ssg71
g2802
sg64
(lp2809
g1221
asbasbasbag57
(g73
g59
NtRp2810
(dp2811
g62
(dp2812
sg71
g2575
sg64
(lp2813
g57
(g78
g59
NtRp2814
(dp2815
g62
(dp2816
g82
g83
ssg71
g2810
sg64
(lp2817
S'HTTP_USER_AGENT'
p2818
asbag57
(g78
g59
NtRp2819
(dp2820
g62
(dp2821
g89
g90
ssg71
g2810
sg64
(lp2822
S':'
asbag57
(g78
g59
NtRp2823
(dp2824
g62
(dp2825
sg71
g2810
sg64
(lp2826
g57
(g58
g59
NtRp2827
(dp2828
g62
(dp2829
g70
I3
ssg71
g2823
sg64
(lp2830
g1243
asbasbasbag57
(g73
g59
NtRp2831
(dp2832
g62
(dp2833
sg71
g2575
sg64
(lp2834
g57
(g78
g59
NtRp2835
(dp2836
g62
(dp2837
g82
g83
ssg71
g2831
sg64
(lp2838
S'PATH_INFO'
p2839
asbag57
(g78
g59
NtRp2840
(dp2841
g62
(dp2842
g89
g90
ssg71
g2831
sg64
(lp2843
S':'
asbag57
(g78
g59
NtRp2844
(dp2845
g62
(dp2846
sg71
g2831
sg64
(lp2847
g57
(g58
g59
NtRp2848
(dp2849
g62
(dp2850
g70
I3
ssg71
g2844
sg64
(lp2851
g1307
asbasbasbag57
(g73
g59
NtRp2852
(dp2853
g62
(dp2854
sg71
g2575
sg64
(lp2855
g57
(g78
g59
NtRp2856
(dp2857
g62
(dp2858
g82
g83
ssg71
g2852
sg64
(lp2859
S'QUERY_STRING'
p2860
asbag57
(g78
g59
NtRp2861
(dp2862
g62
(dp2863
g89
g90
ssg71
g2852
sg64
(lp2864
S':'
asbag57
(g78
g59
NtRp2865
(dp2866
g62
(dp2867
sg71
g2852
sg64
(lp2868
g57
(g58
g59
NtRp2869
(dp2870
g62
(dp2871
g70
I3
ssg71
g2865
sg64
(lp2872
S''
asbasbasbag57
(g73
g59
NtRp2873
(dp2874
g62
(dp2875
sg71
g2575
sg64
(lp2876
g57
(g78
g59
NtRp2877
(dp2878
g62
(dp2879
g82
g83
ssg71
g2873
sg64
(lp2880
S'REMOTE_ADDR'
p2881
asbag57
(g78
g59
NtRp2882
(dp2883
g62
(dp2884
g89
g90
ssg71
g2873
sg64
(lp2885
S':'
asbag57
(g78
g59
NtRp2886
(dp2887
g62
(dp2888
sg71
g2873
sg64
(lp2889
g57
(g58
g59
NtRp2890
(dp2891
g62
(dp2892
g70
I3
ssg71
g2886
sg64
(lp2893
g190
asbasbasbag57
(g73
g59
NtRp2894
(dp2895
g62
(dp2896
sg71
g2575
sg64
(lp2897
g57
(g78
g59
NtRp2898
(dp2899
g62
(dp2900
g82
g83
ssg71
g2894
sg64
(lp2901
S'REMOTE_PORT'
p2902
asbag57
(g78
g59
NtRp2903
(dp2904
g62
(dp2905
g89
g90
ssg71
g2894
sg64
(lp2906
S':'
asbag57
(g78
g59
NtRp2907
(dp2908
g62
(dp2909
sg71
g2894
sg64
(lp2910
g57
(g58
g59
NtRp2911
(dp2912
g62
(dp2913
g70
I3
ssg71
g2907
sg64
(lp2914
g1371
asbasbasbag57
(g73
g59
NtRp2915
(dp2916
g62
(dp2917
sg71
g2575
sg64
(lp2918
g57
(g78
g59
NtRp2919
(dp2920
g62
(dp2921
g82
g83
ssg71
g2915
sg64
(lp2922
S'REQUEST_METHOD'
p2923
asbag57
(g78
g59
NtRp2924
(dp2925
g62
(dp2926
g89
g90
ssg71
g2915
sg64
(lp2927
S':'
asbag57
(g78
g59
NtRp2928
(dp2929
g62
(dp2930
sg71
g2915
sg64
(lp2931
g57
(g58
g59
NtRp2932
(dp2933
g62
(dp2934
g70
I3
ssg71
g2928
sg64
(lp2935
g1393
asbasbasbag57
(g73
g59
NtRp2936
(dp2937
g62
(dp2938
sg71
g2575
sg64
(lp2939
g57
(g78
g59
NtRp2940
(dp2941
g62
(dp2942
g82
g83
ssg71
g2936
sg64
(lp2943
S'SCRIPT_NAME'
p2944
asbag57
(g78
g59
NtRp2945
(dp2946
g62
(dp2947
g89
g90
ssg71
g2936
sg64
(lp2948
S':'
asbag57
(g78
g59
NtRp2949
(dp2950
g62
(dp2951
sg71
g2936
sg64
(lp2952
g57
(g58
g59
NtRp2953
(dp2954
g62
(dp2955
g70
I3
ssg71
g2949
sg64
(lp2956
S''
asbasbasbag57
(g73
g59
NtRp2957
(dp2958
g62
(dp2959
sg71
g2575
sg64
(lp2960
g57
(g78
g59
NtRp2961
(dp2962
g62
(dp2963
g82
g83
ssg71
g2957
sg64
(lp2964
S'SERVER_NAME'
p2965
asbag57
(g78
g59
NtRp2966
(dp2967
g62
(dp2968
g89
g90
ssg71
g2957
sg64
(lp2969
S':'
asbag57
(g78
g59
NtRp2970
(dp2971
g62
(dp2972
sg71
g2957
sg64
(lp2973
g57
(g58
g59
NtRp2974
(dp2975
g62
(dp2976
g70
I3
ssg71
g2970
sg64
(lp2977
g1436
asbasbasbag57
(g73
g59
NtRp2978
(dp2979
g62
(dp2980
sg71
g2575
sg64
(lp2981
g57
(g78
g59
NtRp2982
(dp2983
g62
(dp2984
g82
g83
ssg71
g2978
sg64
(lp2985
S'SERVER_PORT'
p2986
asbag57
(g78
g59
NtRp2987
(dp2988
g62
(dp2989
g89
g90
ssg71
g2978
sg64
(lp2990
S':'
asbag57
(g78
g59
NtRp2991
(dp2992
g62
(dp2993
sg71
g2978
sg64
(lp2994
g57
(g58
g59
NtRp2995
(dp2996
g62
(dp2997
g70
I3
ssg71
g2991
sg64
(lp2998
g1458
asbasbasbag57
(g73
g59
NtRp2999
(dp3000
g62
(dp3001
sg71
g2575
sg64
(lp3002
g57
(g78
g59
NtRp3003
(dp3004
g62
(dp3005
g82
g83
ssg71
g2999
sg64
(lp3006
S'SERVER_PROTOCOL'
p3007
asbag57
(g78
g59
NtRp3008
(dp3009
g62
(dp3010
g89
g90
ssg71
g2999
sg64
(lp3011
S':'
asbag57
(g78
g59
NtRp3012
(dp3013
g62
(dp3014
sg71
g2999
sg64
(lp3015
g57
(g58
g59
NtRp3016
(dp3017
g62
(dp3018
g70
I3
ssg71
g3012
sg64
(lp3019
g1480
asbasbasbag57
(g73
g59
NtRp3020
(dp3021
g62
(dp3022
sg71
g2575
sg64
(lp3023
g57
(g78
g59
NtRp3024
(dp3025
g62
(dp3026
g82
g83
ssg71
g3020
sg64
(lp3027
S'SERVER_SOFTWARE'
p3028
asbag57
(g78
g59
NtRp3029
(dp3030
g62
(dp3031
g89
g90
ssg71
g3020
sg64
(lp3032
S':'
asbag57
(g78
g59
NtRp3033
(dp3034
g62
(dp3035
sg71
g3020
sg64
(lp3036
g57
(g58
g59
NtRp3037
(dp3038
g62
(dp3039
g70
I3
ssg71
g3033
sg64
(lp3040
g1502
asbasbasbag57
(g73
g59
NtRp3041
(dp3042
g62
(dp3043
sg71
g2575
sg64
(lp3044
g57
(g78
g59
NtRp3045
(dp3046
g62
(dp3047
g82
g83
ssg71
g3041
sg64
(lp3048
S'wsgi.errors'
p3049
asbag57
(g78
g59
NtRp3050
(dp3051
g62
(dp3052
g89
g90
ssg71
g3041
sg64
(lp3053
S':'
asbag57
(g78
g59
NtRp3054
(dp3055
g62
(dp3056
sg71
g3041
sg64
(lp3057
g57
(g58
g59
NtRp3058
(dp3059
g62
(dp3060
g70
I3
ssg71
g3054
sg64
(lp3061
S"<open file '<stderr>', mode 'w' at 0x00A550D0>"
p3062
asbasbasbag57
(g73
g59
NtRp3063
(dp3064
g62
(dp3065
sg71
g2575
sg64
(lp3066
g57
(g78
g59
NtRp3067
(dp3068
g62
(dp3069
g82
g83
ssg71
g3063
sg64
(lp3070
S'wsgi.file_wrapper'
p3071
asbag57
(g78
g59
NtRp3072
(dp3073
g62
(dp3074
g89
g90
ssg71
g3063
sg64
(lp3075
S':'
asbag57
(g78
g59
NtRp3076
(dp3077
g62
(dp3078
sg71
g3063
sg64
(lp3079
g57
(g58
g59
NtRp3080
(dp3081
g62
(dp3082
g70
I3
ssg71
g3076
sg64
(lp3083
S'<class wsgiref.util.FileWrapper at 0x015E8AB0>'
p3084
asbasbasbag57
(g73
g59
NtRp3085
(dp3086
g62
(dp3087
sg71
g2575
sg64
(lp3088
g57
(g78
g59
NtRp3089
(dp3090
g62
(dp3091
g82
g83
ssg71
g3085
sg64
(lp3092
S'wsgi.input'
p3093
asbag57
(g78
g59
NtRp3094
(dp3095
g62
(dp3096
g89
g90
ssg71
g3085
sg64
(lp3097
S':'
asbag57
(g78
g59
NtRp3098
(dp3099
g62
(dp3100
sg71
g3085
sg64
(lp3101
g57
(g58
g59
NtRp3102
(dp3103
g62
(dp3104
g70
I3
ssg71
g3098
sg64
(lp3105
S"<open file '<fdopen>', mode 'w+b' at 0x04BF4EE8>"
p3106
asbasbasbag57
(g73
g59
NtRp3107
(dp3108
g62
(dp3109
sg71
g2575
sg64
(lp3110
g57
(g78
g59
NtRp3111
(dp3112
g62
(dp3113
g82
g83
ssg71
g3107
sg64
(lp3114
S'wsgi.multiprocess'
p3115
asbag57
(g78
g59
NtRp3116
(dp3117
g62
(dp3118
g89
g90
ssg71
g3107
sg64
(lp3119
S':'
asbag57
(g78
g59
NtRp3120
(dp3121
g62
(dp3122
sg71
g3107
sg64
(lp3123
g57
(g58
g59
NtRp3124
(dp3125
g62
(dp3126
g70
I3
ssg71
g3120
sg64
(lp3127
g100
asbasbasbag57
(g73
g59
NtRp3128
(dp3129
g62
(dp3130
sg71
g2575
sg64
(lp3131
g57
(g78
g59
NtRp3132
(dp3133
g62
(dp3134
g82
g83
ssg71
g3128
sg64
(lp3135
S'wsgi.multithread'
p3136
asbag57
(g78
g59
NtRp3137
(dp3138
g62
(dp3139
g89
g90
ssg71
g3128
sg64
(lp3140
S':'
asbag57
(g78
g59
NtRp3141
(dp3142
g62
(dp3143
sg71
g3128
sg64
(lp3144
g57
(g58
g59
NtRp3145
(dp3146
g62
(dp3147
g70
I3
ssg71
g3141
sg64
(lp3148
g1742
asbasbasbag57
(g73
g59
NtRp3149
(dp3150
g62
(dp3151
sg71
g2575
sg64
(lp3152
g57
(g78
g59
NtRp3153
(dp3154
g62
(dp3155
g82
g83
ssg71
g3149
sg64
(lp3156
S'wsgi.run_once'
p3157
asbag57
(g78
g59
NtRp3158
(dp3159
g62
(dp3160
g89
g90
ssg71
g3149
sg64
(lp3161
S':'
asbag57
(g78
g59
NtRp3162
(dp3163
g62
(dp3164
sg71
g3149
sg64
(lp3165
g57
(g58
g59
NtRp3166
(dp3167
g62
(dp3168
g70
I3
ssg71
g3162
sg64
(lp3169
g100
asbasbasbag57
(g73
g59
NtRp3170
(dp3171
g62
(dp3172
sg71
g2575
sg64
(lp3173
g57
(g78
g59
NtRp3174
(dp3175
g62
(dp3176
g82
g83
ssg71
g3170
sg64
(lp3177
S'wsgi.url_scheme'
p3178
asbag57
(g78
g59
NtRp3179
(dp3180
g62
(dp3181
g89
g90
ssg71
g3170
sg64
(lp3182
S':'
asbag57
(g78
g59
NtRp3183
(dp3184
g62
(dp3185
sg71
g3170
sg64
(lp3186
g57
(g58
g59
NtRp3187
(dp3188
g62
(dp3189
g70
I3
ssg71
g3183
sg64
(lp3190
g1785
asbasbasbag57
(g73
g59
NtRp3191
(dp3192
g62
(dp3193
sg71
g2575
sg64
(lp3194
g57
(g78
g59
NtRp3195
(dp3196
g62
(dp3197
g82
g83
ssg71
g3191
sg64
(lp3198
S'wsgi.version'
p3199
asbag57
(g78
g59
NtRp3200
(dp3201
g62
(dp3202
g89
g90
ssg71
g3191
sg64
(lp3203
S':'
asbag57
(g78
g59
NtRp3204
(dp3205
g62
(dp3206
sg71
g3191
sg64
(lp3207
g57
(g58
g59
NtRp3208
(dp3209
g62
(dp3210
g70
I3
ssg71
g3204
sg64
(lp3211
S'1'
asbasbasbasbasbasbasbasbasbasbasbasbasbsS'frames'
p3212
(lp3213
(dp3214
S'file'
p3215
S'C:\\Documents and Settings\\agrover\\Desktop\\previous crawler\\web2py\\gluon\\restricted.py'
p3216
sS'dump'
p3217
(dp3218
S'environment'
p3219
S"{'A': <class 'gluon.html.A'>, 'Auth': <class 'gluon.tools.Auth'>, 'B': <class 'gluon.html.B'>, 'BEAUTIFY': <class 'gluon.html.BEAUTIFY'>, 'BODY': <class 'gluon.html.BODY'>, 'BR': <class 'gluon.html.BR'>, 'BUTTON': <class 'gluon.html.BUTTON'>, 'CAT': <class 'gluon.html.CAT'>, 'CENTER': <class 'gluon.html.CENTER'>, 'CLEANUP': <class 'gluon.validators.CLEANUP'>, ...}"
p3220
sS'ccode'
p3221
S'<code object <module> at 04C58AD0, file "C:\\Docu...tions\\mycrawler\\controllers/default.py", line 11>'
p3222
ssS'lnum'
p3223
I205
sS'lines'
p3224
(dp3225
I200
S'    try:'
p3226
sI201
S'        if type(code) == types.CodeType:'
p3227
sI202
S'            ccode = code'
p3228
sI203
S'        else:'
p3229
sI204
S'            ccode = compile2(code,layer)'
p3230
sI205
S'        exec ccode in environment'
p3231
sI206
S'    except HTTP:'
p3232
sI207
S'        raise'
p3233
sI208
S'    except RestrictedError:'
p3234
sI209
S'        # do not encapsulate (obfuscate) the original RestrictedError'
p3235
ssS'call'
p3236
S"(code='# -*- coding: utf-8 -*-\\n# this file is released ...urrent)\\n\\nresponse._vars=response._caller(upload)\\n', environment={'A': <class 'gluon.html.A'>, 'Auth': <class 'gluon.tools.Auth'>, 'B': <class 'gluon.html.B'>, 'BEAUTIFY': <class 'gluon.html.BEAUTIFY'>, 'BODY': <class 'gluon.html.BODY'>, 'BR': <class 'gluon.html.BR'>, 'BUTTON': <class 'gluon.html.BUTTON'>, 'CAT': <class 'gluon.html.CAT'>, 'CENTER': <class 'gluon.html.CENTER'>, 'CLEANUP': <class 'gluon.validators.CLEANUP'>, ...}, layer=r'C:\\Documents and Settings\\agrover\\Desktop\\previo...2py\\applications\\mycrawler\\controllers/default.py')"
p3237
sS'func'
p3238
S'restricted'
p3239
sa(dp3240
g3215
S'C:\\Documents and Settings\\agrover\\Desktop\\previous crawler\\web2py\\applications\\mycrawler\\controllers\\default.py'
p3241
sg3217
(dp3242
sg3223
I820
sg3224
(dp3243
I809
S'    #for i in range(1,10):'
p3244
sI810
S"    #    spamWriter.writerow([name[i].encode('utf-8'),titl[i],current[i],location[i],industry[i],view_profile[i]])"
p3245
sI811
S''
sI812
S''
sI813
S'    #,titl[i],current[i],location[i],industry[i],view_profile[i]'
p3246
sI814
S"    #response.headers['Content-Type'] = 'text/csv'"
p3247
sI815
S"    #response.headers['Content-Disposition'] = 'attachment; filename=%s' % request.vars.File_Name"
p3248
sI816
S''
sI817
S''
sI818
S'    #return dict(view_profile=view_profile,name=name,location=location,industry=industry,titl=titl,current=current)'
p3249
ssg3236
S'()'
p3250
sg3238
S'<module>'
p3251
sa(dp3252
g3215
S'C:\\Documents and Settings\\agrover\\Desktop\\previous crawler\\web2py\\gluon\\globals.py'
p3253
sg3217
(dp3254
S'self'
p3255
S'undefined'
p3256
sS'f'
S'<function upload>'
p3257
ssg3223
I173
sg3224
(dp3258
I168
S'        self.menu = []             # used by the default view layout'
p3259
sI169
S'        self.files = []            # used by web2py_ajax.html'
p3260
sI170
S'        self.generic_patterns = [] # patterns to allow generic views'
p3261
sI171
S"        self.delimiters = ('{{','}}')"
p3262
sI172
S'        self._vars = None'
p3263
sI173
S'        self._caller = lambda f: f()'
p3264
sI174
S'        self._view_environment = None'
p3265
sI175
S'        self._custom_commit = None'
p3266
sI176
S'        self._custom_rollback = None'
p3267
sI177
S''
ssg3236
S'(f=<function upload>)'
p3268
sg3238
S'<lambda>'
p3269
sa(dp3270
g3215
S'C:\\Documents and Settings\\agrover\\Desktop\\previous crawler\\web2py\\applications\\mycrawler\\controllers\\default.py'
p3271
sg3217
(dp3272
S'global temp'
p3273
S'<function temp>'
p3274
ssg3223
I580
sg3224
(dp3275
I576
S'    form = SQLFORM(db.files)'
p3276
sI577
S'    if form.process().accepted:'
p3277
sI578
S'       fname=form.vars.Upload_File'
p3278
sI579
S'       saveas=request.vars.Save_As'
p3279
sI580
S'       temp()'
p3280
sI581
S'       db(db.files.id>0).delete()'
p3281
sI582
S'       return up_response.getvalue()'
p3282
sI583
S'    elif form.errors:'
p3283
sI584
S"       response.flash = 'form has errors'"
p3284
sI575
S'    global saveas'
p3285
ssg3236
S'()'
p3286
sg3238
S'upload'
p3287
sa(dp3288
g3215
S'C:\\Documents and Settings\\agrover\\Desktop\\previous crawler\\web2py\\applications\\mycrawler\\controllers\\default.py'
p3289
sg3217
(dp3290
S'head1.index'
p3291
S'<built-in method index of list object>'
p3292
sS'head1'
p3293
S"['Event', 'FIRSTNAME', 'LASTNAME', 'OTHERNAME', 'OTHERNAME', 'EMAIL', 'Title', 'COMPANYNAME', 'Address', 'City/State']"
p3294
sS'title'
p3295
g3256
ssg3223
I620
sg3224
(dp3296
I615
S"    companyname=headers.index('COMPANYNAME')"
p3297
sI616
S''
sI617
S"    em=head1.index('EMAIL')"
p3298
sI618
S"    fname=head1.index('FIRSTNAME')"
p3299
sI619
S"    lname=head1.index('LASTNAME')"
p3300
sI620
S"    title=head1.index('TITLE')"
p3301
sI621
S"    cname=head1.index('COMPANYNAME')"
p3302
sI622
S''
sI623
S'    unique=[]'
p3303
sI624
S'    kept=set()'
p3304
ssg3236
S'()'
p3305
sg3238
S'temp'
p3306
sasS'pyver'
p3307
S'Python 2.7.3: C:\\Python27\\python.exe'
p3308
sS'session'
p3309
g57
(g58
g59
NtRp3310
(dp3311
g62
(dp3312
sg64
(lp3313
g57
(g66
g59
NtRp3314
(dp3315
g62
(dp3316
g70
I5
ssg71
Nsg64
(lp3317
g57
(g73
g59
NtRp3318
(dp3319
g62
(dp3320
sg71
g3314
sg64
(lp3321
g57
(g78
g59
NtRp3322
(dp3323
g62
(dp3324
g82
g83
ssg71
g3318
sg64
(lp3325
S'password'
p3326
asbag57
(g78
g59
NtRp3327
(dp3328
g62
(dp3329
g89
g90
ssg71
g3318
sg64
(lp3330
S':'
asbag57
(g78
g59
NtRp3331
(dp3332
g62
(dp3333
sg71
g3318
sg64
(lp3334
g57
(g58
g59
NtRp3335
(dp3336
g62
(dp3337
g70
I5
ssg71
g3331
sg64
(lp3338
S'galaxyns@1234'
p3339
asbasbasbag57
(g73
g59
NtRp3340
(dp3341
g62
(dp3342
sg71
g3314
sg64
(lp3343
g57
(g78
g59
NtRp3344
(dp3345
g62
(dp3346
g82
g83
ssg71
g3340
sg64
(lp3347
S'username'
p3348
asbag57
(g78
g59
NtRp3349
(dp3350
g62
(dp3351
g89
g90
ssg71
g3340
sg64
(lp3352
S':'
asbag57
(g78
g59
NtRp3353
(dp3354
g62
(dp3355
sg71
g3340
sg64
(lp3356
g57
(g58
g59
NtRp3357
(dp3358
g62
(dp3359
g70
I5
ssg71
g3353
sg64
(lp3360
S'mrigeshgaurav@gmail.com'
p3361
asbasbasbasbasbsS'etype'
p3362
S"<type 'exceptions.ValueError'>"
p3363
sS'date'
p3364
S'Mon Jul 09 16:23:09 2012'
p3365
sS'response'
p3366
g57
(g58
g59
NtRp3367
(dp3368
g62
(dp3369
sg64
(lp3370
g57
(g66
g59
NtRp3371
(dp3372
g62
(dp3373
g70
I5
ssg71
Nsg64
(lp3374
g57
(g73
g59
NtRp3375
(dp3376
g62
(dp3377
sg71
g3371
sg64
(lp3378
g57
(g78
g59
NtRp3379
(dp3380
g62
(dp3381
g82
g83
ssg71
g3375
sg64
(lp3382
g155
asbag57
(g78
g59
NtRp3383
(dp3384
g62
(dp3385
g89
g90
ssg71
g3375
sg64
(lp3386
S':'
asbag57
(g78
g59
NtRp3387
(dp3388
g62
(dp3389
sg71
g3375
sg64
(lp3390
g57
(g58
g59
NtRp3391
(dp3392
g62
(dp3393
g70
I5
ssg71
g3387
sg64
(lp3394
S'<cStringIO.StringO object at 0x04B903C0>'
p3395
asbasbasbag57
(g73
g59
NtRp3396
(dp3397
g62
(dp3398
sg71
g3371
sg64
(lp3399
g57
(g78
g59
NtRp3400
(dp3401
g62
(dp3402
g82
g83
ssg71
g3396
sg64
(lp3403
g221
asbag57
(g78
g59
NtRp3404
(dp3405
g62
(dp3406
g89
g90
ssg71
g3396
sg64
(lp3407
S':'
asbag57
(g78
g59
NtRp3408
(dp3409
g62
(dp3410
sg71
g3396
sg64
(lp3411
g57
(g58
g59
NtRp3412
(dp3413
g62
(dp3414
g70
I5
ssg71
g3408
sg64
(lp3415
g57
(g66
g59
NtRp3416
(dp3417
g62
(dp3418
g70
I4
ssg71
Nsg64
(lp3419
g57
(g73
g59
NtRp3420
(dp3421
g62
(dp3422
sg71
g3416
sg64
(lp3423
g57
(g78
g59
NtRp3424
(dp3425
g62
(dp3426
g82
g83
ssg71
g3420
sg64
(lp3427
S'session_id_mycrawler'
p3428
asbag57
(g78
g59
NtRp3429
(dp3430
g62
(dp3431
g89
g90
ssg71
g3420
sg64
(lp3432
S':'
asbag57
(g78
g59
NtRp3433
(dp3434
g62
(dp3435
sg71
g3420
sg64
(lp3436
g57
(g58
g59
NtRp3437
(dp3438
g62
(dp3439
g70
I4
ssg71
g3433
sg64
(lp3440
g57
(g66
g59
NtRp3441
(dp3442
g62
(dp3443
g70
I3
ssg71
Nsg64
(lp3444
g57
(g73
g59
NtRp3445
(dp3446
g62
(dp3447
sg71
g3441
sg64
(lp3448
g57
(g78
g59
NtRp3449
(dp3450
g62
(dp3451
g82
g83
ssg71
g3445
sg64
(lp3452
g271
asbag57
(g78
g59
NtRp3453
(dp3454
g62
(dp3455
g89
g90
ssg71
g3445
sg64
(lp3456
S':'
asbag57
(g78
g59
NtRp3457
(dp3458
g62
(dp3459
sg71
g3445
sg64
(lp3460
g57
(g58
g59
NtRp3461
(dp3462
g62
(dp3463
g70
I3
ssg71
g3457
sg64
(lp3464
S''
asbasbasbag57
(g73
g59
NtRp3465
(dp3466
g62
(dp3467
sg71
g3441
sg64
(lp3468
g57
(g78
g59
NtRp3469
(dp3470
g62
(dp3471
g82
g83
ssg71
g3465
sg64
(lp3472
g292
asbag57
(g78
g59
NtRp3473
(dp3474
g62
(dp3475
g89
g90
ssg71
g3465
sg64
(lp3476
S':'
asbag57
(g78
g59
NtRp3477
(dp3478
g62
(dp3479
sg71
g3465
sg64
(lp3480
g57
(g58
g59
NtRp3481
(dp3482
g62
(dp3483
g70
I3
ssg71
g3477
sg64
(lp3484
S''
asbasbasbag57
(g73
g59
NtRp3485
(dp3486
g62
(dp3487
sg71
g3441
sg64
(lp3488
g57
(g78
g59
NtRp3489
(dp3490
g62
(dp3491
g82
g83
ssg71
g3485
sg64
(lp3492
g313
asbag57
(g78
g59
NtRp3493
(dp3494
g62
(dp3495
g89
g90
ssg71
g3485
sg64
(lp3496
S':'
asbag57
(g78
g59
NtRp3497
(dp3498
g62
(dp3499
sg71
g3485
sg64
(lp3500
g57
(g58
g59
NtRp3501
(dp3502
g62
(dp3503
g70
I3
ssg71
g3497
sg64
(lp3504
S''
asbasbasbag57
(g73
g59
NtRp3505
(dp3506
g62
(dp3507
sg71
g3441
sg64
(lp3508
g57
(g78
g59
NtRp3509
(dp3510
g62
(dp3511
g82
g83
ssg71
g3505
sg64
(lp3512
g334
asbag57
(g78
g59
NtRp3513
(dp3514
g62
(dp3515
g89
g90
ssg71
g3505
sg64
(lp3516
S':'
asbag57
(g78
g59
NtRp3517
(dp3518
g62
(dp3519
sg71
g3505
sg64
(lp3520
g57
(g58
g59
NtRp3521
(dp3522
g62
(dp3523
g70
I3
ssg71
g3517
sg64
(lp3524
S''
asbasbasbag57
(g73
g59
NtRp3525
(dp3526
g62
(dp3527
sg71
g3441
sg64
(lp3528
g57
(g78
g59
NtRp3529
(dp3530
g62
(dp3531
g82
g83
ssg71
g3525
sg64
(lp3532
g355
asbag57
(g78
g59
NtRp3533
(dp3534
g62
(dp3535
g89
g90
ssg71
g3525
sg64
(lp3536
S':'
asbag57
(g78
g59
NtRp3537
(dp3538
g62
(dp3539
sg71
g3525
sg64
(lp3540
g57
(g58
g59
NtRp3541
(dp3542
g62
(dp3543
g70
I3
ssg71
g3537
sg64
(lp3544
S''
asbasbasbag57
(g73
g59
NtRp3545
(dp3546
g62
(dp3547
sg71
g3441
sg64
(lp3548
g57
(g78
g59
NtRp3549
(dp3550
g62
(dp3551
g82
g83
ssg71
g3545
sg64
(lp3552
g376
asbag57
(g78
g59
NtRp3553
(dp3554
g62
(dp3555
g89
g90
ssg71
g3545
sg64
(lp3556
S':'
asbag57
(g78
g59
NtRp3557
(dp3558
g62
(dp3559
sg71
g3545
sg64
(lp3560
g57
(g58
g59
NtRp3561
(dp3562
g62
(dp3563
g70
I3
ssg71
g3557
sg64
(lp3564
S'/'
asbasbasbag57
(g73
g59
NtRp3565
(dp3566
g62
(dp3567
sg71
g3441
sg64
(lp3568
g57
(g78
g59
NtRp3569
(dp3570
g62
(dp3571
g82
g83
ssg71
g3565
sg64
(lp3572
g397
asbag57
(g78
g59
NtRp3573
(dp3574
g62
(dp3575
g89
g90
ssg71
g3565
sg64
(lp3576
S':'
asbag57
(g78
g59
NtRp3577
(dp3578
g62
(dp3579
sg71
g3565
sg64
(lp3580
g57
(g58
g59
NtRp3581
(dp3582
g62
(dp3583
g70
I3
ssg71
g3577
sg64
(lp3584
S''
asbasbasbag57
(g73
g59
NtRp3585
(dp3586
g62
(dp3587
sg71
g3441
sg64
(lp3588
g57
(g78
g59
NtRp3589
(dp3590
g62
(dp3591
g82
g83
ssg71
g3585
sg64
(lp3592
g418
asbag57
(g78
g59
NtRp3593
(dp3594
g62
(dp3595
g89
g90
ssg71
g3585
sg64
(lp3596
S':'
asbag57
(g78
g59
NtRp3597
(dp3598
g62
(dp3599
sg71
g3585
sg64
(lp3600
g57
(g58
g59
NtRp3601
(dp3602
g62
(dp3603
g70
I3
ssg71
g3597
sg64
(lp3604
S''
asbasbasbasbasbasbasbasbasbasbasbag57
(g73
g59
NtRp3605
(dp3606
g62
(dp3607
sg71
g3371
sg64
(lp3608
g57
(g78
g59
NtRp3609
(dp3610
g62
(dp3611
g82
g83
ssg71
g3605
sg64
(lp3612
S'delimiters'
p3613
asbag57
(g78
g59
NtRp3614
(dp3615
g62
(dp3616
g89
g90
ssg71
g3605
sg64
(lp3617
S':'
asbag57
(g78
g59
NtRp3618
(dp3619
g62
(dp3620
sg71
g3605
sg64
(lp3621
g57
(g58
g59
NtRp3622
(dp3623
g62
(dp3624
g70
I5
ssg71
g3618
sg64
(lp3625
g57
(g66
g59
NtRp3626
(dp3627
g62
(dp3628
g70
I4
ssg71
Nsg64
(lp3629
g57
(g73
g59
NtRp3630
(dp3631
g62
(dp3632
sg71
g3626
sg64
(lp3633
g57
(g78
g59
NtRp3634
(dp3635
g62
(dp3636
sg71
g3630
sg64
(lp3637
g57
(g58
g59
NtRp3638
(dp3639
g62
(dp3640
g70
I4
ssg71
g3634
sg64
(lp3641
S'{{'
p3642
asbasbasbag57
(g73
g59
NtRp3643
(dp3644
g62
(dp3645
sg71
g3626
sg64
(lp3646
g57
(g78
g59
NtRp3647
(dp3648
g62
(dp3649
sg71
g3643
sg64
(lp3650
g57
(g58
g59
NtRp3651
(dp3652
g62
(dp3653
g70
I4
ssg71
g3647
sg64
(lp3654
S'}}'
p3655
asbasbasbasbasbasbasbag57
(g73
g59
NtRp3656
(dp3657
g62
(dp3658
sg71
g3371
sg64
(lp3659
g57
(g78
g59
NtRp3660
(dp3661
g62
(dp3662
g82
g83
ssg71
g3656
sg64
(lp3663
S'files'
p3664
asbag57
(g78
g59
NtRp3665
(dp3666
g62
(dp3667
g89
g90
ssg71
g3656
sg64
(lp3668
S':'
asbag57
(g78
g59
NtRp3669
(dp3670
g62
(dp3671
sg71
g3656
sg64
(lp3672
g57
(g58
g59
NtRp3673
(dp3674
g62
(dp3675
g70
I5
ssg71
g3669
sg64
(lp3676
g57
(g66
g59
NtRp3677
(dp3678
g62
(dp3679
g70
I4
ssg71
Nsg64
(lp3680
sbasbasbasbag57
(g73
g59
NtRp3681
(dp3682
g62
(dp3683
sg71
g3371
sg64
(lp3684
g57
(g78
g59
NtRp3685
(dp3686
g62
(dp3687
g82
g83
ssg71
g3681
sg64
(lp3688
S'flash'
p3689
asbag57
(g78
g59
NtRp3690
(dp3691
g62
(dp3692
g89
g90
ssg71
g3681
sg64
(lp3693
S':'
asbag57
(g78
g59
NtRp3694
(dp3695
g62
(dp3696
sg71
g3681
sg64
(lp3697
g57
(g58
g59
NtRp3698
(dp3699
g62
(dp3700
g70
I5
ssg71
g3694
sg64
(lp3701
cgluon.languages
lazyT_unpickle
p3702
(S's\x08\x00\x00\x00Success!'
tRp3703
asbasbasbag57
(g73
g59
NtRp3704
(dp3705
g62
(dp3706
sg71
g3371
sg64
(lp3707
g57
(g78
g59
NtRp3708
(dp3709
g62
(dp3710
g82
g83
ssg71
g3704
sg64
(lp3711
S'generic_patterns'
p3712
asbag57
(g78
g59
NtRp3713
(dp3714
g62
(dp3715
g89
g90
ssg71
g3704
sg64
(lp3716
S':'
asbag57
(g78
g59
NtRp3717
(dp3718
g62
(dp3719
sg71
g3704
sg64
(lp3720
g57
(g58
g59
NtRp3721
(dp3722
g62
(dp3723
g70
I5
ssg71
g3717
sg64
(lp3724
g57
(g66
g59
NtRp3725
(dp3726
g62
(dp3727
g70
I4
ssg71
Nsg64
(lp3728
g57
(g73
g59
NtRp3729
(dp3730
g62
(dp3731
sg71
g3725
sg64
(lp3732
g57
(g78
g59
NtRp3733
(dp3734
g62
(dp3735
sg71
g3729
sg64
(lp3736
g57
(g58
g59
NtRp3737
(dp3738
g62
(dp3739
g70
I4
ssg71
g3733
sg64
(lp3740
S'*'
asbasbasbasbasbasbasbag57
(g73
g59
NtRp3741
(dp3742
g62
(dp3743
sg71
g3371
sg64
(lp3744
g57
(g78
g59
NtRp3745
(dp3746
g62
(dp3747
g82
g83
ssg71
g3741
sg64
(lp3748
S'headers'
p3749
asbag57
(g78
g59
NtRp3750
(dp3751
g62
(dp3752
g89
g90
ssg71
g3741
sg64
(lp3753
S':'
asbag57
(g78
g59
NtRp3754
(dp3755
g62
(dp3756
sg71
g3741
sg64
(lp3757
g57
(g58
g59
NtRp3758
(dp3759
g62
(dp3760
g70
I5
ssg71
g3754
sg64
(lp3761
g57
(g66
g59
NtRp3762
(dp3763
g62
(dp3764
g70
I4
ssg71
Nsg64
(lp3765
g57
(g73
g59
NtRp3766
(dp3767
g62
(dp3768
sg71
g3762
sg64
(lp3769
g57
(g78
g59
NtRp3770
(dp3771
g62
(dp3772
g82
g83
ssg71
g3766
sg64
(lp3773
S'Cache-Control'
p3774
asbag57
(g78
g59
NtRp3775
(dp3776
g62
(dp3777
g89
g90
ssg71
g3766
sg64
(lp3778
S':'
asbag57
(g78
g59
NtRp3779
(dp3780
g62
(dp3781
sg71
g3766
sg64
(lp3782
g57
(g58
g59
NtRp3783
(dp3784
g62
(dp3785
g70
I4
ssg71
g3779
sg64
(lp3786
S'no-store, no-cache, must-revalidate, post-check=0, pre-check=0'
p3787
asbasbasbag57
(g73
g59
NtRp3788
(dp3789
g62
(dp3790
sg71
g3762
sg64
(lp3791
g57
(g78
g59
NtRp3792
(dp3793
g62
(dp3794
g82
g83
ssg71
g3788
sg64
(lp3795
S'Content-Type'
p3796
asbag57
(g78
g59
NtRp3797
(dp3798
g62
(dp3799
g89
g90
ssg71
g3788
sg64
(lp3800
S':'
asbag57
(g78
g59
NtRp3801
(dp3802
g62
(dp3803
sg71
g3788
sg64
(lp3804
g57
(g58
g59
NtRp3805
(dp3806
g62
(dp3807
g70
I4
ssg71
g3801
sg64
(lp3808
S'text/html; charset=utf-8'
p3809
asbasbasbag57
(g73
g59
NtRp3810
(dp3811
g62
(dp3812
sg71
g3762
sg64
(lp3813
g57
(g78
g59
NtRp3814
(dp3815
g62
(dp3816
g82
g83
ssg71
g3810
sg64
(lp3817
S'Expires'
p3818
asbag57
(g78
g59
NtRp3819
(dp3820
g62
(dp3821
g89
g90
ssg71
g3810
sg64
(lp3822
S':'
asbag57
(g78
g59
NtRp3823
(dp3824
g62
(dp3825
sg71
g3810
sg64
(lp3826
g57
(g58
g59
NtRp3827
(dp3828
g62
(dp3829
g70
I4
ssg71
g3823
sg64
(lp3830
S'Mon, 09 Jul 2012 23:23:09 GMT'
p3831
asbasbasbag57
(g73
g59
NtRp3832
(dp3833
g62
(dp3834
sg71
g3762
sg64
(lp3835
g57
(g78
g59
NtRp3836
(dp3837
g62
(dp3838
g82
g83
ssg71
g3832
sg64
(lp3839
S'Pragma'
p3840
asbag57
(g78
g59
NtRp3841
(dp3842
g62
(dp3843
g89
g90
ssg71
g3832
sg64
(lp3844
S':'
asbag57
(g78
g59
NtRp3845
(dp3846
g62
(dp3847
sg71
g3832
sg64
(lp3848
g57
(g58
g59
NtRp3849
(dp3850
g62
(dp3851
g70
I4
ssg71
g3845
sg64
(lp3852
S'no-cache'
p3853
asbasbasbag57
(g73
g59
NtRp3854
(dp3855
g62
(dp3856
sg71
g3762
sg64
(lp3857
g57
(g78
g59
NtRp3858
(dp3859
g62
(dp3860
g82
g83
ssg71
g3854
sg64
(lp3861
S'X-Powered-By'
p3862
asbag57
(g78
g59
NtRp3863
(dp3864
g62
(dp3865
g89
g90
ssg71
g3854
sg64
(lp3866
S':'
asbag57
(g78
g59
NtRp3867
(dp3868
g62
(dp3869
sg71
g3854
sg64
(lp3870
g57
(g58
g59
NtRp3871
(dp3872
g62
(dp3873
g70
I4
ssg71
g3867
sg64
(lp3874
S'web2py'
p3875
asbasbasbasbasbasbasbag57
(g73
g59
NtRp3876
(dp3877
g62
(dp3878
sg71
g3371
sg64
(lp3879
g57
(g78
g59
NtRp3880
(dp3881
g62
(dp3882
g82
g83
ssg71
g3876
sg64
(lp3883
S'menu'
p3884
asbag57
(g78
g59
NtRp3885
(dp3886
g62
(dp3887
g89
g90
ssg71
g3876
sg64
(lp3888
S':'
asbag57
(g78
g59
NtRp3889
(dp3890
g62
(dp3891
sg71
g3876
sg64
(lp3892
g57
(g58
g59
NtRp3893
(dp3894
g62
(dp3895
g70
I5
ssg71
g3889
sg64
(lp3896
g57
(g66
g59
NtRp3897
(dp3898
g62
(dp3899
g70
I4
ssg71
Nsg64
(lp3900
g57
(g73
g59
NtRp3901
(dp3902
g62
(dp3903
sg71
g3897
sg64
(lp3904
g57
(g78
g59
NtRp3905
(dp3906
g62
(dp3907
sg71
g3901
sg64
(lp3908
g57
(g58
g59
NtRp3909
(dp3910
g62
(dp3911
g70
I4
ssg71
g3905
sg64
(lp3912
g57
(g66
g59
NtRp3913
(dp3914
g62
(dp3915
g70
I3
ssg71
Nsg64
(lp3916
g57
(g73
g59
NtRp3917
(dp3918
g62
(dp3919
sg71
g3913
sg64
(lp3920
g57
(g78
g59
NtRp3921
(dp3922
g62
(dp3923
sg71
g3917
sg64
(lp3924
g57
(g58
g59
NtRp3925
(dp3926
g62
(dp3927
g70
I3
ssg71
g3921
sg64
(lp3928
g3702
(S't\x04\x00\x00\x00Home'
tRp3929
asbasbasbag57
(g73
g59
NtRp3930
(dp3931
g62
(dp3932
sg71
g3913
sg64
(lp3933
g57
(g78
g59
NtRp3934
(dp3935
g62
(dp3936
sg71
g3930
sg64
(lp3937
g57
(g58
g59
NtRp3938
(dp3939
g62
(dp3940
g70
I3
ssg71
g3934
sg64
(lp3941
g100
asbasbasbag57
(g73
g59
NtRp3942
(dp3943
g62
(dp3944
sg71
g3913
sg64
(lp3945
g57
(g78
g59
NtRp3946
(dp3947
g62
(dp3948
sg71
g3942
sg64
(lp3949
g57
(g58
g59
NtRp3950
(dp3951
g62
(dp3952
g70
I3
ssg71
g3946
sg64
(lp3953
S'/mycrawler/default/index'
p3954
asbasbasbag57
(g73
g59
NtRp3955
(dp3956
g62
(dp3957
sg71
g3913
sg64
(lp3958
g57
(g78
g59
NtRp3959
(dp3960
g62
(dp3961
sg71
g3955
sg64
(lp3962
g57
(g58
g59
NtRp3963
(dp3964
g62
(dp3965
g70
I3
ssg71
g3959
sg64
(lp3966
g57
(g66
g59
NtRp3967
(dp3968
g62
(dp3969
g70
I2
ssg71
Nsg64
(lp3970
sbasbasbasbasbasbasbasbag57
(g73
g59
NtRp3971
(dp3972
g62
(dp3973
sg71
g3897
sg64
(lp3974
g57
(g78
g59
NtRp3975
(dp3976
g62
(dp3977
sg71
g3971
sg64
(lp3978
g57
(g58
g59
NtRp3979
(dp3980
g62
(dp3981
g70
I4
ssg71
g3975
sg64
(lp3982
g57
(g66
g59
NtRp3983
(dp3984
g62
(dp3985
g70
I3
ssg71
Nsg64
(lp3986
g57
(g73
g59
NtRp3987
(dp3988
g62
(dp3989
sg71
g3983
sg64
(lp3990
g57
(g78
g59
NtRp3991
(dp3992
g62
(dp3993
sg71
g3987
sg64
(lp3994
g57
(g58
g59
NtRp3995
(dp3996
g62
(dp3997
g70
I3
ssg71
g3991
sg64
(lp3998
g57
(cgluon.html
SPAN
p3999
g59
NtRp4000
(dp4001
g62
(dp4002
g82
S'color:yellow'
p4003
ssg71
Nsg64
(lp4004
g3875
asbasbasbasbag57
(g73
g59
NtRp4005
(dp4006
g62
(dp4007
sg71
g3983
sg64
(lp4008
g57
(g78
g59
NtRp4009
(dp4010
g62
(dp4011
sg71
g4005
sg64
(lp4012
g57
(g58
g59
NtRp4013
(dp4014
g62
(dp4015
g70
I3
ssg71
g4009
sg64
(lp4016
g100
asbasbasbag57
(g73
g59
NtRp4017
(dp4018
g62
(dp4019
sg71
g3983
sg64
(lp4020
g57
(g78
g59
NtRp4021
(dp4022
g62
(dp4023
sg71
g4017
sg64
(lp4024
g57
(g58
g59
NtRp4025
(dp4026
g62
(dp4027
g70
I3
ssg71
g4021
sg64
(lp4028
S'None'
p4029
asbasbasbag57
(g73
g59
NtRp4030
(dp4031
g62
(dp4032
sg71
g3983
sg64
(lp4033
g57
(g78
g59
NtRp4034
(dp4035
g62
(dp4036
sg71
g4030
sg64
(lp4037
g57
(g58
g59
NtRp4038
(dp4039
g62
(dp4040
g70
I3
ssg71
g4034
sg64
(lp4041
g57
(g66
g59
NtRp4042
(dp4043
g62
(dp4044
g70
I2
ssg71
Nsg64
(lp4045
g57
(g73
g59
NtRp4046
(dp4047
g62
(dp4048
sg71
g4042
sg64
(lp4049
g57
(g78
g59
NtRp4050
(dp4051
g62
(dp4052
sg71
g4046
sg64
(lp4053
g57
(g58
g59
NtRp4054
(dp4055
g62
(dp4056
g70
I2
ssg71
g4050
sg64
(lp4057
g57
(g66
g59
NtRp4058
(dp4059
g62
(dp4060
g70
I1
ssg71
Nsg64
(lp4061
g57
(g73
g59
NtRp4062
(dp4063
g62
(dp4064
sg71
g4058
sg64
(lp4065
g57
(g78
g59
NtRp4066
(dp4067
g62
(dp4068
sg71
g4062
sg64
(lp4069
g57
(g58
g59
NtRp4070
(dp4071
g62
(dp4072
g70
I1
ssg71
g4066
sg64
(lp4073
g3702
(S's\x08\x00\x00\x00My Sites'
tRp4074
asbasbasbag57
(g73
g59
NtRp4075
(dp4076
g62
(dp4077
sg71
g4058
sg64
(lp4078
g57
(g78
g59
NtRp4079
(dp4080
g62
(dp4081
sg71
g4075
sg64
(lp4082
g57
(g58
g59
NtRp4083
(dp4084
g62
(dp4085
g70
I1
ssg71
g4079
sg64
(lp4086
I00
asbasbasbag57
(g73
g59
NtRp4087
(dp4088
g62
(dp4089
sg71
g4058
sg64
(lp4090
g57
(g78
g59
NtRp4091
(dp4092
g62
(dp4093
sg71
g4087
sg64
(lp4094
g57
(g58
g59
NtRp4095
(dp4096
g62
(dp4097
g70
I1
ssg71
g4091
sg64
(lp4098
S'/admin/default/site'
p4099
asbasbasbasbasbasbasbag57
(g73
g59
NtRp4100
(dp4101
g62
(dp4102
sg71
g4042
sg64
(lp4103
g57
(g78
g59
NtRp4104
(dp4105
g62
(dp4106
sg71
g4100
sg64
(lp4107
g57
(g58
g59
NtRp4108
(dp4109
g62
(dp4110
g70
I2
ssg71
g4104
sg64
(lp4111
g57
(g66
g59
NtRp4112
(dp4113
g62
(dp4114
g70
I1
ssg71
Nsg64
(lp4115
g57
(g73
g59
NtRp4116
(dp4117
g62
(dp4118
sg71
g4112
sg64
(lp4119
g57
(g78
g59
NtRp4120
(dp4121
g62
(dp4122
sg71
g4116
sg64
(lp4123
g57
(g58
g59
NtRp4124
(dp4125
g62
(dp4126
g70
I1
ssg71
g4120
sg64
(lp4127
g3702
(S's\x08\x00\x00\x00This App'
tRp4128
asbasbasbag57
(g73
g59
NtRp4129
(dp4130
g62
(dp4131
sg71
g4112
sg64
(lp4132
g57
(g78
g59
NtRp4133
(dp4134
g62
(dp4135
sg71
g4129
sg64
(lp4136
g57
(g58
g59
NtRp4137
(dp4138
g62
(dp4139
g70
I1
ssg71
g4133
sg64
(lp4140
I00
asbasbasbag57
(g73
g59
NtRp4141
(dp4142
g62
(dp4143
sg71
g4112
sg64
(lp4144
g57
(g78
g59
NtRp4145
(dp4146
g62
(dp4147
sg71
g4141
sg64
(lp4148
g57
(g58
g59
NtRp4149
(dp4150
g62
(dp4151
g70
I1
ssg71
g4145
sg64
(lp4152
S'/admin/default/design/mycrawler'
p4153
asbasbasbag57
(g73
g59
NtRp4154
(dp4155
g62
(dp4156
sg71
g4112
sg64
(lp4157
g57
(g78
g59
NtRp4158
(dp4159
g62
(dp4160
sg71
g4154
sg64
(lp4161
g57
(g58
g59
NtRp4162
(dp4163
g62
(dp4164
g70
I1
ssg71
g4158
sg64
(lp4165
(lp4166
(g3702
(S't\n\x00\x00\x00Controller'
tRp4167
I00
S'/admin/default/edit/mycrawler/controllers/default.py'
tp4168
a(g3702
(S't\x04\x00\x00\x00View'
tRp4169
I00
S'/admin/default/edit/mycrawler/views/default/upload.html'
tp4170
a(g3702
(S't\x06\x00\x00\x00Layout'
tRp4171
I00
S'/admin/default/edit/mycrawler/views/layout.html'
tp4172
a(g3702
(S't\n\x00\x00\x00Stylesheet'
tRp4173
I00
S'/admin/default/edit/mycrawler/static/css/web2py.css'
tp4174
a(g3702
(S's\x08\x00\x00\x00DB Model'
tRp4175
I00
S'/admin/default/edit/mycrawler/models/db.py'
tp4176
a(g3702
(S's\n\x00\x00\x00Menu Model'
tRp4177
I00
S'/admin/default/edit/mycrawler/models/menu.py'
tp4178
a(g3702
(S't\x08\x00\x00\x00Database'
tRp4179
I00
S'/mycrawler/appadmin/index'
tp4180
a(g3702
(S't\x06\x00\x00\x00Errors'
tRp4181
I00
S'/admin/default/errors/mycrawler'
tp4182
a(g3702
(S't\x05\x00\x00\x00About'
tRp4183
I00
S'/admin/default/about/mycrawler'
tp4184
aasbasbasbasbasbasbasbag57
(g73
g59
NtRp4185
(dp4186
g62
(dp4187
sg71
g4042
sg64
(lp4188
g57
(g78
g59
NtRp4189
(dp4190
g62
(dp4191
sg71
g4185
sg64
(lp4192
g57
(g58
g59
NtRp4193
(dp4194
g62
(dp4195
g70
I2
ssg71
g4189
sg64
(lp4196
g57
(g66
g59
NtRp4197
(dp4198
g62
(dp4199
g70
I1
ssg71
Nsg64
(lp4200
g57
(g73
g59
NtRp4201
(dp4202
g62
(dp4203
sg71
g4197
sg64
(lp4204
g57
(g78
g59
NtRp4205
(dp4206
g62
(dp4207
sg71
g4201
sg64
(lp4208
g57
(g58
g59
NtRp4209
(dp4210
g62
(dp4211
g70
I1
ssg71
g4205
sg64
(lp4212
S'web2py.com'
p4213
asbasbasbag57
(g73
g59
NtRp4214
(dp4215
g62
(dp4216
sg71
g4197
sg64
(lp4217
g57
(g78
g59
NtRp4218
(dp4219
g62
(dp4220
sg71
g4214
sg64
(lp4221
g57
(g58
g59
NtRp4222
(dp4223
g62
(dp4224
g70
I1
ssg71
g4218
sg64
(lp4225
I00
asbasbasbag57
(g73
g59
NtRp4226
(dp4227
g62
(dp4228
sg71
g4197
sg64
(lp4229
g57
(g78
g59
NtRp4230
(dp4231
g62
(dp4232
sg71
g4226
sg64
(lp4233
g57
(g58
g59
NtRp4234
(dp4235
g62
(dp4236
g70
I1
ssg71
g4230
sg64
(lp4237
S'http://www.web2py.com'
p4238
asbasbasbag57
(g73
g59
NtRp4239
(dp4240
g62
(dp4241
sg71
g4197
sg64
(lp4242
g57
(g78
g59
NtRp4243
(dp4244
g62
(dp4245
sg71
g4239
sg64
(lp4246
g57
(g58
g59
NtRp4247
(dp4248
g62
(dp4249
g70
I1
ssg71
g4243
sg64
(lp4250
(lp4251
(g3702
(S't\x08\x00\x00\x00Download'
tRp4252
I00
S'http://www.web2py.com/examples/default/download'
p4253
tp4254
a(g3702
(S't\x07\x00\x00\x00Support'
tRp4255
I00
S'http://www.web2py.com/examples/default/support'
p4256
tp4257
a(g3702
(S't\x04\x00\x00\x00Demo'
tRp4258
I00
S'http://web2py.com/demo_admin'
p4259
tp4260
a(g3702
(S's\x0e\x00\x00\x00Quick Examples'
tRp4261
I00
S'http://web2py.com/examples/default/examples'
p4262
tp4263
a(g3702
(S't\x03\x00\x00\x00FAQ'
tRp4264
I00
S'http://web2py.com/AlterEgo'
p4265
tp4266
a(g3702
(S't\x06\x00\x00\x00Videos'
tRp4267
I00
S'http://www.web2py.com/examples/default/videos/'
p4268
tp4269
a(g3702
(S's\x11\x00\x00\x00Free Applications'
tRp4270
I00
S'http://web2py.com/appliances'
p4271
tp4272
a(g3702
(S't\x07\x00\x00\x00Plugins'
tRp4273
I00
S'http://web2py.com/plugins'
p4274
tp4275
a(g3702
(S't\x07\x00\x00\x00Layouts'
tRp4276
I00
S'http://web2py.com/layouts'
p4277
tp4278
a(g3702
(S't\x07\x00\x00\x00Recipes'
tRp4279
I00
S'http://web2pyslices.com/'
p4280
tp4281
a(g3702
(S't\x08\x00\x00\x00Semantic'
tRp4282
I00
S'http://web2py.com/semantic'
p4283
tp4284
aasbasbasbasbasbasbasbag57
(g73
g59
NtRp4285
(dp4286
g62
(dp4287
sg71
g4042
sg64
(lp4288
g57
(g78
g59
NtRp4289
(dp4290
g62
(dp4291
sg71
g4285
sg64
(lp4292
g57
(g58
g59
NtRp4293
(dp4294
g62
(dp4295
g70
I2
ssg71
g4289
sg64
(lp4296
g57
(g66
g59
NtRp4297
(dp4298
g62
(dp4299
g70
I1
ssg71
Nsg64
(lp4300
g57
(g73
g59
NtRp4301
(dp4302
g62
(dp4303
sg71
g4297
sg64
(lp4304
g57
(g78
g59
NtRp4305
(dp4306
g62
(dp4307
sg71
g4301
sg64
(lp4308
g57
(g58
g59
NtRp4309
(dp4310
g62
(dp4311
g70
I1
ssg71
g4305
sg64
(lp4312
g3702
(S't\r\x00\x00\x00Documentation'
tRp4313
asbasbasbag57
(g73
g59
NtRp4314
(dp4315
g62
(dp4316
sg71
g4297
sg64
(lp4317
g57
(g78
g59
NtRp4318
(dp4319
g62
(dp4320
sg71
g4314
sg64
(lp4321
g57
(g58
g59
NtRp4322
(dp4323
g62
(dp4324
g70
I1
ssg71
g4318
sg64
(lp4325
I00
asbasbasbag57
(g73
g59
NtRp4326
(dp4327
g62
(dp4328
sg71
g4297
sg64
(lp4329
g57
(g78
g59
NtRp4330
(dp4331
g62
(dp4332
sg71
g4326
sg64
(lp4333
g57
(g58
g59
NtRp4334
(dp4335
g62
(dp4336
g70
I1
ssg71
g4330
sg64
(lp4337
S'http://www.web2py.com/book'
p4338
asbasbasbag57
(g73
g59
NtRp4339
(dp4340
g62
(dp4341
sg71
g4297
sg64
(lp4342
g57
(g78
g59
NtRp4343
(dp4344
g62
(dp4345
sg71
g4339
sg64
(lp4346
g57
(g58
g59
NtRp4347
(dp4348
g62
(dp4349
g70
I1
ssg71
g4343
sg64
(lp4350
(lp4351
(g3702
(S't\x07\x00\x00\x00Preface'
tRp4352
I00
S'http://www.web2py.com/book/default/chapter/00'
p4353
tp4354
a(g3702
(S't\x0c\x00\x00\x00Introduction'
tRp4355
I00
S'http://www.web2py.com/book/default/chapter/01'
p4356
tp4357
a(g3702
(S't\x06\x00\x00\x00Python'
tRp4358
I00
S'http://www.web2py.com/book/default/chapter/02'
p4359
tp4360
a(g3702
(S't\x08\x00\x00\x00Overview'
tRp4361
I00
S'http://www.web2py.com/book/default/chapter/03'
p4362
tp4363
a(g3702
(S's\x08\x00\x00\x00The Core'
tRp4364
I00
S'http://www.web2py.com/book/default/chapter/04'
p4365
tp4366
a(g3702
(S's\t\x00\x00\x00The Views'
tRp4367
I00
S'http://www.web2py.com/book/default/chapter/05'
p4368
tp4369
a(g3702
(S't\x08\x00\x00\x00Database'
tRp4370
I00
S'http://www.web2py.com/book/default/chapter/06'
p4371
tp4372
a(g3702
(S's\x14\x00\x00\x00Forms and Validators'
tRp4373
I00
S'http://www.web2py.com/book/default/chapter/07'
p4374
tp4375
a(g3702
(S's\r\x00\x00\x00Email and SMS'
tRp4376
I00
S'http://www.web2py.com/book/default/chapter/08'
p4377
tp4378
a(g3702
(S's\x0e\x00\x00\x00Access Control'
tRp4379
I00
S'http://www.web2py.com/book/default/chapter/09'
p4380
tp4381
a(g3702
(S't\x08\x00\x00\x00Services'
tRp4382
I00
S'http://www.web2py.com/book/default/chapter/10'
p4383
tp4384
a(g3702
(S's\x0c\x00\x00\x00Ajax Recipes'
tRp4385
I00
S'http://www.web2py.com/book/default/chapter/11'
p4386
tp4387
a(g3702
(S's\x16\x00\x00\x00Components and Plugins'
tRp4388
I00
S'http://www.web2py.com/book/default/chapter/12'
p4389
tp4390
a(g3702
(S's\x12\x00\x00\x00Deployment Recipes'
tRp4391
I00
S'http://www.web2py.com/book/default/chapter/13'
p4392
tp4393
a(g3702
(S's\r\x00\x00\x00Other Recipes'
tRp4394
I00
S'http://www.web2py.com/book/default/chapter/14'
p4395
tp4396
a(g3702
(S's\r\x00\x00\x00Buy this book'
tRp4397
I00
S'http://stores.lulu.com/web2py'
p4398
tp4399
aasbasbasbasbasbasbasbag57
(g73
g59
NtRp4400
(dp4401
g62
(dp4402
sg71
g4042
sg64
(lp4403
g57
(g78
g59
NtRp4404
(dp4405
g62
(dp4406
sg71
g4400
sg64
(lp4407
g57
(g58
g59
NtRp4408
(dp4409
g62
(dp4410
g70
I2
ssg71
g4404
sg64
(lp4411
g57
(g66
g59
NtRp4412
(dp4413
g62
(dp4414
g70
I1
ssg71
Nsg64
(lp4415
g57
(g73
g59
NtRp4416
(dp4417
g62
(dp4418
sg71
g4412
sg64
(lp4419
g57
(g78
g59
NtRp4420
(dp4421
g62
(dp4422
sg71
g4416
sg64
(lp4423
g57
(g58
g59
NtRp4424
(dp4425
g62
(dp4426
g70
I1
ssg71
g4420
sg64
(lp4427
g3702
(S't\t\x00\x00\x00Community'
tRp4428
asbasbasbag57
(g73
g59
NtRp4429
(dp4430
g62
(dp4431
sg71
g4412
sg64
(lp4432
g57
(g78
g59
NtRp4433
(dp4434
g62
(dp4435
sg71
g4429
sg64
(lp4436
g57
(g58
g59
NtRp4437
(dp4438
g62
(dp4439
g70
I1
ssg71
g4433
sg64
(lp4440
I00
asbasbasbag57
(g73
g59
NtRp4441
(dp4442
g62
(dp4443
sg71
g4412
sg64
(lp4444
g57
(g78
g59
NtRp4445
(dp4446
g62
(dp4447
sg71
g4441
sg64
(lp4448
g57
(g58
g59
NtRp4449
(dp4450
g62
(dp4451
g70
I1
ssg71
g4445
sg64
(lp4452
Nasbasbasbag57
(g73
g59
NtRp4453
(dp4454
g62
(dp4455
sg71
g4412
sg64
(lp4456
g57
(g78
g59
NtRp4457
(dp4458
g62
(dp4459
sg71
g4453
sg64
(lp4460
g57
(g58
g59
NtRp4461
(dp4462
g62
(dp4463
g70
I1
ssg71
g4457
sg64
(lp4464
(lp4465
(g3702
(S't\x06\x00\x00\x00Groups'
tRp4466
I00
S'http://www.web2py.com/examples/default/usergroups'
p4467
tp4468
a(g3702
(S't\x07\x00\x00\x00Twitter'
tRp4469
I00
S'http://twitter.com/web2py'
p4470
tp4471
a(g3702
(S's\t\x00\x00\x00Live Chat'
tRp4472
I00
S'http://webchat.freenode.net/?channels=web2py'
p4473
tp4474
aasbasbasbasbasbasbasbag57
(g73
g59
NtRp4475
(dp4476
g62
(dp4477
sg71
g4042
sg64
(lp4478
g57
(g78
g59
NtRp4479
(dp4480
g62
(dp4481
sg71
g4475
sg64
(lp4482
g57
(g58
g59
NtRp4483
(dp4484
g62
(dp4485
g70
I2
ssg71
g4479
sg64
(lp4486
g57
(g66
g59
NtRp4487
(dp4488
g62
(dp4489
g70
I1
ssg71
Nsg64
(lp4490
g57
(g73
g59
NtRp4491
(dp4492
g62
(dp4493
sg71
g4487
sg64
(lp4494
g57
(g78
g59
NtRp4495
(dp4496
g62
(dp4497
sg71
g4491
sg64
(lp4498
g57
(g58
g59
NtRp4499
(dp4500
g62
(dp4501
g70
I1
ssg71
g4495
sg64
(lp4502
g3702
(S't\x07\x00\x00\x00Plugins'
tRp4503
asbasbasbag57
(g73
g59
NtRp4504
(dp4505
g62
(dp4506
sg71
g4487
sg64
(lp4507
g57
(g78
g59
NtRp4508
(dp4509
g62
(dp4510
sg71
g4504
sg64
(lp4511
g57
(g58
g59
NtRp4512
(dp4513
g62
(dp4514
g70
I1
ssg71
g4508
sg64
(lp4515
I00
asbasbasbag57
(g73
g59
NtRp4516
(dp4517
g62
(dp4518
sg71
g4487
sg64
(lp4519
g57
(g78
g59
NtRp4520
(dp4521
g62
(dp4522
sg71
g4516
sg64
(lp4523
g57
(g58
g59
NtRp4524
(dp4525
g62
(dp4526
g70
I1
ssg71
g4520
sg64
(lp4527
Nasbasbasbag57
(g73
g59
NtRp4528
(dp4529
g62
(dp4530
sg71
g4487
sg64
(lp4531
g57
(g78
g59
NtRp4532
(dp4533
g62
(dp4534
sg71
g4528
sg64
(lp4535
g57
(g58
g59
NtRp4536
(dp4537
g62
(dp4538
g70
I1
ssg71
g4532
sg64
(lp4539
(lp4540
(S'plugin_wiki'
p4541
I00
S'http://web2py.com/examples/default/download'
p4542
tp4543
a(g3702
(S's\r\x00\x00\x00Other Plugins'
tRp4544
I00
g4274
tp4545
a(g3702
(S's\x0e\x00\x00\x00Layout Plugins'
tRp4546
I00
g4277
tp4547
aasbasbasbasbasbasbasbasbasbasbasbasbasbasbasbasbasbasbasbag57
(g73
g59
NtRp4548
(dp4549
g62
(dp4550
sg71
g3371
sg64
(lp4551
g57
(g78
g59
NtRp4552
(dp4553
g62
(dp4554
g82
g83
ssg71
g4548
sg64
(lp4555
S'meta'
p4556
asbag57
(g78
g59
NtRp4557
(dp4558
g62
(dp4559
g89
g90
ssg71
g4548
sg64
(lp4560
S':'
asbag57
(g78
g59
NtRp4561
(dp4562
g62
(dp4563
sg71
g4548
sg64
(lp4564
g57
(g58
g59
NtRp4565
(dp4566
g62
(dp4567
g70
I5
ssg71
g4561
sg64
(lp4568
g57
(g66
g59
NtRp4569
(dp4570
g62
(dp4571
g70
I4
ssg71
Nsg64
(lp4572
g57
(g73
g59
NtRp4573
(dp4574
g62
(dp4575
sg71
g4569
sg64
(lp4576
g57
(g78
g59
NtRp4577
(dp4578
g62
(dp4579
g82
g83
ssg71
g4573
sg64
(lp4580
S'author'
p4581
asbag57
(g78
g59
NtRp4582
(dp4583
g62
(dp4584
g89
g90
ssg71
g4573
sg64
(lp4585
S':'
asbag57
(g78
g59
NtRp4586
(dp4587
g62
(dp4588
sg71
g4573
sg64
(lp4589
g57
(g58
g59
NtRp4590
(dp4591
g62
(dp4592
g70
I4
ssg71
g4586
sg64
(lp4593
S'Your Name <you@example.com>'
p4594
asbasbasbag57
(g73
g59
NtRp4595
(dp4596
g62
(dp4597
sg71
g4569
sg64
(lp4598
g57
(g78
g59
NtRp4599
(dp4600
g62
(dp4601
g82
g83
ssg71
g4595
sg64
(lp4602
S'copyright'
p4603
asbag57
(g78
g59
NtRp4604
(dp4605
g62
(dp4606
g89
g90
ssg71
g4595
sg64
(lp4607
S':'
asbag57
(g78
g59
NtRp4608
(dp4609
g62
(dp4610
sg71
g4595
sg64
(lp4611
g57
(g58
g59
NtRp4612
(dp4613
g62
(dp4614
g70
I4
ssg71
g4608
sg64
(lp4615
S'Copyright 2011'
p4616
asbasbasbag57
(g73
g59
NtRp4617
(dp4618
g62
(dp4619
sg71
g4569
sg64
(lp4620
g57
(g78
g59
NtRp4621
(dp4622
g62
(dp4623
g82
g83
ssg71
g4617
sg64
(lp4624
S'description'
p4625
asbag57
(g78
g59
NtRp4626
(dp4627
g62
(dp4628
g89
g90
ssg71
g4617
sg64
(lp4629
S':'
asbag57
(g78
g59
NtRp4630
(dp4631
g62
(dp4632
sg71
g4617
sg64
(lp4633
g57
(g58
g59
NtRp4634
(dp4635
g62
(dp4636
g70
I4
ssg71
g4630
sg64
(lp4637
S'a cool new app'
p4638
asbasbasbag57
(g73
g59
NtRp4639
(dp4640
g62
(dp4641
sg71
g4569
sg64
(lp4642
g57
(g78
g59
NtRp4643
(dp4644
g62
(dp4645
g82
g83
ssg71
g4639
sg64
(lp4646
S'generator'
p4647
asbag57
(g78
g59
NtRp4648
(dp4649
g62
(dp4650
g89
g90
ssg71
g4639
sg64
(lp4651
S':'
asbag57
(g78
g59
NtRp4652
(dp4653
g62
(dp4654
sg71
g4639
sg64
(lp4655
g57
(g58
g59
NtRp4656
(dp4657
g62
(dp4658
g70
I4
ssg71
g4652
sg64
(lp4659
S'Web2py Web Framework'
p4660
asbasbasbag57
(g73
g59
NtRp4661
(dp4662
g62
(dp4663
sg71
g4569
sg64
(lp4664
g57
(g78
g59
NtRp4665
(dp4666
g62
(dp4667
g82
g83
ssg71
g4661
sg64
(lp4668
S'keywords'
p4669
asbag57
(g78
g59
NtRp4670
(dp4671
g62
(dp4672
g89
g90
ssg71
g4661
sg64
(lp4673
S':'
asbag57
(g78
g59
NtRp4674
(dp4675
g62
(dp4676
sg71
g4661
sg64
(lp4677
g57
(g58
g59
NtRp4678
(dp4679
g62
(dp4680
g70
I4
ssg71
g4674
sg64
(lp4681
S'web2py, python, framework'
p4682
asbasbasbasbasbasbasbag57
(g73
g59
NtRp4683
(dp4684
g62
(dp4685
sg71
g3371
sg64
(lp4686
g57
(g78
g59
NtRp4687
(dp4688
g62
(dp4689
g82
g83
ssg71
g4683
sg64
(lp4690
S'postprocessing'
p4691
asbag57
(g78
g59
NtRp4692
(dp4693
g62
(dp4694
g89
g90
ssg71
g4683
sg64
(lp4695
S':'
asbag57
(g78
g59
NtRp4696
(dp4697
g62
(dp4698
sg71
g4683
sg64
(lp4699
g57
(g58
g59
NtRp4700
(dp4701
g62
(dp4702
g70
I5
ssg71
g4696
sg64
(lp4703
g57
(g66
g59
NtRp4704
(dp4705
g62
(dp4706
g70
I4
ssg71
Nsg64
(lp4707
sbasbasbasbag57
(g73
g59
NtRp4708
(dp4709
g62
(dp4710
sg71
g3371
sg64
(lp4711
g57
(g78
g59
NtRp4712
(dp4713
g62
(dp4714
g82
g83
ssg71
g4708
sg64
(lp4715
S'session_file'
p4716
asbag57
(g78
g59
NtRp4717
(dp4718
g62
(dp4719
g89
g90
ssg71
g4708
sg64
(lp4720
S':'
asbag57
(g78
g59
NtRp4721
(dp4722
g62
(dp4723
sg71
g4708
sg64
(lp4724
g57
(g58
g59
NtRp4725
(dp4726
g62
(dp4727
g70
I5
ssg71
g4721
sg64
(lp4728
S"<open file 'C:\\Documents and Settings\\agrover\\Desktop\\previous crawler\\web2py\\applications\\mycrawler\\sessions\\127.0.0.1-e33c895d-efcf-4795-8169-7cf95d1f13b6', mode 'rb+' at 0x04BF48B8>"
p4729
asbasbasbag57
(g73
g59
NtRp4730
(dp4731
g62
(dp4732
sg71
g3371
sg64
(lp4733
g57
(g78
g59
NtRp4734
(dp4735
g62
(dp4736
g82
g83
ssg71
g4730
sg64
(lp4737
S'session_filename'
p4738
asbag57
(g78
g59
NtRp4739
(dp4740
g62
(dp4741
g89
g90
ssg71
g4730
sg64
(lp4742
S':'
asbag57
(g78
g59
NtRp4743
(dp4744
g62
(dp4745
sg71
g4730
sg64
(lp4746
g57
(g58
g59
NtRp4747
(dp4748
g62
(dp4749
g70
I5
ssg71
g4743
sg64
(lp4750
S'C:\\Documents and Settings\\agrover\\Desktop\\previous crawler\\web2py\\applications\\mycrawler\\sessions\\127.0.0.1-e33c895d-efcf-4795-8169-7cf95d1f13b6'
p4751
asbasbasbag57
(g73
g59
NtRp4752
(dp4753
g62
(dp4754
sg71
g3371
sg64
(lp4755
g57
(g78
g59
NtRp4756
(dp4757
g62
(dp4758
g82
g83
ssg71
g4752
sg64
(lp4759
S'session_id'
p4760
asbag57
(g78
g59
NtRp4761
(dp4762
g62
(dp4763
g89
g90
ssg71
g4752
sg64
(lp4764
S':'
asbag57
(g78
g59
NtRp4765
(dp4766
g62
(dp4767
sg71
g4752
sg64
(lp4768
g57
(g58
g59
NtRp4769
(dp4770
g62
(dp4771
g70
I5
ssg71
g4765
sg64
(lp4772
S'127.0.0.1-e33c895d-efcf-4795-8169-7cf95d1f13b6'
p4773
asbasbasbag57
(g73
g59
NtRp4774
(dp4775
g62
(dp4776
sg71
g3371
sg64
(lp4777
g57
(g78
g59
NtRp4778
(dp4779
g62
(dp4780
g82
g83
ssg71
g4774
sg64
(lp4781
S'session_id_name'
p4782
asbag57
(g78
g59
NtRp4783
(dp4784
g62
(dp4785
g89
g90
ssg71
g4774
sg64
(lp4786
S':'
asbag57
(g78
g59
NtRp4787
(dp4788
g62
(dp4789
sg71
g4774
sg64
(lp4790
g57
(g58
g59
NtRp4791
(dp4792
g62
(dp4793
g70
I5
ssg71
g4787
sg64
(lp4794
g3428
asbasbasbag57
(g73
g59
NtRp4795
(dp4796
g62
(dp4797
sg71
g3371
sg64
(lp4798
g57
(g78
g59
NtRp4799
(dp4800
g62
(dp4801
g82
g83
ssg71
g4795
sg64
(lp4802
S'session_locked'
p4803
asbag57
(g78
g59
NtRp4804
(dp4805
g62
(dp4806
g89
g90
ssg71
g4795
sg64
(lp4807
S':'
asbag57
(g78
g59
NtRp4808
(dp4809
g62
(dp4810
sg71
g4795
sg64
(lp4811
g57
(g58
g59
NtRp4812
(dp4813
g62
(dp4814
g70
I5
ssg71
g4808
sg64
(lp4815
g1742
asbasbasbag57
(g73
g59
NtRp4816
(dp4817
g62
(dp4818
sg71
g3371
sg64
(lp4819
g57
(g78
g59
NtRp4820
(dp4821
g62
(dp4822
g82
g83
ssg71
g4816
sg64
(lp4823
S'session_new'
p4824
asbag57
(g78
g59
NtRp4825
(dp4826
g62
(dp4827
g89
g90
ssg71
g4816
sg64
(lp4828
S':'
asbag57
(g78
g59
NtRp4829
(dp4830
g62
(dp4831
sg71
g4816
sg64
(lp4832
g57
(g58
g59
NtRp4833
(dp4834
g62
(dp4835
g70
I5
ssg71
g4829
sg64
(lp4836
g100
asbasbasbag57
(g73
g59
NtRp4837
(dp4838
g62
(dp4839
sg71
g3371
sg64
(lp4840
g57
(g78
g59
NtRp4841
(dp4842
g62
(dp4843
g82
g83
ssg71
g4837
sg64
(lp4844
S'status'
p4845
asbag57
(g78
g59
NtRp4846
(dp4847
g62
(dp4848
g89
g90
ssg71
g4837
sg64
(lp4849
S':'
asbag57
(g78
g59
NtRp4850
(dp4851
g62
(dp4852
sg71
g4837
sg64
(lp4853
g57
(g58
g59
NtRp4854
(dp4855
g62
(dp4856
g70
I5
ssg71
g4850
sg64
(lp4857
S'200'
p4858
asbasbasbag57
(g73
g59
NtRp4859
(dp4860
g62
(dp4861
sg71
g3371
sg64
(lp4862
g57
(g78
g59
NtRp4863
(dp4864
g62
(dp4865
g82
g83
ssg71
g4859
sg64
(lp4866
S'subtitle'
p4867
asbag57
(g78
g59
NtRp4868
(dp4869
g62
(dp4870
g89
g90
ssg71
g4859
sg64
(lp4871
S':'
asbag57
(g78
g59
NtRp4872
(dp4873
g62
(dp4874
sg71
g4859
sg64
(lp4875
g57
(g58
g59
NtRp4876
(dp4877
g62
(dp4878
g70
I5
ssg71
g4872
sg64
(lp4879
g3702
(S's\r\x00\x00\x00customize me!'
tRp4880
asbasbasbag57
(g73
g59
NtRp4881
(dp4882
g62
(dp4883
sg71
g3371
sg64
(lp4884
g57
(g78
g59
NtRp4885
(dp4886
g62
(dp4887
g82
g83
ssg71
g4881
sg64
(lp4888
S'title'
p4889
asbag57
(g78
g59
NtRp4890
(dp4891
g62
(dp4892
g89
g90
ssg71
g4881
sg64
(lp4893
S':'
asbag57
(g78
g59
NtRp4894
(dp4895
g62
(dp4896
sg71
g4881
sg64
(lp4897
g57
(g58
g59
NtRp4898
(dp4899
g62
(dp4900
g70
I5
ssg71
g4894
sg64
(lp4901
S'Mycrawler'
p4902
asbasbasbag57
(g73
g59
NtRp4903
(dp4904
g62
(dp4905
sg71
g3371
sg64
(lp4906
g57
(g78
g59
NtRp4907
(dp4908
g62
(dp4909
g82
g83
ssg71
g4903
sg64
(lp4910
g2450
asbag57
(g78
g59
NtRp4911
(dp4912
g62
(dp4913
g89
g90
ssg71
g4903
sg64
(lp4914
S':'
asbag57
(g78
g59
NtRp4915
(dp4916
g62
(dp4917
sg71
g4903
sg64
(lp4918
g57
(g58
g59
NtRp4919
(dp4920
g62
(dp4921
g70
I5
ssg71
g4915
sg64
(lp4922
g2463
asbasbasbag57
(g73
g59
NtRp4923
(dp4924
g62
(dp4925
sg71
g3371
sg64
(lp4926
g57
(g78
g59
NtRp4927
(dp4928
g62
(dp4929
g82
g83
ssg71
g4923
sg64
(lp4930
S'view'
p4931
asbag57
(g78
g59
NtRp4932
(dp4933
g62
(dp4934
g89
g90
ssg71
g4923
sg64
(lp4935
S':'
asbag57
(g78
g59
NtRp4936
(dp4937
g62
(dp4938
sg71
g4923
sg64
(lp4939
g57
(g58
g59
NtRp4940
(dp4941
g62
(dp4942
g70
I5
ssg71
g4936
sg64
(lp4943
S'default/upload.html'
p4944
asbasbasbasbasbsS'locals'
p4945
(dp4946
S'em'
p4947
S'5'
sS'c'
S"<open file 'C:\\Documents and Settings\\agrover\\De...69206368617267656261636b2e435356.CSV', mode 'rb'>"
p4948
sS'head1'
p4949
S"['Event', 'FIRSTNAME', 'LASTNAME', 'OTHERNAME', 'OTHERNAME', 'EMAIL', 'Title', 'COMPANYNAME', 'Address', 'City/State']"
p4950
sS'firstname'
p4951
S'3'
sS'companyname'
p4952
S'18'
p4953
sS'lastname'
p4954
S'2'
sS'k'
S"r'C:\\Documents and Settings\\agrover\\Desktop\\previo...00fc86f2.636269206368617267656261636b2e435356.CSV'"
p4955
sS'writer'
p4956
S'<_csv.writer object>'
p4957
sS'inp'
p4958
S'<_csv.reader object>'
p4959
sS'o'
S"<open file 'C:\\Documents and Settings\\agrover\\De...ns\\mycrawler\\dataloader\\contacts.csv', mode 'rb'>"
p4960
sS'email'
p4961
S'4'
sS'lname'
p4962
S'2'
sg3749
S"['ID', 'ACCOUNTID', 'LASTNAME', 'FIRSTNAME', 'EMAIL', 'TITLE', 'DEPARTMENT', 'LEADSOURCE', 'OWNERID', 'CREATEDDATE', 'CREATEDBYID', 'LASTMODIFIEDDATE', 'LASTMODIFIEDBYID', 'EMAIL_STATUS__C', 'DEPARTMENT_FUNCTION__C', 'TITLE_LEVEL__C', 'REGION__C', 'COVERAGE__C', 'COMPANYNAME']"
p4963
sS'check'
p4964
S'<_csv.reader object>'
p4965
sssS'traceback'
p4966
S'Traceback (most recent call last):\n  File "C:\\Documents and Settings\\agrover\\Desktop\\previous crawler\\web2py\\gluon\\restricted.py", line 205, in restricted\n    exec ccode in environment\n  File "C:\\Documents and Settings\\agrover\\Desktop\\previous crawler\\web2py\\applications\\mycrawler\\controllers/default.py", line 820, in <module>\n  File "C:\\Documents and Settings\\agrover\\Desktop\\previous crawler\\web2py\\gluon\\globals.py", line 173, in <lambda>\n    self._caller = lambda f: f()\n  File "C:\\Documents and Settings\\agrover\\Desktop\\previous crawler\\web2py\\applications\\mycrawler\\controllers/default.py", line 580, in upload\n    temp()\n  File "C:\\Documents and Settings\\agrover\\Desktop\\previous crawler\\web2py\\applications\\mycrawler\\controllers/default.py", line 620, in temp\n    title=head1.index(\'TITLE\')\nValueError: \'TITLE\' is not in list\n'
p4967
s.