(dp1
S'output'
p2
S"<class 'mechanize._form.ItemNotFoundError'> insufficient items with name 'United States'"
p3
sS'layer'
p4
S'C:\\Documents and Settings\\agrover\\Desktop\\previous crawler\\web2py\\applications\\mycrawler\\controllers/default.py'
p5
sS'code'
p6
S'# -*- coding: utf-8 -*-\n# this file is released under public domain and you can use without limitations\n\n#########################################################################\n## This is a samples controller\n## - index is the default action of any application\n## - user is required for authentication and authorization\n## - download is for downloading files uploaded in the db (does streaming)\n## - call exposes all registered services (none by default)\n#########################################################################\nimport cStringIO\nimport csv\nimport re\ncountry=[\'United States\', \'Afghanistan\', \'Aland Islands\', \'Albania\', \'Algeria\', \'American Samoa\', \'Andorra\', \'Angola\', \'Anguilla\', \'Antarctica\', \'Antigua and Barbuda\', \'Argentina\', \'Armenia\', \'Aruba\', \'Australia\', \'Austria\', \'Azerbaijan\', \'Bahamas\', \'Bahrain\', \'Bangladesh\', \'Barbados\', \'Belarus\', \'Belgium\', \'Belize\', \'Benin\', \'Bermuda\', \'Bhutan\', \'Bolivia\', \'Bosnia and Herzegovina\', \'Botswana\', \'Brazil\', \'British Indian Ocean Territory\', \'Brunei Darussalam\', \'Bulgaria\', \'Burkina Faso\', \'Burundi\', \'Cambodia\', \'Cameroon\', \'Canada\', \'Cape Verde\', \'Caribbean Nations\', \'Cayman Islands\', \'Central African Republic\', \'Chad\', \'Chile\', \'China\', \'Christmas Island\', \'Cocos (Keeling) Islands\', \'Colombia\', \'Comoros\', \'Congo\', \'Cook Islands\', \'Costa Rica\', "Cote D\'Ivoire (Ivory Coast)", \'Croatia\', \'Cuba\', \'Cyprus\', \'Czech Republic\', \'Democratic Republic of the Congo\', \'Denmark\', \'Djibouti\', \'Dominica\', \'Dominican Republic\', \'East Timor\', \'Ecuador\', \'Egypt\', \'El Salvador\', \'Equatorial Guinea\', \'Eritrea\', \'Estonia\', \'Ethiopia\', \'Falkland Islands (Malvinas)\', \'Faroe Islands\', \'Federated States of Micronesia\', \'Fiji\', \'Finland\', \'France\', \'French Guiana\', \'French Polynesia\', \'French Southern Territories\', \'Gabon\', \'Gambia\', \'Georgia\', \'Germany\', \'Ghana\', \'Gibraltar\', \'Greece\', \'Greenland\', \'Grenada\', \'Guadeloupe\', \'Guam\', \'Guatemala\', \'Guernsey\', \'Guinea\', \'Guinea-Bissau\', \'Guyana\', \'Haiti\', \'Honduras\', \'Hong Kong\', \'Hungary\', \'Iceland\', \'India\', \'Indonesia\', \'Iran\', \'Iraq\', \'Ireland\', \'Isle of Man\', \'Israel\', \'Italy\', \'Jamaica\', \'Japan\', \'Jersey\', \'Jordan\', \'Kazakhstan\', \'Kenya\', \'Kiribati\', \'Korea\', \'Korea (North)\', \'Kuwait\', \'Kyrgyzstan\', \'Laos\', \'Latvia\', \'Lebanon\', \'Lesotho\', \'Liberia\', \'Libya\', \'Liechtenstein\', \'Lithuania\', \'Luxembourg\', \'Macao\', \'Macedonia\', \'Madagascar\', \'Malawi\', \'Malaysia\', \'Maldives\', \'Mali\', \'Malta\', \'Marshall Islands\', \'Martinique\', \'Mauritania\', \'Mauritius\', \'Mayotte\', \'Mexico\', \'Moldova\', \'Monaco\', \'Mongolia\', \'Montenegro\', \'Montserrat\', \'Morocco\', \'Mozambique\', \'Myanmar\', \'Namibia\', \'Nauru\', \'Nepal\', \'Netherlands\', \'Netherlands Antilles\', \'New Caledonia\', \'New Zealand\', \'Nicaragua\', \'Niger\', \'Nigeria\', \'Niue\', \'Norfolk Island\', \'Northern Mariana Islands\', \'Norway\', \'Oman\', \'Pakistan\', \'Palau\', \'Palestinian Territory\', \'Panama\', \'Papua New Guinea\', \'Paraguay\', \'Peru\', \'Philippines\', \'Pitcairn\', \'Poland\', \'Portugal\', \'Puerto Rico\', \'Qatar\', \'Reunion\', \'Romania\', \'Russian Federation\', \'Rwanda\', \'Saint Helena\', \'Saint Kitts and Nevis\', \'Saint Lucia\', \'Saint Pierre and Miquelon\', \'Saint Vincent and the Grenadines\', \'Samoa\', \'San Marino\', \'Sao Tome and Principe\', \'Saudi Arabia\', \'Senegal\', \'Serbia\', \'Seychelles\', \'Sierra Leone\', \'Singapore\', \'Slovak Republic\', \'Slovenia\', \'Solomon Islands\', \'Somalia\', \'South Africa\', \'Spain\', \'Sri Lanka\', \'Sudan\', \'Suriname\', \'Svalbard and Jan Mayen\', \'Swaziland\', \'Sweden\', \'Switzerland\', \'Syria\', \'Taiwan\', \'Tajikistan\', \'Tanzania\', \'Thailand\', \'Timor-Leste\', \'Togo\', \'Tokelau\', \'Tonga\', \'Trinidad and Tobago\', \'Tunisia\', \'Turkey\', \'Turkmenistan\', \'Turks and Caicos Islands\', \'Tuvalu\', \'Uganda\', \'Ukraine\', \'United Arab Emirates\', \'United Kingdom\', \'Uruguay\', \'Uzbekistan\', \'Vanuatu\', \'Vatican City State (Holy See)\', \'Venezuela\', \'Vietnam\', \'Virgin Islands (British)\', \'Virgin Islands (U.S.)\', \'Wallis and Futuna\', \'Western Sahara\', \'Yemen\', \'Zambia\', \'Zimbabwe\', \'Other\']\n    \ncountryid=[\'us\', \'af\', \'ax\', \'al\', \'dz\', \'as\', \'ad\', \'ao\', \'ai\', \'aq\', \'ag\', \'ar\', \'am\', \'aw\', \'au\', \'at\', \'az\', \'bs\', \'bh\', \'bd\', \'bb\', \'by\', \'be\', \'bz\', \'bj\', \'bm\', \'bt\', \'bo\', \'ba\', \'bw\', \'br\', \'io\', \'bn\', \'bg\', \'bf\', \'bi\', \'kh\', \'cm\', \'ca\', \'cv\', \'cb\', \'ky\', \'cf\', \'td\', \'cl\', \'cn\', \'cx\', \'cc\', \'co\', \'km\', \'cg\', \'ck\', \'cr\', \'ci\', \'hr\', \'cu\', \'cy\', \'cz\', \'cd\', \'dk\', \'dj\', \'dm\', \'do\', \'tp\', \'ec\', \'eg\', \'sv\', \'gq\', \'er\', \'ee\', \'et\', \'fk\', \'fo\', \'fm\', \'fj\', \'fi\', \'fr\', \'gf\', \'pf\', \'tf\', \'ga\', \'gm\', \'ge\', \'de\', \'gh\', \'gi\', \'gr\', \'gl\', \'gd\', \'gp\', \'gu\', \'gt\', \'gg\', \'gn\', \'gw\', \'gy\', \'ht\', \'hn\', \'hk\', \'hu\', \'is\', \'in\', \'id\', \'ir\', \'iq\', \'ie\', \'im\', \'il\', \'it\', \'jm\', \'jp\', \'je\', \'jo\', \'kz\', \'ke\', \'ki\', \'kr\', \'kp\', \'kw\', \'kg\', \'la\', \'lv\', \'lb\', \'ls\', \'lr\', \'ly\', \'li\', \'lt\', \'lu\', \'mo\', \'mk\', \'mg\', \'mw\', \'my\', \'mv\', \'ml\', \'mt\', \'mh\', \'mq\', \'mr\', \'mu\', \'yt\', \'mx\', \'md\', \'mc\', \'mn\', \'me\', \'ms\', \'ma\', \'mz\', \'mm\', \'na\', \'nr\', \'np\', \'nl\', \'an\', \'nc\', \'nz\', \'ni\', \'ne\', \'ng\', \'nu\', \'nf\', \'mp\', \'no\', \'om\', \'pk\', \'pw\', \'ps\', \'pa\', \'pg\', \'py\', \'pe\', \'ph\', \'pn\', \'pl\', \'pt\', \'pr\', \'qa\', \'re\', \'ro\', \'ru\', \'rw\', \'sh\', \'kn\', \'lc\', \'pm\', \'vc\', \'ws\', \'sm\', \'st\', \'sa\', \'sn\', \'rs\', \'sc\', \'sl\', \'sg\', \'sk\', \'si\', \'sb\', \'so\', \'za\', \'es\', \'lk\', \'sd\', \'sr\', \'sj\', \'sz\', \'se\', \'ch\', \'sy\', \'tw\', \'tj\', \'tz\', \'th\', \'tl\', \'tg\', \'tk\', \'to\', \'tt\', \'tn\', \'tr\', \'tm\', \'tc\', \'tv\', \'ug\', \'ua\', \'ae\', \'gb\', \'uy\', \'uz\', \'vu\', \'va\', \'ve\', \'vn\', \'vg\', \'vi\', \'wf\', \'eh\', \'ye\', \'zm\', \'zw\', \'oo\']\n    \ndef index():\n    """\n    example action using the internationalization operator T and flash\n    rendered by views/default/index.html or views/generic.html\n    """\n    response.flash = "Welcome to web2py!"\n    return dict(message=T(\'Hello World\'))\n\ndef user():\n    """\n    exposes:\n    http://..../[app]/default/user/login\n    http://..../[app]/default/user/logout\n    http://..../[app]/default/user/register\n    http://..../[app]/default/user/profile\n    http://..../[app]/default/user/retrieve_password\n    http://..../[app]/default/user/change_password\n    use @auth.requires_login()\n        @auth.requires_membership(\'group name\')\n        @auth.requires_permission(\'read\',\'table name\',record_id)\n    to decorate functions that need access control\n    """\n    return dict(form=auth())\n\n\ndef download():\n    """\n    allows downloading of uploaded files\n    http://..../[app]/default/download/[filename]\n    """\n    return response.download(request,db)\n\n\ndef call():\n    """\n    exposes services. for example:\n    http://..../[app]/default/call/jsonrpc\n    decorate with @services.jsonrpc the functions to expose\n    supports xml, json, xmlrpc, jsonrpc, amfrpc, rss, csv\n    """\n    return service()\n\n\n@auth.requires_signature()\ndef data():\n    """\n    http://..../[app]/default/data/tables\n    http://..../[app]/default/data/create/[table]\n    http://..../[app]/default/data/read/[table]/[id]\n    http://..../[app]/default/data/update/[table]/[id]\n    http://..../[app]/default/data/delete/[table]/[id]\n    http://..../[app]/default/data/select/[table]\n    http://..../[app]/default/data/search/[table]\n    but URLs must be signed, i.e. linked with\n      A(\'table\',_href=URL(\'data/tables\',user_signature=True))\n    or with the signed load operator\n      LOAD(\'default\',\'data.load\',args=\'tables\',ajax=True,user_signature=True)\n    """\n    return dict(form=crud())\n\n#def enter_info():\n\n#     form = SQLFORM.factory(\n#         Field(\'First_Name\'),\n#         Field(\'Last_Name\'),\n#         Field(\'Keywords\'),\n#         Field(\'Title\'),\n#         Field(\'Company\'),\n#         Field(\'School\'))\n         #Field(\'Submit\',\'submit\'))\n#    if form.process().accepted:\n#        response.flash = \'form accepted\'\n#    elif form.errors:\n#        response.flash = \'form has errors\'\n    \n    #form=FORM(\'First Name:\',INPUT(_name=\'fname\',_id=\'fname\'),\n     #         \'Last Name:\',INPUT(_name=\'lname\',_id=\'lname\'),\n      #        \'Keywords:\',INPUT(_name=\'keywords\',_id=\'keywords\'),\n       #       \'Title:\',INPUT(_name=\'title\',_id=\'title\'),\n       #       \'Company:\',INPUT(_name=\'company\',_id=\'company\'),\n       #       \'School:\',INPUT(_name=\'school\',_id=\'school\'),\n              \n        #      INPUT(_type=\'submit\',_value=\'Submit\',_id=\'submit\'))\n    #if form.accepts(request,session):\n    #    response.flash = \'form accepted\'\n    #    redirect(URL(r=request,f=\'search\',vars=request.vars))\n#    return dict(form=form\n    \ndef enter_info():\n    \n    form = SQLFORM.factory(\n       Field(\'First_Name\'),\n       Field(\'Last_Name\'),\n       Field(\'Keywords\'),\n       Field(\'Title\'),\n       Field(\'Company\'),\n       Field(\'School\'),\n       Field(\'File_Name\',requires=IS_NOT_EMPTY()),\n       Field(\'Country\',requires=IS_IN_SET(country)))\n    \n    if form.process().accepted:\n        response.flash = \'form accepted\'\n        redirect(URL(r=request,f=\'search\',vars=request.vars))\n    #    session.your_name = form.vars.your_name\n     #   session.filename = form.vars.your_image\n    elif form.errors:\n        response.flash = \'form has errors\'\n    return dict(form=form)\n    \n\ndef search():\n    import mechanize\n    import cookielib\n    import html2text\n    from bs4 import BeautifulSoup\n    \n    \n    # Browser    \n    br = mechanize.Browser()\n\n    # Cookie Jar\n    cj = cookielib.LWPCookieJar()\n    br.set_cookiejar(cj)\n\n    # Browser options\n    br.set_handle_equiv(True)\n    br.set_handle_gzip(True)\n    br.set_handle_redirect(True)\n    br.set_handle_referer(True)\n    br.set_handle_robots(False)\n\n    # Follows refresh 0 but not hangs on refresh > 0\n    br.set_handle_refresh(mechanize._http.HTTPRefreshProcessor(), max_time=1)\n\n    # User-Agent (this is cheating, ok?)\n    br.addheaders = [(\'User-agent\', \'Mozilla/5.0 (X11; U; Linux i686; en-US; rv:1.9.0.1) Gecko/2008071615 Fedora/3.0.1-1.fc9 Firefox/3.0.1\')]\n\n\n    # The site we will navigate into, handling it\'s session    \n    br.open(\'https://www.linkedin.com\')\n\n    # Select the first (index zero) form\n    br.select_form(nr=0)\n\n    #for b in br.forms():\n    #    print b\n\n    # User credentials\n    br.form[\'session_key\'] = \'dummy.modeln@gmail.com\'\n    br.form[\'session_password\'] = \'iiit$123\'\n\n\n\n    # Login\n    br.submit()\n\n    br.open(\'http://www.linkedin.com/search?trk=advsrch\')\n    br.select_form(nr=1)\n    #print br\n\n    if request.vars.Last_Name:\n        br["lname"]=request.vars.Last_Name\n\n    if request.vars.First_Name:\n        br["fname"]=request.vars.First_Name\n    \n    if request.vars.Keywords:\n        br["keywords"]=request.vars.Keywords\n\n    if request.vars.Company:\n        br["company"]=request.vars.Company\n\n    if request.vars.School:\n        br["school"]=request.vars.School\n\n    if request.vars.Title:\n        br["title"]=request.vars.Title\n        \n    countryid[country.index(request.vars.Country)]=\'*\'+countryid[country.index(request.vars.Country)]\n    if request.vars.Country:\n        br[\'countryCode\']=[request.vars.Country]\n    br.submit()\n\n    view_profile=[]\n    name=[]\n    titl=[]\n    location=[]\n    industry=[]\n    current=[]\n    \n    spamWriter = csv.writer(open(request.vars.File_Name+\'.csv\', \'wb\'), delimiter=\',\')\n    soup = BeautifulSoup(br.response().read())\n    spamWriter.writerow([\'NAME\',\'JOB-TITLE\',\'Current\',\'LOCATION\',\'INDUSTRY\',\'PROFLE-URL\'])\n    \n    while soup.find(\'a\',{"class" : "paginator-next"}):\n    #for i in range(1,2):\n        view_profile=[]\n        name=[]\n        titl=[]\n        location=[]\n        industry=[]\n        current=[]\n        for k in soup.find_all(\'dl\',{"class" : "vcard-basic"}):\n            if k.find(\'dd\',{"class" : "title"}):\n                    titl.append(k.find(\'dd\',{"class" : "title"}).get_text())\n            else:\n                    titl.append(\'NONE\')\n                            \n            if k.find(\'span\',{"class" : "location"}):\n                    location.append(k.find(\'span\',{"class" : "location"}).get_text())\n            else:\n                    location.append(\'NONE\')\n            if k.find(\'span\',{"class" : "industry"}).get_text():\n                    industry.append(k.find(\'span\',{"class" : "industry"}).get_text())\n            else:\n                    industry.append(\'NONE\')\n                \n        for k in soup.find_all(\'dl\',{"class" : "vcard-expanded"}):\n            if k.find(\'span\',{"class" : "current-details more-text"}):\n                    current.append(k.find(\'span\',{"class" : "current-details more-text"}).get_text())\n            elif k.find(\'span\',{"class" : "current-details"}):\n                    current.append(k.find(\'span\',{"class" : "current-details"}).get_text())\n            else:\n                    current.append(\'NONE\')\n                \n        for l in soup.find_all(\'a\',{"title" : "View Profile"}):\n            #print l.get_text()\n            view_profile.append(\'http://www.linkedin.com\'+l.get(\'href\'))\n            name.append(l.get_text().encode(\'utf-8\'))\n        \n        for i in range(0,10):\n            spamWriter.writerow([name[i][1:len(name[i])-1].encode(\'utf-8\'),titl[i],current[i],location[i][1:len(location[i])-1],industry[i][1:len(industry[i])-1],view_profile[i]])\n\n        br.open(\'http://www.linkedin.com\'+ soup.find(\'a\',{"class" : "paginator-next"}).get(\'href\'))\n        soup = BeautifulSoup(br.response().read())\n     \n        \n\n    #for link in soup.find_all(\'a\'):\n    #    if link.get(\'title\')==\'View Profile\':\n    #        #print(link.get(\'href\'))\n    #        #print link.get_text()\n    #        view_profile.append(\'http://www.linkedin.com\'+link.get(\'href\'))\n    #        name.append(link.get_text())\n#for l in soup.find_all("span", { "class" : "given-name" }):\n    #print l.get_text()\n\n        \n\n#    for l in soup.find_all(\'dd\',{"class" : "title"}):\n        #print l.get_text()\n#        titl.append(l.get_text())\n    \n#    for l in soup.find_all(\'span\',{"class" : "location"}):\n        #print l.get_text()\n#        location.append(l.get_text())\n\n#    for l in soup.find_all(\'span\',{"class" : "industry"}):\n        #print l.get_text()\n#        industry.append(l.get_text())\n        \n#    for l in soup.find_all(\'span\', {"class" : "current-details"}):\n#        k=l.get_text()\n#        if k[len(k)-4:len(k)]!=\'more\':\n#            current.append(k)\n        #elif(l.get["class"]==\'current-details more text\'):\n        #    current.append(l.get_text())\n    #for l in soup.find_all(\'span\',{"class" : "current-details"}):\n        #print l.get_text()\n        #current.append(l.get_text())\n\n    \n    #global filename,csv_response\n\n    #csv_response = cStringIO.StringIO()\n    \n    #spamWriter = csv.writer(csv_response, delimiter=\',\')\n    \n    #spamWriter.writerow([\'NAME\',\'JOB-TITLE\',\'COMPANY-NAME\',\'LOCATION\',\'INDUSTRY\',\'PROFLE-URL\'])\n   \n    #spamWriter = csv.writer(open(request.vars.File_Name+\'.csv\', \'wb\'), delimiter=\',\')\n    #spamWriter.writerow([\'NAME\',\'JOB-TITLE\',\'Current\',\'LOCATION\',\'INDUSTRY\',\'PROFLE-URL\'])\n    #for i in range(1,10):\n    #    spamWriter.writerow([name[i].encode(\'utf-8\'),titl[i],current[i],location[i],industry[i],view_profile[i]])\n        \n        \n    #,titl[i],current[i],location[i],industry[i],view_profile[i]\n    #response.headers[\'Content-Type\'] = \'text/csv\'\n    #response.headers[\'Content-Disposition\'] = \'attachment; filename=%s\' % request.vars.File_Name\n\n    #print view_profile\n    #print name\n    #print location\n    #print industry\n    #print titl\n    \n    return dict(view_profile=view_profile,name=name,location=location,industry=industry,titl=titl,current=current)\n\nresponse._vars=response._caller(search)\n'
p7
sS'snapshot'
p8
(dp9
S'exception'
p10
(dp11
S'__module__'
p12
S"'mechanize._form'"
p13
sS'__getslice__'
p14
S"<method-wrapper '__getslice__' of ItemNotFoundError object>"
p15
sS'__str__'
p16
S"<method-wrapper '__str__' of ItemNotFoundError object>"
p17
sS'__reduce__'
p18
S'<built-in method __reduce__ of ItemNotFoundError object>'
p19
sS'__dict__'
p20
S'{}'
p21
sS'__sizeof__'
p22
S'<built-in method __sizeof__ of ItemNotFoundError object>'
p23
sS'__weakref__'
p24
S'None'
p25
sS'__init__'
p26
S"<method-wrapper '__init__' of ItemNotFoundError object>"
p27
sS'__setattr__'
p28
S"<method-wrapper '__setattr__' of ItemNotFoundError object>"
p29
sS'__reduce_ex__'
p30
S'<built-in method __reduce_ex__ of ItemNotFoundError object>'
p31
sS'__new__'
p32
S'<built-in method __new__ of type object>'
p33
sS'__format__'
p34
S'<built-in method __format__ of ItemNotFoundError object>'
p35
sS'__class__'
p36
S"<class 'mechanize._form.ItemNotFoundError'>"
p37
sS'__doc__'
p38
S'None'
p39
sS'__getitem__'
p40
S"<method-wrapper '__getitem__' of ItemNotFoundError object>"
p41
sS'__setstate__'
p42
S'<built-in method __setstate__ of ItemNotFoundError object>'
p43
sS'__getattribute__'
p44
S"<method-wrapper '__getattribute__' of ItemNotFoundError object>"
p45
sS'args'
p46
S'("insufficient items with name \'United States\'",)'
p47
sS'__subclasshook__'
p48
S'<built-in method __subclasshook__ of type object>'
p49
sS'__unicode__'
p50
S'<built-in method __unicode__ of ItemNotFoundError object>'
p51
sS'__delattr__'
p52
S"<method-wrapper '__delattr__' of ItemNotFoundError object>"
p53
sS'__repr__'
p54
S"<method-wrapper '__repr__' of ItemNotFoundError object>"
p55
sS'__hash__'
p56
S"<method-wrapper '__hash__' of ItemNotFoundError object>"
p57
ssS'evalue'
p58
S"insufficient items with name 'United States'"
p59
sS'request'
p60
ccopy_reg
_reconstructor
p61
(cgluon.html
BEAUTIFY
p62
c__builtin__
object
p63
NtRp64
(dp65
S'attributes'
p66
(dp67
sS'components'
p68
(lp69
g61
(cgluon.html
TABLE
p70
g63
NtRp71
(dp72
g66
(dp73
S'level'
p74
I5
ssS'parent'
p75
Nsg68
(lp76
g61
(cgluon.html
TR
p77
g63
NtRp78
(dp79
g66
(dp80
sg75
g71
sg68
(lp81
g61
(cgluon.html
TD
p82
g63
NtRp83
(dp84
g66
(dp85
S'_style'
p86
S'font-weight:bold;vertical-align:top'
p87
ssg75
g78
sg68
(lp88
S'ajax'
p89
asbag61
(g82
g63
NtRp90
(dp91
g66
(dp92
S'_valign'
p93
S'top'
p94
ssg75
g78
sg68
(lp95
S':'
asbag61
(g82
g63
NtRp96
(dp97
g66
(dp98
sg75
g78
sg68
(lp99
g61
(g62
g63
NtRp100
(dp101
g66
(dp102
g74
I5
ssg75
g96
sg68
(lp103
S'False'
p104
asbasbasbag61
(g77
g63
NtRp105
(dp106
g66
(dp107
sg75
g71
sg68
(lp108
g61
(g82
g63
NtRp109
(dp110
g66
(dp111
g86
g87
ssg75
g105
sg68
(lp112
S'application'
p113
asbag61
(g82
g63
NtRp114
(dp115
g66
(dp116
g93
g94
ssg75
g105
sg68
(lp117
S':'
asbag61
(g82
g63
NtRp118
(dp119
g66
(dp120
sg75
g105
sg68
(lp121
g61
(g62
g63
NtRp122
(dp123
g66
(dp124
g74
I5
ssg75
g118
sg68
(lp125
S'mycrawler'
p126
asbasbasbag61
(g77
g63
NtRp127
(dp128
g66
(dp129
sg75
g71
sg68
(lp130
g61
(g82
g63
NtRp131
(dp132
g66
(dp133
g86
g87
ssg75
g127
sg68
(lp134
g46
asbag61
(g82
g63
NtRp135
(dp136
g66
(dp137
g93
g94
ssg75
g127
sg68
(lp138
S':'
asbag61
(g82
g63
NtRp139
(dp140
g66
(dp141
sg75
g127
sg68
(lp142
g61
(g62
g63
NtRp143
(dp144
g66
(dp145
g74
I5
ssg75
g139
sg68
(lp146
g61
(g70
g63
NtRp147
(dp148
g66
(dp149
g74
I4
ssg75
Nsg68
(lp150
sbasbasbasbag61
(g77
g63
NtRp151
(dp152
g66
(dp153
sg75
g71
sg68
(lp154
g61
(g82
g63
NtRp155
(dp156
g66
(dp157
g86
g87
ssg75
g151
sg68
(lp158
S'body'
p159
asbag61
(g82
g63
NtRp160
(dp161
g66
(dp162
g93
g94
ssg75
g151
sg68
(lp163
S':'
asbag61
(g82
g63
NtRp164
(dp165
g66
(dp166
sg75
g151
sg68
(lp167
g61
(g62
g63
NtRp168
(dp169
g66
(dp170
g74
I5
ssg75
g164
sg68
(lp171
S'<cStringIO.StringO object at 0x067590C0>'
p172
asbasbasbag61
(g77
g63
NtRp173
(dp174
g66
(dp175
sg75
g71
sg68
(lp176
g61
(g82
g63
NtRp177
(dp178
g66
(dp179
g86
g87
ssg75
g173
sg68
(lp180
S'client'
p181
asbag61
(g82
g63
NtRp182
(dp183
g66
(dp184
g93
g94
ssg75
g173
sg68
(lp185
S':'
asbag61
(g82
g63
NtRp186
(dp187
g66
(dp188
sg75
g173
sg68
(lp189
g61
(g62
g63
NtRp190
(dp191
g66
(dp192
g74
I5
ssg75
g186
sg68
(lp193
S'127.0.0.1'
p194
asbasbasbag61
(g77
g63
NtRp195
(dp196
g66
(dp197
sg75
g71
sg68
(lp198
g61
(g82
g63
NtRp199
(dp200
g66
(dp201
g86
g87
ssg75
g195
sg68
(lp202
S'controller'
p203
asbag61
(g82
g63
NtRp204
(dp205
g66
(dp206
g93
g94
ssg75
g195
sg68
(lp207
S':'
asbag61
(g82
g63
NtRp208
(dp209
g66
(dp210
sg75
g195
sg68
(lp211
g61
(g62
g63
NtRp212
(dp213
g66
(dp214
g74
I5
ssg75
g208
sg68
(lp215
S'default'
p216
asbasbasbag61
(g77
g63
NtRp217
(dp218
g66
(dp219
sg75
g71
sg68
(lp220
g61
(g82
g63
NtRp221
(dp222
g66
(dp223
g86
g87
ssg75
g217
sg68
(lp224
S'cookies'
p225
asbag61
(g82
g63
NtRp226
(dp227
g66
(dp228
g93
g94
ssg75
g217
sg68
(lp229
S':'
asbag61
(g82
g63
NtRp230
(dp231
g66
(dp232
sg75
g217
sg68
(lp233
g61
(g62
g63
NtRp234
(dp235
g66
(dp236
g74
I5
ssg75
g230
sg68
(lp237
g61
(g70
g63
NtRp238
(dp239
g66
(dp240
g74
I4
ssg75
Nsg68
(lp241
g61
(g77
g63
NtRp242
(dp243
g66
(dp244
sg75
g238
sg68
(lp245
g61
(g82
g63
NtRp246
(dp247
g66
(dp248
g86
g87
ssg75
g242
sg68
(lp249
S'session_id_admin'
p250
asbag61
(g82
g63
NtRp251
(dp252
g66
(dp253
g93
g94
ssg75
g242
sg68
(lp254
S':'
asbag61
(g82
g63
NtRp255
(dp256
g66
(dp257
sg75
g242
sg68
(lp258
g61
(g62
g63
NtRp259
(dp260
g66
(dp261
g74
I4
ssg75
g255
sg68
(lp262
g61
(g70
g63
NtRp263
(dp264
g66
(dp265
g74
I3
ssg75
Nsg68
(lp266
g61
(g77
g63
NtRp267
(dp268
g66
(dp269
sg75
g263
sg68
(lp270
g61
(g82
g63
NtRp271
(dp272
g66
(dp273
g86
g87
ssg75
g267
sg68
(lp274
S'comment'
p275
asbag61
(g82
g63
NtRp276
(dp277
g66
(dp278
g93
g94
ssg75
g267
sg68
(lp279
S':'
asbag61
(g82
g63
NtRp280
(dp281
g66
(dp282
sg75
g267
sg68
(lp283
g61
(g62
g63
NtRp284
(dp285
g66
(dp286
g74
I3
ssg75
g280
sg68
(lp287
S''
asbasbasbag61
(g77
g63
NtRp288
(dp289
g66
(dp290
sg75
g263
sg68
(lp291
g61
(g82
g63
NtRp292
(dp293
g66
(dp294
g86
g87
ssg75
g288
sg68
(lp295
S'domain'
p296
asbag61
(g82
g63
NtRp297
(dp298
g66
(dp299
g93
g94
ssg75
g288
sg68
(lp300
S':'
asbag61
(g82
g63
NtRp301
(dp302
g66
(dp303
sg75
g288
sg68
(lp304
g61
(g62
g63
NtRp305
(dp306
g66
(dp307
g74
I3
ssg75
g301
sg68
(lp308
S''
asbasbasbag61
(g77
g63
NtRp309
(dp310
g66
(dp311
sg75
g263
sg68
(lp312
g61
(g82
g63
NtRp313
(dp314
g66
(dp315
g86
g87
ssg75
g309
sg68
(lp316
S'expires'
p317
asbag61
(g82
g63
NtRp318
(dp319
g66
(dp320
g93
g94
ssg75
g309
sg68
(lp321
S':'
asbag61
(g82
g63
NtRp322
(dp323
g66
(dp324
sg75
g309
sg68
(lp325
g61
(g62
g63
NtRp326
(dp327
g66
(dp328
g74
I3
ssg75
g322
sg68
(lp329
S''
asbasbasbag61
(g77
g63
NtRp330
(dp331
g66
(dp332
sg75
g263
sg68
(lp333
g61
(g82
g63
NtRp334
(dp335
g66
(dp336
g86
g87
ssg75
g330
sg68
(lp337
S'httponly'
p338
asbag61
(g82
g63
NtRp339
(dp340
g66
(dp341
g93
g94
ssg75
g330
sg68
(lp342
S':'
asbag61
(g82
g63
NtRp343
(dp344
g66
(dp345
sg75
g330
sg68
(lp346
g61
(g62
g63
NtRp347
(dp348
g66
(dp349
g74
I3
ssg75
g343
sg68
(lp350
S''
asbasbasbag61
(g77
g63
NtRp351
(dp352
g66
(dp353
sg75
g263
sg68
(lp354
g61
(g82
g63
NtRp355
(dp356
g66
(dp357
g86
g87
ssg75
g351
sg68
(lp358
S'max-age'
p359
asbag61
(g82
g63
NtRp360
(dp361
g66
(dp362
g93
g94
ssg75
g351
sg68
(lp363
S':'
asbag61
(g82
g63
NtRp364
(dp365
g66
(dp366
sg75
g351
sg68
(lp367
g61
(g62
g63
NtRp368
(dp369
g66
(dp370
g74
I3
ssg75
g364
sg68
(lp371
S''
asbasbasbag61
(g77
g63
NtRp372
(dp373
g66
(dp374
sg75
g263
sg68
(lp375
g61
(g82
g63
NtRp376
(dp377
g66
(dp378
g86
g87
ssg75
g372
sg68
(lp379
S'path'
p380
asbag61
(g82
g63
NtRp381
(dp382
g66
(dp383
g93
g94
ssg75
g372
sg68
(lp384
S':'
asbag61
(g82
g63
NtRp385
(dp386
g66
(dp387
sg75
g372
sg68
(lp388
g61
(g62
g63
NtRp389
(dp390
g66
(dp391
g74
I3
ssg75
g385
sg68
(lp392
S''
asbasbasbag61
(g77
g63
NtRp393
(dp394
g66
(dp395
sg75
g263
sg68
(lp396
g61
(g82
g63
NtRp397
(dp398
g66
(dp399
g86
g87
ssg75
g393
sg68
(lp400
S'secure'
p401
asbag61
(g82
g63
NtRp402
(dp403
g66
(dp404
g93
g94
ssg75
g393
sg68
(lp405
S':'
asbag61
(g82
g63
NtRp406
(dp407
g66
(dp408
sg75
g393
sg68
(lp409
g61
(g62
g63
NtRp410
(dp411
g66
(dp412
g74
I3
ssg75
g406
sg68
(lp413
S''
asbasbasbag61
(g77
g63
NtRp414
(dp415
g66
(dp416
sg75
g263
sg68
(lp417
g61
(g82
g63
NtRp418
(dp419
g66
(dp420
g86
g87
ssg75
g414
sg68
(lp421
S'version'
p422
asbag61
(g82
g63
NtRp423
(dp424
g66
(dp425
g93
g94
ssg75
g414
sg68
(lp426
S':'
asbag61
(g82
g63
NtRp427
(dp428
g66
(dp429
sg75
g414
sg68
(lp430
g61
(g62
g63
NtRp431
(dp432
g66
(dp433
g74
I3
ssg75
g427
sg68
(lp434
S''
asbasbasbasbasbasbasbag61
(g77
g63
NtRp435
(dp436
g66
(dp437
sg75
g238
sg68
(lp438
g61
(g82
g63
NtRp439
(dp440
g66
(dp441
g86
g87
ssg75
g435
sg68
(lp442
S'session_id_crawler'
p443
asbag61
(g82
g63
NtRp444
(dp445
g66
(dp446
g93
g94
ssg75
g435
sg68
(lp447
S':'
asbag61
(g82
g63
NtRp448
(dp449
g66
(dp450
sg75
g435
sg68
(lp451
g61
(g62
g63
NtRp452
(dp453
g66
(dp454
g74
I4
ssg75
g448
sg68
(lp455
g61
(g70
g63
NtRp456
(dp457
g66
(dp458
g74
I3
ssg75
Nsg68
(lp459
g61
(g77
g63
NtRp460
(dp461
g66
(dp462
sg75
g456
sg68
(lp463
g61
(g82
g63
NtRp464
(dp465
g66
(dp466
g86
g87
ssg75
g460
sg68
(lp467
g275
asbag61
(g82
g63
NtRp468
(dp469
g66
(dp470
g93
g94
ssg75
g460
sg68
(lp471
S':'
asbag61
(g82
g63
NtRp472
(dp473
g66
(dp474
sg75
g460
sg68
(lp475
g61
(g62
g63
NtRp476
(dp477
g66
(dp478
g74
I3
ssg75
g472
sg68
(lp479
S''
asbasbasbag61
(g77
g63
NtRp480
(dp481
g66
(dp482
sg75
g456
sg68
(lp483
g61
(g82
g63
NtRp484
(dp485
g66
(dp486
g86
g87
ssg75
g480
sg68
(lp487
g296
asbag61
(g82
g63
NtRp488
(dp489
g66
(dp490
g93
g94
ssg75
g480
sg68
(lp491
S':'
asbag61
(g82
g63
NtRp492
(dp493
g66
(dp494
sg75
g480
sg68
(lp495
g61
(g62
g63
NtRp496
(dp497
g66
(dp498
g74
I3
ssg75
g492
sg68
(lp499
S''
asbasbasbag61
(g77
g63
NtRp500
(dp501
g66
(dp502
sg75
g456
sg68
(lp503
g61
(g82
g63
NtRp504
(dp505
g66
(dp506
g86
g87
ssg75
g500
sg68
(lp507
g317
asbag61
(g82
g63
NtRp508
(dp509
g66
(dp510
g93
g94
ssg75
g500
sg68
(lp511
S':'
asbag61
(g82
g63
NtRp512
(dp513
g66
(dp514
sg75
g500
sg68
(lp515
g61
(g62
g63
NtRp516
(dp517
g66
(dp518
g74
I3
ssg75
g512
sg68
(lp519
S''
asbasbasbag61
(g77
g63
NtRp520
(dp521
g66
(dp522
sg75
g456
sg68
(lp523
g61
(g82
g63
NtRp524
(dp525
g66
(dp526
g86
g87
ssg75
g520
sg68
(lp527
g338
asbag61
(g82
g63
NtRp528
(dp529
g66
(dp530
g93
g94
ssg75
g520
sg68
(lp531
S':'
asbag61
(g82
g63
NtRp532
(dp533
g66
(dp534
sg75
g520
sg68
(lp535
g61
(g62
g63
NtRp536
(dp537
g66
(dp538
g74
I3
ssg75
g532
sg68
(lp539
S''
asbasbasbag61
(g77
g63
NtRp540
(dp541
g66
(dp542
sg75
g456
sg68
(lp543
g61
(g82
g63
NtRp544
(dp545
g66
(dp546
g86
g87
ssg75
g540
sg68
(lp547
g359
asbag61
(g82
g63
NtRp548
(dp549
g66
(dp550
g93
g94
ssg75
g540
sg68
(lp551
S':'
asbag61
(g82
g63
NtRp552
(dp553
g66
(dp554
sg75
g540
sg68
(lp555
g61
(g62
g63
NtRp556
(dp557
g66
(dp558
g74
I3
ssg75
g552
sg68
(lp559
S''
asbasbasbag61
(g77
g63
NtRp560
(dp561
g66
(dp562
sg75
g456
sg68
(lp563
g61
(g82
g63
NtRp564
(dp565
g66
(dp566
g86
g87
ssg75
g560
sg68
(lp567
g380
asbag61
(g82
g63
NtRp568
(dp569
g66
(dp570
g93
g94
ssg75
g560
sg68
(lp571
S':'
asbag61
(g82
g63
NtRp572
(dp573
g66
(dp574
sg75
g560
sg68
(lp575
g61
(g62
g63
NtRp576
(dp577
g66
(dp578
g74
I3
ssg75
g572
sg68
(lp579
S''
asbasbasbag61
(g77
g63
NtRp580
(dp581
g66
(dp582
sg75
g456
sg68
(lp583
g61
(g82
g63
NtRp584
(dp585
g66
(dp586
g86
g87
ssg75
g580
sg68
(lp587
g401
asbag61
(g82
g63
NtRp588
(dp589
g66
(dp590
g93
g94
ssg75
g580
sg68
(lp591
S':'
asbag61
(g82
g63
NtRp592
(dp593
g66
(dp594
sg75
g580
sg68
(lp595
g61
(g62
g63
NtRp596
(dp597
g66
(dp598
g74
I3
ssg75
g592
sg68
(lp599
S''
asbasbasbag61
(g77
g63
NtRp600
(dp601
g66
(dp602
sg75
g456
sg68
(lp603
g61
(g82
g63
NtRp604
(dp605
g66
(dp606
g86
g87
ssg75
g600
sg68
(lp607
g422
asbag61
(g82
g63
NtRp608
(dp609
g66
(dp610
g93
g94
ssg75
g600
sg68
(lp611
S':'
asbag61
(g82
g63
NtRp612
(dp613
g66
(dp614
sg75
g600
sg68
(lp615
g61
(g62
g63
NtRp616
(dp617
g66
(dp618
g74
I3
ssg75
g612
sg68
(lp619
S''
asbasbasbasbasbasbasbag61
(g77
g63
NtRp620
(dp621
g66
(dp622
sg75
g238
sg68
(lp623
g61
(g82
g63
NtRp624
(dp625
g66
(dp626
g86
g87
ssg75
g620
sg68
(lp627
S'session_id_mycrawler'
p628
asbag61
(g82
g63
NtRp629
(dp630
g66
(dp631
g93
g94
ssg75
g620
sg68
(lp632
S':'
asbag61
(g82
g63
NtRp633
(dp634
g66
(dp635
sg75
g620
sg68
(lp636
g61
(g62
g63
NtRp637
(dp638
g66
(dp639
g74
I4
ssg75
g633
sg68
(lp640
g61
(g70
g63
NtRp641
(dp642
g66
(dp643
g74
I3
ssg75
Nsg68
(lp644
g61
(g77
g63
NtRp645
(dp646
g66
(dp647
sg75
g641
sg68
(lp648
g61
(g82
g63
NtRp649
(dp650
g66
(dp651
g86
g87
ssg75
g645
sg68
(lp652
g275
asbag61
(g82
g63
NtRp653
(dp654
g66
(dp655
g93
g94
ssg75
g645
sg68
(lp656
S':'
asbag61
(g82
g63
NtRp657
(dp658
g66
(dp659
sg75
g645
sg68
(lp660
g61
(g62
g63
NtRp661
(dp662
g66
(dp663
g74
I3
ssg75
g657
sg68
(lp664
S''
asbasbasbag61
(g77
g63
NtRp665
(dp666
g66
(dp667
sg75
g641
sg68
(lp668
g61
(g82
g63
NtRp669
(dp670
g66
(dp671
g86
g87
ssg75
g665
sg68
(lp672
g296
asbag61
(g82
g63
NtRp673
(dp674
g66
(dp675
g93
g94
ssg75
g665
sg68
(lp676
S':'
asbag61
(g82
g63
NtRp677
(dp678
g66
(dp679
sg75
g665
sg68
(lp680
g61
(g62
g63
NtRp681
(dp682
g66
(dp683
g74
I3
ssg75
g677
sg68
(lp684
S''
asbasbasbag61
(g77
g63
NtRp685
(dp686
g66
(dp687
sg75
g641
sg68
(lp688
g61
(g82
g63
NtRp689
(dp690
g66
(dp691
g86
g87
ssg75
g685
sg68
(lp692
g317
asbag61
(g82
g63
NtRp693
(dp694
g66
(dp695
g93
g94
ssg75
g685
sg68
(lp696
S':'
asbag61
(g82
g63
NtRp697
(dp698
g66
(dp699
sg75
g685
sg68
(lp700
g61
(g62
g63
NtRp701
(dp702
g66
(dp703
g74
I3
ssg75
g697
sg68
(lp704
S''
asbasbasbag61
(g77
g63
NtRp705
(dp706
g66
(dp707
sg75
g641
sg68
(lp708
g61
(g82
g63
NtRp709
(dp710
g66
(dp711
g86
g87
ssg75
g705
sg68
(lp712
g338
asbag61
(g82
g63
NtRp713
(dp714
g66
(dp715
g93
g94
ssg75
g705
sg68
(lp716
S':'
asbag61
(g82
g63
NtRp717
(dp718
g66
(dp719
sg75
g705
sg68
(lp720
g61
(g62
g63
NtRp721
(dp722
g66
(dp723
g74
I3
ssg75
g717
sg68
(lp724
S''
asbasbasbag61
(g77
g63
NtRp725
(dp726
g66
(dp727
sg75
g641
sg68
(lp728
g61
(g82
g63
NtRp729
(dp730
g66
(dp731
g86
g87
ssg75
g725
sg68
(lp732
g359
asbag61
(g82
g63
NtRp733
(dp734
g66
(dp735
g93
g94
ssg75
g725
sg68
(lp736
S':'
asbag61
(g82
g63
NtRp737
(dp738
g66
(dp739
sg75
g725
sg68
(lp740
g61
(g62
g63
NtRp741
(dp742
g66
(dp743
g74
I3
ssg75
g737
sg68
(lp744
S''
asbasbasbag61
(g77
g63
NtRp745
(dp746
g66
(dp747
sg75
g641
sg68
(lp748
g61
(g82
g63
NtRp749
(dp750
g66
(dp751
g86
g87
ssg75
g745
sg68
(lp752
g380
asbag61
(g82
g63
NtRp753
(dp754
g66
(dp755
g93
g94
ssg75
g745
sg68
(lp756
S':'
asbag61
(g82
g63
NtRp757
(dp758
g66
(dp759
sg75
g745
sg68
(lp760
g61
(g62
g63
NtRp761
(dp762
g66
(dp763
g74
I3
ssg75
g757
sg68
(lp764
S''
asbasbasbag61
(g77
g63
NtRp765
(dp766
g66
(dp767
sg75
g641
sg68
(lp768
g61
(g82
g63
NtRp769
(dp770
g66
(dp771
g86
g87
ssg75
g765
sg68
(lp772
g401
asbag61
(g82
g63
NtRp773
(dp774
g66
(dp775
g93
g94
ssg75
g765
sg68
(lp776
S':'
asbag61
(g82
g63
NtRp777
(dp778
g66
(dp779
sg75
g765
sg68
(lp780
g61
(g62
g63
NtRp781
(dp782
g66
(dp783
g74
I3
ssg75
g777
sg68
(lp784
S''
asbasbasbag61
(g77
g63
NtRp785
(dp786
g66
(dp787
sg75
g641
sg68
(lp788
g61
(g82
g63
NtRp789
(dp790
g66
(dp791
g86
g87
ssg75
g785
sg68
(lp792
g422
asbag61
(g82
g63
NtRp793
(dp794
g66
(dp795
g93
g94
ssg75
g785
sg68
(lp796
S':'
asbag61
(g82
g63
NtRp797
(dp798
g66
(dp799
sg75
g785
sg68
(lp800
g61
(g62
g63
NtRp801
(dp802
g66
(dp803
g74
I3
ssg75
g797
sg68
(lp804
S''
asbasbasbasbasbasbasbag61
(g77
g63
NtRp805
(dp806
g66
(dp807
sg75
g238
sg68
(lp808
g61
(g82
g63
NtRp809
(dp810
g66
(dp811
g86
g87
ssg75
g805
sg68
(lp812
S'session_id_welcome'
p813
asbag61
(g82
g63
NtRp814
(dp815
g66
(dp816
g93
g94
ssg75
g805
sg68
(lp817
S':'
asbag61
(g82
g63
NtRp818
(dp819
g66
(dp820
sg75
g805
sg68
(lp821
g61
(g62
g63
NtRp822
(dp823
g66
(dp824
g74
I4
ssg75
g818
sg68
(lp825
g61
(g70
g63
NtRp826
(dp827
g66
(dp828
g74
I3
ssg75
Nsg68
(lp829
g61
(g77
g63
NtRp830
(dp831
g66
(dp832
sg75
g826
sg68
(lp833
g61
(g82
g63
NtRp834
(dp835
g66
(dp836
g86
g87
ssg75
g830
sg68
(lp837
g275
asbag61
(g82
g63
NtRp838
(dp839
g66
(dp840
g93
g94
ssg75
g830
sg68
(lp841
S':'
asbag61
(g82
g63
NtRp842
(dp843
g66
(dp844
sg75
g830
sg68
(lp845
g61
(g62
g63
NtRp846
(dp847
g66
(dp848
g74
I3
ssg75
g842
sg68
(lp849
S''
asbasbasbag61
(g77
g63
NtRp850
(dp851
g66
(dp852
sg75
g826
sg68
(lp853
g61
(g82
g63
NtRp854
(dp855
g66
(dp856
g86
g87
ssg75
g850
sg68
(lp857
g296
asbag61
(g82
g63
NtRp858
(dp859
g66
(dp860
g93
g94
ssg75
g850
sg68
(lp861
S':'
asbag61
(g82
g63
NtRp862
(dp863
g66
(dp864
sg75
g850
sg68
(lp865
g61
(g62
g63
NtRp866
(dp867
g66
(dp868
g74
I3
ssg75
g862
sg68
(lp869
S''
asbasbasbag61
(g77
g63
NtRp870
(dp871
g66
(dp872
sg75
g826
sg68
(lp873
g61
(g82
g63
NtRp874
(dp875
g66
(dp876
g86
g87
ssg75
g870
sg68
(lp877
g317
asbag61
(g82
g63
NtRp878
(dp879
g66
(dp880
g93
g94
ssg75
g870
sg68
(lp881
S':'
asbag61
(g82
g63
NtRp882
(dp883
g66
(dp884
sg75
g870
sg68
(lp885
g61
(g62
g63
NtRp886
(dp887
g66
(dp888
g74
I3
ssg75
g882
sg68
(lp889
S''
asbasbasbag61
(g77
g63
NtRp890
(dp891
g66
(dp892
sg75
g826
sg68
(lp893
g61
(g82
g63
NtRp894
(dp895
g66
(dp896
g86
g87
ssg75
g890
sg68
(lp897
g338
asbag61
(g82
g63
NtRp898
(dp899
g66
(dp900
g93
g94
ssg75
g890
sg68
(lp901
S':'
asbag61
(g82
g63
NtRp902
(dp903
g66
(dp904
sg75
g890
sg68
(lp905
g61
(g62
g63
NtRp906
(dp907
g66
(dp908
g74
I3
ssg75
g902
sg68
(lp909
S''
asbasbasbag61
(g77
g63
NtRp910
(dp911
g66
(dp912
sg75
g826
sg68
(lp913
g61
(g82
g63
NtRp914
(dp915
g66
(dp916
g86
g87
ssg75
g910
sg68
(lp917
g359
asbag61
(g82
g63
NtRp918
(dp919
g66
(dp920
g93
g94
ssg75
g910
sg68
(lp921
S':'
asbag61
(g82
g63
NtRp922
(dp923
g66
(dp924
sg75
g910
sg68
(lp925
g61
(g62
g63
NtRp926
(dp927
g66
(dp928
g74
I3
ssg75
g922
sg68
(lp929
S''
asbasbasbag61
(g77
g63
NtRp930
(dp931
g66
(dp932
sg75
g826
sg68
(lp933
g61
(g82
g63
NtRp934
(dp935
g66
(dp936
g86
g87
ssg75
g930
sg68
(lp937
g380
asbag61
(g82
g63
NtRp938
(dp939
g66
(dp940
g93
g94
ssg75
g930
sg68
(lp941
S':'
asbag61
(g82
g63
NtRp942
(dp943
g66
(dp944
sg75
g930
sg68
(lp945
g61
(g62
g63
NtRp946
(dp947
g66
(dp948
g74
I3
ssg75
g942
sg68
(lp949
S''
asbasbasbag61
(g77
g63
NtRp950
(dp951
g66
(dp952
sg75
g826
sg68
(lp953
g61
(g82
g63
NtRp954
(dp955
g66
(dp956
g86
g87
ssg75
g950
sg68
(lp957
g401
asbag61
(g82
g63
NtRp958
(dp959
g66
(dp960
g93
g94
ssg75
g950
sg68
(lp961
S':'
asbag61
(g82
g63
NtRp962
(dp963
g66
(dp964
sg75
g950
sg68
(lp965
g61
(g62
g63
NtRp966
(dp967
g66
(dp968
g74
I3
ssg75
g962
sg68
(lp969
S''
asbasbasbag61
(g77
g63
NtRp970
(dp971
g66
(dp972
sg75
g826
sg68
(lp973
g61
(g82
g63
NtRp974
(dp975
g66
(dp976
g86
g87
ssg75
g970
sg68
(lp977
g422
asbag61
(g82
g63
NtRp978
(dp979
g66
(dp980
g93
g94
ssg75
g970
sg68
(lp981
S':'
asbag61
(g82
g63
NtRp982
(dp983
g66
(dp984
sg75
g970
sg68
(lp985
g61
(g62
g63
NtRp986
(dp987
g66
(dp988
g74
I3
ssg75
g982
sg68
(lp989
S''
asbasbasbasbasbasbasbasbasbasbasbag61
(g77
g63
NtRp990
(dp991
g66
(dp992
sg75
g71
sg68
(lp993
g61
(g82
g63
NtRp994
(dp995
g66
(dp996
g86
g87
ssg75
g990
sg68
(lp997
S'env'
p998
asbag61
(g82
g63
NtRp999
(dp1000
g66
(dp1001
g93
g94
ssg75
g990
sg68
(lp1002
S':'
asbag61
(g82
g63
NtRp1003
(dp1004
g66
(dp1005
sg75
g990
sg68
(lp1006
g61
(g62
g63
NtRp1007
(dp1008
g66
(dp1009
g74
I5
ssg75
g1003
sg68
(lp1010
g61
(g70
g63
NtRp1011
(dp1012
g66
(dp1013
g74
I4
ssg75
Nsg68
(lp1014
g61
(g77
g63
NtRp1015
(dp1016
g66
(dp1017
sg75
g1011
sg68
(lp1018
g61
(g82
g63
NtRp1019
(dp1020
g66
(dp1021
g86
g87
ssg75
g1015
sg68
(lp1022
S'app_folders'
p1023
asbag61
(g82
g63
NtRp1024
(dp1025
g66
(dp1026
g93
g94
ssg75
g1015
sg68
(lp1027
S':'
asbag61
(g82
g63
NtRp1028
(dp1029
g66
(dp1030
sg75
g1015
sg68
(lp1031
g61
(g62
g63
NtRp1032
(dp1033
g66
(dp1034
g74
I4
ssg75
g1028
sg68
(lp1035
S"set(['C:\\\\Documents and Settings\\\\agrover\\\\Desktop\\\\previous crawler\\\\web2py\\\\applications\\\\admin\\\\', 'C:\\\\Documents and Settings\\\\agrover\\\\Desktop\\\\previous crawler\\\\web2py\\\\applications\\\\mycrawler\\\\', 'C:\\\\Documents and Settings\\\\agrover\\\\Desktop\\\\previous crawler\\\\web2py\\\\applications\\\\welcome\\\\', 'C:\\\\Documents and Settings\\\\agrover\\\\Desktop\\\\previous crawler\\\\web2py\\\\applications\\\\crawler\\\\'])"
p1036
asbasbasbag61
(g77
g63
NtRp1037
(dp1038
g66
(dp1039
sg75
g1011
sg68
(lp1040
g61
(g82
g63
NtRp1041
(dp1042
g66
(dp1043
g86
g87
ssg75
g1037
sg68
(lp1044
S'applications_parent'
p1045
asbag61
(g82
g63
NtRp1046
(dp1047
g66
(dp1048
g93
g94
ssg75
g1037
sg68
(lp1049
S':'
asbag61
(g82
g63
NtRp1050
(dp1051
g66
(dp1052
sg75
g1037
sg68
(lp1053
g61
(g62
g63
NtRp1054
(dp1055
g66
(dp1056
g74
I4
ssg75
g1050
sg68
(lp1057
S'C:\\Documents and Settings\\agrover\\Desktop\\previous crawler\\web2py'
p1058
asbasbasbag61
(g77
g63
NtRp1059
(dp1060
g66
(dp1061
sg75
g1011
sg68
(lp1062
g61
(g82
g63
NtRp1063
(dp1064
g66
(dp1065
g86
g87
ssg75
g1059
sg68
(lp1066
S'cmd_args'
p1067
asbag61
(g82
g63
NtRp1068
(dp1069
g66
(dp1070
g93
g94
ssg75
g1059
sg68
(lp1071
S':'
asbag61
(g82
g63
NtRp1072
(dp1073
g66
(dp1074
sg75
g1059
sg68
(lp1075
g61
(g62
g63
NtRp1076
(dp1077
g66
(dp1078
g74
I4
ssg75
g1072
sg68
(lp1079
g61
(g70
g63
NtRp1080
(dp1081
g66
(dp1082
g74
I3
ssg75
Nsg68
(lp1083
sbasbasbasbag61
(g77
g63
NtRp1084
(dp1085
g66
(dp1086
sg75
g1011
sg68
(lp1087
g61
(g82
g63
NtRp1088
(dp1089
g66
(dp1090
g86
g87
ssg75
g1084
sg68
(lp1091
S'cmd_options'
p1092
asbag61
(g82
g63
NtRp1093
(dp1094
g66
(dp1095
g93
g94
ssg75
g1084
sg68
(lp1096
S':'
asbag61
(g82
g63
NtRp1097
(dp1098
g66
(dp1099
sg75
g1084
sg68
(lp1100
g61
(g62
g63
NtRp1101
(dp1102
g66
(dp1103
g74
I4
ssg75
g1097
sg68
(lp1104
S"<Values at 0x16d63f0: {'verbose': False, 'ip': '127.0.0.1', 'shutdown_timeout': 5, 'taskbar': False, 'nocron': False, 'pid_filename': 'httpserver.pid', 'maxthreads': None, 'softcron': False, 'server_name': 'mniagrover', 'bpython': False, 'nogui': False, 'port': 8000, 'extcron': False, 'debuglevel': 30, 'test': None, 'folder': 'C:\\\\Documents and Settings\\\\agrover\\\\Desktop\\\\previous crawler\\\\web2py', 'config': '', 'import_models': False, 'winservice': '', 'shell': None, 'run': '', 'log_filename': 'httpserver.log', 'args': [''], 'socket_timeout': 5, 'ssl_ca_certificate': None, 'scheduler': None, 'profiler_filename': None, 'ssl_private_key': '', 'password': '<ask>', 'request_queue_size': 5, 'ssl_certificate': '', 'cronjob': False, 'numthreads': None, 'quiet': False, 'interfaces': None, 'minthreads': None, 'timeout': 10, 'plain': False, 'nobanner': False}>"
p1105
asbasbasbag61
(g77
g63
NtRp1106
(dp1107
g66
(dp1108
sg75
g1011
sg68
(lp1109
g61
(g82
g63
NtRp1110
(dp1111
g66
(dp1112
g86
g87
ssg75
g1106
sg68
(lp1113
S'db_sessions'
p1114
asbag61
(g82
g63
NtRp1115
(dp1116
g66
(dp1117
g93
g94
ssg75
g1106
sg68
(lp1118
S':'
asbag61
(g82
g63
NtRp1119
(dp1120
g66
(dp1121
sg75
g1106
sg68
(lp1122
g61
(g62
g63
NtRp1123
(dp1124
g66
(dp1125
g74
I4
ssg75
g1119
sg68
(lp1126
S'set([])'
p1127
asbasbasbag61
(g77
g63
NtRp1128
(dp1129
g66
(dp1130
sg75
g1011
sg68
(lp1131
g61
(g82
g63
NtRp1132
(dp1133
g66
(dp1134
g86
g87
ssg75
g1128
sg68
(lp1135
S'debugging'
p1136
asbag61
(g82
g63
NtRp1137
(dp1138
g66
(dp1139
g93
g94
ssg75
g1128
sg68
(lp1140
S':'
asbag61
(g82
g63
NtRp1141
(dp1142
g66
(dp1143
sg75
g1128
sg68
(lp1144
g61
(g62
g63
NtRp1145
(dp1146
g66
(dp1147
g74
I4
ssg75
g1141
sg68
(lp1148
g104
asbasbasbag61
(g77
g63
NtRp1149
(dp1150
g66
(dp1151
sg75
g1011
sg68
(lp1152
g61
(g82
g63
NtRp1153
(dp1154
g66
(dp1155
g86
g87
ssg75
g1149
sg68
(lp1156
S'gluon_parent'
p1157
asbag61
(g82
g63
NtRp1158
(dp1159
g66
(dp1160
g93
g94
ssg75
g1149
sg68
(lp1161
S':'
asbag61
(g82
g63
NtRp1162
(dp1163
g66
(dp1164
sg75
g1149
sg68
(lp1165
g61
(g62
g63
NtRp1166
(dp1167
g66
(dp1168
g74
I4
ssg75
g1162
sg68
(lp1169
S'C:\\Documents and Settings\\agrover\\Desktop\\previous crawler\\web2py'
p1170
asbasbasbag61
(g77
g63
NtRp1171
(dp1172
g66
(dp1173
sg75
g1011
sg68
(lp1174
g61
(g82
g63
NtRp1175
(dp1176
g66
(dp1177
g86
g87
ssg75
g1171
sg68
(lp1178
S'http_accept'
p1179
asbag61
(g82
g63
NtRp1180
(dp1181
g66
(dp1182
g93
g94
ssg75
g1171
sg68
(lp1183
S':'
asbag61
(g82
g63
NtRp1184
(dp1185
g66
(dp1186
sg75
g1171
sg68
(lp1187
g61
(g62
g63
NtRp1188
(dp1189
g66
(dp1190
g74
I4
ssg75
g1184
sg68
(lp1191
S'text/html,application/xhtml+xml,application/xml;q=0.9,*/*;q=0.8'
p1192
asbasbasbag61
(g77
g63
NtRp1193
(dp1194
g66
(dp1195
sg75
g1011
sg68
(lp1196
g61
(g82
g63
NtRp1197
(dp1198
g66
(dp1199
g86
g87
ssg75
g1193
sg68
(lp1200
S'http_accept_encoding'
p1201
asbag61
(g82
g63
NtRp1202
(dp1203
g66
(dp1204
g93
g94
ssg75
g1193
sg68
(lp1205
S':'
asbag61
(g82
g63
NtRp1206
(dp1207
g66
(dp1208
sg75
g1193
sg68
(lp1209
g61
(g62
g63
NtRp1210
(dp1211
g66
(dp1212
g74
I4
ssg75
g1206
sg68
(lp1213
S'gzip, deflate'
p1214
asbasbasbag61
(g77
g63
NtRp1215
(dp1216
g66
(dp1217
sg75
g1011
sg68
(lp1218
g61
(g82
g63
NtRp1219
(dp1220
g66
(dp1221
g86
g87
ssg75
g1215
sg68
(lp1222
S'http_accept_language'
p1223
asbag61
(g82
g63
NtRp1224
(dp1225
g66
(dp1226
g93
g94
ssg75
g1215
sg68
(lp1227
S':'
asbag61
(g82
g63
NtRp1228
(dp1229
g66
(dp1230
sg75
g1215
sg68
(lp1231
g61
(g62
g63
NtRp1232
(dp1233
g66
(dp1234
g74
I4
ssg75
g1228
sg68
(lp1235
S'en-us,en;q=0.5'
p1236
asbasbasbag61
(g77
g63
NtRp1237
(dp1238
g66
(dp1239
sg75
g1011
sg68
(lp1240
g61
(g82
g63
NtRp1241
(dp1242
g66
(dp1243
g86
g87
ssg75
g1237
sg68
(lp1244
S'http_connection'
p1245
asbag61
(g82
g63
NtRp1246
(dp1247
g66
(dp1248
g93
g94
ssg75
g1237
sg68
(lp1249
S':'
asbag61
(g82
g63
NtRp1250
(dp1251
g66
(dp1252
sg75
g1237
sg68
(lp1253
g61
(g62
g63
NtRp1254
(dp1255
g66
(dp1256
g74
I4
ssg75
g1250
sg68
(lp1257
S'keep-alive'
p1258
asbasbasbag61
(g77
g63
NtRp1259
(dp1260
g66
(dp1261
sg75
g1011
sg68
(lp1262
g61
(g82
g63
NtRp1263
(dp1264
g66
(dp1265
g86
g87
ssg75
g1259
sg68
(lp1266
S'http_cookie'
p1267
asbag61
(g82
g63
NtRp1268
(dp1269
g66
(dp1270
g93
g94
ssg75
g1259
sg68
(lp1271
S':'
asbag61
(g82
g63
NtRp1272
(dp1273
g66
(dp1274
sg75
g1259
sg68
(lp1275
g61
(g62
g63
NtRp1276
(dp1277
g66
(dp1278
g74
I4
ssg75
g1272
sg68
(lp1279
S'session_id_mycrawler=127.0.0.1-05d302d9-dfe2-4e60-ab26-5eeb721fac09; session_id_crawler=127.0.0.1-97e876bb-098e-44e8-9f12-52311070ab65; session_id_welcome=127.0.0.1-021ac449-a294-4218-b252-433a1553cea9; session_id_admin=127.0.0.1-6c582451-9afe-4b27-a715-192f5a4c3a1f'
p1280
asbasbasbag61
(g77
g63
NtRp1281
(dp1282
g66
(dp1283
sg75
g1011
sg68
(lp1284
g61
(g82
g63
NtRp1285
(dp1286
g66
(dp1287
g86
g87
ssg75
g1281
sg68
(lp1288
S'http_host'
p1289
asbag61
(g82
g63
NtRp1290
(dp1291
g66
(dp1292
g93
g94
ssg75
g1281
sg68
(lp1293
S':'
asbag61
(g82
g63
NtRp1294
(dp1295
g66
(dp1296
sg75
g1281
sg68
(lp1297
g61
(g62
g63
NtRp1298
(dp1299
g66
(dp1300
g74
I4
ssg75
g1294
sg68
(lp1301
S'127.0.0.1:8000'
p1302
asbasbasbag61
(g77
g63
NtRp1303
(dp1304
g66
(dp1305
sg75
g1011
sg68
(lp1306
g61
(g82
g63
NtRp1307
(dp1308
g66
(dp1309
g86
g87
ssg75
g1303
sg68
(lp1310
S'http_referer'
p1311
asbag61
(g82
g63
NtRp1312
(dp1313
g66
(dp1314
g93
g94
ssg75
g1303
sg68
(lp1315
S':'
asbag61
(g82
g63
NtRp1316
(dp1317
g66
(dp1318
sg75
g1303
sg68
(lp1319
g61
(g62
g63
NtRp1320
(dp1321
g66
(dp1322
g74
I4
ssg75
g1316
sg68
(lp1323
S'http://127.0.0.1:8000/mycrawler/default/enter_info'
p1324
asbasbasbag61
(g77
g63
NtRp1325
(dp1326
g66
(dp1327
sg75
g1011
sg68
(lp1328
g61
(g82
g63
NtRp1329
(dp1330
g66
(dp1331
g86
g87
ssg75
g1325
sg68
(lp1332
S'http_user_agent'
p1333
asbag61
(g82
g63
NtRp1334
(dp1335
g66
(dp1336
g93
g94
ssg75
g1325
sg68
(lp1337
S':'
asbag61
(g82
g63
NtRp1338
(dp1339
g66
(dp1340
sg75
g1325
sg68
(lp1341
g61
(g62
g63
NtRp1342
(dp1343
g66
(dp1344
g74
I4
ssg75
g1338
sg68
(lp1345
S'Mozilla/5.0 (Windows NT 5.1; rv:12.0) Gecko/20100101 Firefox/12.0'
p1346
asbasbasbag61
(g77
g63
NtRp1347
(dp1348
g66
(dp1349
sg75
g1011
sg68
(lp1350
g61
(g82
g63
NtRp1351
(dp1352
g66
(dp1353
g86
g87
ssg75
g1347
sg68
(lp1354
S'is_jython'
p1355
asbag61
(g82
g63
NtRp1356
(dp1357
g66
(dp1358
g93
g94
ssg75
g1347
sg68
(lp1359
S':'
asbag61
(g82
g63
NtRp1360
(dp1361
g66
(dp1362
sg75
g1347
sg68
(lp1363
g61
(g62
g63
NtRp1364
(dp1365
g66
(dp1366
g74
I4
ssg75
g1360
sg68
(lp1367
g104
asbasbasbag61
(g77
g63
NtRp1368
(dp1369
g66
(dp1370
sg75
g1011
sg68
(lp1371
g61
(g82
g63
NtRp1372
(dp1373
g66
(dp1374
g86
g87
ssg75
g1368
sg68
(lp1375
S'is_pypy'
p1376
asbag61
(g82
g63
NtRp1377
(dp1378
g66
(dp1379
g93
g94
ssg75
g1368
sg68
(lp1380
S':'
asbag61
(g82
g63
NtRp1381
(dp1382
g66
(dp1383
sg75
g1368
sg68
(lp1384
g61
(g62
g63
NtRp1385
(dp1386
g66
(dp1387
g74
I4
ssg75
g1381
sg68
(lp1388
g104
asbasbasbag61
(g77
g63
NtRp1389
(dp1390
g66
(dp1391
sg75
g1011
sg68
(lp1392
g61
(g82
g63
NtRp1393
(dp1394
g66
(dp1395
g86
g87
ssg75
g1389
sg68
(lp1396
S'path_info'
p1397
asbag61
(g82
g63
NtRp1398
(dp1399
g66
(dp1400
g93
g94
ssg75
g1389
sg68
(lp1401
S':'
asbag61
(g82
g63
NtRp1402
(dp1403
g66
(dp1404
sg75
g1389
sg68
(lp1405
g61
(g62
g63
NtRp1406
(dp1407
g66
(dp1408
g74
I4
ssg75
g1402
sg68
(lp1409
S'/mycrawler/default/search'
p1410
asbasbasbag61
(g77
g63
NtRp1411
(dp1412
g66
(dp1413
sg75
g1011
sg68
(lp1414
g61
(g82
g63
NtRp1415
(dp1416
g66
(dp1417
g86
g87
ssg75
g1411
sg68
(lp1418
S'query_string'
p1419
asbag61
(g82
g63
NtRp1420
(dp1421
g66
(dp1422
g93
g94
ssg75
g1411
sg68
(lp1423
S':'
asbag61
(g82
g63
NtRp1424
(dp1425
g66
(dp1426
sg75
g1411
sg68
(lp1427
g61
(g62
g63
NtRp1428
(dp1429
g66
(dp1430
g74
I4
ssg75
g1424
sg68
(lp1431
S'Company=&Country=United+States&File_Name=10&First_Name=sam&Keywords=&Last_Name=&School=&Title=&_formkey=d710bd64-60a0-4a20-a728-d81b2f60a940&_formname=no_table%2Fcreate'
p1432
asbasbasbag61
(g77
g63
NtRp1433
(dp1434
g66
(dp1435
sg75
g1011
sg68
(lp1436
g61
(g82
g63
NtRp1437
(dp1438
g66
(dp1439
g86
g87
ssg75
g1433
sg68
(lp1440
S'remote_addr'
p1441
asbag61
(g82
g63
NtRp1442
(dp1443
g66
(dp1444
g93
g94
ssg75
g1433
sg68
(lp1445
S':'
asbag61
(g82
g63
NtRp1446
(dp1447
g66
(dp1448
sg75
g1433
sg68
(lp1449
g61
(g62
g63
NtRp1450
(dp1451
g66
(dp1452
g74
I4
ssg75
g1446
sg68
(lp1453
g194
asbasbasbag61
(g77
g63
NtRp1454
(dp1455
g66
(dp1456
sg75
g1011
sg68
(lp1457
g61
(g82
g63
NtRp1458
(dp1459
g66
(dp1460
g86
g87
ssg75
g1454
sg68
(lp1461
S'remote_port'
p1462
asbag61
(g82
g63
NtRp1463
(dp1464
g66
(dp1465
g93
g94
ssg75
g1454
sg68
(lp1466
S':'
asbag61
(g82
g63
NtRp1467
(dp1468
g66
(dp1469
sg75
g1454
sg68
(lp1470
g61
(g62
g63
NtRp1471
(dp1472
g66
(dp1473
g74
I4
ssg75
g1467
sg68
(lp1474
S'1800'
p1475
asbasbasbag61
(g77
g63
NtRp1476
(dp1477
g66
(dp1478
sg75
g1011
sg68
(lp1479
g61
(g82
g63
NtRp1480
(dp1481
g66
(dp1482
g86
g87
ssg75
g1476
sg68
(lp1483
S'request_method'
p1484
asbag61
(g82
g63
NtRp1485
(dp1486
g66
(dp1487
g93
g94
ssg75
g1476
sg68
(lp1488
S':'
asbag61
(g82
g63
NtRp1489
(dp1490
g66
(dp1491
sg75
g1476
sg68
(lp1492
g61
(g62
g63
NtRp1493
(dp1494
g66
(dp1495
g74
I4
ssg75
g1489
sg68
(lp1496
S'GET'
p1497
asbasbasbag61
(g77
g63
NtRp1498
(dp1499
g66
(dp1500
sg75
g1011
sg68
(lp1501
g61
(g82
g63
NtRp1502
(dp1503
g66
(dp1504
g86
g87
ssg75
g1498
sg68
(lp1505
S'script_name'
p1506
asbag61
(g82
g63
NtRp1507
(dp1508
g66
(dp1509
g93
g94
ssg75
g1498
sg68
(lp1510
S':'
asbag61
(g82
g63
NtRp1511
(dp1512
g66
(dp1513
sg75
g1498
sg68
(lp1514
g61
(g62
g63
NtRp1515
(dp1516
g66
(dp1517
g74
I4
ssg75
g1511
sg68
(lp1518
S''
asbasbasbag61
(g77
g63
NtRp1519
(dp1520
g66
(dp1521
sg75
g1011
sg68
(lp1522
g61
(g82
g63
NtRp1523
(dp1524
g66
(dp1525
g86
g87
ssg75
g1519
sg68
(lp1526
S'server_name'
p1527
asbag61
(g82
g63
NtRp1528
(dp1529
g66
(dp1530
g93
g94
ssg75
g1519
sg68
(lp1531
S':'
asbag61
(g82
g63
NtRp1532
(dp1533
g66
(dp1534
sg75
g1519
sg68
(lp1535
g61
(g62
g63
NtRp1536
(dp1537
g66
(dp1538
g74
I4
ssg75
g1532
sg68
(lp1539
S'mniagrover'
p1540
asbasbasbag61
(g77
g63
NtRp1541
(dp1542
g66
(dp1543
sg75
g1011
sg68
(lp1544
g61
(g82
g63
NtRp1545
(dp1546
g66
(dp1547
g86
g87
ssg75
g1541
sg68
(lp1548
S'server_port'
p1549
asbag61
(g82
g63
NtRp1550
(dp1551
g66
(dp1552
g93
g94
ssg75
g1541
sg68
(lp1553
S':'
asbag61
(g82
g63
NtRp1554
(dp1555
g66
(dp1556
sg75
g1541
sg68
(lp1557
g61
(g62
g63
NtRp1558
(dp1559
g66
(dp1560
g74
I4
ssg75
g1554
sg68
(lp1561
S'8000'
p1562
asbasbasbag61
(g77
g63
NtRp1563
(dp1564
g66
(dp1565
sg75
g1011
sg68
(lp1566
g61
(g82
g63
NtRp1567
(dp1568
g66
(dp1569
g86
g87
ssg75
g1563
sg68
(lp1570
S'server_protocol'
p1571
asbag61
(g82
g63
NtRp1572
(dp1573
g66
(dp1574
g93
g94
ssg75
g1563
sg68
(lp1575
S':'
asbag61
(g82
g63
NtRp1576
(dp1577
g66
(dp1578
sg75
g1563
sg68
(lp1579
g61
(g62
g63
NtRp1580
(dp1581
g66
(dp1582
g74
I4
ssg75
g1576
sg68
(lp1583
S'HTTP/1.1'
p1584
asbasbasbag61
(g77
g63
NtRp1585
(dp1586
g66
(dp1587
sg75
g1011
sg68
(lp1588
g61
(g82
g63
NtRp1589
(dp1590
g66
(dp1591
g86
g87
ssg75
g1585
sg68
(lp1592
S'server_software'
p1593
asbag61
(g82
g63
NtRp1594
(dp1595
g66
(dp1596
g93
g94
ssg75
g1585
sg68
(lp1597
S':'
asbag61
(g82
g63
NtRp1598
(dp1599
g66
(dp1600
sg75
g1585
sg68
(lp1601
g61
(g62
g63
NtRp1602
(dp1603
g66
(dp1604
g74
I4
ssg75
g1598
sg68
(lp1605
S'Rocket 1.2.4'
p1606
asbasbasbag61
(g77
g63
NtRp1607
(dp1608
g66
(dp1609
sg75
g1011
sg68
(lp1610
g61
(g82
g63
NtRp1611
(dp1612
g66
(dp1613
g86
g87
ssg75
g1607
sg68
(lp1614
S'web2py_crontype'
p1615
asbag61
(g82
g63
NtRp1616
(dp1617
g66
(dp1618
g93
g94
ssg75
g1607
sg68
(lp1619
S':'
asbag61
(g82
g63
NtRp1620
(dp1621
g66
(dp1622
sg75
g1607
sg68
(lp1623
g61
(g62
g63
NtRp1624
(dp1625
g66
(dp1626
g74
I4
ssg75
g1620
sg68
(lp1627
S'hard'
p1628
asbasbasbag61
(g77
g63
NtRp1629
(dp1630
g66
(dp1631
sg75
g1011
sg68
(lp1632
g61
(g82
g63
NtRp1633
(dp1634
g66
(dp1635
g86
g87
ssg75
g1629
sg68
(lp1636
S'web2py_path'
p1637
asbag61
(g82
g63
NtRp1638
(dp1639
g66
(dp1640
g93
g94
ssg75
g1629
sg68
(lp1641
S':'
asbag61
(g82
g63
NtRp1642
(dp1643
g66
(dp1644
sg75
g1629
sg68
(lp1645
g61
(g62
g63
NtRp1646
(dp1647
g66
(dp1648
g74
I4
ssg75
g1642
sg68
(lp1649
g1058
asbasbasbag61
(g77
g63
NtRp1650
(dp1651
g66
(dp1652
sg75
g1011
sg68
(lp1653
g61
(g82
g63
NtRp1654
(dp1655
g66
(dp1656
g86
g87
ssg75
g1650
sg68
(lp1657
S'web2py_version'
p1658
asbag61
(g82
g63
NtRp1659
(dp1660
g66
(dp1661
g93
g94
ssg75
g1650
sg68
(lp1662
S':'
asbag61
(g82
g63
NtRp1663
(dp1664
g66
(dp1665
sg75
g1650
sg68
(lp1666
g61
(g62
g63
NtRp1667
(dp1668
g66
(dp1669
g74
I4
ssg75
g1663
sg68
(lp1670
g61
(g70
g63
NtRp1671
(dp1672
g66
(dp1673
g74
I3
ssg75
Nsg68
(lp1674
g61
(g77
g63
NtRp1675
(dp1676
g66
(dp1677
sg75
g1671
sg68
(lp1678
g61
(g82
g63
NtRp1679
(dp1680
g66
(dp1681
sg75
g1675
sg68
(lp1682
g61
(g62
g63
NtRp1683
(dp1684
g66
(dp1685
g74
I3
ssg75
g1679
sg68
(lp1686
S'1'
asbasbasbag61
(g77
g63
NtRp1687
(dp1688
g66
(dp1689
sg75
g1671
sg68
(lp1690
g61
(g82
g63
NtRp1691
(dp1692
g66
(dp1693
sg75
g1687
sg68
(lp1694
g61
(g62
g63
NtRp1695
(dp1696
g66
(dp1697
g74
I3
ssg75
g1691
sg68
(lp1698
S'99'
p1699
asbasbasbag61
(g77
g63
NtRp1700
(dp1701
g66
(dp1702
sg75
g1671
sg68
(lp1703
g61
(g82
g63
NtRp1704
(dp1705
g66
(dp1706
sg75
g1700
sg68
(lp1707
g61
(g62
g63
NtRp1708
(dp1709
g66
(dp1710
g74
I3
ssg75
g1704
sg68
(lp1711
S'7'
asbasbasbag61
(g77
g63
NtRp1712
(dp1713
g66
(dp1714
sg75
g1671
sg68
(lp1715
g61
(g82
g63
NtRp1716
(dp1717
g66
(dp1718
sg75
g1712
sg68
(lp1719
g61
(g62
g63
NtRp1720
(dp1721
g66
(dp1722
g74
I3
ssg75
g1716
sg68
(lp1723
S'datetime.datetime(2012, 3, 4, 22, 12, 8)'
p1724
asbasbasbag61
(g77
g63
NtRp1725
(dp1726
g66
(dp1727
sg75
g1671
sg68
(lp1728
g61
(g82
g63
NtRp1729
(dp1730
g66
(dp1731
sg75
g1725
sg68
(lp1732
g61
(g62
g63
NtRp1733
(dp1734
g66
(dp1735
g74
I3
ssg75
g1729
sg68
(lp1736
S'stable'
p1737
asbasbasbasbasbasbasbag61
(g77
g63
NtRp1738
(dp1739
g66
(dp1740
sg75
g1011
sg68
(lp1741
g61
(g82
g63
NtRp1742
(dp1743
g66
(dp1744
g86
g87
ssg75
g1738
sg68
(lp1745
S'wsgi_errors'
p1746
asbag61
(g82
g63
NtRp1747
(dp1748
g66
(dp1749
g93
g94
ssg75
g1738
sg68
(lp1750
S':'
asbag61
(g82
g63
NtRp1751
(dp1752
g66
(dp1753
sg75
g1738
sg68
(lp1754
g61
(g62
g63
NtRp1755
(dp1756
g66
(dp1757
g74
I4
ssg75
g1751
sg68
(lp1758
S"<open file '<stderr>', mode 'w' at 0x00A550D0>"
p1759
asbasbasbag61
(g77
g63
NtRp1760
(dp1761
g66
(dp1762
sg75
g1011
sg68
(lp1763
g61
(g82
g63
NtRp1764
(dp1765
g66
(dp1766
g86
g87
ssg75
g1760
sg68
(lp1767
S'wsgi_file_wrapper'
p1768
asbag61
(g82
g63
NtRp1769
(dp1770
g66
(dp1771
g93
g94
ssg75
g1760
sg68
(lp1772
S':'
asbag61
(g82
g63
NtRp1773
(dp1774
g66
(dp1775
sg75
g1760
sg68
(lp1776
g61
(g62
g63
NtRp1777
(dp1778
g66
(dp1779
g74
I4
ssg75
g1773
sg68
(lp1780
S'<class wsgiref.util.FileWrapper at 0x015E8AB0>'
p1781
asbasbasbag61
(g77
g63
NtRp1782
(dp1783
g66
(dp1784
sg75
g1011
sg68
(lp1785
g61
(g82
g63
NtRp1786
(dp1787
g66
(dp1788
g86
g87
ssg75
g1782
sg68
(lp1789
S'wsgi_input'
p1790
asbag61
(g82
g63
NtRp1791
(dp1792
g66
(dp1793
g93
g94
ssg75
g1782
sg68
(lp1794
S':'
asbag61
(g82
g63
NtRp1795
(dp1796
g66
(dp1797
sg75
g1782
sg68
(lp1798
g61
(g62
g63
NtRp1799
(dp1800
g66
(dp1801
g74
I4
ssg75
g1795
sg68
(lp1802
S'<socket._fileobject object at 0x01924630>'
p1803
asbasbasbag61
(g77
g63
NtRp1804
(dp1805
g66
(dp1806
sg75
g1011
sg68
(lp1807
g61
(g82
g63
NtRp1808
(dp1809
g66
(dp1810
g86
g87
ssg75
g1804
sg68
(lp1811
S'wsgi_multiprocess'
p1812
asbag61
(g82
g63
NtRp1813
(dp1814
g66
(dp1815
g93
g94
ssg75
g1804
sg68
(lp1816
S':'
asbag61
(g82
g63
NtRp1817
(dp1818
g66
(dp1819
sg75
g1804
sg68
(lp1820
g61
(g62
g63
NtRp1821
(dp1822
g66
(dp1823
g74
I4
ssg75
g1817
sg68
(lp1824
g104
asbasbasbag61
(g77
g63
NtRp1825
(dp1826
g66
(dp1827
sg75
g1011
sg68
(lp1828
g61
(g82
g63
NtRp1829
(dp1830
g66
(dp1831
g86
g87
ssg75
g1825
sg68
(lp1832
S'wsgi_multithread'
p1833
asbag61
(g82
g63
NtRp1834
(dp1835
g66
(dp1836
g93
g94
ssg75
g1825
sg68
(lp1837
S':'
asbag61
(g82
g63
NtRp1838
(dp1839
g66
(dp1840
sg75
g1825
sg68
(lp1841
g61
(g62
g63
NtRp1842
(dp1843
g66
(dp1844
g74
I4
ssg75
g1838
sg68
(lp1845
S'True'
p1846
asbasbasbag61
(g77
g63
NtRp1847
(dp1848
g66
(dp1849
sg75
g1011
sg68
(lp1850
g61
(g82
g63
NtRp1851
(dp1852
g66
(dp1853
g86
g87
ssg75
g1847
sg68
(lp1854
S'wsgi_run_once'
p1855
asbag61
(g82
g63
NtRp1856
(dp1857
g66
(dp1858
g93
g94
ssg75
g1847
sg68
(lp1859
S':'
asbag61
(g82
g63
NtRp1860
(dp1861
g66
(dp1862
sg75
g1847
sg68
(lp1863
g61
(g62
g63
NtRp1864
(dp1865
g66
(dp1866
g74
I4
ssg75
g1860
sg68
(lp1867
g104
asbasbasbag61
(g77
g63
NtRp1868
(dp1869
g66
(dp1870
sg75
g1011
sg68
(lp1871
g61
(g82
g63
NtRp1872
(dp1873
g66
(dp1874
g86
g87
ssg75
g1868
sg68
(lp1875
S'wsgi_url_scheme'
p1876
asbag61
(g82
g63
NtRp1877
(dp1878
g66
(dp1879
g93
g94
ssg75
g1868
sg68
(lp1880
S':'
asbag61
(g82
g63
NtRp1881
(dp1882
g66
(dp1883
sg75
g1868
sg68
(lp1884
g61
(g62
g63
NtRp1885
(dp1886
g66
(dp1887
g74
I4
ssg75
g1881
sg68
(lp1888
S'http'
p1889
asbasbasbag61
(g77
g63
NtRp1890
(dp1891
g66
(dp1892
sg75
g1011
sg68
(lp1893
g61
(g82
g63
NtRp1894
(dp1895
g66
(dp1896
g86
g87
ssg75
g1890
sg68
(lp1897
S'wsgi_version'
p1898
asbag61
(g82
g63
NtRp1899
(dp1900
g66
(dp1901
g93
g94
ssg75
g1890
sg68
(lp1902
S':'
asbag61
(g82
g63
NtRp1903
(dp1904
g66
(dp1905
sg75
g1890
sg68
(lp1906
g61
(g62
g63
NtRp1907
(dp1908
g66
(dp1909
g74
I4
ssg75
g1903
sg68
(lp1910
g61
(g70
g63
NtRp1911
(dp1912
g66
(dp1913
g74
I3
ssg75
Nsg68
(lp1914
g61
(g77
g63
NtRp1915
(dp1916
g66
(dp1917
sg75
g1911
sg68
(lp1918
g61
(g82
g63
NtRp1919
(dp1920
g66
(dp1921
sg75
g1915
sg68
(lp1922
g61
(g62
g63
NtRp1923
(dp1924
g66
(dp1925
g74
I3
ssg75
g1919
sg68
(lp1926
S'1'
asbasbasbag61
(g77
g63
NtRp1927
(dp1928
g66
(dp1929
sg75
g1911
sg68
(lp1930
g61
(g82
g63
NtRp1931
(dp1932
g66
(dp1933
sg75
g1927
sg68
(lp1934
g61
(g62
g63
NtRp1935
(dp1936
g66
(dp1937
g74
I3
ssg75
g1931
sg68
(lp1938
S'0'
asbasbasbasbasbasbasbasbasbasbasbag61
(g77
g63
NtRp1939
(dp1940
g66
(dp1941
sg75
g71
sg68
(lp1942
g61
(g82
g63
NtRp1943
(dp1944
g66
(dp1945
g86
g87
ssg75
g1939
sg68
(lp1946
S'extension'
p1947
asbag61
(g82
g63
NtRp1948
(dp1949
g66
(dp1950
g93
g94
ssg75
g1939
sg68
(lp1951
S':'
asbag61
(g82
g63
NtRp1952
(dp1953
g66
(dp1954
sg75
g1939
sg68
(lp1955
g61
(g62
g63
NtRp1956
(dp1957
g66
(dp1958
g74
I5
ssg75
g1952
sg68
(lp1959
S'html'
p1960
asbasbasbag61
(g77
g63
NtRp1961
(dp1962
g66
(dp1963
sg75
g71
sg68
(lp1964
g61
(g82
g63
NtRp1965
(dp1966
g66
(dp1967
g86
g87
ssg75
g1961
sg68
(lp1968
S'folder'
p1969
asbag61
(g82
g63
NtRp1970
(dp1971
g66
(dp1972
g93
g94
ssg75
g1961
sg68
(lp1973
S':'
asbag61
(g82
g63
NtRp1974
(dp1975
g66
(dp1976
sg75
g1961
sg68
(lp1977
g61
(g62
g63
NtRp1978
(dp1979
g66
(dp1980
g74
I5
ssg75
g1974
sg68
(lp1981
S'C:\\Documents and Settings\\agrover\\Desktop\\previous crawler\\web2py\\applications\\mycrawler\\'
p1982
asbasbasbag61
(g77
g63
NtRp1983
(dp1984
g66
(dp1985
sg75
g71
sg68
(lp1986
g61
(g82
g63
NtRp1987
(dp1988
g66
(dp1989
g86
g87
ssg75
g1983
sg68
(lp1990
S'function'
p1991
asbag61
(g82
g63
NtRp1992
(dp1993
g66
(dp1994
g93
g94
ssg75
g1983
sg68
(lp1995
S':'
asbag61
(g82
g63
NtRp1996
(dp1997
g66
(dp1998
sg75
g1983
sg68
(lp1999
g61
(g62
g63
NtRp2000
(dp2001
g66
(dp2002
g74
I5
ssg75
g1996
sg68
(lp2003
S'search'
p2004
asbasbasbag61
(g77
g63
NtRp2005
(dp2006
g66
(dp2007
sg75
g71
sg68
(lp2008
g61
(g82
g63
NtRp2009
(dp2010
g66
(dp2011
g86
g87
ssg75
g2005
sg68
(lp2012
S'get_vars'
p2013
asbag61
(g82
g63
NtRp2014
(dp2015
g66
(dp2016
g93
g94
ssg75
g2005
sg68
(lp2017
S':'
asbag61
(g82
g63
NtRp2018
(dp2019
g66
(dp2020
sg75
g2005
sg68
(lp2021
g61
(g62
g63
NtRp2022
(dp2023
g66
(dp2024
g74
I5
ssg75
g2018
sg68
(lp2025
g61
(g70
g63
NtRp2026
(dp2027
g66
(dp2028
g74
I4
ssg75
Nsg68
(lp2029
g61
(g77
g63
NtRp2030
(dp2031
g66
(dp2032
sg75
g2026
sg68
(lp2033
g61
(g82
g63
NtRp2034
(dp2035
g66
(dp2036
g86
g87
ssg75
g2030
sg68
(lp2037
S'Company'
p2038
asbag61
(g82
g63
NtRp2039
(dp2040
g66
(dp2041
g93
g94
ssg75
g2030
sg68
(lp2042
S':'
asbag61
(g82
g63
NtRp2043
(dp2044
g66
(dp2045
sg75
g2030
sg68
(lp2046
g61
(g62
g63
NtRp2047
(dp2048
g66
(dp2049
g74
I4
ssg75
g2043
sg68
(lp2050
S''
asbasbasbag61
(g77
g63
NtRp2051
(dp2052
g66
(dp2053
sg75
g2026
sg68
(lp2054
g61
(g82
g63
NtRp2055
(dp2056
g66
(dp2057
g86
g87
ssg75
g2051
sg68
(lp2058
S'Country'
p2059
asbag61
(g82
g63
NtRp2060
(dp2061
g66
(dp2062
g93
g94
ssg75
g2051
sg68
(lp2063
S':'
asbag61
(g82
g63
NtRp2064
(dp2065
g66
(dp2066
sg75
g2051
sg68
(lp2067
g61
(g62
g63
NtRp2068
(dp2069
g66
(dp2070
g74
I4
ssg75
g2064
sg68
(lp2071
S'United States'
p2072
asbasbasbag61
(g77
g63
NtRp2073
(dp2074
g66
(dp2075
sg75
g2026
sg68
(lp2076
g61
(g82
g63
NtRp2077
(dp2078
g66
(dp2079
g86
g87
ssg75
g2073
sg68
(lp2080
S'File_Name'
p2081
asbag61
(g82
g63
NtRp2082
(dp2083
g66
(dp2084
g93
g94
ssg75
g2073
sg68
(lp2085
S':'
asbag61
(g82
g63
NtRp2086
(dp2087
g66
(dp2088
sg75
g2073
sg68
(lp2089
g61
(g62
g63
NtRp2090
(dp2091
g66
(dp2092
g74
I4
ssg75
g2086
sg68
(lp2093
S'10'
p2094
asbasbasbag61
(g77
g63
NtRp2095
(dp2096
g66
(dp2097
sg75
g2026
sg68
(lp2098
g61
(g82
g63
NtRp2099
(dp2100
g66
(dp2101
g86
g87
ssg75
g2095
sg68
(lp2102
S'First_Name'
p2103
asbag61
(g82
g63
NtRp2104
(dp2105
g66
(dp2106
g93
g94
ssg75
g2095
sg68
(lp2107
S':'
asbag61
(g82
g63
NtRp2108
(dp2109
g66
(dp2110
sg75
g2095
sg68
(lp2111
g61
(g62
g63
NtRp2112
(dp2113
g66
(dp2114
g74
I4
ssg75
g2108
sg68
(lp2115
S'sam'
p2116
asbasbasbag61
(g77
g63
NtRp2117
(dp2118
g66
(dp2119
sg75
g2026
sg68
(lp2120
g61
(g82
g63
NtRp2121
(dp2122
g66
(dp2123
g86
g87
ssg75
g2117
sg68
(lp2124
S'Keywords'
p2125
asbag61
(g82
g63
NtRp2126
(dp2127
g66
(dp2128
g93
g94
ssg75
g2117
sg68
(lp2129
S':'
asbag61
(g82
g63
NtRp2130
(dp2131
g66
(dp2132
sg75
g2117
sg68
(lp2133
g61
(g62
g63
NtRp2134
(dp2135
g66
(dp2136
g74
I4
ssg75
g2130
sg68
(lp2137
S''
asbasbasbag61
(g77
g63
NtRp2138
(dp2139
g66
(dp2140
sg75
g2026
sg68
(lp2141
g61
(g82
g63
NtRp2142
(dp2143
g66
(dp2144
g86
g87
ssg75
g2138
sg68
(lp2145
S'Last_Name'
p2146
asbag61
(g82
g63
NtRp2147
(dp2148
g66
(dp2149
g93
g94
ssg75
g2138
sg68
(lp2150
S':'
asbag61
(g82
g63
NtRp2151
(dp2152
g66
(dp2153
sg75
g2138
sg68
(lp2154
g61
(g62
g63
NtRp2155
(dp2156
g66
(dp2157
g74
I4
ssg75
g2151
sg68
(lp2158
S''
asbasbasbag61
(g77
g63
NtRp2159
(dp2160
g66
(dp2161
sg75
g2026
sg68
(lp2162
g61
(g82
g63
NtRp2163
(dp2164
g66
(dp2165
g86
g87
ssg75
g2159
sg68
(lp2166
S'School'
p2167
asbag61
(g82
g63
NtRp2168
(dp2169
g66
(dp2170
g93
g94
ssg75
g2159
sg68
(lp2171
S':'
asbag61
(g82
g63
NtRp2172
(dp2173
g66
(dp2174
sg75
g2159
sg68
(lp2175
g61
(g62
g63
NtRp2176
(dp2177
g66
(dp2178
g74
I4
ssg75
g2172
sg68
(lp2179
S''
asbasbasbag61
(g77
g63
NtRp2180
(dp2181
g66
(dp2182
sg75
g2026
sg68
(lp2183
g61
(g82
g63
NtRp2184
(dp2185
g66
(dp2186
g86
g87
ssg75
g2180
sg68
(lp2187
S'Title'
p2188
asbag61
(g82
g63
NtRp2189
(dp2190
g66
(dp2191
g93
g94
ssg75
g2180
sg68
(lp2192
S':'
asbag61
(g82
g63
NtRp2193
(dp2194
g66
(dp2195
sg75
g2180
sg68
(lp2196
g61
(g62
g63
NtRp2197
(dp2198
g66
(dp2199
g74
I4
ssg75
g2193
sg68
(lp2200
S''
asbasbasbasbasbasbasbag61
(g77
g63
NtRp2201
(dp2202
g66
(dp2203
sg75
g71
sg68
(lp2204
g61
(g82
g63
NtRp2205
(dp2206
g66
(dp2207
g86
g87
ssg75
g2201
sg68
(lp2208
S'global_settings'
p2209
asbag61
(g82
g63
NtRp2210
(dp2211
g66
(dp2212
g93
g94
ssg75
g2201
sg68
(lp2213
S':'
asbag61
(g82
g63
NtRp2214
(dp2215
g66
(dp2216
sg75
g2201
sg68
(lp2217
g61
(g62
g63
NtRp2218
(dp2219
g66
(dp2220
g74
I5
ssg75
g2214
sg68
(lp2221
g61
(g70
g63
NtRp2222
(dp2223
g66
(dp2224
g74
I4
ssg75
Nsg68
(lp2225
g61
(g77
g63
NtRp2226
(dp2227
g66
(dp2228
sg75
g2222
sg68
(lp2229
g61
(g82
g63
NtRp2230
(dp2231
g66
(dp2232
g86
g87
ssg75
g2226
sg68
(lp2233
g1023
asbag61
(g82
g63
NtRp2234
(dp2235
g66
(dp2236
g93
g94
ssg75
g2226
sg68
(lp2237
S':'
asbag61
(g82
g63
NtRp2238
(dp2239
g66
(dp2240
sg75
g2226
sg68
(lp2241
g61
(g62
g63
NtRp2242
(dp2243
g66
(dp2244
g74
I4
ssg75
g2238
sg68
(lp2245
S"set(['C:\\\\Documents and Settings\\\\agrover\\\\Desktop\\\\previous crawler\\\\web2py\\\\applications\\\\admin\\\\', 'C:\\\\Documents and Settings\\\\agrover\\\\Desktop\\\\previous crawler\\\\web2py\\\\applications\\\\mycrawler\\\\', 'C:\\\\Documents and Settings\\\\agrover\\\\Desktop\\\\previous crawler\\\\web2py\\\\applications\\\\welcome\\\\', 'C:\\\\Documents and Settings\\\\agrover\\\\Desktop\\\\previous crawler\\\\web2py\\\\applications\\\\crawler\\\\'])"
p2246
asbasbasbag61
(g77
g63
NtRp2247
(dp2248
g66
(dp2249
sg75
g2222
sg68
(lp2250
g61
(g82
g63
NtRp2251
(dp2252
g66
(dp2253
g86
g87
ssg75
g2247
sg68
(lp2254
g1045
asbag61
(g82
g63
NtRp2255
(dp2256
g66
(dp2257
g93
g94
ssg75
g2247
sg68
(lp2258
S':'
asbag61
(g82
g63
NtRp2259
(dp2260
g66
(dp2261
sg75
g2247
sg68
(lp2262
g61
(g62
g63
NtRp2263
(dp2264
g66
(dp2265
g74
I4
ssg75
g2259
sg68
(lp2266
g1058
asbasbasbag61
(g77
g63
NtRp2267
(dp2268
g66
(dp2269
sg75
g2222
sg68
(lp2270
g61
(g82
g63
NtRp2271
(dp2272
g66
(dp2273
g86
g87
ssg75
g2267
sg68
(lp2274
g1067
asbag61
(g82
g63
NtRp2275
(dp2276
g66
(dp2277
g93
g94
ssg75
g2267
sg68
(lp2278
S':'
asbag61
(g82
g63
NtRp2279
(dp2280
g66
(dp2281
sg75
g2267
sg68
(lp2282
g61
(g62
g63
NtRp2283
(dp2284
g66
(dp2285
g74
I4
ssg75
g2279
sg68
(lp2286
g61
(g70
g63
NtRp2287
(dp2288
g66
(dp2289
g74
I3
ssg75
Nsg68
(lp2290
sbasbasbasbag61
(g77
g63
NtRp2291
(dp2292
g66
(dp2293
sg75
g2222
sg68
(lp2294
g61
(g82
g63
NtRp2295
(dp2296
g66
(dp2297
g86
g87
ssg75
g2291
sg68
(lp2298
g1092
asbag61
(g82
g63
NtRp2299
(dp2300
g66
(dp2301
g93
g94
ssg75
g2291
sg68
(lp2302
S':'
asbag61
(g82
g63
NtRp2303
(dp2304
g66
(dp2305
sg75
g2291
sg68
(lp2306
g61
(g62
g63
NtRp2307
(dp2308
g66
(dp2309
g74
I4
ssg75
g2303
sg68
(lp2310
S"<Values at 0x16d63f0: {'verbose': False, 'ip': '127.0.0.1', 'shutdown_timeout': 5, 'taskbar': False, 'nocron': False, 'pid_filename': 'httpserver.pid', 'maxthreads': None, 'softcron': False, 'server_name': 'mniagrover', 'bpython': False, 'nogui': False, 'port': 8000, 'extcron': False, 'debuglevel': 30, 'test': None, 'folder': 'C:\\\\Documents and Settings\\\\agrover\\\\Desktop\\\\previous crawler\\\\web2py', 'config': '', 'import_models': False, 'winservice': '', 'shell': None, 'run': '', 'log_filename': 'httpserver.log', 'args': [''], 'socket_timeout': 5, 'ssl_ca_certificate': None, 'scheduler': None, 'profiler_filename': None, 'ssl_private_key': '', 'password': '<ask>', 'request_queue_size': 5, 'ssl_certificate': '', 'cronjob': False, 'numthreads': None, 'quiet': False, 'interfaces': None, 'minthreads': None, 'timeout': 10, 'plain': False, 'nobanner': False}>"
p2311
asbasbasbag61
(g77
g63
NtRp2312
(dp2313
g66
(dp2314
sg75
g2222
sg68
(lp2315
g61
(g82
g63
NtRp2316
(dp2317
g66
(dp2318
g86
g87
ssg75
g2312
sg68
(lp2319
g1114
asbag61
(g82
g63
NtRp2320
(dp2321
g66
(dp2322
g93
g94
ssg75
g2312
sg68
(lp2323
S':'
asbag61
(g82
g63
NtRp2324
(dp2325
g66
(dp2326
sg75
g2312
sg68
(lp2327
g61
(g62
g63
NtRp2328
(dp2329
g66
(dp2330
g74
I4
ssg75
g2324
sg68
(lp2331
S'set([])'
p2332
asbasbasbag61
(g77
g63
NtRp2333
(dp2334
g66
(dp2335
sg75
g2222
sg68
(lp2336
g61
(g82
g63
NtRp2337
(dp2338
g66
(dp2339
g86
g87
ssg75
g2333
sg68
(lp2340
g1136
asbag61
(g82
g63
NtRp2341
(dp2342
g66
(dp2343
g93
g94
ssg75
g2333
sg68
(lp2344
S':'
asbag61
(g82
g63
NtRp2345
(dp2346
g66
(dp2347
sg75
g2333
sg68
(lp2348
g61
(g62
g63
NtRp2349
(dp2350
g66
(dp2351
g74
I4
ssg75
g2345
sg68
(lp2352
g104
asbasbasbag61
(g77
g63
NtRp2353
(dp2354
g66
(dp2355
sg75
g2222
sg68
(lp2356
g61
(g82
g63
NtRp2357
(dp2358
g66
(dp2359
g86
g87
ssg75
g2353
sg68
(lp2360
g1157
asbag61
(g82
g63
NtRp2361
(dp2362
g66
(dp2363
g93
g94
ssg75
g2353
sg68
(lp2364
S':'
asbag61
(g82
g63
NtRp2365
(dp2366
g66
(dp2367
sg75
g2353
sg68
(lp2368
g61
(g62
g63
NtRp2369
(dp2370
g66
(dp2371
g74
I4
ssg75
g2365
sg68
(lp2372
g1170
asbasbasbag61
(g77
g63
NtRp2373
(dp2374
g66
(dp2375
sg75
g2222
sg68
(lp2376
g61
(g82
g63
NtRp2377
(dp2378
g66
(dp2379
g86
g87
ssg75
g2373
sg68
(lp2380
g1355
asbag61
(g82
g63
NtRp2381
(dp2382
g66
(dp2383
g93
g94
ssg75
g2373
sg68
(lp2384
S':'
asbag61
(g82
g63
NtRp2385
(dp2386
g66
(dp2387
sg75
g2373
sg68
(lp2388
g61
(g62
g63
NtRp2389
(dp2390
g66
(dp2391
g74
I4
ssg75
g2385
sg68
(lp2392
g104
asbasbasbag61
(g77
g63
NtRp2393
(dp2394
g66
(dp2395
sg75
g2222
sg68
(lp2396
g61
(g82
g63
NtRp2397
(dp2398
g66
(dp2399
g86
g87
ssg75
g2393
sg68
(lp2400
g1376
asbag61
(g82
g63
NtRp2401
(dp2402
g66
(dp2403
g93
g94
ssg75
g2393
sg68
(lp2404
S':'
asbag61
(g82
g63
NtRp2405
(dp2406
g66
(dp2407
sg75
g2393
sg68
(lp2408
g61
(g62
g63
NtRp2409
(dp2410
g66
(dp2411
g74
I4
ssg75
g2405
sg68
(lp2412
g104
asbasbasbag61
(g77
g63
NtRp2413
(dp2414
g66
(dp2415
sg75
g2222
sg68
(lp2416
g61
(g82
g63
NtRp2417
(dp2418
g66
(dp2419
g86
g87
ssg75
g2413
sg68
(lp2420
g1615
asbag61
(g82
g63
NtRp2421
(dp2422
g66
(dp2423
g93
g94
ssg75
g2413
sg68
(lp2424
S':'
asbag61
(g82
g63
NtRp2425
(dp2426
g66
(dp2427
sg75
g2413
sg68
(lp2428
g61
(g62
g63
NtRp2429
(dp2430
g66
(dp2431
g74
I4
ssg75
g2425
sg68
(lp2432
g1628
asbasbasbag61
(g77
g63
NtRp2433
(dp2434
g66
(dp2435
sg75
g2222
sg68
(lp2436
g61
(g82
g63
NtRp2437
(dp2438
g66
(dp2439
g86
g87
ssg75
g2433
sg68
(lp2440
g1658
asbag61
(g82
g63
NtRp2441
(dp2442
g66
(dp2443
g93
g94
ssg75
g2433
sg68
(lp2444
S':'
asbag61
(g82
g63
NtRp2445
(dp2446
g66
(dp2447
sg75
g2433
sg68
(lp2448
g61
(g62
g63
NtRp2449
(dp2450
g66
(dp2451
g74
I4
ssg75
g2445
sg68
(lp2452
g61
(g70
g63
NtRp2453
(dp2454
g66
(dp2455
g74
I3
ssg75
Nsg68
(lp2456
g61
(g77
g63
NtRp2457
(dp2458
g66
(dp2459
sg75
g2453
sg68
(lp2460
g61
(g82
g63
NtRp2461
(dp2462
g66
(dp2463
sg75
g2457
sg68
(lp2464
g61
(g62
g63
NtRp2465
(dp2466
g66
(dp2467
g74
I3
ssg75
g2461
sg68
(lp2468
S'1'
asbasbasbag61
(g77
g63
NtRp2469
(dp2470
g66
(dp2471
sg75
g2453
sg68
(lp2472
g61
(g82
g63
NtRp2473
(dp2474
g66
(dp2475
sg75
g2469
sg68
(lp2476
g61
(g62
g63
NtRp2477
(dp2478
g66
(dp2479
g74
I3
ssg75
g2473
sg68
(lp2480
S'99'
p2481
asbasbasbag61
(g77
g63
NtRp2482
(dp2483
g66
(dp2484
sg75
g2453
sg68
(lp2485
g61
(g82
g63
NtRp2486
(dp2487
g66
(dp2488
sg75
g2482
sg68
(lp2489
g61
(g62
g63
NtRp2490
(dp2491
g66
(dp2492
g74
I3
ssg75
g2486
sg68
(lp2493
S'7'
asbasbasbag61
(g77
g63
NtRp2494
(dp2495
g66
(dp2496
sg75
g2453
sg68
(lp2497
g61
(g82
g63
NtRp2498
(dp2499
g66
(dp2500
sg75
g2494
sg68
(lp2501
g61
(g62
g63
NtRp2502
(dp2503
g66
(dp2504
g74
I3
ssg75
g2498
sg68
(lp2505
S'datetime.datetime(2012, 3, 4, 22, 12, 8)'
p2506
asbasbasbag61
(g77
g63
NtRp2507
(dp2508
g66
(dp2509
sg75
g2453
sg68
(lp2510
g61
(g82
g63
NtRp2511
(dp2512
g66
(dp2513
sg75
g2507
sg68
(lp2514
g61
(g62
g63
NtRp2515
(dp2516
g66
(dp2517
g74
I3
ssg75
g2511
sg68
(lp2518
g1737
asbasbasbasbasbasbasbasbasbasbasbag61
(g77
g63
NtRp2519
(dp2520
g66
(dp2521
sg75
g71
sg68
(lp2522
g61
(g82
g63
NtRp2523
(dp2524
g66
(dp2525
g86
g87
ssg75
g2519
sg68
(lp2526
S'is_https'
p2527
asbag61
(g82
g63
NtRp2528
(dp2529
g66
(dp2530
g93
g94
ssg75
g2519
sg68
(lp2531
S':'
asbag61
(g82
g63
NtRp2532
(dp2533
g66
(dp2534
sg75
g2519
sg68
(lp2535
g61
(g62
g63
NtRp2536
(dp2537
g66
(dp2538
g74
I5
ssg75
g2532
sg68
(lp2539
g104
asbasbasbag61
(g77
g63
NtRp2540
(dp2541
g66
(dp2542
sg75
g71
sg68
(lp2543
g61
(g82
g63
NtRp2544
(dp2545
g66
(dp2546
g86
g87
ssg75
g2540
sg68
(lp2547
S'is_local'
p2548
asbag61
(g82
g63
NtRp2549
(dp2550
g66
(dp2551
g93
g94
ssg75
g2540
sg68
(lp2552
S':'
asbag61
(g82
g63
NtRp2553
(dp2554
g66
(dp2555
sg75
g2540
sg68
(lp2556
g61
(g62
g63
NtRp2557
(dp2558
g66
(dp2559
g74
I5
ssg75
g2553
sg68
(lp2560
g1846
asbasbasbag61
(g77
g63
NtRp2561
(dp2562
g66
(dp2563
sg75
g71
sg68
(lp2564
g61
(g82
g63
NtRp2565
(dp2566
g66
(dp2567
g86
g87
ssg75
g2561
sg68
(lp2568
S'is_restful'
p2569
asbag61
(g82
g63
NtRp2570
(dp2571
g66
(dp2572
g93
g94
ssg75
g2561
sg68
(lp2573
S':'
asbag61
(g82
g63
NtRp2574
(dp2575
g66
(dp2576
sg75
g2561
sg68
(lp2577
g61
(g62
g63
NtRp2578
(dp2579
g66
(dp2580
g74
I5
ssg75
g2574
sg68
(lp2581
g104
asbasbasbag61
(g77
g63
NtRp2582
(dp2583
g66
(dp2584
sg75
g71
sg68
(lp2585
g61
(g82
g63
NtRp2586
(dp2587
g66
(dp2588
g86
g87
ssg75
g2582
sg68
(lp2589
S'now'
p2590
asbag61
(g82
g63
NtRp2591
(dp2592
g66
(dp2593
g93
g94
ssg75
g2582
sg68
(lp2594
S':'
asbag61
(g82
g63
NtRp2595
(dp2596
g66
(dp2597
sg75
g2582
sg68
(lp2598
g61
(g62
g63
NtRp2599
(dp2600
g66
(dp2601
g74
I5
ssg75
g2595
sg68
(lp2602
S'datetime.datetime(2012, 6, 8, 14, 34, 12, 375000)'
p2603
asbasbasbag61
(g77
g63
NtRp2604
(dp2605
g66
(dp2606
sg75
g71
sg68
(lp2607
g61
(g82
g63
NtRp2608
(dp2609
g66
(dp2610
g86
g87
ssg75
g2604
sg68
(lp2611
S'post_vars'
p2612
asbag61
(g82
g63
NtRp2613
(dp2614
g66
(dp2615
g93
g94
ssg75
g2604
sg68
(lp2616
S':'
asbag61
(g82
g63
NtRp2617
(dp2618
g66
(dp2619
sg75
g2604
sg68
(lp2620
g61
(g62
g63
NtRp2621
(dp2622
g66
(dp2623
g74
I5
ssg75
g2617
sg68
(lp2624
g61
(g70
g63
NtRp2625
(dp2626
g66
(dp2627
g74
I4
ssg75
Nsg68
(lp2628
sbasbasbasbag61
(g77
g63
NtRp2629
(dp2630
g66
(dp2631
sg75
g71
sg68
(lp2632
g61
(g82
g63
NtRp2633
(dp2634
g66
(dp2635
g86
g87
ssg75
g2629
sg68
(lp2636
S'url'
p2637
asbag61
(g82
g63
NtRp2638
(dp2639
g66
(dp2640
g93
g94
ssg75
g2629
sg68
(lp2641
S':'
asbag61
(g82
g63
NtRp2642
(dp2643
g66
(dp2644
sg75
g2629
sg68
(lp2645
g61
(g62
g63
NtRp2646
(dp2647
g66
(dp2648
g74
I5
ssg75
g2642
sg68
(lp2649
S'/mycrawler/default/search'
p2650
asbasbasbag61
(g77
g63
NtRp2651
(dp2652
g66
(dp2653
sg75
g71
sg68
(lp2654
g61
(g82
g63
NtRp2655
(dp2656
g66
(dp2657
g86
g87
ssg75
g2651
sg68
(lp2658
S'utcnow'
p2659
asbag61
(g82
g63
NtRp2660
(dp2661
g66
(dp2662
g93
g94
ssg75
g2651
sg68
(lp2663
S':'
asbag61
(g82
g63
NtRp2664
(dp2665
g66
(dp2666
sg75
g2651
sg68
(lp2667
g61
(g62
g63
NtRp2668
(dp2669
g66
(dp2670
g74
I5
ssg75
g2664
sg68
(lp2671
S'datetime.datetime(2012, 6, 8, 21, 34, 12, 375000)'
p2672
asbasbasbag61
(g77
g63
NtRp2673
(dp2674
g66
(dp2675
sg75
g71
sg68
(lp2676
g61
(g82
g63
NtRp2677
(dp2678
g66
(dp2679
g86
g87
ssg75
g2673
sg68
(lp2680
S'uuid'
p2681
asbag61
(g82
g63
NtRp2682
(dp2683
g66
(dp2684
g93
g94
ssg75
g2673
sg68
(lp2685
S':'
asbag61
(g82
g63
NtRp2686
(dp2687
g66
(dp2688
sg75
g2673
sg68
(lp2689
g61
(g62
g63
NtRp2690
(dp2691
g66
(dp2692
g74
I5
ssg75
g2686
sg68
(lp2693
S'mycrawler/127.0.0.1.2012-06-08.14-34-12.488f56b7-58ba-483b-838d-4cef278790b8'
p2694
asbasbasbag61
(g77
g63
NtRp2695
(dp2696
g66
(dp2697
sg75
g71
sg68
(lp2698
g61
(g82
g63
NtRp2699
(dp2700
g66
(dp2701
g86
g87
ssg75
g2695
sg68
(lp2702
S'vars'
p2703
asbag61
(g82
g63
NtRp2704
(dp2705
g66
(dp2706
g93
g94
ssg75
g2695
sg68
(lp2707
S':'
asbag61
(g82
g63
NtRp2708
(dp2709
g66
(dp2710
sg75
g2695
sg68
(lp2711
g61
(g62
g63
NtRp2712
(dp2713
g66
(dp2714
g74
I5
ssg75
g2708
sg68
(lp2715
g61
(g70
g63
NtRp2716
(dp2717
g66
(dp2718
g74
I4
ssg75
Nsg68
(lp2719
g61
(g77
g63
NtRp2720
(dp2721
g66
(dp2722
sg75
g2716
sg68
(lp2723
g61
(g82
g63
NtRp2724
(dp2725
g66
(dp2726
g86
g87
ssg75
g2720
sg68
(lp2727
g2038
asbag61
(g82
g63
NtRp2728
(dp2729
g66
(dp2730
g93
g94
ssg75
g2720
sg68
(lp2731
S':'
asbag61
(g82
g63
NtRp2732
(dp2733
g66
(dp2734
sg75
g2720
sg68
(lp2735
g61
(g62
g63
NtRp2736
(dp2737
g66
(dp2738
g74
I4
ssg75
g2732
sg68
(lp2739
S''
asbasbasbag61
(g77
g63
NtRp2740
(dp2741
g66
(dp2742
sg75
g2716
sg68
(lp2743
g61
(g82
g63
NtRp2744
(dp2745
g66
(dp2746
g86
g87
ssg75
g2740
sg68
(lp2747
g2059
asbag61
(g82
g63
NtRp2748
(dp2749
g66
(dp2750
g93
g94
ssg75
g2740
sg68
(lp2751
S':'
asbag61
(g82
g63
NtRp2752
(dp2753
g66
(dp2754
sg75
g2740
sg68
(lp2755
g61
(g62
g63
NtRp2756
(dp2757
g66
(dp2758
g74
I4
ssg75
g2752
sg68
(lp2759
g2072
asbasbasbag61
(g77
g63
NtRp2760
(dp2761
g66
(dp2762
sg75
g2716
sg68
(lp2763
g61
(g82
g63
NtRp2764
(dp2765
g66
(dp2766
g86
g87
ssg75
g2760
sg68
(lp2767
g2081
asbag61
(g82
g63
NtRp2768
(dp2769
g66
(dp2770
g93
g94
ssg75
g2760
sg68
(lp2771
S':'
asbag61
(g82
g63
NtRp2772
(dp2773
g66
(dp2774
sg75
g2760
sg68
(lp2775
g61
(g62
g63
NtRp2776
(dp2777
g66
(dp2778
g74
I4
ssg75
g2772
sg68
(lp2779
g2094
asbasbasbag61
(g77
g63
NtRp2780
(dp2781
g66
(dp2782
sg75
g2716
sg68
(lp2783
g61
(g82
g63
NtRp2784
(dp2785
g66
(dp2786
g86
g87
ssg75
g2780
sg68
(lp2787
g2103
asbag61
(g82
g63
NtRp2788
(dp2789
g66
(dp2790
g93
g94
ssg75
g2780
sg68
(lp2791
S':'
asbag61
(g82
g63
NtRp2792
(dp2793
g66
(dp2794
sg75
g2780
sg68
(lp2795
g61
(g62
g63
NtRp2796
(dp2797
g66
(dp2798
g74
I4
ssg75
g2792
sg68
(lp2799
g2116
asbasbasbag61
(g77
g63
NtRp2800
(dp2801
g66
(dp2802
sg75
g2716
sg68
(lp2803
g61
(g82
g63
NtRp2804
(dp2805
g66
(dp2806
g86
g87
ssg75
g2800
sg68
(lp2807
g2125
asbag61
(g82
g63
NtRp2808
(dp2809
g66
(dp2810
g93
g94
ssg75
g2800
sg68
(lp2811
S':'
asbag61
(g82
g63
NtRp2812
(dp2813
g66
(dp2814
sg75
g2800
sg68
(lp2815
g61
(g62
g63
NtRp2816
(dp2817
g66
(dp2818
g74
I4
ssg75
g2812
sg68
(lp2819
S''
asbasbasbag61
(g77
g63
NtRp2820
(dp2821
g66
(dp2822
sg75
g2716
sg68
(lp2823
g61
(g82
g63
NtRp2824
(dp2825
g66
(dp2826
g86
g87
ssg75
g2820
sg68
(lp2827
g2146
asbag61
(g82
g63
NtRp2828
(dp2829
g66
(dp2830
g93
g94
ssg75
g2820
sg68
(lp2831
S':'
asbag61
(g82
g63
NtRp2832
(dp2833
g66
(dp2834
sg75
g2820
sg68
(lp2835
g61
(g62
g63
NtRp2836
(dp2837
g66
(dp2838
g74
I4
ssg75
g2832
sg68
(lp2839
S''
asbasbasbag61
(g77
g63
NtRp2840
(dp2841
g66
(dp2842
sg75
g2716
sg68
(lp2843
g61
(g82
g63
NtRp2844
(dp2845
g66
(dp2846
g86
g87
ssg75
g2840
sg68
(lp2847
g2167
asbag61
(g82
g63
NtRp2848
(dp2849
g66
(dp2850
g93
g94
ssg75
g2840
sg68
(lp2851
S':'
asbag61
(g82
g63
NtRp2852
(dp2853
g66
(dp2854
sg75
g2840
sg68
(lp2855
g61
(g62
g63
NtRp2856
(dp2857
g66
(dp2858
g74
I4
ssg75
g2852
sg68
(lp2859
S''
asbasbasbag61
(g77
g63
NtRp2860
(dp2861
g66
(dp2862
sg75
g2716
sg68
(lp2863
g61
(g82
g63
NtRp2864
(dp2865
g66
(dp2866
g86
g87
ssg75
g2860
sg68
(lp2867
g2188
asbag61
(g82
g63
NtRp2868
(dp2869
g66
(dp2870
g93
g94
ssg75
g2860
sg68
(lp2871
S':'
asbag61
(g82
g63
NtRp2872
(dp2873
g66
(dp2874
sg75
g2860
sg68
(lp2875
g61
(g62
g63
NtRp2876
(dp2877
g66
(dp2878
g74
I4
ssg75
g2872
sg68
(lp2879
S''
asbasbasbasbasbasbasbag61
(g77
g63
NtRp2880
(dp2881
g66
(dp2882
sg75
g71
sg68
(lp2883
g61
(g82
g63
NtRp2884
(dp2885
g66
(dp2886
g86
g87
ssg75
g2880
sg68
(lp2887
S'wsgi'
p2888
asbag61
(g82
g63
NtRp2889
(dp2890
g66
(dp2891
g93
g94
ssg75
g2880
sg68
(lp2892
S':'
asbag61
(g82
g63
NtRp2893
(dp2894
g66
(dp2895
sg75
g2880
sg68
(lp2896
g61
(g62
g63
NtRp2897
(dp2898
g66
(dp2899
g74
I5
ssg75
g2893
sg68
(lp2900
g61
(g70
g63
NtRp2901
(dp2902
g66
(dp2903
g74
I4
ssg75
Nsg68
(lp2904
g61
(g77
g63
NtRp2905
(dp2906
g66
(dp2907
sg75
g2901
sg68
(lp2908
g61
(g82
g63
NtRp2909
(dp2910
g66
(dp2911
g86
g87
ssg75
g2905
sg68
(lp2912
S'environ'
p2913
asbag61
(g82
g63
NtRp2914
(dp2915
g66
(dp2916
g93
g94
ssg75
g2905
sg68
(lp2917
S':'
asbag61
(g82
g63
NtRp2918
(dp2919
g66
(dp2920
sg75
g2905
sg68
(lp2921
g61
(g62
g63
NtRp2922
(dp2923
g66
(dp2924
g74
I4
ssg75
g2918
sg68
(lp2925
g61
(g70
g63
NtRp2926
(dp2927
g66
(dp2928
g74
I3
ssg75
Nsg68
(lp2929
g61
(g77
g63
NtRp2930
(dp2931
g66
(dp2932
sg75
g2926
sg68
(lp2933
g61
(g82
g63
NtRp2934
(dp2935
g66
(dp2936
g86
g87
ssg75
g2930
sg68
(lp2937
S'HTTP_ACCEPT'
p2938
asbag61
(g82
g63
NtRp2939
(dp2940
g66
(dp2941
g93
g94
ssg75
g2930
sg68
(lp2942
S':'
asbag61
(g82
g63
NtRp2943
(dp2944
g66
(dp2945
sg75
g2930
sg68
(lp2946
g61
(g62
g63
NtRp2947
(dp2948
g66
(dp2949
g74
I3
ssg75
g2943
sg68
(lp2950
g1192
asbasbasbag61
(g77
g63
NtRp2951
(dp2952
g66
(dp2953
sg75
g2926
sg68
(lp2954
g61
(g82
g63
NtRp2955
(dp2956
g66
(dp2957
g86
g87
ssg75
g2951
sg68
(lp2958
S'HTTP_ACCEPT_ENCODING'
p2959
asbag61
(g82
g63
NtRp2960
(dp2961
g66
(dp2962
g93
g94
ssg75
g2951
sg68
(lp2963
S':'
asbag61
(g82
g63
NtRp2964
(dp2965
g66
(dp2966
sg75
g2951
sg68
(lp2967
g61
(g62
g63
NtRp2968
(dp2969
g66
(dp2970
g74
I3
ssg75
g2964
sg68
(lp2971
g1214
asbasbasbag61
(g77
g63
NtRp2972
(dp2973
g66
(dp2974
sg75
g2926
sg68
(lp2975
g61
(g82
g63
NtRp2976
(dp2977
g66
(dp2978
g86
g87
ssg75
g2972
sg68
(lp2979
S'HTTP_ACCEPT_LANGUAGE'
p2980
asbag61
(g82
g63
NtRp2981
(dp2982
g66
(dp2983
g93
g94
ssg75
g2972
sg68
(lp2984
S':'
asbag61
(g82
g63
NtRp2985
(dp2986
g66
(dp2987
sg75
g2972
sg68
(lp2988
g61
(g62
g63
NtRp2989
(dp2990
g66
(dp2991
g74
I3
ssg75
g2985
sg68
(lp2992
g1236
asbasbasbag61
(g77
g63
NtRp2993
(dp2994
g66
(dp2995
sg75
g2926
sg68
(lp2996
g61
(g82
g63
NtRp2997
(dp2998
g66
(dp2999
g86
g87
ssg75
g2993
sg68
(lp3000
S'HTTP_CONNECTION'
p3001
asbag61
(g82
g63
NtRp3002
(dp3003
g66
(dp3004
g93
g94
ssg75
g2993
sg68
(lp3005
S':'
asbag61
(g82
g63
NtRp3006
(dp3007
g66
(dp3008
sg75
g2993
sg68
(lp3009
g61
(g62
g63
NtRp3010
(dp3011
g66
(dp3012
g74
I3
ssg75
g3006
sg68
(lp3013
g1258
asbasbasbag61
(g77
g63
NtRp3014
(dp3015
g66
(dp3016
sg75
g2926
sg68
(lp3017
g61
(g82
g63
NtRp3018
(dp3019
g66
(dp3020
g86
g87
ssg75
g3014
sg68
(lp3021
S'HTTP_COOKIE'
p3022
asbag61
(g82
g63
NtRp3023
(dp3024
g66
(dp3025
g93
g94
ssg75
g3014
sg68
(lp3026
S':'
asbag61
(g82
g63
NtRp3027
(dp3028
g66
(dp3029
sg75
g3014
sg68
(lp3030
g61
(g62
g63
NtRp3031
(dp3032
g66
(dp3033
g74
I3
ssg75
g3027
sg68
(lp3034
g1280
asbasbasbag61
(g77
g63
NtRp3035
(dp3036
g66
(dp3037
sg75
g2926
sg68
(lp3038
g61
(g82
g63
NtRp3039
(dp3040
g66
(dp3041
g86
g87
ssg75
g3035
sg68
(lp3042
S'HTTP_HOST'
p3043
asbag61
(g82
g63
NtRp3044
(dp3045
g66
(dp3046
g93
g94
ssg75
g3035
sg68
(lp3047
S':'
asbag61
(g82
g63
NtRp3048
(dp3049
g66
(dp3050
sg75
g3035
sg68
(lp3051
g61
(g62
g63
NtRp3052
(dp3053
g66
(dp3054
g74
I3
ssg75
g3048
sg68
(lp3055
g1302
asbasbasbag61
(g77
g63
NtRp3056
(dp3057
g66
(dp3058
sg75
g2926
sg68
(lp3059
g61
(g82
g63
NtRp3060
(dp3061
g66
(dp3062
g86
g87
ssg75
g3056
sg68
(lp3063
S'HTTP_REFERER'
p3064
asbag61
(g82
g63
NtRp3065
(dp3066
g66
(dp3067
g93
g94
ssg75
g3056
sg68
(lp3068
S':'
asbag61
(g82
g63
NtRp3069
(dp3070
g66
(dp3071
sg75
g3056
sg68
(lp3072
g61
(g62
g63
NtRp3073
(dp3074
g66
(dp3075
g74
I3
ssg75
g3069
sg68
(lp3076
g1324
asbasbasbag61
(g77
g63
NtRp3077
(dp3078
g66
(dp3079
sg75
g2926
sg68
(lp3080
g61
(g82
g63
NtRp3081
(dp3082
g66
(dp3083
g86
g87
ssg75
g3077
sg68
(lp3084
S'HTTP_USER_AGENT'
p3085
asbag61
(g82
g63
NtRp3086
(dp3087
g66
(dp3088
g93
g94
ssg75
g3077
sg68
(lp3089
S':'
asbag61
(g82
g63
NtRp3090
(dp3091
g66
(dp3092
sg75
g3077
sg68
(lp3093
g61
(g62
g63
NtRp3094
(dp3095
g66
(dp3096
g74
I3
ssg75
g3090
sg68
(lp3097
g1346
asbasbasbag61
(g77
g63
NtRp3098
(dp3099
g66
(dp3100
sg75
g2926
sg68
(lp3101
g61
(g82
g63
NtRp3102
(dp3103
g66
(dp3104
g86
g87
ssg75
g3098
sg68
(lp3105
S'PATH_INFO'
p3106
asbag61
(g82
g63
NtRp3107
(dp3108
g66
(dp3109
g93
g94
ssg75
g3098
sg68
(lp3110
S':'
asbag61
(g82
g63
NtRp3111
(dp3112
g66
(dp3113
sg75
g3098
sg68
(lp3114
g61
(g62
g63
NtRp3115
(dp3116
g66
(dp3117
g74
I3
ssg75
g3111
sg68
(lp3118
g1410
asbasbasbag61
(g77
g63
NtRp3119
(dp3120
g66
(dp3121
sg75
g2926
sg68
(lp3122
g61
(g82
g63
NtRp3123
(dp3124
g66
(dp3125
g86
g87
ssg75
g3119
sg68
(lp3126
S'QUERY_STRING'
p3127
asbag61
(g82
g63
NtRp3128
(dp3129
g66
(dp3130
g93
g94
ssg75
g3119
sg68
(lp3131
S':'
asbag61
(g82
g63
NtRp3132
(dp3133
g66
(dp3134
sg75
g3119
sg68
(lp3135
g61
(g62
g63
NtRp3136
(dp3137
g66
(dp3138
g74
I3
ssg75
g3132
sg68
(lp3139
g1432
asbasbasbag61
(g77
g63
NtRp3140
(dp3141
g66
(dp3142
sg75
g2926
sg68
(lp3143
g61
(g82
g63
NtRp3144
(dp3145
g66
(dp3146
g86
g87
ssg75
g3140
sg68
(lp3147
S'REMOTE_ADDR'
p3148
asbag61
(g82
g63
NtRp3149
(dp3150
g66
(dp3151
g93
g94
ssg75
g3140
sg68
(lp3152
S':'
asbag61
(g82
g63
NtRp3153
(dp3154
g66
(dp3155
sg75
g3140
sg68
(lp3156
g61
(g62
g63
NtRp3157
(dp3158
g66
(dp3159
g74
I3
ssg75
g3153
sg68
(lp3160
g194
asbasbasbag61
(g77
g63
NtRp3161
(dp3162
g66
(dp3163
sg75
g2926
sg68
(lp3164
g61
(g82
g63
NtRp3165
(dp3166
g66
(dp3167
g86
g87
ssg75
g3161
sg68
(lp3168
S'REMOTE_PORT'
p3169
asbag61
(g82
g63
NtRp3170
(dp3171
g66
(dp3172
g93
g94
ssg75
g3161
sg68
(lp3173
S':'
asbag61
(g82
g63
NtRp3174
(dp3175
g66
(dp3176
sg75
g3161
sg68
(lp3177
g61
(g62
g63
NtRp3178
(dp3179
g66
(dp3180
g74
I3
ssg75
g3174
sg68
(lp3181
g1475
asbasbasbag61
(g77
g63
NtRp3182
(dp3183
g66
(dp3184
sg75
g2926
sg68
(lp3185
g61
(g82
g63
NtRp3186
(dp3187
g66
(dp3188
g86
g87
ssg75
g3182
sg68
(lp3189
S'REQUEST_METHOD'
p3190
asbag61
(g82
g63
NtRp3191
(dp3192
g66
(dp3193
g93
g94
ssg75
g3182
sg68
(lp3194
S':'
asbag61
(g82
g63
NtRp3195
(dp3196
g66
(dp3197
sg75
g3182
sg68
(lp3198
g61
(g62
g63
NtRp3199
(dp3200
g66
(dp3201
g74
I3
ssg75
g3195
sg68
(lp3202
g1497
asbasbasbag61
(g77
g63
NtRp3203
(dp3204
g66
(dp3205
sg75
g2926
sg68
(lp3206
g61
(g82
g63
NtRp3207
(dp3208
g66
(dp3209
g86
g87
ssg75
g3203
sg68
(lp3210
S'SCRIPT_NAME'
p3211
asbag61
(g82
g63
NtRp3212
(dp3213
g66
(dp3214
g93
g94
ssg75
g3203
sg68
(lp3215
S':'
asbag61
(g82
g63
NtRp3216
(dp3217
g66
(dp3218
sg75
g3203
sg68
(lp3219
g61
(g62
g63
NtRp3220
(dp3221
g66
(dp3222
g74
I3
ssg75
g3216
sg68
(lp3223
S''
asbasbasbag61
(g77
g63
NtRp3224
(dp3225
g66
(dp3226
sg75
g2926
sg68
(lp3227
g61
(g82
g63
NtRp3228
(dp3229
g66
(dp3230
g86
g87
ssg75
g3224
sg68
(lp3231
S'SERVER_NAME'
p3232
asbag61
(g82
g63
NtRp3233
(dp3234
g66
(dp3235
g93
g94
ssg75
g3224
sg68
(lp3236
S':'
asbag61
(g82
g63
NtRp3237
(dp3238
g66
(dp3239
sg75
g3224
sg68
(lp3240
g61
(g62
g63
NtRp3241
(dp3242
g66
(dp3243
g74
I3
ssg75
g3237
sg68
(lp3244
g1540
asbasbasbag61
(g77
g63
NtRp3245
(dp3246
g66
(dp3247
sg75
g2926
sg68
(lp3248
g61
(g82
g63
NtRp3249
(dp3250
g66
(dp3251
g86
g87
ssg75
g3245
sg68
(lp3252
S'SERVER_PORT'
p3253
asbag61
(g82
g63
NtRp3254
(dp3255
g66
(dp3256
g93
g94
ssg75
g3245
sg68
(lp3257
S':'
asbag61
(g82
g63
NtRp3258
(dp3259
g66
(dp3260
sg75
g3245
sg68
(lp3261
g61
(g62
g63
NtRp3262
(dp3263
g66
(dp3264
g74
I3
ssg75
g3258
sg68
(lp3265
g1562
asbasbasbag61
(g77
g63
NtRp3266
(dp3267
g66
(dp3268
sg75
g2926
sg68
(lp3269
g61
(g82
g63
NtRp3270
(dp3271
g66
(dp3272
g86
g87
ssg75
g3266
sg68
(lp3273
S'SERVER_PROTOCOL'
p3274
asbag61
(g82
g63
NtRp3275
(dp3276
g66
(dp3277
g93
g94
ssg75
g3266
sg68
(lp3278
S':'
asbag61
(g82
g63
NtRp3279
(dp3280
g66
(dp3281
sg75
g3266
sg68
(lp3282
g61
(g62
g63
NtRp3283
(dp3284
g66
(dp3285
g74
I3
ssg75
g3279
sg68
(lp3286
g1584
asbasbasbag61
(g77
g63
NtRp3287
(dp3288
g66
(dp3289
sg75
g2926
sg68
(lp3290
g61
(g82
g63
NtRp3291
(dp3292
g66
(dp3293
g86
g87
ssg75
g3287
sg68
(lp3294
S'SERVER_SOFTWARE'
p3295
asbag61
(g82
g63
NtRp3296
(dp3297
g66
(dp3298
g93
g94
ssg75
g3287
sg68
(lp3299
S':'
asbag61
(g82
g63
NtRp3300
(dp3301
g66
(dp3302
sg75
g3287
sg68
(lp3303
g61
(g62
g63
NtRp3304
(dp3305
g66
(dp3306
g74
I3
ssg75
g3300
sg68
(lp3307
g1606
asbasbasbag61
(g77
g63
NtRp3308
(dp3309
g66
(dp3310
sg75
g2926
sg68
(lp3311
g61
(g82
g63
NtRp3312
(dp3313
g66
(dp3314
g86
g87
ssg75
g3308
sg68
(lp3315
S'wsgi.errors'
p3316
asbag61
(g82
g63
NtRp3317
(dp3318
g66
(dp3319
g93
g94
ssg75
g3308
sg68
(lp3320
S':'
asbag61
(g82
g63
NtRp3321
(dp3322
g66
(dp3323
sg75
g3308
sg68
(lp3324
g61
(g62
g63
NtRp3325
(dp3326
g66
(dp3327
g74
I3
ssg75
g3321
sg68
(lp3328
S"<open file '<stderr>', mode 'w' at 0x00A550D0>"
p3329
asbasbasbag61
(g77
g63
NtRp3330
(dp3331
g66
(dp3332
sg75
g2926
sg68
(lp3333
g61
(g82
g63
NtRp3334
(dp3335
g66
(dp3336
g86
g87
ssg75
g3330
sg68
(lp3337
S'wsgi.file_wrapper'
p3338
asbag61
(g82
g63
NtRp3339
(dp3340
g66
(dp3341
g93
g94
ssg75
g3330
sg68
(lp3342
S':'
asbag61
(g82
g63
NtRp3343
(dp3344
g66
(dp3345
sg75
g3330
sg68
(lp3346
g61
(g62
g63
NtRp3347
(dp3348
g66
(dp3349
g74
I3
ssg75
g3343
sg68
(lp3350
S'<class wsgiref.util.FileWrapper at 0x015E8AB0>'
p3351
asbasbasbag61
(g77
g63
NtRp3352
(dp3353
g66
(dp3354
sg75
g2926
sg68
(lp3355
g61
(g82
g63
NtRp3356
(dp3357
g66
(dp3358
g86
g87
ssg75
g3352
sg68
(lp3359
S'wsgi.input'
p3360
asbag61
(g82
g63
NtRp3361
(dp3362
g66
(dp3363
g93
g94
ssg75
g3352
sg68
(lp3364
S':'
asbag61
(g82
g63
NtRp3365
(dp3366
g66
(dp3367
sg75
g3352
sg68
(lp3368
g61
(g62
g63
NtRp3369
(dp3370
g66
(dp3371
g74
I3
ssg75
g3365
sg68
(lp3372
S'<cStringIO.StringO object at 0x067590C0>'
p3373
asbasbasbag61
(g77
g63
NtRp3374
(dp3375
g66
(dp3376
sg75
g2926
sg68
(lp3377
g61
(g82
g63
NtRp3378
(dp3379
g66
(dp3380
g86
g87
ssg75
g3374
sg68
(lp3381
S'wsgi.multiprocess'
p3382
asbag61
(g82
g63
NtRp3383
(dp3384
g66
(dp3385
g93
g94
ssg75
g3374
sg68
(lp3386
S':'
asbag61
(g82
g63
NtRp3387
(dp3388
g66
(dp3389
sg75
g3374
sg68
(lp3390
g61
(g62
g63
NtRp3391
(dp3392
g66
(dp3393
g74
I3
ssg75
g3387
sg68
(lp3394
g104
asbasbasbag61
(g77
g63
NtRp3395
(dp3396
g66
(dp3397
sg75
g2926
sg68
(lp3398
g61
(g82
g63
NtRp3399
(dp3400
g66
(dp3401
g86
g87
ssg75
g3395
sg68
(lp3402
S'wsgi.multithread'
p3403
asbag61
(g82
g63
NtRp3404
(dp3405
g66
(dp3406
g93
g94
ssg75
g3395
sg68
(lp3407
S':'
asbag61
(g82
g63
NtRp3408
(dp3409
g66
(dp3410
sg75
g3395
sg68
(lp3411
g61
(g62
g63
NtRp3412
(dp3413
g66
(dp3414
g74
I3
ssg75
g3408
sg68
(lp3415
g1846
asbasbasbag61
(g77
g63
NtRp3416
(dp3417
g66
(dp3418
sg75
g2926
sg68
(lp3419
g61
(g82
g63
NtRp3420
(dp3421
g66
(dp3422
g86
g87
ssg75
g3416
sg68
(lp3423
S'wsgi.run_once'
p3424
asbag61
(g82
g63
NtRp3425
(dp3426
g66
(dp3427
g93
g94
ssg75
g3416
sg68
(lp3428
S':'
asbag61
(g82
g63
NtRp3429
(dp3430
g66
(dp3431
sg75
g3416
sg68
(lp3432
g61
(g62
g63
NtRp3433
(dp3434
g66
(dp3435
g74
I3
ssg75
g3429
sg68
(lp3436
g104
asbasbasbag61
(g77
g63
NtRp3437
(dp3438
g66
(dp3439
sg75
g2926
sg68
(lp3440
g61
(g82
g63
NtRp3441
(dp3442
g66
(dp3443
g86
g87
ssg75
g3437
sg68
(lp3444
S'wsgi.url_scheme'
p3445
asbag61
(g82
g63
NtRp3446
(dp3447
g66
(dp3448
g93
g94
ssg75
g3437
sg68
(lp3449
S':'
asbag61
(g82
g63
NtRp3450
(dp3451
g66
(dp3452
sg75
g3437
sg68
(lp3453
g61
(g62
g63
NtRp3454
(dp3455
g66
(dp3456
g74
I3
ssg75
g3450
sg68
(lp3457
g1889
asbasbasbag61
(g77
g63
NtRp3458
(dp3459
g66
(dp3460
sg75
g2926
sg68
(lp3461
g61
(g82
g63
NtRp3462
(dp3463
g66
(dp3464
g86
g87
ssg75
g3458
sg68
(lp3465
S'wsgi.version'
p3466
asbag61
(g82
g63
NtRp3467
(dp3468
g66
(dp3469
g93
g94
ssg75
g3458
sg68
(lp3470
S':'
asbag61
(g82
g63
NtRp3471
(dp3472
g66
(dp3473
sg75
g3458
sg68
(lp3474
g61
(g62
g63
NtRp3475
(dp3476
g66
(dp3477
g74
I3
ssg75
g3471
sg68
(lp3478
S'1'
asbasbasbasbasbasbasbasbasbasbasbasbasbsS'frames'
p3479
(lp3480
(dp3481
S'file'
p3482
S'C:\\Documents and Settings\\agrover\\Desktop\\previous crawler\\web2py\\gluon\\restricted.py'
p3483
sS'dump'
p3484
(dp3485
S'environment'
p3486
S"{'A': <class 'gluon.html.A'>, 'Auth': <class 'gluon.tools.Auth'>, 'B': <class 'gluon.html.B'>, 'BEAUTIFY': <class 'gluon.html.BEAUTIFY'>, 'BODY': <class 'gluon.html.BODY'>, 'BR': <class 'gluon.html.BR'>, 'BUTTON': <class 'gluon.html.BUTTON'>, 'CAT': <class 'gluon.html.CAT'>, 'CENTER': <class 'gluon.html.CENTER'>, 'CLEANUP': <class 'gluon.validators.CLEANUP'>, ...}"
p3487
sS'ccode'
p3488
S'<code object <module> at 05853650, file "C:\\Docu...tions\\mycrawler\\controllers/default.py", line 11>'
p3489
ssS'lnum'
p3490
I205
sS'lines'
p3491
(dp3492
I200
S'    try:'
p3493
sI201
S'        if type(code) == types.CodeType:'
p3494
sI202
S'            ccode = code'
p3495
sI203
S'        else:'
p3496
sI204
S'            ccode = compile2(code,layer)'
p3497
sI205
S'        exec ccode in environment'
p3498
sI206
S'    except HTTP:'
p3499
sI207
S'        raise'
p3500
sI208
S'    except RestrictedError:'
p3501
sI209
S'        # do not encapsulate (obfuscate) the original RestrictedError'
p3502
ssS'call'
p3503
S"(code='# -*- coding: utf-8 -*-\\n# this file is released ...urrent)\\n\\nresponse._vars=response._caller(search)\\n', environment={'A': <class 'gluon.html.A'>, 'Auth': <class 'gluon.tools.Auth'>, 'B': <class 'gluon.html.B'>, 'BEAUTIFY': <class 'gluon.html.BEAUTIFY'>, 'BODY': <class 'gluon.html.BODY'>, 'BR': <class 'gluon.html.BR'>, 'BUTTON': <class 'gluon.html.BUTTON'>, 'CAT': <class 'gluon.html.CAT'>, 'CENTER': <class 'gluon.html.CENTER'>, 'CLEANUP': <class 'gluon.validators.CLEANUP'>, ...}, layer=r'C:\\Documents and Settings\\agrover\\Desktop\\previo...2py\\applications\\mycrawler\\controllers/default.py')"
p3504
sS'func'
p3505
S'restricted'
p3506
sa(dp3507
g3482
S'C:\\Documents and Settings\\agrover\\Desktop\\previous crawler\\web2py\\applications\\mycrawler\\controllers\\default.py'
p3508
sg3484
(dp3509
S'i'
S'undefined'
p3510
sS'builtinrange'
p3511
S'<built-in function range>'
p3512
ssg3490
I316
sg3491
(dp3513
I305
S"    #response.headers['Content-Type'] = 'text/csv'"
p3514
sI306
S"    #response.headers['Content-Disposition'] = 'attachment; filename=%s' % request.vars.File_Name"
p3515
sI307
S''
sI308
S'    #print view_profile'
p3516
sI309
S'    #print name'
p3517
sI310
S'    #print location'
p3518
sI311
S'    #print industry'
p3519
sI312
S'    #print titl'
p3520
sI313
S''
sI314
S'    return dict(view_profile=view_profile,name=name,location=location,industry=industry,titl=titl,current=current)'
p3521
ssg3503
S'()'
p3522
sg3505
S'<module>'
p3523
sa(dp3524
g3482
S'C:\\Documents and Settings\\agrover\\Desktop\\previous crawler\\web2py\\gluon\\globals.py'
p3525
sg3484
(dp3526
S'self'
p3527
g3510
sS'f'
S'<function search>'
p3528
ssg3490
I173
sg3491
(dp3529
I168
S'        self.menu = []             # used by the default view layout'
p3530
sI169
S'        self.files = []            # used by web2py_ajax.html'
p3531
sI170
S'        self.generic_patterns = [] # patterns to allow generic views'
p3532
sI171
S"        self.delimiters = ('{{','}}')"
p3533
sI172
S'        self._vars = None'
p3534
sI173
S'        self._caller = lambda f: f()'
p3535
sI174
S'        self._view_environment = None'
p3536
sI175
S'        self._custom_commit = None'
p3537
sI176
S'        self._custom_rollback = None'
p3538
sI177
S''
ssg3503
S'(f=<function search>)'
p3539
sg3505
S'<lambda>'
p3540
sa(dp3541
g3482
S'C:\\Documents and Settings\\agrover\\Desktop\\previous crawler\\web2py\\applications\\mycrawler\\controllers\\default.py'
p3542
sg3484
(dp3543
S'request.vars.File_Name'
p3544
S"'10'"
p3545
sS'spamWriter'
p3546
g3510
sS'builtinopen'
p3547
S'<built-in function open>'
p3548
sS'global csv'
p3549
S"<module 'csv' from 'C:\\Python27\\lib\\csv.pyc'>"
p3550
sS'global request'
p3551
S"<Storage {'body': <cStringIO.StringO object at 0... 'no_table/create'}>, 'post_vars': <Storage {}>}>"
p3552
sS'delimiter'
p3553
g3510
sS'csv.writer'
p3554
S'<built-in function writer>'
p3555
sS'request.vars'
p3556
S"<Storage {'First_Name': 'sam', 'Last_Name': '', ...8-d81b2f60a940', '_formname': 'no_table/create'}>"
p3557
ssg3490
I198
sg3491
(dp3558
I193
S'    if request.vars.Title:'
p3559
sI194
S'        br["title"]=request.vars.Title'
p3560
sI195
S''
sI196
S"    countryid[country.index(request.vars.Country)]='*'+countryid[country.index(request.vars.Country)]"
p3561
sI197
S'    if request.vars.Country:'
p3562
sI198
S"        br['countryCode']=[request.vars.Country]"
p3563
sI199
S'    br.submit()'
p3564
sI200
S''
sI201
S'    view_profile=[]'
p3565
sI202
S'    name=[]'
p3566
ssg3503
S'()'
p3567
sg3505
S'search'
p3568
sa(dp3569
g3482
S'C:\\Documents and Settings\\agrover\\Desktop\\previous crawler\\web2py\\build\\bdist.win32\\egg\\mechanize\\_form.py'
p3570
sg3484
(dp3571
sg3490
I2782
sg3491
(dp3572
I2784
S'            raise ValueError(str(e))'
p3573
sI2785
S''
sI2786
S'    def get_value(self,'
p3574
sI2777
S'    def __contains__(self, name):'
p3575
sI2778
S'        return bool(self.find_control(name))'
p3576
sI2779
S'    def __setitem__(self, name, value):'
p3577
sI2780
S'        control = self.find_control(name)'
p3578
sI2781
S'        try:'
p3579
sI2782
S'            control.value = value'
p3580
sI2783
S'        except AttributeError, e:'
p3581
ssg3503
S"(self=<mechanize._form.HTMLForm instance>, name='countryCode', value=['United States'])"
p3582
sg3505
S'__setitem__'
p3583
sa(dp3584
g3482
S'C:\\Documents and Settings\\agrover\\Desktop\\previous crawler\\web2py\\build\\bdist.win32\\egg\\mechanize\\_form.py'
p3585
sg3484
(dp3586
sg3490
I1977
sg3491
(dp3587
I1972
S'        if name == "value":'
p3588
sI1973
S'            if self.disabled:'
p3589
sI1974
S'                raise AttributeError("control \'%s\' is disabled" % self.name)'
p3590
sI1975
S'            if self.readonly:'
p3591
sI1976
S'                raise AttributeError("control \'%s\' is readonly" % self.name)'
p3592
sI1977
S'            self._set_value(value)'
p3593
sI1978
S'        elif name in ("name", "type", "multiple"):'
p3594
sI1979
S'            raise AttributeError("%s attribute is readonly" % name)'
p3595
sI1980
S'        else:'
p3596
sI1981
S'            self.__dict__[name] = value'
p3597
ssg3503
S"(self=<mechanize._form.SelectControl instance>, name='value', value=['United States'])"
p3598
sg3505
g28
sa(dp3599
g3482
S'C:\\Documents and Settings\\agrover\\Desktop\\previous crawler\\web2py\\build\\bdist.win32\\egg\\mechanize\\_form.py'
p3600
sg3484
(dp3601
sg3490
I1998
sg3491
(dp3602
I1993
S'        elif len(value) > 1:'
p3603
sI1994
S'            raise ItemCountError('
p3604
sI1995
S'                "single selection list, must set sequence of "'
p3605
sI1996
S'                "length 0 or 1")'
p3606
sI1997
S'        else:'
p3607
sI1998
S'            self._single_set_value(value)'
p3608
sI1999
S''
sI2000
S'    def _get_items(self, name, target=1):'
p3609
sI2001
S'        all_items = self.get_items(name)'
p3610
sI2002
S'        items = [o for o in all_items if not o.disabled]'
p3611
ssg3503
S"(self=<mechanize._form.SelectControl instance>, value=['United States'])"
p3612
sg3505
S'_set_value'
p3613
sa(dp3614
g3482
S'C:\\Documents and Settings\\agrover\\Desktop\\previous crawler\\web2py\\build\\bdist.win32\\egg\\mechanize\\_form.py'
p3615
sg3484
(dp3616
sg3490
I2021
sg3491
(dp3617
I2016
S'                off.append(o)'
p3618
sI2017
S'        return on, off'
p3619
sI2018
S''
sI2019
S'    def _single_set_value(self, value):'
p3620
sI2020
S'        assert len(value) == 1'
p3621
sI2021
S'        on, off = self._get_items(value[0])'
p3622
sI2022
S'        assert len(on) <= 1'
p3623
sI2023
S'        if not on:'
p3624
sI2024
S'            off[0].selected = True'
p3625
sI2025
S''
ssg3503
S"(self=<mechanize._form.SelectControl instance>, value=['United States'])"
p3626
sg3505
S'_single_set_value'
p3627
sa(dp3628
g3482
S'C:\\Documents and Settings\\agrover\\Desktop\\previous crawler\\web2py\\build\\bdist.win32\\egg\\mechanize\\_form.py'
p3629
sg3484
(dp3630
sg3490
I2006
sg3491
(dp3631
I2001
S'        all_items = self.get_items(name)'
p3632
sI2002
S'        items = [o for o in all_items if not o.disabled]'
p3633
sI2003
S'        if len(items) < target:'
p3634
sI2004
S'            if len(all_items) < target:'
p3635
sI2005
S'                raise ItemNotFoundError('
p3636
sI2006
S'                    "insufficient items with name %r" % name)'
p3637
sI2007
S'            else:'
p3638
sI2008
S'                raise AttributeError('
p3639
sI2009
S'                    "insufficient non-disabled items with name %s" % name)'
p3640
sI2010
S'        on = []'
p3641
ssg3503
S"(self=<mechanize._form.SelectControl instance>, name='United States', target=1)"
p3642
sg3505
S'_get_items'
p3643
sasS'pyver'
p3644
S'Python 2.7.3: C:\\Python27\\python.exe'
p3645
sS'session'
p3646
g61
(g62
g63
NtRp3647
(dp3648
g66
(dp3649
sg68
(lp3650
g61
(g70
g63
NtRp3651
(dp3652
g66
(dp3653
g74
I5
ssg75
Nsg68
(lp3654
sbasbsS'etype'
p3655
S"<class 'mechanize._form.ItemNotFoundError'>"
p3656
sS'date'
p3657
S'Fri Jun 08 14:34:29 2012'
p3658
sS'response'
p3659
g61
(g62
g63
NtRp3660
(dp3661
g66
(dp3662
sg68
(lp3663
g61
(g70
g63
NtRp3664
(dp3665
g66
(dp3666
g74
I5
ssg75
Nsg68
(lp3667
g61
(g77
g63
NtRp3668
(dp3669
g66
(dp3670
sg75
g3664
sg68
(lp3671
g61
(g82
g63
NtRp3672
(dp3673
g66
(dp3674
g86
g87
ssg75
g3668
sg68
(lp3675
g159
asbag61
(g82
g63
NtRp3676
(dp3677
g66
(dp3678
g93
g94
ssg75
g3668
sg68
(lp3679
S':'
asbag61
(g82
g63
NtRp3680
(dp3681
g66
(dp3682
sg75
g3668
sg68
(lp3683
g61
(g62
g63
NtRp3684
(dp3685
g66
(dp3686
g74
I5
ssg75
g3680
sg68
(lp3687
S'<cStringIO.StringO object at 0x05F2B540>'
p3688
asbasbasbag61
(g77
g63
NtRp3689
(dp3690
g66
(dp3691
sg75
g3664
sg68
(lp3692
g61
(g82
g63
NtRp3693
(dp3694
g66
(dp3695
g86
g87
ssg75
g3689
sg68
(lp3696
g225
asbag61
(g82
g63
NtRp3697
(dp3698
g66
(dp3699
g93
g94
ssg75
g3689
sg68
(lp3700
S':'
asbag61
(g82
g63
NtRp3701
(dp3702
g66
(dp3703
sg75
g3689
sg68
(lp3704
g61
(g62
g63
NtRp3705
(dp3706
g66
(dp3707
g74
I5
ssg75
g3701
sg68
(lp3708
g61
(g70
g63
NtRp3709
(dp3710
g66
(dp3711
g74
I4
ssg75
Nsg68
(lp3712
g61
(g77
g63
NtRp3713
(dp3714
g66
(dp3715
sg75
g3709
sg68
(lp3716
g61
(g82
g63
NtRp3717
(dp3718
g66
(dp3719
g86
g87
ssg75
g3713
sg68
(lp3720
S'session_id_mycrawler'
p3721
asbag61
(g82
g63
NtRp3722
(dp3723
g66
(dp3724
g93
g94
ssg75
g3713
sg68
(lp3725
S':'
asbag61
(g82
g63
NtRp3726
(dp3727
g66
(dp3728
sg75
g3713
sg68
(lp3729
g61
(g62
g63
NtRp3730
(dp3731
g66
(dp3732
g74
I4
ssg75
g3726
sg68
(lp3733
g61
(g70
g63
NtRp3734
(dp3735
g66
(dp3736
g74
I3
ssg75
Nsg68
(lp3737
g61
(g77
g63
NtRp3738
(dp3739
g66
(dp3740
sg75
g3734
sg68
(lp3741
g61
(g82
g63
NtRp3742
(dp3743
g66
(dp3744
g86
g87
ssg75
g3738
sg68
(lp3745
g275
asbag61
(g82
g63
NtRp3746
(dp3747
g66
(dp3748
g93
g94
ssg75
g3738
sg68
(lp3749
S':'
asbag61
(g82
g63
NtRp3750
(dp3751
g66
(dp3752
sg75
g3738
sg68
(lp3753
g61
(g62
g63
NtRp3754
(dp3755
g66
(dp3756
g74
I3
ssg75
g3750
sg68
(lp3757
S''
asbasbasbag61
(g77
g63
NtRp3758
(dp3759
g66
(dp3760
sg75
g3734
sg68
(lp3761
g61
(g82
g63
NtRp3762
(dp3763
g66
(dp3764
g86
g87
ssg75
g3758
sg68
(lp3765
g296
asbag61
(g82
g63
NtRp3766
(dp3767
g66
(dp3768
g93
g94
ssg75
g3758
sg68
(lp3769
S':'
asbag61
(g82
g63
NtRp3770
(dp3771
g66
(dp3772
sg75
g3758
sg68
(lp3773
g61
(g62
g63
NtRp3774
(dp3775
g66
(dp3776
g74
I3
ssg75
g3770
sg68
(lp3777
S''
asbasbasbag61
(g77
g63
NtRp3778
(dp3779
g66
(dp3780
sg75
g3734
sg68
(lp3781
g61
(g82
g63
NtRp3782
(dp3783
g66
(dp3784
g86
g87
ssg75
g3778
sg68
(lp3785
g317
asbag61
(g82
g63
NtRp3786
(dp3787
g66
(dp3788
g93
g94
ssg75
g3778
sg68
(lp3789
S':'
asbag61
(g82
g63
NtRp3790
(dp3791
g66
(dp3792
sg75
g3778
sg68
(lp3793
g61
(g62
g63
NtRp3794
(dp3795
g66
(dp3796
g74
I3
ssg75
g3790
sg68
(lp3797
S''
asbasbasbag61
(g77
g63
NtRp3798
(dp3799
g66
(dp3800
sg75
g3734
sg68
(lp3801
g61
(g82
g63
NtRp3802
(dp3803
g66
(dp3804
g86
g87
ssg75
g3798
sg68
(lp3805
g338
asbag61
(g82
g63
NtRp3806
(dp3807
g66
(dp3808
g93
g94
ssg75
g3798
sg68
(lp3809
S':'
asbag61
(g82
g63
NtRp3810
(dp3811
g66
(dp3812
sg75
g3798
sg68
(lp3813
g61
(g62
g63
NtRp3814
(dp3815
g66
(dp3816
g74
I3
ssg75
g3810
sg68
(lp3817
S''
asbasbasbag61
(g77
g63
NtRp3818
(dp3819
g66
(dp3820
sg75
g3734
sg68
(lp3821
g61
(g82
g63
NtRp3822
(dp3823
g66
(dp3824
g86
g87
ssg75
g3818
sg68
(lp3825
g359
asbag61
(g82
g63
NtRp3826
(dp3827
g66
(dp3828
g93
g94
ssg75
g3818
sg68
(lp3829
S':'
asbag61
(g82
g63
NtRp3830
(dp3831
g66
(dp3832
sg75
g3818
sg68
(lp3833
g61
(g62
g63
NtRp3834
(dp3835
g66
(dp3836
g74
I3
ssg75
g3830
sg68
(lp3837
S''
asbasbasbag61
(g77
g63
NtRp3838
(dp3839
g66
(dp3840
sg75
g3734
sg68
(lp3841
g61
(g82
g63
NtRp3842
(dp3843
g66
(dp3844
g86
g87
ssg75
g3838
sg68
(lp3845
g380
asbag61
(g82
g63
NtRp3846
(dp3847
g66
(dp3848
g93
g94
ssg75
g3838
sg68
(lp3849
S':'
asbag61
(g82
g63
NtRp3850
(dp3851
g66
(dp3852
sg75
g3838
sg68
(lp3853
g61
(g62
g63
NtRp3854
(dp3855
g66
(dp3856
g74
I3
ssg75
g3850
sg68
(lp3857
S'/'
asbasbasbag61
(g77
g63
NtRp3858
(dp3859
g66
(dp3860
sg75
g3734
sg68
(lp3861
g61
(g82
g63
NtRp3862
(dp3863
g66
(dp3864
g86
g87
ssg75
g3858
sg68
(lp3865
g401
asbag61
(g82
g63
NtRp3866
(dp3867
g66
(dp3868
g93
g94
ssg75
g3858
sg68
(lp3869
S':'
asbag61
(g82
g63
NtRp3870
(dp3871
g66
(dp3872
sg75
g3858
sg68
(lp3873
g61
(g62
g63
NtRp3874
(dp3875
g66
(dp3876
g74
I3
ssg75
g3870
sg68
(lp3877
S''
asbasbasbag61
(g77
g63
NtRp3878
(dp3879
g66
(dp3880
sg75
g3734
sg68
(lp3881
g61
(g82
g63
NtRp3882
(dp3883
g66
(dp3884
g86
g87
ssg75
g3878
sg68
(lp3885
g422
asbag61
(g82
g63
NtRp3886
(dp3887
g66
(dp3888
g93
g94
ssg75
g3878
sg68
(lp3889
S':'
asbag61
(g82
g63
NtRp3890
(dp3891
g66
(dp3892
sg75
g3878
sg68
(lp3893
g61
(g62
g63
NtRp3894
(dp3895
g66
(dp3896
g74
I3
ssg75
g3890
sg68
(lp3897
S''
asbasbasbasbasbasbasbasbasbasbasbag61
(g77
g63
NtRp3898
(dp3899
g66
(dp3900
sg75
g3664
sg68
(lp3901
g61
(g82
g63
NtRp3902
(dp3903
g66
(dp3904
g86
g87
ssg75
g3898
sg68
(lp3905
S'delimiters'
p3906
asbag61
(g82
g63
NtRp3907
(dp3908
g66
(dp3909
g93
g94
ssg75
g3898
sg68
(lp3910
S':'
asbag61
(g82
g63
NtRp3911
(dp3912
g66
(dp3913
sg75
g3898
sg68
(lp3914
g61
(g62
g63
NtRp3915
(dp3916
g66
(dp3917
g74
I5
ssg75
g3911
sg68
(lp3918
g61
(g70
g63
NtRp3919
(dp3920
g66
(dp3921
g74
I4
ssg75
Nsg68
(lp3922
g61
(g77
g63
NtRp3923
(dp3924
g66
(dp3925
sg75
g3919
sg68
(lp3926
g61
(g82
g63
NtRp3927
(dp3928
g66
(dp3929
sg75
g3923
sg68
(lp3930
g61
(g62
g63
NtRp3931
(dp3932
g66
(dp3933
g74
I4
ssg75
g3927
sg68
(lp3934
S'{{'
p3935
asbasbasbag61
(g77
g63
NtRp3936
(dp3937
g66
(dp3938
sg75
g3919
sg68
(lp3939
g61
(g82
g63
NtRp3940
(dp3941
g66
(dp3942
sg75
g3936
sg68
(lp3943
g61
(g62
g63
NtRp3944
(dp3945
g66
(dp3946
g74
I4
ssg75
g3940
sg68
(lp3947
S'}}'
p3948
asbasbasbasbasbasbasbag61
(g77
g63
NtRp3949
(dp3950
g66
(dp3951
sg75
g3664
sg68
(lp3952
g61
(g82
g63
NtRp3953
(dp3954
g66
(dp3955
g86
g87
ssg75
g3949
sg68
(lp3956
S'files'
p3957
asbag61
(g82
g63
NtRp3958
(dp3959
g66
(dp3960
g93
g94
ssg75
g3949
sg68
(lp3961
S':'
asbag61
(g82
g63
NtRp3962
(dp3963
g66
(dp3964
sg75
g3949
sg68
(lp3965
g61
(g62
g63
NtRp3966
(dp3967
g66
(dp3968
g74
I5
ssg75
g3962
sg68
(lp3969
g61
(g70
g63
NtRp3970
(dp3971
g66
(dp3972
g74
I4
ssg75
Nsg68
(lp3973
sbasbasbasbag61
(g77
g63
NtRp3974
(dp3975
g66
(dp3976
sg75
g3664
sg68
(lp3977
g61
(g82
g63
NtRp3978
(dp3979
g66
(dp3980
g86
g87
ssg75
g3974
sg68
(lp3981
S'flash'
p3982
asbag61
(g82
g63
NtRp3983
(dp3984
g66
(dp3985
g93
g94
ssg75
g3974
sg68
(lp3986
S':'
asbag61
(g82
g63
NtRp3987
(dp3988
g66
(dp3989
sg75
g3974
sg68
(lp3990
g61
(g62
g63
NtRp3991
(dp3992
g66
(dp3993
g74
I5
ssg75
g3987
sg68
(lp3994
S''
asbasbasbag61
(g77
g63
NtRp3995
(dp3996
g66
(dp3997
sg75
g3664
sg68
(lp3998
g61
(g82
g63
NtRp3999
(dp4000
g66
(dp4001
g86
g87
ssg75
g3995
sg68
(lp4002
S'generic_patterns'
p4003
asbag61
(g82
g63
NtRp4004
(dp4005
g66
(dp4006
g93
g94
ssg75
g3995
sg68
(lp4007
S':'
asbag61
(g82
g63
NtRp4008
(dp4009
g66
(dp4010
sg75
g3995
sg68
(lp4011
g61
(g62
g63
NtRp4012
(dp4013
g66
(dp4014
g74
I5
ssg75
g4008
sg68
(lp4015
g61
(g70
g63
NtRp4016
(dp4017
g66
(dp4018
g74
I4
ssg75
Nsg68
(lp4019
g61
(g77
g63
NtRp4020
(dp4021
g66
(dp4022
sg75
g4016
sg68
(lp4023
g61
(g82
g63
NtRp4024
(dp4025
g66
(dp4026
sg75
g4020
sg68
(lp4027
g61
(g62
g63
NtRp4028
(dp4029
g66
(dp4030
g74
I4
ssg75
g4024
sg68
(lp4031
S'*'
asbasbasbasbasbasbasbag61
(g77
g63
NtRp4032
(dp4033
g66
(dp4034
sg75
g3664
sg68
(lp4035
g61
(g82
g63
NtRp4036
(dp4037
g66
(dp4038
g86
g87
ssg75
g4032
sg68
(lp4039
S'headers'
p4040
asbag61
(g82
g63
NtRp4041
(dp4042
g66
(dp4043
g93
g94
ssg75
g4032
sg68
(lp4044
S':'
asbag61
(g82
g63
NtRp4045
(dp4046
g66
(dp4047
sg75
g4032
sg68
(lp4048
g61
(g62
g63
NtRp4049
(dp4050
g66
(dp4051
g74
I5
ssg75
g4045
sg68
(lp4052
g61
(g70
g63
NtRp4053
(dp4054
g66
(dp4055
g74
I4
ssg75
Nsg68
(lp4056
g61
(g77
g63
NtRp4057
(dp4058
g66
(dp4059
sg75
g4053
sg68
(lp4060
g61
(g82
g63
NtRp4061
(dp4062
g66
(dp4063
g86
g87
ssg75
g4057
sg68
(lp4064
S'Cache-Control'
p4065
asbag61
(g82
g63
NtRp4066
(dp4067
g66
(dp4068
g93
g94
ssg75
g4057
sg68
(lp4069
S':'
asbag61
(g82
g63
NtRp4070
(dp4071
g66
(dp4072
sg75
g4057
sg68
(lp4073
g61
(g62
g63
NtRp4074
(dp4075
g66
(dp4076
g74
I4
ssg75
g4070
sg68
(lp4077
S'no-store, no-cache, must-revalidate, post-check=0, pre-check=0'
p4078
asbasbasbag61
(g77
g63
NtRp4079
(dp4080
g66
(dp4081
sg75
g4053
sg68
(lp4082
g61
(g82
g63
NtRp4083
(dp4084
g66
(dp4085
g86
g87
ssg75
g4079
sg68
(lp4086
S'Content-Type'
p4087
asbag61
(g82
g63
NtRp4088
(dp4089
g66
(dp4090
g93
g94
ssg75
g4079
sg68
(lp4091
S':'
asbag61
(g82
g63
NtRp4092
(dp4093
g66
(dp4094
sg75
g4079
sg68
(lp4095
g61
(g62
g63
NtRp4096
(dp4097
g66
(dp4098
g74
I4
ssg75
g4092
sg68
(lp4099
S'text/html; charset=utf-8'
p4100
asbasbasbag61
(g77
g63
NtRp4101
(dp4102
g66
(dp4103
sg75
g4053
sg68
(lp4104
g61
(g82
g63
NtRp4105
(dp4106
g66
(dp4107
g86
g87
ssg75
g4101
sg68
(lp4108
S'Expires'
p4109
asbag61
(g82
g63
NtRp4110
(dp4111
g66
(dp4112
g93
g94
ssg75
g4101
sg68
(lp4113
S':'
asbag61
(g82
g63
NtRp4114
(dp4115
g66
(dp4116
sg75
g4101
sg68
(lp4117
g61
(g62
g63
NtRp4118
(dp4119
g66
(dp4120
g74
I4
ssg75
g4114
sg68
(lp4121
S'Fri, 08 Jun 2012 21:34:12 GMT'
p4122
asbasbasbag61
(g77
g63
NtRp4123
(dp4124
g66
(dp4125
sg75
g4053
sg68
(lp4126
g61
(g82
g63
NtRp4127
(dp4128
g66
(dp4129
g86
g87
ssg75
g4123
sg68
(lp4130
S'Pragma'
p4131
asbag61
(g82
g63
NtRp4132
(dp4133
g66
(dp4134
g93
g94
ssg75
g4123
sg68
(lp4135
S':'
asbag61
(g82
g63
NtRp4136
(dp4137
g66
(dp4138
sg75
g4123
sg68
(lp4139
g61
(g62
g63
NtRp4140
(dp4141
g66
(dp4142
g74
I4
ssg75
g4136
sg68
(lp4143
S'no-cache'
p4144
asbasbasbag61
(g77
g63
NtRp4145
(dp4146
g66
(dp4147
sg75
g4053
sg68
(lp4148
g61
(g82
g63
NtRp4149
(dp4150
g66
(dp4151
g86
g87
ssg75
g4145
sg68
(lp4152
S'X-Powered-By'
p4153
asbag61
(g82
g63
NtRp4154
(dp4155
g66
(dp4156
g93
g94
ssg75
g4145
sg68
(lp4157
S':'
asbag61
(g82
g63
NtRp4158
(dp4159
g66
(dp4160
sg75
g4145
sg68
(lp4161
g61
(g62
g63
NtRp4162
(dp4163
g66
(dp4164
g74
I4
ssg75
g4158
sg68
(lp4165
S'web2py'
p4166
asbasbasbasbasbasbasbag61
(g77
g63
NtRp4167
(dp4168
g66
(dp4169
sg75
g3664
sg68
(lp4170
g61
(g82
g63
NtRp4171
(dp4172
g66
(dp4173
g86
g87
ssg75
g4167
sg68
(lp4174
S'menu'
p4175
asbag61
(g82
g63
NtRp4176
(dp4177
g66
(dp4178
g93
g94
ssg75
g4167
sg68
(lp4179
S':'
asbag61
(g82
g63
NtRp4180
(dp4181
g66
(dp4182
sg75
g4167
sg68
(lp4183
g61
(g62
g63
NtRp4184
(dp4185
g66
(dp4186
g74
I5
ssg75
g4180
sg68
(lp4187
g61
(g70
g63
NtRp4188
(dp4189
g66
(dp4190
g74
I4
ssg75
Nsg68
(lp4191
g61
(g77
g63
NtRp4192
(dp4193
g66
(dp4194
sg75
g4188
sg68
(lp4195
g61
(g82
g63
NtRp4196
(dp4197
g66
(dp4198
sg75
g4192
sg68
(lp4199
g61
(g62
g63
NtRp4200
(dp4201
g66
(dp4202
g74
I4
ssg75
g4196
sg68
(lp4203
g61
(g70
g63
NtRp4204
(dp4205
g66
(dp4206
g74
I3
ssg75
Nsg68
(lp4207
g61
(g77
g63
NtRp4208
(dp4209
g66
(dp4210
sg75
g4204
sg68
(lp4211
g61
(g82
g63
NtRp4212
(dp4213
g66
(dp4214
sg75
g4208
sg68
(lp4215
g61
(g62
g63
NtRp4216
(dp4217
g66
(dp4218
g74
I3
ssg75
g4212
sg68
(lp4219
cgluon.languages
lazyT_unpickle
p4220
(S't\x04\x00\x00\x00Home'
tRp4221
asbasbasbag61
(g77
g63
NtRp4222
(dp4223
g66
(dp4224
sg75
g4204
sg68
(lp4225
g61
(g82
g63
NtRp4226
(dp4227
g66
(dp4228
sg75
g4222
sg68
(lp4229
g61
(g62
g63
NtRp4230
(dp4231
g66
(dp4232
g74
I3
ssg75
g4226
sg68
(lp4233
g104
asbasbasbag61
(g77
g63
NtRp4234
(dp4235
g66
(dp4236
sg75
g4204
sg68
(lp4237
g61
(g82
g63
NtRp4238
(dp4239
g66
(dp4240
sg75
g4234
sg68
(lp4241
g61
(g62
g63
NtRp4242
(dp4243
g66
(dp4244
g74
I3
ssg75
g4238
sg68
(lp4245
S'/mycrawler/default/index'
p4246
asbasbasbag61
(g77
g63
NtRp4247
(dp4248
g66
(dp4249
sg75
g4204
sg68
(lp4250
g61
(g82
g63
NtRp4251
(dp4252
g66
(dp4253
sg75
g4247
sg68
(lp4254
g61
(g62
g63
NtRp4255
(dp4256
g66
(dp4257
g74
I3
ssg75
g4251
sg68
(lp4258
g61
(g70
g63
NtRp4259
(dp4260
g66
(dp4261
g74
I2
ssg75
Nsg68
(lp4262
sbasbasbasbasbasbasbasbag61
(g77
g63
NtRp4263
(dp4264
g66
(dp4265
sg75
g4188
sg68
(lp4266
g61
(g82
g63
NtRp4267
(dp4268
g66
(dp4269
sg75
g4263
sg68
(lp4270
g61
(g62
g63
NtRp4271
(dp4272
g66
(dp4273
g74
I4
ssg75
g4267
sg68
(lp4274
g61
(g70
g63
NtRp4275
(dp4276
g66
(dp4277
g74
I3
ssg75
Nsg68
(lp4278
g61
(g77
g63
NtRp4279
(dp4280
g66
(dp4281
sg75
g4275
sg68
(lp4282
g61
(g82
g63
NtRp4283
(dp4284
g66
(dp4285
sg75
g4279
sg68
(lp4286
g61
(g62
g63
NtRp4287
(dp4288
g66
(dp4289
g74
I3
ssg75
g4283
sg68
(lp4290
g61
(cgluon.html
SPAN
p4291
g63
NtRp4292
(dp4293
g66
(dp4294
g86
S'color:yellow'
p4295
ssg75
Nsg68
(lp4296
g4166
asbasbasbasbag61
(g77
g63
NtRp4297
(dp4298
g66
(dp4299
sg75
g4275
sg68
(lp4300
g61
(g82
g63
NtRp4301
(dp4302
g66
(dp4303
sg75
g4297
sg68
(lp4304
g61
(g62
g63
NtRp4305
(dp4306
g66
(dp4307
g74
I3
ssg75
g4301
sg68
(lp4308
g104
asbasbasbag61
(g77
g63
NtRp4309
(dp4310
g66
(dp4311
sg75
g4275
sg68
(lp4312
g61
(g82
g63
NtRp4313
(dp4314
g66
(dp4315
sg75
g4309
sg68
(lp4316
g61
(g62
g63
NtRp4317
(dp4318
g66
(dp4319
g74
I3
ssg75
g4313
sg68
(lp4320
S'None'
p4321
asbasbasbag61
(g77
g63
NtRp4322
(dp4323
g66
(dp4324
sg75
g4275
sg68
(lp4325
g61
(g82
g63
NtRp4326
(dp4327
g66
(dp4328
sg75
g4322
sg68
(lp4329
g61
(g62
g63
NtRp4330
(dp4331
g66
(dp4332
g74
I3
ssg75
g4326
sg68
(lp4333
g61
(g70
g63
NtRp4334
(dp4335
g66
(dp4336
g74
I2
ssg75
Nsg68
(lp4337
g61
(g77
g63
NtRp4338
(dp4339
g66
(dp4340
sg75
g4334
sg68
(lp4341
g61
(g82
g63
NtRp4342
(dp4343
g66
(dp4344
sg75
g4338
sg68
(lp4345
g61
(g62
g63
NtRp4346
(dp4347
g66
(dp4348
g74
I2
ssg75
g4342
sg68
(lp4349
g61
(g70
g63
NtRp4350
(dp4351
g66
(dp4352
g74
I1
ssg75
Nsg68
(lp4353
g61
(g77
g63
NtRp4354
(dp4355
g66
(dp4356
sg75
g4350
sg68
(lp4357
g61
(g82
g63
NtRp4358
(dp4359
g66
(dp4360
sg75
g4354
sg68
(lp4361
g61
(g62
g63
NtRp4362
(dp4363
g66
(dp4364
g74
I1
ssg75
g4358
sg68
(lp4365
g4220
(S's\x08\x00\x00\x00My Sites'
tRp4366
asbasbasbag61
(g77
g63
NtRp4367
(dp4368
g66
(dp4369
sg75
g4350
sg68
(lp4370
g61
(g82
g63
NtRp4371
(dp4372
g66
(dp4373
sg75
g4367
sg68
(lp4374
g61
(g62
g63
NtRp4375
(dp4376
g66
(dp4377
g74
I1
ssg75
g4371
sg68
(lp4378
I00
asbasbasbag61
(g77
g63
NtRp4379
(dp4380
g66
(dp4381
sg75
g4350
sg68
(lp4382
g61
(g82
g63
NtRp4383
(dp4384
g66
(dp4385
sg75
g4379
sg68
(lp4386
g61
(g62
g63
NtRp4387
(dp4388
g66
(dp4389
g74
I1
ssg75
g4383
sg68
(lp4390
S'/admin/default/site'
p4391
asbasbasbasbasbasbasbag61
(g77
g63
NtRp4392
(dp4393
g66
(dp4394
sg75
g4334
sg68
(lp4395
g61
(g82
g63
NtRp4396
(dp4397
g66
(dp4398
sg75
g4392
sg68
(lp4399
g61
(g62
g63
NtRp4400
(dp4401
g66
(dp4402
g74
I2
ssg75
g4396
sg68
(lp4403
g61
(g70
g63
NtRp4404
(dp4405
g66
(dp4406
g74
I1
ssg75
Nsg68
(lp4407
g61
(g77
g63
NtRp4408
(dp4409
g66
(dp4410
sg75
g4404
sg68
(lp4411
g61
(g82
g63
NtRp4412
(dp4413
g66
(dp4414
sg75
g4408
sg68
(lp4415
g61
(g62
g63
NtRp4416
(dp4417
g66
(dp4418
g74
I1
ssg75
g4412
sg68
(lp4419
g4220
(S's\x08\x00\x00\x00This App'
tRp4420
asbasbasbag61
(g77
g63
NtRp4421
(dp4422
g66
(dp4423
sg75
g4404
sg68
(lp4424
g61
(g82
g63
NtRp4425
(dp4426
g66
(dp4427
sg75
g4421
sg68
(lp4428
g61
(g62
g63
NtRp4429
(dp4430
g66
(dp4431
g74
I1
ssg75
g4425
sg68
(lp4432
I00
asbasbasbag61
(g77
g63
NtRp4433
(dp4434
g66
(dp4435
sg75
g4404
sg68
(lp4436
g61
(g82
g63
NtRp4437
(dp4438
g66
(dp4439
sg75
g4433
sg68
(lp4440
g61
(g62
g63
NtRp4441
(dp4442
g66
(dp4443
g74
I1
ssg75
g4437
sg68
(lp4444
S'/admin/default/design/mycrawler'
p4445
asbasbasbag61
(g77
g63
NtRp4446
(dp4447
g66
(dp4448
sg75
g4404
sg68
(lp4449
g61
(g82
g63
NtRp4450
(dp4451
g66
(dp4452
sg75
g4446
sg68
(lp4453
g61
(g62
g63
NtRp4454
(dp4455
g66
(dp4456
g74
I1
ssg75
g4450
sg68
(lp4457
(lp4458
(g4220
(S't\n\x00\x00\x00Controller'
tRp4459
I00
S'/admin/default/edit/mycrawler/controllers/default.py'
tp4460
a(g4220
(S't\x04\x00\x00\x00View'
tRp4461
I00
S'/admin/default/edit/mycrawler/views/default/search.html'
tp4462
a(g4220
(S't\x06\x00\x00\x00Layout'
tRp4463
I00
S'/admin/default/edit/mycrawler/views/layout.html'
tp4464
a(g4220
(S't\n\x00\x00\x00Stylesheet'
tRp4465
I00
S'/admin/default/edit/mycrawler/static/css/web2py.css'
tp4466
a(g4220
(S's\x08\x00\x00\x00DB Model'
tRp4467
I00
S'/admin/default/edit/mycrawler/models/db.py'
tp4468
a(g4220
(S's\n\x00\x00\x00Menu Model'
tRp4469
I00
S'/admin/default/edit/mycrawler/models/menu.py'
tp4470
a(g4220
(S't\x08\x00\x00\x00Database'
tRp4471
I00
S'/mycrawler/appadmin/index'
tp4472
a(g4220
(S't\x06\x00\x00\x00Errors'
tRp4473
I00
S'/admin/default/errors/mycrawler'
tp4474
a(g4220
(S't\x05\x00\x00\x00About'
tRp4475
I00
S'/admin/default/about/mycrawler'
tp4476
aasbasbasbasbasbasbasbag61
(g77
g63
NtRp4477
(dp4478
g66
(dp4479
sg75
g4334
sg68
(lp4480
g61
(g82
g63
NtRp4481
(dp4482
g66
(dp4483
sg75
g4477
sg68
(lp4484
g61
(g62
g63
NtRp4485
(dp4486
g66
(dp4487
g74
I2
ssg75
g4481
sg68
(lp4488
g61
(g70
g63
NtRp4489
(dp4490
g66
(dp4491
g74
I1
ssg75
Nsg68
(lp4492
g61
(g77
g63
NtRp4493
(dp4494
g66
(dp4495
sg75
g4489
sg68
(lp4496
g61
(g82
g63
NtRp4497
(dp4498
g66
(dp4499
sg75
g4493
sg68
(lp4500
g61
(g62
g63
NtRp4501
(dp4502
g66
(dp4503
g74
I1
ssg75
g4497
sg68
(lp4504
S'web2py.com'
p4505
asbasbasbag61
(g77
g63
NtRp4506
(dp4507
g66
(dp4508
sg75
g4489
sg68
(lp4509
g61
(g82
g63
NtRp4510
(dp4511
g66
(dp4512
sg75
g4506
sg68
(lp4513
g61
(g62
g63
NtRp4514
(dp4515
g66
(dp4516
g74
I1
ssg75
g4510
sg68
(lp4517
I00
asbasbasbag61
(g77
g63
NtRp4518
(dp4519
g66
(dp4520
sg75
g4489
sg68
(lp4521
g61
(g82
g63
NtRp4522
(dp4523
g66
(dp4524
sg75
g4518
sg68
(lp4525
g61
(g62
g63
NtRp4526
(dp4527
g66
(dp4528
g74
I1
ssg75
g4522
sg68
(lp4529
S'http://www.web2py.com'
p4530
asbasbasbag61
(g77
g63
NtRp4531
(dp4532
g66
(dp4533
sg75
g4489
sg68
(lp4534
g61
(g82
g63
NtRp4535
(dp4536
g66
(dp4537
sg75
g4531
sg68
(lp4538
g61
(g62
g63
NtRp4539
(dp4540
g66
(dp4541
g74
I1
ssg75
g4535
sg68
(lp4542
(lp4543
(g4220
(S't\x08\x00\x00\x00Download'
tRp4544
I00
S'http://www.web2py.com/examples/default/download'
p4545
tp4546
a(g4220
(S't\x07\x00\x00\x00Support'
tRp4547
I00
S'http://www.web2py.com/examples/default/support'
p4548
tp4549
a(g4220
(S't\x04\x00\x00\x00Demo'
tRp4550
I00
S'http://web2py.com/demo_admin'
p4551
tp4552
a(g4220
(S's\x0e\x00\x00\x00Quick Examples'
tRp4553
I00
S'http://web2py.com/examples/default/examples'
p4554
tp4555
a(g4220
(S't\x03\x00\x00\x00FAQ'
tRp4556
I00
S'http://web2py.com/AlterEgo'
p4557
tp4558
a(g4220
(S't\x06\x00\x00\x00Videos'
tRp4559
I00
S'http://www.web2py.com/examples/default/videos/'
p4560
tp4561
a(g4220
(S's\x11\x00\x00\x00Free Applications'
tRp4562
I00
S'http://web2py.com/appliances'
p4563
tp4564
a(g4220
(S't\x07\x00\x00\x00Plugins'
tRp4565
I00
S'http://web2py.com/plugins'
p4566
tp4567
a(g4220
(S't\x07\x00\x00\x00Layouts'
tRp4568
I00
S'http://web2py.com/layouts'
p4569
tp4570
a(g4220
(S't\x07\x00\x00\x00Recipes'
tRp4571
I00
S'http://web2pyslices.com/'
p4572
tp4573
a(g4220
(S't\x08\x00\x00\x00Semantic'
tRp4574
I00
S'http://web2py.com/semantic'
p4575
tp4576
aasbasbasbasbasbasbasbag61
(g77
g63
NtRp4577
(dp4578
g66
(dp4579
sg75
g4334
sg68
(lp4580
g61
(g82
g63
NtRp4581
(dp4582
g66
(dp4583
sg75
g4577
sg68
(lp4584
g61
(g62
g63
NtRp4585
(dp4586
g66
(dp4587
g74
I2
ssg75
g4581
sg68
(lp4588
g61
(g70
g63
NtRp4589
(dp4590
g66
(dp4591
g74
I1
ssg75
Nsg68
(lp4592
g61
(g77
g63
NtRp4593
(dp4594
g66
(dp4595
sg75
g4589
sg68
(lp4596
g61
(g82
g63
NtRp4597
(dp4598
g66
(dp4599
sg75
g4593
sg68
(lp4600
g61
(g62
g63
NtRp4601
(dp4602
g66
(dp4603
g74
I1
ssg75
g4597
sg68
(lp4604
g4220
(S't\r\x00\x00\x00Documentation'
tRp4605
asbasbasbag61
(g77
g63
NtRp4606
(dp4607
g66
(dp4608
sg75
g4589
sg68
(lp4609
g61
(g82
g63
NtRp4610
(dp4611
g66
(dp4612
sg75
g4606
sg68
(lp4613
g61
(g62
g63
NtRp4614
(dp4615
g66
(dp4616
g74
I1
ssg75
g4610
sg68
(lp4617
I00
asbasbasbag61
(g77
g63
NtRp4618
(dp4619
g66
(dp4620
sg75
g4589
sg68
(lp4621
g61
(g82
g63
NtRp4622
(dp4623
g66
(dp4624
sg75
g4618
sg68
(lp4625
g61
(g62
g63
NtRp4626
(dp4627
g66
(dp4628
g74
I1
ssg75
g4622
sg68
(lp4629
S'http://www.web2py.com/book'
p4630
asbasbasbag61
(g77
g63
NtRp4631
(dp4632
g66
(dp4633
sg75
g4589
sg68
(lp4634
g61
(g82
g63
NtRp4635
(dp4636
g66
(dp4637
sg75
g4631
sg68
(lp4638
g61
(g62
g63
NtRp4639
(dp4640
g66
(dp4641
g74
I1
ssg75
g4635
sg68
(lp4642
(lp4643
(g4220
(S't\x07\x00\x00\x00Preface'
tRp4644
I00
S'http://www.web2py.com/book/default/chapter/00'
p4645
tp4646
a(g4220
(S't\x0c\x00\x00\x00Introduction'
tRp4647
I00
S'http://www.web2py.com/book/default/chapter/01'
p4648
tp4649
a(g4220
(S't\x06\x00\x00\x00Python'
tRp4650
I00
S'http://www.web2py.com/book/default/chapter/02'
p4651
tp4652
a(g4220
(S't\x08\x00\x00\x00Overview'
tRp4653
I00
S'http://www.web2py.com/book/default/chapter/03'
p4654
tp4655
a(g4220
(S's\x08\x00\x00\x00The Core'
tRp4656
I00
S'http://www.web2py.com/book/default/chapter/04'
p4657
tp4658
a(g4220
(S's\t\x00\x00\x00The Views'
tRp4659
I00
S'http://www.web2py.com/book/default/chapter/05'
p4660
tp4661
a(g4220
(S't\x08\x00\x00\x00Database'
tRp4662
I00
S'http://www.web2py.com/book/default/chapter/06'
p4663
tp4664
a(g4220
(S's\x14\x00\x00\x00Forms and Validators'
tRp4665
I00
S'http://www.web2py.com/book/default/chapter/07'
p4666
tp4667
a(g4220
(S's\r\x00\x00\x00Email and SMS'
tRp4668
I00
S'http://www.web2py.com/book/default/chapter/08'
p4669
tp4670
a(g4220
(S's\x0e\x00\x00\x00Access Control'
tRp4671
I00
S'http://www.web2py.com/book/default/chapter/09'
p4672
tp4673
a(g4220
(S't\x08\x00\x00\x00Services'
tRp4674
I00
S'http://www.web2py.com/book/default/chapter/10'
p4675
tp4676
a(g4220
(S's\x0c\x00\x00\x00Ajax Recipes'
tRp4677
I00
S'http://www.web2py.com/book/default/chapter/11'
p4678
tp4679
a(g4220
(S's\x16\x00\x00\x00Components and Plugins'
tRp4680
I00
S'http://www.web2py.com/book/default/chapter/12'
p4681
tp4682
a(g4220
(S's\x12\x00\x00\x00Deployment Recipes'
tRp4683
I00
S'http://www.web2py.com/book/default/chapter/13'
p4684
tp4685
a(g4220
(S's\r\x00\x00\x00Other Recipes'
tRp4686
I00
S'http://www.web2py.com/book/default/chapter/14'
p4687
tp4688
a(g4220
(S's\r\x00\x00\x00Buy this book'
tRp4689
I00
S'http://stores.lulu.com/web2py'
p4690
tp4691
aasbasbasbasbasbasbasbag61
(g77
g63
NtRp4692
(dp4693
g66
(dp4694
sg75
g4334
sg68
(lp4695
g61
(g82
g63
NtRp4696
(dp4697
g66
(dp4698
sg75
g4692
sg68
(lp4699
g61
(g62
g63
NtRp4700
(dp4701
g66
(dp4702
g74
I2
ssg75
g4696
sg68
(lp4703
g61
(g70
g63
NtRp4704
(dp4705
g66
(dp4706
g74
I1
ssg75
Nsg68
(lp4707
g61
(g77
g63
NtRp4708
(dp4709
g66
(dp4710
sg75
g4704
sg68
(lp4711
g61
(g82
g63
NtRp4712
(dp4713
g66
(dp4714
sg75
g4708
sg68
(lp4715
g61
(g62
g63
NtRp4716
(dp4717
g66
(dp4718
g74
I1
ssg75
g4712
sg68
(lp4719
g4220
(S't\t\x00\x00\x00Community'
tRp4720
asbasbasbag61
(g77
g63
NtRp4721
(dp4722
g66
(dp4723
sg75
g4704
sg68
(lp4724
g61
(g82
g63
NtRp4725
(dp4726
g66
(dp4727
sg75
g4721
sg68
(lp4728
g61
(g62
g63
NtRp4729
(dp4730
g66
(dp4731
g74
I1
ssg75
g4725
sg68
(lp4732
I00
asbasbasbag61
(g77
g63
NtRp4733
(dp4734
g66
(dp4735
sg75
g4704
sg68
(lp4736
g61
(g82
g63
NtRp4737
(dp4738
g66
(dp4739
sg75
g4733
sg68
(lp4740
g61
(g62
g63
NtRp4741
(dp4742
g66
(dp4743
g74
I1
ssg75
g4737
sg68
(lp4744
Nasbasbasbag61
(g77
g63
NtRp4745
(dp4746
g66
(dp4747
sg75
g4704
sg68
(lp4748
g61
(g82
g63
NtRp4749
(dp4750
g66
(dp4751
sg75
g4745
sg68
(lp4752
g61
(g62
g63
NtRp4753
(dp4754
g66
(dp4755
g74
I1
ssg75
g4749
sg68
(lp4756
(lp4757
(g4220
(S't\x06\x00\x00\x00Groups'
tRp4758
I00
S'http://www.web2py.com/examples/default/usergroups'
p4759
tp4760
a(g4220
(S't\x07\x00\x00\x00Twitter'
tRp4761
I00
S'http://twitter.com/web2py'
p4762
tp4763
a(g4220
(S's\t\x00\x00\x00Live Chat'
tRp4764
I00
S'http://webchat.freenode.net/?channels=web2py'
p4765
tp4766
aasbasbasbasbasbasbasbag61
(g77
g63
NtRp4767
(dp4768
g66
(dp4769
sg75
g4334
sg68
(lp4770
g61
(g82
g63
NtRp4771
(dp4772
g66
(dp4773
sg75
g4767
sg68
(lp4774
g61
(g62
g63
NtRp4775
(dp4776
g66
(dp4777
g74
I2
ssg75
g4771
sg68
(lp4778
g61
(g70
g63
NtRp4779
(dp4780
g66
(dp4781
g74
I1
ssg75
Nsg68
(lp4782
g61
(g77
g63
NtRp4783
(dp4784
g66
(dp4785
sg75
g4779
sg68
(lp4786
g61
(g82
g63
NtRp4787
(dp4788
g66
(dp4789
sg75
g4783
sg68
(lp4790
g61
(g62
g63
NtRp4791
(dp4792
g66
(dp4793
g74
I1
ssg75
g4787
sg68
(lp4794
g4220
(S't\x07\x00\x00\x00Plugins'
tRp4795
asbasbasbag61
(g77
g63
NtRp4796
(dp4797
g66
(dp4798
sg75
g4779
sg68
(lp4799
g61
(g82
g63
NtRp4800
(dp4801
g66
(dp4802
sg75
g4796
sg68
(lp4803
g61
(g62
g63
NtRp4804
(dp4805
g66
(dp4806
g74
I1
ssg75
g4800
sg68
(lp4807
I00
asbasbasbag61
(g77
g63
NtRp4808
(dp4809
g66
(dp4810
sg75
g4779
sg68
(lp4811
g61
(g82
g63
NtRp4812
(dp4813
g66
(dp4814
sg75
g4808
sg68
(lp4815
g61
(g62
g63
NtRp4816
(dp4817
g66
(dp4818
g74
I1
ssg75
g4812
sg68
(lp4819
Nasbasbasbag61
(g77
g63
NtRp4820
(dp4821
g66
(dp4822
sg75
g4779
sg68
(lp4823
g61
(g82
g63
NtRp4824
(dp4825
g66
(dp4826
sg75
g4820
sg68
(lp4827
g61
(g62
g63
NtRp4828
(dp4829
g66
(dp4830
g74
I1
ssg75
g4824
sg68
(lp4831
(lp4832
(S'plugin_wiki'
p4833
I00
S'http://web2py.com/examples/default/download'
p4834
tp4835
a(g4220
(S's\r\x00\x00\x00Other Plugins'
tRp4836
I00
g4566
tp4837
a(g4220
(S's\x0e\x00\x00\x00Layout Plugins'
tRp4838
I00
g4569
tp4839
aasbasbasbasbasbasbasbasbasbasbasbasbasbasbasbasbasbasbasbag61
(g77
g63
NtRp4840
(dp4841
g66
(dp4842
sg75
g3664
sg68
(lp4843
g61
(g82
g63
NtRp4844
(dp4845
g66
(dp4846
g86
g87
ssg75
g4840
sg68
(lp4847
S'meta'
p4848
asbag61
(g82
g63
NtRp4849
(dp4850
g66
(dp4851
g93
g94
ssg75
g4840
sg68
(lp4852
S':'
asbag61
(g82
g63
NtRp4853
(dp4854
g66
(dp4855
sg75
g4840
sg68
(lp4856
g61
(g62
g63
NtRp4857
(dp4858
g66
(dp4859
g74
I5
ssg75
g4853
sg68
(lp4860
g61
(g70
g63
NtRp4861
(dp4862
g66
(dp4863
g74
I4
ssg75
Nsg68
(lp4864
g61
(g77
g63
NtRp4865
(dp4866
g66
(dp4867
sg75
g4861
sg68
(lp4868
g61
(g82
g63
NtRp4869
(dp4870
g66
(dp4871
g86
g87
ssg75
g4865
sg68
(lp4872
S'author'
p4873
asbag61
(g82
g63
NtRp4874
(dp4875
g66
(dp4876
g93
g94
ssg75
g4865
sg68
(lp4877
S':'
asbag61
(g82
g63
NtRp4878
(dp4879
g66
(dp4880
sg75
g4865
sg68
(lp4881
g61
(g62
g63
NtRp4882
(dp4883
g66
(dp4884
g74
I4
ssg75
g4878
sg68
(lp4885
S'Your Name <you@example.com>'
p4886
asbasbasbag61
(g77
g63
NtRp4887
(dp4888
g66
(dp4889
sg75
g4861
sg68
(lp4890
g61
(g82
g63
NtRp4891
(dp4892
g66
(dp4893
g86
g87
ssg75
g4887
sg68
(lp4894
S'copyright'
p4895
asbag61
(g82
g63
NtRp4896
(dp4897
g66
(dp4898
g93
g94
ssg75
g4887
sg68
(lp4899
S':'
asbag61
(g82
g63
NtRp4900
(dp4901
g66
(dp4902
sg75
g4887
sg68
(lp4903
g61
(g62
g63
NtRp4904
(dp4905
g66
(dp4906
g74
I4
ssg75
g4900
sg68
(lp4907
S'Copyright 2011'
p4908
asbasbasbag61
(g77
g63
NtRp4909
(dp4910
g66
(dp4911
sg75
g4861
sg68
(lp4912
g61
(g82
g63
NtRp4913
(dp4914
g66
(dp4915
g86
g87
ssg75
g4909
sg68
(lp4916
S'description'
p4917
asbag61
(g82
g63
NtRp4918
(dp4919
g66
(dp4920
g93
g94
ssg75
g4909
sg68
(lp4921
S':'
asbag61
(g82
g63
NtRp4922
(dp4923
g66
(dp4924
sg75
g4909
sg68
(lp4925
g61
(g62
g63
NtRp4926
(dp4927
g66
(dp4928
g74
I4
ssg75
g4922
sg68
(lp4929
S'a cool new app'
p4930
asbasbasbag61
(g77
g63
NtRp4931
(dp4932
g66
(dp4933
sg75
g4861
sg68
(lp4934
g61
(g82
g63
NtRp4935
(dp4936
g66
(dp4937
g86
g87
ssg75
g4931
sg68
(lp4938
S'generator'
p4939
asbag61
(g82
g63
NtRp4940
(dp4941
g66
(dp4942
g93
g94
ssg75
g4931
sg68
(lp4943
S':'
asbag61
(g82
g63
NtRp4944
(dp4945
g66
(dp4946
sg75
g4931
sg68
(lp4947
g61
(g62
g63
NtRp4948
(dp4949
g66
(dp4950
g74
I4
ssg75
g4944
sg68
(lp4951
S'Web2py Web Framework'
p4952
asbasbasbag61
(g77
g63
NtRp4953
(dp4954
g66
(dp4955
sg75
g4861
sg68
(lp4956
g61
(g82
g63
NtRp4957
(dp4958
g66
(dp4959
g86
g87
ssg75
g4953
sg68
(lp4960
S'keywords'
p4961
asbag61
(g82
g63
NtRp4962
(dp4963
g66
(dp4964
g93
g94
ssg75
g4953
sg68
(lp4965
S':'
asbag61
(g82
g63
NtRp4966
(dp4967
g66
(dp4968
sg75
g4953
sg68
(lp4969
g61
(g62
g63
NtRp4970
(dp4971
g66
(dp4972
g74
I4
ssg75
g4966
sg68
(lp4973
S'web2py, python, framework'
p4974
asbasbasbasbasbasbasbag61
(g77
g63
NtRp4975
(dp4976
g66
(dp4977
sg75
g3664
sg68
(lp4978
g61
(g82
g63
NtRp4979
(dp4980
g66
(dp4981
g86
g87
ssg75
g4975
sg68
(lp4982
S'postprocessing'
p4983
asbag61
(g82
g63
NtRp4984
(dp4985
g66
(dp4986
g93
g94
ssg75
g4975
sg68
(lp4987
S':'
asbag61
(g82
g63
NtRp4988
(dp4989
g66
(dp4990
sg75
g4975
sg68
(lp4991
g61
(g62
g63
NtRp4992
(dp4993
g66
(dp4994
g74
I5
ssg75
g4988
sg68
(lp4995
g61
(g70
g63
NtRp4996
(dp4997
g66
(dp4998
g74
I4
ssg75
Nsg68
(lp4999
sbasbasbasbag61
(g77
g63
NtRp5000
(dp5001
g66
(dp5002
sg75
g3664
sg68
(lp5003
g61
(g82
g63
NtRp5004
(dp5005
g66
(dp5006
g86
g87
ssg75
g5000
sg68
(lp5007
S'session_file'
p5008
asbag61
(g82
g63
NtRp5009
(dp5010
g66
(dp5011
g93
g94
ssg75
g5000
sg68
(lp5012
S':'
asbag61
(g82
g63
NtRp5013
(dp5014
g66
(dp5015
sg75
g5000
sg68
(lp5016
g61
(g62
g63
NtRp5017
(dp5018
g66
(dp5019
g74
I5
ssg75
g5013
sg68
(lp5020
S"<open file 'C:\\Documents and Settings\\agrover\\Desktop\\previous crawler\\web2py\\applications\\mycrawler\\sessions\\127.0.0.1-05d302d9-dfe2-4e60-ab26-5eeb721fac09', mode 'rb+' at 0x05B24128>"
p5021
asbasbasbag61
(g77
g63
NtRp5022
(dp5023
g66
(dp5024
sg75
g3664
sg68
(lp5025
g61
(g82
g63
NtRp5026
(dp5027
g66
(dp5028
g86
g87
ssg75
g5022
sg68
(lp5029
S'session_filename'
p5030
asbag61
(g82
g63
NtRp5031
(dp5032
g66
(dp5033
g93
g94
ssg75
g5022
sg68
(lp5034
S':'
asbag61
(g82
g63
NtRp5035
(dp5036
g66
(dp5037
sg75
g5022
sg68
(lp5038
g61
(g62
g63
NtRp5039
(dp5040
g66
(dp5041
g74
I5
ssg75
g5035
sg68
(lp5042
S'C:\\Documents and Settings\\agrover\\Desktop\\previous crawler\\web2py\\applications\\mycrawler\\sessions\\127.0.0.1-05d302d9-dfe2-4e60-ab26-5eeb721fac09'
p5043
asbasbasbag61
(g77
g63
NtRp5044
(dp5045
g66
(dp5046
sg75
g3664
sg68
(lp5047
g61
(g82
g63
NtRp5048
(dp5049
g66
(dp5050
g86
g87
ssg75
g5044
sg68
(lp5051
S'session_id'
p5052
asbag61
(g82
g63
NtRp5053
(dp5054
g66
(dp5055
g93
g94
ssg75
g5044
sg68
(lp5056
S':'
asbag61
(g82
g63
NtRp5057
(dp5058
g66
(dp5059
sg75
g5044
sg68
(lp5060
g61
(g62
g63
NtRp5061
(dp5062
g66
(dp5063
g74
I5
ssg75
g5057
sg68
(lp5064
S'127.0.0.1-05d302d9-dfe2-4e60-ab26-5eeb721fac09'
p5065
asbasbasbag61
(g77
g63
NtRp5066
(dp5067
g66
(dp5068
sg75
g3664
sg68
(lp5069
g61
(g82
g63
NtRp5070
(dp5071
g66
(dp5072
g86
g87
ssg75
g5066
sg68
(lp5073
S'session_id_name'
p5074
asbag61
(g82
g63
NtRp5075
(dp5076
g66
(dp5077
g93
g94
ssg75
g5066
sg68
(lp5078
S':'
asbag61
(g82
g63
NtRp5079
(dp5080
g66
(dp5081
sg75
g5066
sg68
(lp5082
g61
(g62
g63
NtRp5083
(dp5084
g66
(dp5085
g74
I5
ssg75
g5079
sg68
(lp5086
g3721
asbasbasbag61
(g77
g63
NtRp5087
(dp5088
g66
(dp5089
sg75
g3664
sg68
(lp5090
g61
(g82
g63
NtRp5091
(dp5092
g66
(dp5093
g86
g87
ssg75
g5087
sg68
(lp5094
S'session_locked'
p5095
asbag61
(g82
g63
NtRp5096
(dp5097
g66
(dp5098
g93
g94
ssg75
g5087
sg68
(lp5099
S':'
asbag61
(g82
g63
NtRp5100
(dp5101
g66
(dp5102
sg75
g5087
sg68
(lp5103
g61
(g62
g63
NtRp5104
(dp5105
g66
(dp5106
g74
I5
ssg75
g5100
sg68
(lp5107
g1846
asbasbasbag61
(g77
g63
NtRp5108
(dp5109
g66
(dp5110
sg75
g3664
sg68
(lp5111
g61
(g82
g63
NtRp5112
(dp5113
g66
(dp5114
g86
g87
ssg75
g5108
sg68
(lp5115
S'session_new'
p5116
asbag61
(g82
g63
NtRp5117
(dp5118
g66
(dp5119
g93
g94
ssg75
g5108
sg68
(lp5120
S':'
asbag61
(g82
g63
NtRp5121
(dp5122
g66
(dp5123
sg75
g5108
sg68
(lp5124
g61
(g62
g63
NtRp5125
(dp5126
g66
(dp5127
g74
I5
ssg75
g5121
sg68
(lp5128
g104
asbasbasbag61
(g77
g63
NtRp5129
(dp5130
g66
(dp5131
sg75
g3664
sg68
(lp5132
g61
(g82
g63
NtRp5133
(dp5134
g66
(dp5135
g86
g87
ssg75
g5129
sg68
(lp5136
S'status'
p5137
asbag61
(g82
g63
NtRp5138
(dp5139
g66
(dp5140
g93
g94
ssg75
g5129
sg68
(lp5141
S':'
asbag61
(g82
g63
NtRp5142
(dp5143
g66
(dp5144
sg75
g5129
sg68
(lp5145
g61
(g62
g63
NtRp5146
(dp5147
g66
(dp5148
g74
I5
ssg75
g5142
sg68
(lp5149
S'200'
p5150
asbasbasbag61
(g77
g63
NtRp5151
(dp5152
g66
(dp5153
sg75
g3664
sg68
(lp5154
g61
(g82
g63
NtRp5155
(dp5156
g66
(dp5157
g86
g87
ssg75
g5151
sg68
(lp5158
S'subtitle'
p5159
asbag61
(g82
g63
NtRp5160
(dp5161
g66
(dp5162
g93
g94
ssg75
g5151
sg68
(lp5163
S':'
asbag61
(g82
g63
NtRp5164
(dp5165
g66
(dp5166
sg75
g5151
sg68
(lp5167
g61
(g62
g63
NtRp5168
(dp5169
g66
(dp5170
g74
I5
ssg75
g5164
sg68
(lp5171
g4220
(S's\r\x00\x00\x00customize me!'
tRp5172
asbasbasbag61
(g77
g63
NtRp5173
(dp5174
g66
(dp5175
sg75
g3664
sg68
(lp5176
g61
(g82
g63
NtRp5177
(dp5178
g66
(dp5179
g86
g87
ssg75
g5173
sg68
(lp5180
S'title'
p5181
asbag61
(g82
g63
NtRp5182
(dp5183
g66
(dp5184
g93
g94
ssg75
g5173
sg68
(lp5185
S':'
asbag61
(g82
g63
NtRp5186
(dp5187
g66
(dp5188
sg75
g5173
sg68
(lp5189
g61
(g62
g63
NtRp5190
(dp5191
g66
(dp5192
g74
I5
ssg75
g5186
sg68
(lp5193
S'Mycrawler'
p5194
asbasbasbag61
(g77
g63
NtRp5195
(dp5196
g66
(dp5197
sg75
g3664
sg68
(lp5198
g61
(g82
g63
NtRp5199
(dp5200
g66
(dp5201
g86
g87
ssg75
g5195
sg68
(lp5202
g2681
asbag61
(g82
g63
NtRp5203
(dp5204
g66
(dp5205
g93
g94
ssg75
g5195
sg68
(lp5206
S':'
asbag61
(g82
g63
NtRp5207
(dp5208
g66
(dp5209
sg75
g5195
sg68
(lp5210
g61
(g62
g63
NtRp5211
(dp5212
g66
(dp5213
g74
I5
ssg75
g5207
sg68
(lp5214
g2694
asbasbasbag61
(g77
g63
NtRp5215
(dp5216
g66
(dp5217
sg75
g3664
sg68
(lp5218
g61
(g82
g63
NtRp5219
(dp5220
g66
(dp5221
g86
g87
ssg75
g5215
sg68
(lp5222
S'view'
p5223
asbag61
(g82
g63
NtRp5224
(dp5225
g66
(dp5226
g93
g94
ssg75
g5215
sg68
(lp5227
S':'
asbag61
(g82
g63
NtRp5228
(dp5229
g66
(dp5230
sg75
g5215
sg68
(lp5231
g61
(g62
g63
NtRp5232
(dp5233
g66
(dp5234
g74
I5
ssg75
g5228
sg68
(lp5235
S'default/search.html'
p5236
asbasbasbasbasbsS'locals'
p5237
(dp5238
S'all_items'
p5239
S'[]'
p5240
sS'items'
p5241
S'[]'
p5242
sS'self'
p5243
S'<mechanize._form.SelectControl instance>'
p5244
sS'target'
p5245
S'1'
sS'name'
p5246
S"'United States'"
p5247
sssS'traceback'
p5248
S'Traceback (most recent call last):\n  File "C:\\Documents and Settings\\agrover\\Desktop\\previous crawler\\web2py\\gluon\\restricted.py", line 205, in restricted\n    exec ccode in environment\n  File "C:\\Documents and Settings\\agrover\\Desktop\\previous crawler\\web2py\\applications\\mycrawler\\controllers/default.py", line 316, in <module>\n  File "C:\\Documents and Settings\\agrover\\Desktop\\previous crawler\\web2py\\gluon\\globals.py", line 173, in <lambda>\n    self._caller = lambda f: f()\n  File "C:\\Documents and Settings\\agrover\\Desktop\\previous crawler\\web2py\\applications\\mycrawler\\controllers/default.py", line 198, in search\n    br[\'countryCode\']=[request.vars.Country]\n  File "build\\bdist.win32\\egg\\mechanize\\_form.py", line 2782, in __setitem__\n    control.value = value\n  File "build\\bdist.win32\\egg\\mechanize\\_form.py", line 1977, in __setattr__\n    self._set_value(value)\n  File "build\\bdist.win32\\egg\\mechanize\\_form.py", line 1998, in _set_value\n    self._single_set_value(value)\n  File "build\\bdist.win32\\egg\\mechanize\\_form.py", line 2021, in _single_set_value\n    on, off = self._get_items(value[0])\n  File "build\\bdist.win32\\egg\\mechanize\\_form.py", line 2006, in _get_items\n    "insufficient items with name %r" % name)\nItemNotFoundError: insufficient items with name \'United States\'\n'
p5249
s.