(dp1
S'output'
p2
S"<class 'mechanize._mechanize.FormNotFoundError'> no form matching nr 1"
p3
sS'layer'
p4
S'C:\\Documents and Settings\\agrover\\Desktop\\previous crawler\\web2py\\applications\\mycrawler\\controllers/default.py'
p5
sS'code'
p6
S'# -*- coding: utf-8 -*-\n# this file is released under public domain and you can use without limitations\n\n#########################################################################\n## This is a samples controller\n## - index is the default action of any application\n## - user is required for authentication and authorization\n## - download is for downloading files uploaded in the db (does streaming)\n## - call exposes all registered services (none by default)\n#########################################################################\nimport cStringIO\nimport csv\nimport re\ncountry=[\'United States\', \'Afghanistan\', \'Aland Islands\', \'Albania\', \'Algeria\', \'American Samoa\', \'Andorra\', \'Angola\', \'Anguilla\', \'Antarctica\', \'Antigua and Barbuda\', \'Argentina\', \'Armenia\', \'Aruba\', \'Australia\', \'Austria\', \'Azerbaijan\', \'Bahamas\', \'Bahrain\', \'Bangladesh\', \'Barbados\', \'Belarus\', \'Belgium\', \'Belize\', \'Benin\', \'Bermuda\', \'Bhutan\', \'Bolivia\', \'Bosnia and Herzegovina\', \'Botswana\', \'Brazil\', \'British Indian Ocean Territory\', \'Brunei Darussalam\', \'Bulgaria\', \'Burkina Faso\', \'Burundi\', \'Cambodia\', \'Cameroon\', \'Canada\', \'Cape Verde\', \'Caribbean Nations\', \'Cayman Islands\', \'Central African Republic\', \'Chad\', \'Chile\', \'China\', \'Christmas Island\', \'Cocos (Keeling) Islands\', \'Colombia\', \'Comoros\', \'Congo\', \'Cook Islands\', \'Costa Rica\', "Cote D\'Ivoire (Ivory Coast)", \'Croatia\', \'Cuba\', \'Cyprus\', \'Czech Republic\', \'Democratic Republic of the Congo\', \'Denmark\', \'Djibouti\', \'Dominica\', \'Dominican Republic\', \'East Timor\', \'Ecuador\', \'Egypt\', \'El Salvador\', \'Equatorial Guinea\', \'Eritrea\', \'Estonia\', \'Ethiopia\', \'Falkland Islands (Malvinas)\', \'Faroe Islands\', \'Federated States of Micronesia\', \'Fiji\', \'Finland\', \'France\', \'French Guiana\', \'French Polynesia\', \'French Southern Territories\', \'Gabon\', \'Gambia\', \'Georgia\', \'Germany\', \'Ghana\', \'Gibraltar\', \'Greece\', \'Greenland\', \'Grenada\', \'Guadeloupe\', \'Guam\', \'Guatemala\', \'Guernsey\', \'Guinea\', \'Guinea-Bissau\', \'Guyana\', \'Haiti\', \'Honduras\', \'Hong Kong\', \'Hungary\', \'Iceland\', \'India\', \'Indonesia\', \'Iran\', \'Iraq\', \'Ireland\', \'Isle of Man\', \'Israel\', \'Italy\', \'Jamaica\', \'Japan\', \'Jersey\', \'Jordan\', \'Kazakhstan\', \'Kenya\', \'Kiribati\', \'Korea\', \'Korea (North)\', \'Kuwait\', \'Kyrgyzstan\', \'Laos\', \'Latvia\', \'Lebanon\', \'Lesotho\', \'Liberia\', \'Libya\', \'Liechtenstein\', \'Lithuania\', \'Luxembourg\', \'Macao\', \'Macedonia\', \'Madagascar\', \'Malawi\', \'Malaysia\', \'Maldives\', \'Mali\', \'Malta\', \'Marshall Islands\', \'Martinique\', \'Mauritania\', \'Mauritius\', \'Mayotte\', \'Mexico\', \'Moldova\', \'Monaco\', \'Mongolia\', \'Montenegro\', \'Montserrat\', \'Morocco\', \'Mozambique\', \'Myanmar\', \'Namibia\', \'Nauru\', \'Nepal\', \'Netherlands\', \'Netherlands Antilles\', \'New Caledonia\', \'New Zealand\', \'Nicaragua\', \'Niger\', \'Nigeria\', \'Niue\', \'Norfolk Island\', \'Northern Mariana Islands\', \'Norway\', \'Oman\', \'Pakistan\', \'Palau\', \'Palestinian Territory\', \'Panama\', \'Papua New Guinea\', \'Paraguay\', \'Peru\', \'Philippines\', \'Pitcairn\', \'Poland\', \'Portugal\', \'Puerto Rico\', \'Qatar\', \'Reunion\', \'Romania\', \'Russian Federation\', \'Rwanda\', \'Saint Helena\', \'Saint Kitts and Nevis\', \'Saint Lucia\', \'Saint Pierre and Miquelon\', \'Saint Vincent and the Grenadines\', \'Samoa\', \'San Marino\', \'Sao Tome and Principe\', \'Saudi Arabia\', \'Senegal\', \'Serbia\', \'Seychelles\', \'Sierra Leone\', \'Singapore\', \'Slovak Republic\', \'Slovenia\', \'Solomon Islands\', \'Somalia\', \'South Africa\', \'Spain\', \'Sri Lanka\', \'Sudan\', \'Suriname\', \'Svalbard and Jan Mayen\', \'Swaziland\', \'Sweden\', \'Switzerland\', \'Syria\', \'Taiwan\', \'Tajikistan\', \'Tanzania\', \'Thailand\', \'Timor-Leste\', \'Togo\', \'Tokelau\', \'Tonga\', \'Trinidad and Tobago\', \'Tunisia\', \'Turkey\', \'Turkmenistan\', \'Turks and Caicos Islands\', \'Tuvalu\', \'Uganda\', \'Ukraine\', \'United Arab Emirates\', \'United Kingdom\', \'Uruguay\', \'Uzbekistan\', \'Vanuatu\', \'Vatican City State (Holy See)\', \'Venezuela\', \'Vietnam\', \'Virgin Islands (British)\', \'Virgin Islands (U.S.)\', \'Wallis and Futuna\', \'Western Sahara\', \'Yemen\', \'Zambia\', \'Zimbabwe\', \'Other\']\n    \ncountryid=[\'us\', \'af\', \'ax\', \'al\', \'dz\', \'as\', \'ad\', \'ao\', \'ai\', \'aq\', \'ag\', \'ar\', \'am\', \'aw\', \'au\', \'at\', \'az\', \'bs\', \'bh\', \'bd\', \'bb\', \'by\', \'be\', \'bz\', \'bj\', \'bm\', \'bt\', \'bo\', \'ba\', \'bw\', \'br\', \'io\', \'bn\', \'bg\', \'bf\', \'bi\', \'kh\', \'cm\', \'ca\', \'cv\', \'cb\', \'ky\', \'cf\', \'td\', \'cl\', \'cn\', \'cx\', \'cc\', \'co\', \'km\', \'cg\', \'ck\', \'cr\', \'ci\', \'hr\', \'cu\', \'cy\', \'cz\', \'cd\', \'dk\', \'dj\', \'dm\', \'do\', \'tp\', \'ec\', \'eg\', \'sv\', \'gq\', \'er\', \'ee\', \'et\', \'fk\', \'fo\', \'fm\', \'fj\', \'fi\', \'fr\', \'gf\', \'pf\', \'tf\', \'ga\', \'gm\', \'ge\', \'de\', \'gh\', \'gi\', \'gr\', \'gl\', \'gd\', \'gp\', \'gu\', \'gt\', \'gg\', \'gn\', \'gw\', \'gy\', \'ht\', \'hn\', \'hk\', \'hu\', \'is\', \'in\', \'id\', \'ir\', \'iq\', \'ie\', \'im\', \'il\', \'it\', \'jm\', \'jp\', \'je\', \'jo\', \'kz\', \'ke\', \'ki\', \'kr\', \'kp\', \'kw\', \'kg\', \'la\', \'lv\', \'lb\', \'ls\', \'lr\', \'ly\', \'li\', \'lt\', \'lu\', \'mo\', \'mk\', \'mg\', \'mw\', \'my\', \'mv\', \'ml\', \'mt\', \'mh\', \'mq\', \'mr\', \'mu\', \'yt\', \'mx\', \'md\', \'mc\', \'mn\', \'me\', \'ms\', \'ma\', \'mz\', \'mm\', \'na\', \'nr\', \'np\', \'nl\', \'an\', \'nc\', \'nz\', \'ni\', \'ne\', \'ng\', \'nu\', \'nf\', \'mp\', \'no\', \'om\', \'pk\', \'pw\', \'ps\', \'pa\', \'pg\', \'py\', \'pe\', \'ph\', \'pn\', \'pl\', \'pt\', \'pr\', \'qa\', \'re\', \'ro\', \'ru\', \'rw\', \'sh\', \'kn\', \'lc\', \'pm\', \'vc\', \'ws\', \'sm\', \'st\', \'sa\', \'sn\', \'rs\', \'sc\', \'sl\', \'sg\', \'sk\', \'si\', \'sb\', \'so\', \'za\', \'es\', \'lk\', \'sd\', \'sr\', \'sj\', \'sz\', \'se\', \'ch\', \'sy\', \'tw\', \'tj\', \'tz\', \'th\', \'tl\', \'tg\', \'tk\', \'to\', \'tt\', \'tn\', \'tr\', \'tm\', \'tc\', \'tv\', \'ug\', \'ua\', \'ae\', \'gb\', \'uy\', \'uz\', \'vu\', \'va\', \'ve\', \'vn\', \'vg\', \'vi\', \'wf\', \'eh\', \'ye\', \'zm\', \'zw\', \'oo\']\n\nindustries=[\'All Industries\',\'Accounting\', \'Airlines/Aviation\', \'Alternative Dispute Resolution\', \'Alternative Medicine\', \'Animation\', \'Apparel & Fashion\', \'Architecture & Planning\', \'Arts and Crafts\', \'Automotive\', \'Aviation & Aerospace\', \'Banking\', \'Biotechnology\', \'Broadcast Media\', \'Building Materials\', \'Business Supplies and Equipment\', \'Capital Markets\', \'Chemicals\', \'Civic & Social Organization\', \'Civil Engineering\', \'Commercial Real Estate\', \'Computer & Network Security\', \'Computer Games\', \'Computer Hardware\', \'Computer Networking\', \'Computer Software\', \'Construction\', \'Consumer Electronics\', \'Consumer Goods\', \'Consumer Services\', \'Cosmetics\', \'Dairy\', \'Defense & Space\', \'Design\', \'Education Management\', \'E-Learning\', \'Electrical/Electronic Manufacturing\', \'Entertainment\', \'Environmental Services\', \'Events Services\', \'Executive Office\', \'Facilities Services\', \'Farming\', \'Financial Services\', \'Fine Art\', \'Fishery\', \'Food & Beverages\', \'Food Production\', \'Fund-Raising\', \'Furniture\', \'Gambling & Casinos\', \'Glass, Ceramics & Concrete\', \'Government Administration\', \'Government Relations\', \'Graphic Design\', \'Health, Wellness and Fitness\', \'Higher Education\', \'Hospital & Health Care\', \'Hospitality\', \'Human Resources\', \'Import and Export\', \'Individual & Family Services\', \'Industrial Automation\', \'Information Services\', \'Information Technology and Services\', \'Insurance\', \'International Affairs\', \'International Trade and Development\', \'Internet\', \'Investment Banking\', \'Investment Management\', \'Judiciary\', \'Law Enforcement\', \'Law Practice\', \'Legal Services\', \'Legislative Office\', \'Leisure, Travel & Tourism\', \'Libraries\', \'Logistics and Supply Chain\', \'Luxury Goods & Jewelry\', \'Machinery\', \'Management Consulting\', \'Maritime\', \'Marketing and Advertising\', \'Market Research\', \'Mechanical or Industrial Engineering\', \'Media Production\', \'Medical Devices\', \'Medical Practice\', \'Mental Health Care\', \'Military\', \'Mining & Metals\', \'Motion Pictures and Film\', \'Museums and Institutions\', \'Music\', \'Nanotechnology\', \'Newspapers\', \'Nonprofit Organization Management\', \'Oil & Energy\', \'Online Media\', \'Outsourcing/Offshoring\', \'Package/Freight Delivery\', \'Packaging and Containers\', \'Paper & Forest Products\', \'Performing Arts\', \'Pharmaceuticals\', \'Philanthropy\', \'Photography\', \'Plastics\', \'Political Organization\', \'Primary/Secondary Education\', \'Printing\', \'Professional Training & Coaching\', \'Program Development\', \'Public Policy\', \'Public Relations and Communications\', \'Public Safety\', \'Publishing\', \'Railroad Manufacture\', \'Ranching\', \'Real Estate\', \'Recreational Facilities and Services\', \'Religious Institutions\', \'Renewables & Environment\', \'Research\', \'Restaurants\', \'Retail\', \'Security and Investigations\', \'Semiconductors\', \'Shipbuilding\', \'Sporting Goods\', \'Sports\', \'Staffing and Recruiting\', \'Supermarkets\', \'Telecommunications\', \'Textiles\', \'Think Tanks\', \'Tobacco\', \'Translation and Localization\', \'Transportation/Trucking/Railroad\', \'Utilities\', \'Venture Capital & Private Equity\', \'Veterinary\', \'Warehousing\', \'Wholesale\', \'Wine and Spirits\', \'Wireless\', \'Writing and Editing\']\n\nseniority=[\'All Seniority Levels\', \'Manager\', \'Owner\', \'Partner\', \'CXO\', \'VP\', \'Director\', \'Senior\', \'Entry\', \'Students & Interns\', \'Volunteer\']\n\nfunctions=[\'All Functions\', \'Academics\', \'Accounting\', \'Administrative\', \'Business development\', \'Buyer\', \'Consultant\', \'Creative\', \'Engineering\', \'Entrepreneur\', \'Finance\', \'Human resources\', \'Information technology\', \'Legal\', \'Marketing\', \'Medical\', \'Operations\', \'Product\', \'Public relations\', \'Real estate\', \'Sales\', \'Support\']\n\n\nusername=\'\'\npassword=\'\'\n\ndef index():\n    """\n    example action using the internationalization operator T and flash\n    rendered by views/default/index.html or views/generic.html\n    """\n    #response.flash = "Welcome to web2py!"\n    #return dict(message=T(\'Hello World\'))\n    \n    form = SQLFORM.factory(\n       Field(\'LinkedIn_User_Id\'),\n       Field(\'Password\',type=\'password\'))\n       \n    global username\n    session.username=request.vars.LinkedIn_User_Id\n    global password\n    session.password=request.vars.Password\n    if form.process().accepted:\n        response.flash =\'form accepted\'\n        redirect(URL(r=request,f=\'enter_info\')) \n    return dict(form=form)   \n\ndef user():\n    """\n    exposes:\n    http://..../[app]/default/user/login\n    http://..../[app]/default/user/logout\n    http://..../[app]/default/user/register\n    http://..../[app]/default/user/profile\n    http://..../[app]/default/user/retrieve_password\n    http://..../[app]/default/user/change_password\n    use @auth.requires_login()\n        @auth.requires_membership(\'group name\')\n        @auth.requires_permission(\'read\',\'table name\',record_id)\n    to decorate functions that need access control\n    """\n    return dict(form=auth())\n\n\ndef download():\n    """\n    allows downloading of uploaded files\n    http://..../[app]/default/download/[filename]\n    """\n    return response.download(request,db)\n\n\ndef call():\n    """\n    exposes services. for example:\n    http://..../[app]/default/call/jsonrpc\n    decorate with @services.jsonrpc the functions to expose\n    supports xml, json, xmlrpc, jsonrpc, amfrpc, rss, csv\n    """\n    return service()\n\n\n@auth.requires_signature()\ndef data():\n    """\n    http://..../[app]/default/data/tables\n    http://..../[app]/default/data/create/[table]\n    http://..../[app]/default/data/read/[table]/[id]\n    http://..../[app]/default/data/update/[table]/[id]\n    http://..../[app]/default/data/delete/[table]/[id]\n    http://..../[app]/default/data/select/[table]\n    http://..../[app]/default/data/search/[table]\n    but URLs must be signed, i.e. linked with\n      A(\'table\',_href=URL(\'data/tables\',user_signature=True))\n    or with the signed load operator\n      LOAD(\'default\',\'data.load\',args=\'tables\',ajax=True,user_signature=True)\n    """\n    return dict(form=crud())\n\n#def enter_info():\n\n#     form = SQLFORM.factory(\n#         Field(\'First_Name\'),\n#         Field(\'Last_Name\'),\n#         Field(\'Keywords\'),\n#         Field(\'Title\'),\n#         Field(\'Company\'),\n#         Field(\'School\'))\n         #Field(\'Submit\',\'submit\'))\n#    if form.process().accepted:\n#        response.flash = \'form accepted\'\n#    elif form.errors:\n#        response.flash = \'form has errors\'\n    \n    #form=FORM(\'First Name:\',INPUT(_name=\'fname\',_id=\'fname\'),\n     #         \'Last Name:\',INPUT(_name=\'lname\',_id=\'lname\'),\n      #        \'Keywords:\',INPUT(_name=\'keywords\',_id=\'keywords\'),\n       #       \'Title:\',INPUT(_name=\'title\',_id=\'title\'),\n       #       \'Company:\',INPUT(_name=\'company\',_id=\'company\'),\n       #       \'School:\',INPUT(_name=\'school\',_id=\'school\'),\n              \n        #      INPUT(_type=\'submit\',_value=\'Submit\',_id=\'submit\'))\n    #if form.accepts(request,session):\n    #    response.flash = \'form accepted\'\n    #    redirect(URL(r=request,f=\'search\',vars=request.vars))\n#    return dict(form=form\n    \ndef enter_info():\n    \n    form = SQLFORM.factory(\n       Field(\'First_Name\'),\n       Field(\'Last_Name\'),\n       Field(\'Keywords\'),\n       Field(\'Title\'),\n       Field(\'Company\'),\n       Field(\'School\'),\n       Field(\'File_Name\',requires=IS_NOT_EMPTY()),\n       Field(\'Country\',requires=IS_IN_SET(country),default=\'India\'),\n       Field(\'Industry\',requires=IS_IN_SET(industries,multiple=\'multiple\'),default=\'All Industries\'),\n       Field(\'Seniority_Levels\',requires=IS_IN_SET(seniority,multiple=\'multiple\'),default=\'All Seniority Levels\'),\n       Field(\'Functions\',requires=IS_IN_SET(functions,multiple=\'multiple\'),default=\'All Functions\'))\n    \n    if form.process().accepted:\n        response.flash = \'form accepted\'\n        redirect(URL(r=request,f=\'search\',vars=request.vars))\n    elif form.errors:\n        response.flash = \'form has errors\'\n    return dict(form=form)\n    \n\ndef search():\n    import mechanize\n    import cookielib\n    import html2text\n    from bs4 import BeautifulSoup\n    import cStringIO\n    \n    # Browser    \n    br = mechanize.Browser()\n\n    # Cookie Jar\n    cj = cookielib.LWPCookieJar()\n    br.set_cookiejar(cj)\n\n    # Browser options\n    br.set_handle_equiv(True)\n    br.set_handle_gzip(True)\n    br.set_handle_redirect(True)\n    br.set_handle_referer(True)\n    br.set_handle_robots(False)\n\n    # Follows refresh 0 but not hangs on refresh > 0\n    br.set_handle_refresh(mechanize._http.HTTPRefreshProcessor(), max_time=1)\n\n    # User-Agent (this is cheating, ok?)\n    br.addheaders = [(\'User-agent\', \'Mozilla/5.0 (X11; U; Linux i686; en-US; rv:1.9.0.1) Gecko/2008071615 Fedora/3.0.1-1.fc9 Firefox/3.0.1\')]\n\n\n    # The site we will navigate into, handling it\'s session    \n    br.open(\'https://www.linkedin.com\')\n\n    # Select the first (index zero) form\n    br.select_form(nr=0)\n\n    # User credentials\n    #br.form[\'session_key\'] = \'mrigeshgaurav@gmail.com\'\n    #br.form[\'session_password\'] = \'modeln@1234\'\n    \n    \n    br.form[\'session_key\'] = session.username\n    br.form[\'session_password\'] = session.password\n    \n    \n    # Login by submitting form br\n    br.submit()\n    \n    #opening the advanced search page straight away\n    br.open(\'https://www.linkedin.com/search?trk=advsrch\')\n    #selecting the 1st form\n    br.select_form(nr=1)\n\n    #entering various fields and filters\n    if request.vars.Last_Name:\n        br["lname"]=request.vars.Last_Name\n\n    if request.vars.First_Name:\n        br["fname"]=request.vars.First_Name\n    \n    if request.vars.Keywords:\n        br["keywords"]=request.vars.Keywords\n\n    if request.vars.Company:\n        br["company"]=request.vars.Company\n\n    if request.vars.School:\n        br["school"]=request.vars.School\n\n    if request.vars.Title:\n        br["title"]=request.vars.Title\n        \n    if request.vars.Country:\n        br["countryCode"]=[countryid[country.index(request.vars.Country)]]\n    \n    if request.vars.Industry and request.vars.Industry!=\'All Industries\':\n        if isinstance(request.vars.Industry,list):\n            for i in request.vars.Industry:\n                br.find_control("facet_I").items[industries.index(i)-1].selected=True\n        else:\n            br.find_control("facet_I").items[industries.index(request.vars.Industry)-1].selected=True\n            \n    if request.vars.Seniority_Levels and request.vars.Seniority_Levels!=\'All Seniority Levels\':\n        if isinstance(request.vars.Seniority_Levels,list):\n            for i in request.vars.Seniority_Levels:\n                br.find_control("facet_SE").items[seniority.index(i)-1].selected=True\n        else:\n            br.find_control("facet_SE").items[seniority.index(request.vars.Seniority_Levels)-1].selected=True\n            \n    if request.vars.Functions and request.vars.Functions!=\'All Functions\':\n        if isinstance(request.vars.Functions,list):\n            for i in request.vars.Functions:\n                br.find_control("facet_FA").items[functions.index(i)-1].selected=True\n        else:\n            br.find_control("facet_FA").items[functions.index(request.vars.Functions)-1].selected=True\n    \n    #submitting the form\n    br.submit()\n    \n    #lists for retreiving the required data\n    view_profile=[]\n    name=[]\n    titl=[]\n    location=[]\n    industry=[]\n    current=[]\n    \n    #flag to make sure we get entries on 1st page\n    flag=1\n    \n    #writing into file with given filename\n    #global csv_response\n\n    csv_response = cStringIO.StringIO()\n    \n    spamWriter = csv.writer(csv_response, delimiter=\',\')\n    \n    #spamWriter = csv.writer(open(request.vars.File_Name+\'.csv\', \'wb\'), delimiter=\',\')\n    soup = BeautifulSoup(br.response().read())\n    spamWriter.writerow([\'NAME\',\'JOB-TITLE\',\'Current\',\'LOCATION\',\'INDUSTRY\',\'PROFLE-URL\'])\n    \n    #scans till there is a link to "next page"\n    while soup.find(\'a\',{"class" : "paginator-next"}) or flag==1:\n        flag=0\n        soup = BeautifulSoup(br.response().read())\n        view_profile=[]\n        name=[]\n        titl=[]\n        location=[]\n        industry=[]\n        current=[]\n        \n        #parsing for the html response to get information\n        for k in soup.find_all(\'dl\',{"class" : "vcard-basic"}):\n            if k.find(\'dd\',{"class" : "title"}):\n                    titl.append(k.find(\'dd\',{"class" : "title"}).get_text())\n            else:\n                    titl.append(\'NONE\')\n                            \n            if k.find(\'span\',{"class" : "location"}):\n                    location.append(k.find(\'span\',{"class" : "location"}).get_text())\n            else:\n                    location.append(\'NONE\')\n            if k.find(\'span\',{"class" : "industry"}):\n                    industry.append(k.find(\'span\',{"class" : "industry"}).get_text())\n            else:\n                    industry.append(\'NONE\')\n                \n        for k in soup.find_all(\'dl\',{"class" : "vcard-expanded"}):\n            if k.find(\'span\',{"class" : "current-details more-text"}):\n                    current.append(k.find(\'span\',{"class" : "current-details more-text"}).get_text())\n            elif k.find(\'span\',{"class" : "current-details"}):\n                    current.append(k.find(\'span\',{"class" : "current-details"}).get_text())\n            else:\n                    current.append(\'NONE\')\n                \n        for l in soup.find_all(\'a\',{"title" : "View Profile"}):\n            view_profile.append(\'http://www.linkedin.com\'+l.get(\'href\'))\n            name.append(l.get_text().encode(\'utf-8\'))\n        \n        for i in range(0,len(name)):\n            try:\n                spamWriter.writerow([name[i][1:len(name[i])-1].encode(\'utf-8\'),titl[i].encode(\'utf-8\'),current[i].encode(\'utf-8\'),location[i][1:len(location[i])-1].encode(\'utf-8\'),industry[i][1:len(industry[i])-1].encode(\'utf-8\'),view_profile[i].encode(\'utf-8\')])\n            except:\n                continue\n        if soup.find(\'a\',{"class" : "paginator-next"}):\n            br.open(\'http://www.linkedin.com\'+ soup.find(\'a\',{"class" : "paginator-next"}).get(\'href\'))\n        #soup = BeautifulSoup(br.response().read())\n        \n    response.headers[\'Content-Type\'] = \'text/csv\'\n    response.headers[\'Content-Disposition\'] = \'attachment; filename=%s.csv\' % request.vars.File_Name\n    \n    return csv_response.getvalue()\n    #redirect(URL(r=request,f=\'enter_info\'))       \n    #for link in soup.find_all(\'a\'):\n    #    if link.get(\'title\')==\'View Profile\':\n    #        #print(link.get(\'href\'))\n    #        #print link.get_text()\n    #        view_profile.append(\'http://www.linkedin.com\'+link.get(\'href\'))\n    #        name.append(link.get_text())\n#for l in soup.find_all("span", { "class" : "given-name" }):\n    #print l.get_text()\n\n        \n\n#    for l in soup.find_all(\'dd\',{"class" : "title"}):\n        #print l.get_text()\n#        titl.append(l.get_text())\n    \n#    for l in soup.find_all(\'span\',{"class" : "location"}):\n        #print l.get_text()\n#        location.append(l.get_text())\n\n#    for l in soup.find_all(\'span\',{"class" : "industry"}):\n        #print l.get_text()\n#        industry.append(l.get_text())\n        \n#    for l in soup.find_all(\'span\', {"class" : "current-details"}):\n#        k=l.get_text()\n#        if k[len(k)-4:len(k)]!=\'more\':\n#            current.append(k)\n        #elif(l.get["class"]==\'current-details more text\'):\n        #    current.append(l.get_text())\n    #for l in soup.find_all(\'span\',{"class" : "current-details"}):\n        #print l.get_text()\n        #current.append(l.get_text())\n\n    \n    #global filename,csv_response\n\n    #csv_response = cStringIO.StringIO()\n    \n    #spamWriter = csv.writer(csv_response, delimiter=\',\')\n    \n    #spamWriter.writerow([\'NAME\',\'JOB-TITLE\',\'COMPANY-NAME\',\'LOCATION\',\'INDUSTRY\',\'PROFLE-URL\'])\n   \n    #spamWriter = csv.writer(open(request.vars.File_Name+\'.csv\', \'wb\'), delimiter=\',\')\n    #spamWriter.writerow([\'NAME\',\'JOB-TITLE\',\'Current\',\'LOCATION\',\'INDUSTRY\',\'PROFLE-URL\'])\n    #for i in range(1,10):\n    #    spamWriter.writerow([name[i].encode(\'utf-8\'),titl[i],current[i],location[i],industry[i],view_profile[i]])\n        \n        \n    #,titl[i],current[i],location[i],industry[i],view_profile[i]\n    #response.headers[\'Content-Type\'] = \'text/csv\'\n    #response.headers[\'Content-Disposition\'] = \'attachment; filename=%s\' % request.vars.File_Name\n\n    #print view_profile\n    #print name\n    #print location\n    #print industry\n    #print titl\n    \n    return dict(view_profile=view_profile,name=name,location=location,industry=industry,titl=titl,current=current)\n\nresponse._vars=response._caller(search)\n'
p7
sS'snapshot'
p8
(dp9
S'exception'
p10
(dp11
S'__module__'
p12
S"'mechanize._mechanize'"
p13
sS'__getslice__'
p14
S"<method-wrapper '__getslice__' of FormNotFoundError object>"
p15
sS'__str__'
p16
S"<method-wrapper '__str__' of FormNotFoundError object>"
p17
sS'__reduce__'
p18
S'<built-in method __reduce__ of FormNotFoundError object>'
p19
sS'__dict__'
p20
S'{}'
p21
sS'__sizeof__'
p22
S'<built-in method __sizeof__ of FormNotFoundError object>'
p23
sS'__weakref__'
p24
S'None'
p25
sS'__init__'
p26
S"<method-wrapper '__init__' of FormNotFoundError object>"
p27
sS'__setattr__'
p28
S"<method-wrapper '__setattr__' of FormNotFoundError object>"
p29
sS'__reduce_ex__'
p30
S'<built-in method __reduce_ex__ of FormNotFoundError object>'
p31
sS'__new__'
p32
S'<built-in method __new__ of type object>'
p33
sS'__format__'
p34
S'<built-in method __format__ of FormNotFoundError object>'
p35
sS'__class__'
p36
S"<class 'mechanize._mechanize.FormNotFoundError'>"
p37
sS'__doc__'
p38
S'None'
p39
sS'__getitem__'
p40
S"<method-wrapper '__getitem__' of FormNotFoundError object>"
p41
sS'__setstate__'
p42
S'<built-in method __setstate__ of FormNotFoundError object>'
p43
sS'__getattribute__'
p44
S"<method-wrapper '__getattribute__' of FormNotFoundError object>"
p45
sS'args'
p46
S"('no form matching nr 1',)"
p47
sS'__subclasshook__'
p48
S'<built-in method __subclasshook__ of type object>'
p49
sS'__unicode__'
p50
S'<built-in method __unicode__ of FormNotFoundError object>'
p51
sS'__delattr__'
p52
S"<method-wrapper '__delattr__' of FormNotFoundError object>"
p53
sS'__repr__'
p54
S"<method-wrapper '__repr__' of FormNotFoundError object>"
p55
sS'__hash__'
p56
S"<method-wrapper '__hash__' of FormNotFoundError object>"
p57
ssS'evalue'
p58
S'no form matching nr 1'
p59
sS'request'
p60
ccopy_reg
_reconstructor
p61
(cgluon.html
BEAUTIFY
p62
c__builtin__
object
p63
NtRp64
(dp65
S'attributes'
p66
(dp67
sS'components'
p68
(lp69
g61
(cgluon.html
TABLE
p70
g63
NtRp71
(dp72
g66
(dp73
S'level'
p74
I5
ssS'parent'
p75
Nsg68
(lp76
g61
(cgluon.html
TR
p77
g63
NtRp78
(dp79
g66
(dp80
sg75
g71
sg68
(lp81
g61
(cgluon.html
TD
p82
g63
NtRp83
(dp84
g66
(dp85
S'_style'
p86
S'font-weight:bold;vertical-align:top'
p87
ssg75
g78
sg68
(lp88
S'ajax'
p89
asbag61
(g82
g63
NtRp90
(dp91
g66
(dp92
S'_valign'
p93
S'top'
p94
ssg75
g78
sg68
(lp95
S':'
asbag61
(g82
g63
NtRp96
(dp97
g66
(dp98
sg75
g78
sg68
(lp99
g61
(g62
g63
NtRp100
(dp101
g66
(dp102
g74
I5
ssg75
g96
sg68
(lp103
S'False'
p104
asbasbasbag61
(g77
g63
NtRp105
(dp106
g66
(dp107
sg75
g71
sg68
(lp108
g61
(g82
g63
NtRp109
(dp110
g66
(dp111
g86
g87
ssg75
g105
sg68
(lp112
S'application'
p113
asbag61
(g82
g63
NtRp114
(dp115
g66
(dp116
g93
g94
ssg75
g105
sg68
(lp117
S':'
asbag61
(g82
g63
NtRp118
(dp119
g66
(dp120
sg75
g105
sg68
(lp121
g61
(g62
g63
NtRp122
(dp123
g66
(dp124
g74
I5
ssg75
g118
sg68
(lp125
S'mycrawler'
p126
asbasbasbag61
(g77
g63
NtRp127
(dp128
g66
(dp129
sg75
g71
sg68
(lp130
g61
(g82
g63
NtRp131
(dp132
g66
(dp133
g86
g87
ssg75
g127
sg68
(lp134
g46
asbag61
(g82
g63
NtRp135
(dp136
g66
(dp137
g93
g94
ssg75
g127
sg68
(lp138
S':'
asbag61
(g82
g63
NtRp139
(dp140
g66
(dp141
sg75
g127
sg68
(lp142
g61
(g62
g63
NtRp143
(dp144
g66
(dp145
g74
I5
ssg75
g139
sg68
(lp146
g61
(g70
g63
NtRp147
(dp148
g66
(dp149
g74
I4
ssg75
Nsg68
(lp150
sbasbasbasbag61
(g77
g63
NtRp151
(dp152
g66
(dp153
sg75
g71
sg68
(lp154
g61
(g82
g63
NtRp155
(dp156
g66
(dp157
g86
g87
ssg75
g151
sg68
(lp158
S'body'
p159
asbag61
(g82
g63
NtRp160
(dp161
g66
(dp162
g93
g94
ssg75
g151
sg68
(lp163
S':'
asbag61
(g82
g63
NtRp164
(dp165
g66
(dp166
sg75
g151
sg68
(lp167
g61
(g62
g63
NtRp168
(dp169
g66
(dp170
g74
I5
ssg75
g164
sg68
(lp171
S'<cStringIO.StringO object at 0x055452E0>'
p172
asbasbasbag61
(g77
g63
NtRp173
(dp174
g66
(dp175
sg75
g71
sg68
(lp176
g61
(g82
g63
NtRp177
(dp178
g66
(dp179
g86
g87
ssg75
g173
sg68
(lp180
S'client'
p181
asbag61
(g82
g63
NtRp182
(dp183
g66
(dp184
g93
g94
ssg75
g173
sg68
(lp185
S':'
asbag61
(g82
g63
NtRp186
(dp187
g66
(dp188
sg75
g173
sg68
(lp189
g61
(g62
g63
NtRp190
(dp191
g66
(dp192
g74
I5
ssg75
g186
sg68
(lp193
S'127.0.0.1'
p194
asbasbasbag61
(g77
g63
NtRp195
(dp196
g66
(dp197
sg75
g71
sg68
(lp198
g61
(g82
g63
NtRp199
(dp200
g66
(dp201
g86
g87
ssg75
g195
sg68
(lp202
S'controller'
p203
asbag61
(g82
g63
NtRp204
(dp205
g66
(dp206
g93
g94
ssg75
g195
sg68
(lp207
S':'
asbag61
(g82
g63
NtRp208
(dp209
g66
(dp210
sg75
g195
sg68
(lp211
g61
(g62
g63
NtRp212
(dp213
g66
(dp214
g74
I5
ssg75
g208
sg68
(lp215
S'default'
p216
asbasbasbag61
(g77
g63
NtRp217
(dp218
g66
(dp219
sg75
g71
sg68
(lp220
g61
(g82
g63
NtRp221
(dp222
g66
(dp223
g86
g87
ssg75
g217
sg68
(lp224
S'cookies'
p225
asbag61
(g82
g63
NtRp226
(dp227
g66
(dp228
g93
g94
ssg75
g217
sg68
(lp229
S':'
asbag61
(g82
g63
NtRp230
(dp231
g66
(dp232
sg75
g217
sg68
(lp233
g61
(g62
g63
NtRp234
(dp235
g66
(dp236
g74
I5
ssg75
g230
sg68
(lp237
g61
(g70
g63
NtRp238
(dp239
g66
(dp240
g74
I4
ssg75
Nsg68
(lp241
g61
(g77
g63
NtRp242
(dp243
g66
(dp244
sg75
g238
sg68
(lp245
g61
(g82
g63
NtRp246
(dp247
g66
(dp248
g86
g87
ssg75
g242
sg68
(lp249
S'session_id_admin'
p250
asbag61
(g82
g63
NtRp251
(dp252
g66
(dp253
g93
g94
ssg75
g242
sg68
(lp254
S':'
asbag61
(g82
g63
NtRp255
(dp256
g66
(dp257
sg75
g242
sg68
(lp258
g61
(g62
g63
NtRp259
(dp260
g66
(dp261
g74
I4
ssg75
g255
sg68
(lp262
g61
(g70
g63
NtRp263
(dp264
g66
(dp265
g74
I3
ssg75
Nsg68
(lp266
g61
(g77
g63
NtRp267
(dp268
g66
(dp269
sg75
g263
sg68
(lp270
g61
(g82
g63
NtRp271
(dp272
g66
(dp273
g86
g87
ssg75
g267
sg68
(lp274
S'comment'
p275
asbag61
(g82
g63
NtRp276
(dp277
g66
(dp278
g93
g94
ssg75
g267
sg68
(lp279
S':'
asbag61
(g82
g63
NtRp280
(dp281
g66
(dp282
sg75
g267
sg68
(lp283
g61
(g62
g63
NtRp284
(dp285
g66
(dp286
g74
I3
ssg75
g280
sg68
(lp287
S''
asbasbasbag61
(g77
g63
NtRp288
(dp289
g66
(dp290
sg75
g263
sg68
(lp291
g61
(g82
g63
NtRp292
(dp293
g66
(dp294
g86
g87
ssg75
g288
sg68
(lp295
S'domain'
p296
asbag61
(g82
g63
NtRp297
(dp298
g66
(dp299
g93
g94
ssg75
g288
sg68
(lp300
S':'
asbag61
(g82
g63
NtRp301
(dp302
g66
(dp303
sg75
g288
sg68
(lp304
g61
(g62
g63
NtRp305
(dp306
g66
(dp307
g74
I3
ssg75
g301
sg68
(lp308
S''
asbasbasbag61
(g77
g63
NtRp309
(dp310
g66
(dp311
sg75
g263
sg68
(lp312
g61
(g82
g63
NtRp313
(dp314
g66
(dp315
g86
g87
ssg75
g309
sg68
(lp316
S'expires'
p317
asbag61
(g82
g63
NtRp318
(dp319
g66
(dp320
g93
g94
ssg75
g309
sg68
(lp321
S':'
asbag61
(g82
g63
NtRp322
(dp323
g66
(dp324
sg75
g309
sg68
(lp325
g61
(g62
g63
NtRp326
(dp327
g66
(dp328
g74
I3
ssg75
g322
sg68
(lp329
S''
asbasbasbag61
(g77
g63
NtRp330
(dp331
g66
(dp332
sg75
g263
sg68
(lp333
g61
(g82
g63
NtRp334
(dp335
g66
(dp336
g86
g87
ssg75
g330
sg68
(lp337
S'httponly'
p338
asbag61
(g82
g63
NtRp339
(dp340
g66
(dp341
g93
g94
ssg75
g330
sg68
(lp342
S':'
asbag61
(g82
g63
NtRp343
(dp344
g66
(dp345
sg75
g330
sg68
(lp346
g61
(g62
g63
NtRp347
(dp348
g66
(dp349
g74
I3
ssg75
g343
sg68
(lp350
S''
asbasbasbag61
(g77
g63
NtRp351
(dp352
g66
(dp353
sg75
g263
sg68
(lp354
g61
(g82
g63
NtRp355
(dp356
g66
(dp357
g86
g87
ssg75
g351
sg68
(lp358
S'max-age'
p359
asbag61
(g82
g63
NtRp360
(dp361
g66
(dp362
g93
g94
ssg75
g351
sg68
(lp363
S':'
asbag61
(g82
g63
NtRp364
(dp365
g66
(dp366
sg75
g351
sg68
(lp367
g61
(g62
g63
NtRp368
(dp369
g66
(dp370
g74
I3
ssg75
g364
sg68
(lp371
S''
asbasbasbag61
(g77
g63
NtRp372
(dp373
g66
(dp374
sg75
g263
sg68
(lp375
g61
(g82
g63
NtRp376
(dp377
g66
(dp378
g86
g87
ssg75
g372
sg68
(lp379
S'path'
p380
asbag61
(g82
g63
NtRp381
(dp382
g66
(dp383
g93
g94
ssg75
g372
sg68
(lp384
S':'
asbag61
(g82
g63
NtRp385
(dp386
g66
(dp387
sg75
g372
sg68
(lp388
g61
(g62
g63
NtRp389
(dp390
g66
(dp391
g74
I3
ssg75
g385
sg68
(lp392
S''
asbasbasbag61
(g77
g63
NtRp393
(dp394
g66
(dp395
sg75
g263
sg68
(lp396
g61
(g82
g63
NtRp397
(dp398
g66
(dp399
g86
g87
ssg75
g393
sg68
(lp400
S'secure'
p401
asbag61
(g82
g63
NtRp402
(dp403
g66
(dp404
g93
g94
ssg75
g393
sg68
(lp405
S':'
asbag61
(g82
g63
NtRp406
(dp407
g66
(dp408
sg75
g393
sg68
(lp409
g61
(g62
g63
NtRp410
(dp411
g66
(dp412
g74
I3
ssg75
g406
sg68
(lp413
S''
asbasbasbag61
(g77
g63
NtRp414
(dp415
g66
(dp416
sg75
g263
sg68
(lp417
g61
(g82
g63
NtRp418
(dp419
g66
(dp420
g86
g87
ssg75
g414
sg68
(lp421
S'version'
p422
asbag61
(g82
g63
NtRp423
(dp424
g66
(dp425
g93
g94
ssg75
g414
sg68
(lp426
S':'
asbag61
(g82
g63
NtRp427
(dp428
g66
(dp429
sg75
g414
sg68
(lp430
g61
(g62
g63
NtRp431
(dp432
g66
(dp433
g74
I3
ssg75
g427
sg68
(lp434
S''
asbasbasbasbasbasbasbag61
(g77
g63
NtRp435
(dp436
g66
(dp437
sg75
g238
sg68
(lp438
g61
(g82
g63
NtRp439
(dp440
g66
(dp441
g86
g87
ssg75
g435
sg68
(lp442
S'session_id_crawler'
p443
asbag61
(g82
g63
NtRp444
(dp445
g66
(dp446
g93
g94
ssg75
g435
sg68
(lp447
S':'
asbag61
(g82
g63
NtRp448
(dp449
g66
(dp450
sg75
g435
sg68
(lp451
g61
(g62
g63
NtRp452
(dp453
g66
(dp454
g74
I4
ssg75
g448
sg68
(lp455
g61
(g70
g63
NtRp456
(dp457
g66
(dp458
g74
I3
ssg75
Nsg68
(lp459
g61
(g77
g63
NtRp460
(dp461
g66
(dp462
sg75
g456
sg68
(lp463
g61
(g82
g63
NtRp464
(dp465
g66
(dp466
g86
g87
ssg75
g460
sg68
(lp467
g275
asbag61
(g82
g63
NtRp468
(dp469
g66
(dp470
g93
g94
ssg75
g460
sg68
(lp471
S':'
asbag61
(g82
g63
NtRp472
(dp473
g66
(dp474
sg75
g460
sg68
(lp475
g61
(g62
g63
NtRp476
(dp477
g66
(dp478
g74
I3
ssg75
g472
sg68
(lp479
S''
asbasbasbag61
(g77
g63
NtRp480
(dp481
g66
(dp482
sg75
g456
sg68
(lp483
g61
(g82
g63
NtRp484
(dp485
g66
(dp486
g86
g87
ssg75
g480
sg68
(lp487
g296
asbag61
(g82
g63
NtRp488
(dp489
g66
(dp490
g93
g94
ssg75
g480
sg68
(lp491
S':'
asbag61
(g82
g63
NtRp492
(dp493
g66
(dp494
sg75
g480
sg68
(lp495
g61
(g62
g63
NtRp496
(dp497
g66
(dp498
g74
I3
ssg75
g492
sg68
(lp499
S''
asbasbasbag61
(g77
g63
NtRp500
(dp501
g66
(dp502
sg75
g456
sg68
(lp503
g61
(g82
g63
NtRp504
(dp505
g66
(dp506
g86
g87
ssg75
g500
sg68
(lp507
g317
asbag61
(g82
g63
NtRp508
(dp509
g66
(dp510
g93
g94
ssg75
g500
sg68
(lp511
S':'
asbag61
(g82
g63
NtRp512
(dp513
g66
(dp514
sg75
g500
sg68
(lp515
g61
(g62
g63
NtRp516
(dp517
g66
(dp518
g74
I3
ssg75
g512
sg68
(lp519
S''
asbasbasbag61
(g77
g63
NtRp520
(dp521
g66
(dp522
sg75
g456
sg68
(lp523
g61
(g82
g63
NtRp524
(dp525
g66
(dp526
g86
g87
ssg75
g520
sg68
(lp527
g338
asbag61
(g82
g63
NtRp528
(dp529
g66
(dp530
g93
g94
ssg75
g520
sg68
(lp531
S':'
asbag61
(g82
g63
NtRp532
(dp533
g66
(dp534
sg75
g520
sg68
(lp535
g61
(g62
g63
NtRp536
(dp537
g66
(dp538
g74
I3
ssg75
g532
sg68
(lp539
S''
asbasbasbag61
(g77
g63
NtRp540
(dp541
g66
(dp542
sg75
g456
sg68
(lp543
g61
(g82
g63
NtRp544
(dp545
g66
(dp546
g86
g87
ssg75
g540
sg68
(lp547
g359
asbag61
(g82
g63
NtRp548
(dp549
g66
(dp550
g93
g94
ssg75
g540
sg68
(lp551
S':'
asbag61
(g82
g63
NtRp552
(dp553
g66
(dp554
sg75
g540
sg68
(lp555
g61
(g62
g63
NtRp556
(dp557
g66
(dp558
g74
I3
ssg75
g552
sg68
(lp559
S''
asbasbasbag61
(g77
g63
NtRp560
(dp561
g66
(dp562
sg75
g456
sg68
(lp563
g61
(g82
g63
NtRp564
(dp565
g66
(dp566
g86
g87
ssg75
g560
sg68
(lp567
g380
asbag61
(g82
g63
NtRp568
(dp569
g66
(dp570
g93
g94
ssg75
g560
sg68
(lp571
S':'
asbag61
(g82
g63
NtRp572
(dp573
g66
(dp574
sg75
g560
sg68
(lp575
g61
(g62
g63
NtRp576
(dp577
g66
(dp578
g74
I3
ssg75
g572
sg68
(lp579
S''
asbasbasbag61
(g77
g63
NtRp580
(dp581
g66
(dp582
sg75
g456
sg68
(lp583
g61
(g82
g63
NtRp584
(dp585
g66
(dp586
g86
g87
ssg75
g580
sg68
(lp587
g401
asbag61
(g82
g63
NtRp588
(dp589
g66
(dp590
g93
g94
ssg75
g580
sg68
(lp591
S':'
asbag61
(g82
g63
NtRp592
(dp593
g66
(dp594
sg75
g580
sg68
(lp595
g61
(g62
g63
NtRp596
(dp597
g66
(dp598
g74
I3
ssg75
g592
sg68
(lp599
S''
asbasbasbag61
(g77
g63
NtRp600
(dp601
g66
(dp602
sg75
g456
sg68
(lp603
g61
(g82
g63
NtRp604
(dp605
g66
(dp606
g86
g87
ssg75
g600
sg68
(lp607
g422
asbag61
(g82
g63
NtRp608
(dp609
g66
(dp610
g93
g94
ssg75
g600
sg68
(lp611
S':'
asbag61
(g82
g63
NtRp612
(dp613
g66
(dp614
sg75
g600
sg68
(lp615
g61
(g62
g63
NtRp616
(dp617
g66
(dp618
g74
I3
ssg75
g612
sg68
(lp619
S''
asbasbasbasbasbasbasbag61
(g77
g63
NtRp620
(dp621
g66
(dp622
sg75
g238
sg68
(lp623
g61
(g82
g63
NtRp624
(dp625
g66
(dp626
g86
g87
ssg75
g620
sg68
(lp627
S'session_id_mycrawler'
p628
asbag61
(g82
g63
NtRp629
(dp630
g66
(dp631
g93
g94
ssg75
g620
sg68
(lp632
S':'
asbag61
(g82
g63
NtRp633
(dp634
g66
(dp635
sg75
g620
sg68
(lp636
g61
(g62
g63
NtRp637
(dp638
g66
(dp639
g74
I4
ssg75
g633
sg68
(lp640
g61
(g70
g63
NtRp641
(dp642
g66
(dp643
g74
I3
ssg75
Nsg68
(lp644
g61
(g77
g63
NtRp645
(dp646
g66
(dp647
sg75
g641
sg68
(lp648
g61
(g82
g63
NtRp649
(dp650
g66
(dp651
g86
g87
ssg75
g645
sg68
(lp652
g275
asbag61
(g82
g63
NtRp653
(dp654
g66
(dp655
g93
g94
ssg75
g645
sg68
(lp656
S':'
asbag61
(g82
g63
NtRp657
(dp658
g66
(dp659
sg75
g645
sg68
(lp660
g61
(g62
g63
NtRp661
(dp662
g66
(dp663
g74
I3
ssg75
g657
sg68
(lp664
S''
asbasbasbag61
(g77
g63
NtRp665
(dp666
g66
(dp667
sg75
g641
sg68
(lp668
g61
(g82
g63
NtRp669
(dp670
g66
(dp671
g86
g87
ssg75
g665
sg68
(lp672
g296
asbag61
(g82
g63
NtRp673
(dp674
g66
(dp675
g93
g94
ssg75
g665
sg68
(lp676
S':'
asbag61
(g82
g63
NtRp677
(dp678
g66
(dp679
sg75
g665
sg68
(lp680
g61
(g62
g63
NtRp681
(dp682
g66
(dp683
g74
I3
ssg75
g677
sg68
(lp684
S''
asbasbasbag61
(g77
g63
NtRp685
(dp686
g66
(dp687
sg75
g641
sg68
(lp688
g61
(g82
g63
NtRp689
(dp690
g66
(dp691
g86
g87
ssg75
g685
sg68
(lp692
g317
asbag61
(g82
g63
NtRp693
(dp694
g66
(dp695
g93
g94
ssg75
g685
sg68
(lp696
S':'
asbag61
(g82
g63
NtRp697
(dp698
g66
(dp699
sg75
g685
sg68
(lp700
g61
(g62
g63
NtRp701
(dp702
g66
(dp703
g74
I3
ssg75
g697
sg68
(lp704
S''
asbasbasbag61
(g77
g63
NtRp705
(dp706
g66
(dp707
sg75
g641
sg68
(lp708
g61
(g82
g63
NtRp709
(dp710
g66
(dp711
g86
g87
ssg75
g705
sg68
(lp712
g338
asbag61
(g82
g63
NtRp713
(dp714
g66
(dp715
g93
g94
ssg75
g705
sg68
(lp716
S':'
asbag61
(g82
g63
NtRp717
(dp718
g66
(dp719
sg75
g705
sg68
(lp720
g61
(g62
g63
NtRp721
(dp722
g66
(dp723
g74
I3
ssg75
g717
sg68
(lp724
S''
asbasbasbag61
(g77
g63
NtRp725
(dp726
g66
(dp727
sg75
g641
sg68
(lp728
g61
(g82
g63
NtRp729
(dp730
g66
(dp731
g86
g87
ssg75
g725
sg68
(lp732
g359
asbag61
(g82
g63
NtRp733
(dp734
g66
(dp735
g93
g94
ssg75
g725
sg68
(lp736
S':'
asbag61
(g82
g63
NtRp737
(dp738
g66
(dp739
sg75
g725
sg68
(lp740
g61
(g62
g63
NtRp741
(dp742
g66
(dp743
g74
I3
ssg75
g737
sg68
(lp744
S''
asbasbasbag61
(g77
g63
NtRp745
(dp746
g66
(dp747
sg75
g641
sg68
(lp748
g61
(g82
g63
NtRp749
(dp750
g66
(dp751
g86
g87
ssg75
g745
sg68
(lp752
g380
asbag61
(g82
g63
NtRp753
(dp754
g66
(dp755
g93
g94
ssg75
g745
sg68
(lp756
S':'
asbag61
(g82
g63
NtRp757
(dp758
g66
(dp759
sg75
g745
sg68
(lp760
g61
(g62
g63
NtRp761
(dp762
g66
(dp763
g74
I3
ssg75
g757
sg68
(lp764
S''
asbasbasbag61
(g77
g63
NtRp765
(dp766
g66
(dp767
sg75
g641
sg68
(lp768
g61
(g82
g63
NtRp769
(dp770
g66
(dp771
g86
g87
ssg75
g765
sg68
(lp772
g401
asbag61
(g82
g63
NtRp773
(dp774
g66
(dp775
g93
g94
ssg75
g765
sg68
(lp776
S':'
asbag61
(g82
g63
NtRp777
(dp778
g66
(dp779
sg75
g765
sg68
(lp780
g61
(g62
g63
NtRp781
(dp782
g66
(dp783
g74
I3
ssg75
g777
sg68
(lp784
S''
asbasbasbag61
(g77
g63
NtRp785
(dp786
g66
(dp787
sg75
g641
sg68
(lp788
g61
(g82
g63
NtRp789
(dp790
g66
(dp791
g86
g87
ssg75
g785
sg68
(lp792
g422
asbag61
(g82
g63
NtRp793
(dp794
g66
(dp795
g93
g94
ssg75
g785
sg68
(lp796
S':'
asbag61
(g82
g63
NtRp797
(dp798
g66
(dp799
sg75
g785
sg68
(lp800
g61
(g62
g63
NtRp801
(dp802
g66
(dp803
g74
I3
ssg75
g797
sg68
(lp804
S''
asbasbasbasbasbasbasbag61
(g77
g63
NtRp805
(dp806
g66
(dp807
sg75
g238
sg68
(lp808
g61
(g82
g63
NtRp809
(dp810
g66
(dp811
g86
g87
ssg75
g805
sg68
(lp812
S'session_id_mycrawler_2'
p813
asbag61
(g82
g63
NtRp814
(dp815
g66
(dp816
g93
g94
ssg75
g805
sg68
(lp817
S':'
asbag61
(g82
g63
NtRp818
(dp819
g66
(dp820
sg75
g805
sg68
(lp821
g61
(g62
g63
NtRp822
(dp823
g66
(dp824
g74
I4
ssg75
g818
sg68
(lp825
g61
(g70
g63
NtRp826
(dp827
g66
(dp828
g74
I3
ssg75
Nsg68
(lp829
g61
(g77
g63
NtRp830
(dp831
g66
(dp832
sg75
g826
sg68
(lp833
g61
(g82
g63
NtRp834
(dp835
g66
(dp836
g86
g87
ssg75
g830
sg68
(lp837
g275
asbag61
(g82
g63
NtRp838
(dp839
g66
(dp840
g93
g94
ssg75
g830
sg68
(lp841
S':'
asbag61
(g82
g63
NtRp842
(dp843
g66
(dp844
sg75
g830
sg68
(lp845
g61
(g62
g63
NtRp846
(dp847
g66
(dp848
g74
I3
ssg75
g842
sg68
(lp849
S''
asbasbasbag61
(g77
g63
NtRp850
(dp851
g66
(dp852
sg75
g826
sg68
(lp853
g61
(g82
g63
NtRp854
(dp855
g66
(dp856
g86
g87
ssg75
g850
sg68
(lp857
g296
asbag61
(g82
g63
NtRp858
(dp859
g66
(dp860
g93
g94
ssg75
g850
sg68
(lp861
S':'
asbag61
(g82
g63
NtRp862
(dp863
g66
(dp864
sg75
g850
sg68
(lp865
g61
(g62
g63
NtRp866
(dp867
g66
(dp868
g74
I3
ssg75
g862
sg68
(lp869
S''
asbasbasbag61
(g77
g63
NtRp870
(dp871
g66
(dp872
sg75
g826
sg68
(lp873
g61
(g82
g63
NtRp874
(dp875
g66
(dp876
g86
g87
ssg75
g870
sg68
(lp877
g317
asbag61
(g82
g63
NtRp878
(dp879
g66
(dp880
g93
g94
ssg75
g870
sg68
(lp881
S':'
asbag61
(g82
g63
NtRp882
(dp883
g66
(dp884
sg75
g870
sg68
(lp885
g61
(g62
g63
NtRp886
(dp887
g66
(dp888
g74
I3
ssg75
g882
sg68
(lp889
S''
asbasbasbag61
(g77
g63
NtRp890
(dp891
g66
(dp892
sg75
g826
sg68
(lp893
g61
(g82
g63
NtRp894
(dp895
g66
(dp896
g86
g87
ssg75
g890
sg68
(lp897
g338
asbag61
(g82
g63
NtRp898
(dp899
g66
(dp900
g93
g94
ssg75
g890
sg68
(lp901
S':'
asbag61
(g82
g63
NtRp902
(dp903
g66
(dp904
sg75
g890
sg68
(lp905
g61
(g62
g63
NtRp906
(dp907
g66
(dp908
g74
I3
ssg75
g902
sg68
(lp909
S''
asbasbasbag61
(g77
g63
NtRp910
(dp911
g66
(dp912
sg75
g826
sg68
(lp913
g61
(g82
g63
NtRp914
(dp915
g66
(dp916
g86
g87
ssg75
g910
sg68
(lp917
g359
asbag61
(g82
g63
NtRp918
(dp919
g66
(dp920
g93
g94
ssg75
g910
sg68
(lp921
S':'
asbag61
(g82
g63
NtRp922
(dp923
g66
(dp924
sg75
g910
sg68
(lp925
g61
(g62
g63
NtRp926
(dp927
g66
(dp928
g74
I3
ssg75
g922
sg68
(lp929
S''
asbasbasbag61
(g77
g63
NtRp930
(dp931
g66
(dp932
sg75
g826
sg68
(lp933
g61
(g82
g63
NtRp934
(dp935
g66
(dp936
g86
g87
ssg75
g930
sg68
(lp937
g380
asbag61
(g82
g63
NtRp938
(dp939
g66
(dp940
g93
g94
ssg75
g930
sg68
(lp941
S':'
asbag61
(g82
g63
NtRp942
(dp943
g66
(dp944
sg75
g930
sg68
(lp945
g61
(g62
g63
NtRp946
(dp947
g66
(dp948
g74
I3
ssg75
g942
sg68
(lp949
S''
asbasbasbag61
(g77
g63
NtRp950
(dp951
g66
(dp952
sg75
g826
sg68
(lp953
g61
(g82
g63
NtRp954
(dp955
g66
(dp956
g86
g87
ssg75
g950
sg68
(lp957
g401
asbag61
(g82
g63
NtRp958
(dp959
g66
(dp960
g93
g94
ssg75
g950
sg68
(lp961
S':'
asbag61
(g82
g63
NtRp962
(dp963
g66
(dp964
sg75
g950
sg68
(lp965
g61
(g62
g63
NtRp966
(dp967
g66
(dp968
g74
I3
ssg75
g962
sg68
(lp969
S''
asbasbasbag61
(g77
g63
NtRp970
(dp971
g66
(dp972
sg75
g826
sg68
(lp973
g61
(g82
g63
NtRp974
(dp975
g66
(dp976
g86
g87
ssg75
g970
sg68
(lp977
g422
asbag61
(g82
g63
NtRp978
(dp979
g66
(dp980
g93
g94
ssg75
g970
sg68
(lp981
S':'
asbag61
(g82
g63
NtRp982
(dp983
g66
(dp984
sg75
g970
sg68
(lp985
g61
(g62
g63
NtRp986
(dp987
g66
(dp988
g74
I3
ssg75
g982
sg68
(lp989
S''
asbasbasbasbasbasbasbag61
(g77
g63
NtRp990
(dp991
g66
(dp992
sg75
g238
sg68
(lp993
g61
(g82
g63
NtRp994
(dp995
g66
(dp996
g86
g87
ssg75
g990
sg68
(lp997
S'session_id_welcome'
p998
asbag61
(g82
g63
NtRp999
(dp1000
g66
(dp1001
g93
g94
ssg75
g990
sg68
(lp1002
S':'
asbag61
(g82
g63
NtRp1003
(dp1004
g66
(dp1005
sg75
g990
sg68
(lp1006
g61
(g62
g63
NtRp1007
(dp1008
g66
(dp1009
g74
I4
ssg75
g1003
sg68
(lp1010
g61
(g70
g63
NtRp1011
(dp1012
g66
(dp1013
g74
I3
ssg75
Nsg68
(lp1014
g61
(g77
g63
NtRp1015
(dp1016
g66
(dp1017
sg75
g1011
sg68
(lp1018
g61
(g82
g63
NtRp1019
(dp1020
g66
(dp1021
g86
g87
ssg75
g1015
sg68
(lp1022
g275
asbag61
(g82
g63
NtRp1023
(dp1024
g66
(dp1025
g93
g94
ssg75
g1015
sg68
(lp1026
S':'
asbag61
(g82
g63
NtRp1027
(dp1028
g66
(dp1029
sg75
g1015
sg68
(lp1030
g61
(g62
g63
NtRp1031
(dp1032
g66
(dp1033
g74
I3
ssg75
g1027
sg68
(lp1034
S''
asbasbasbag61
(g77
g63
NtRp1035
(dp1036
g66
(dp1037
sg75
g1011
sg68
(lp1038
g61
(g82
g63
NtRp1039
(dp1040
g66
(dp1041
g86
g87
ssg75
g1035
sg68
(lp1042
g296
asbag61
(g82
g63
NtRp1043
(dp1044
g66
(dp1045
g93
g94
ssg75
g1035
sg68
(lp1046
S':'
asbag61
(g82
g63
NtRp1047
(dp1048
g66
(dp1049
sg75
g1035
sg68
(lp1050
g61
(g62
g63
NtRp1051
(dp1052
g66
(dp1053
g74
I3
ssg75
g1047
sg68
(lp1054
S''
asbasbasbag61
(g77
g63
NtRp1055
(dp1056
g66
(dp1057
sg75
g1011
sg68
(lp1058
g61
(g82
g63
NtRp1059
(dp1060
g66
(dp1061
g86
g87
ssg75
g1055
sg68
(lp1062
g317
asbag61
(g82
g63
NtRp1063
(dp1064
g66
(dp1065
g93
g94
ssg75
g1055
sg68
(lp1066
S':'
asbag61
(g82
g63
NtRp1067
(dp1068
g66
(dp1069
sg75
g1055
sg68
(lp1070
g61
(g62
g63
NtRp1071
(dp1072
g66
(dp1073
g74
I3
ssg75
g1067
sg68
(lp1074
S''
asbasbasbag61
(g77
g63
NtRp1075
(dp1076
g66
(dp1077
sg75
g1011
sg68
(lp1078
g61
(g82
g63
NtRp1079
(dp1080
g66
(dp1081
g86
g87
ssg75
g1075
sg68
(lp1082
g338
asbag61
(g82
g63
NtRp1083
(dp1084
g66
(dp1085
g93
g94
ssg75
g1075
sg68
(lp1086
S':'
asbag61
(g82
g63
NtRp1087
(dp1088
g66
(dp1089
sg75
g1075
sg68
(lp1090
g61
(g62
g63
NtRp1091
(dp1092
g66
(dp1093
g74
I3
ssg75
g1087
sg68
(lp1094
S''
asbasbasbag61
(g77
g63
NtRp1095
(dp1096
g66
(dp1097
sg75
g1011
sg68
(lp1098
g61
(g82
g63
NtRp1099
(dp1100
g66
(dp1101
g86
g87
ssg75
g1095
sg68
(lp1102
g359
asbag61
(g82
g63
NtRp1103
(dp1104
g66
(dp1105
g93
g94
ssg75
g1095
sg68
(lp1106
S':'
asbag61
(g82
g63
NtRp1107
(dp1108
g66
(dp1109
sg75
g1095
sg68
(lp1110
g61
(g62
g63
NtRp1111
(dp1112
g66
(dp1113
g74
I3
ssg75
g1107
sg68
(lp1114
S''
asbasbasbag61
(g77
g63
NtRp1115
(dp1116
g66
(dp1117
sg75
g1011
sg68
(lp1118
g61
(g82
g63
NtRp1119
(dp1120
g66
(dp1121
g86
g87
ssg75
g1115
sg68
(lp1122
g380
asbag61
(g82
g63
NtRp1123
(dp1124
g66
(dp1125
g93
g94
ssg75
g1115
sg68
(lp1126
S':'
asbag61
(g82
g63
NtRp1127
(dp1128
g66
(dp1129
sg75
g1115
sg68
(lp1130
g61
(g62
g63
NtRp1131
(dp1132
g66
(dp1133
g74
I3
ssg75
g1127
sg68
(lp1134
S''
asbasbasbag61
(g77
g63
NtRp1135
(dp1136
g66
(dp1137
sg75
g1011
sg68
(lp1138
g61
(g82
g63
NtRp1139
(dp1140
g66
(dp1141
g86
g87
ssg75
g1135
sg68
(lp1142
g401
asbag61
(g82
g63
NtRp1143
(dp1144
g66
(dp1145
g93
g94
ssg75
g1135
sg68
(lp1146
S':'
asbag61
(g82
g63
NtRp1147
(dp1148
g66
(dp1149
sg75
g1135
sg68
(lp1150
g61
(g62
g63
NtRp1151
(dp1152
g66
(dp1153
g74
I3
ssg75
g1147
sg68
(lp1154
S''
asbasbasbag61
(g77
g63
NtRp1155
(dp1156
g66
(dp1157
sg75
g1011
sg68
(lp1158
g61
(g82
g63
NtRp1159
(dp1160
g66
(dp1161
g86
g87
ssg75
g1155
sg68
(lp1162
g422
asbag61
(g82
g63
NtRp1163
(dp1164
g66
(dp1165
g93
g94
ssg75
g1155
sg68
(lp1166
S':'
asbag61
(g82
g63
NtRp1167
(dp1168
g66
(dp1169
sg75
g1155
sg68
(lp1170
g61
(g62
g63
NtRp1171
(dp1172
g66
(dp1173
g74
I3
ssg75
g1167
sg68
(lp1174
S''
asbasbasbasbasbasbasbasbasbasbasbag61
(g77
g63
NtRp1175
(dp1176
g66
(dp1177
sg75
g71
sg68
(lp1178
g61
(g82
g63
NtRp1179
(dp1180
g66
(dp1181
g86
g87
ssg75
g1175
sg68
(lp1182
S'env'
p1183
asbag61
(g82
g63
NtRp1184
(dp1185
g66
(dp1186
g93
g94
ssg75
g1175
sg68
(lp1187
S':'
asbag61
(g82
g63
NtRp1188
(dp1189
g66
(dp1190
sg75
g1175
sg68
(lp1191
g61
(g62
g63
NtRp1192
(dp1193
g66
(dp1194
g74
I5
ssg75
g1188
sg68
(lp1195
g61
(g70
g63
NtRp1196
(dp1197
g66
(dp1198
g74
I4
ssg75
Nsg68
(lp1199
g61
(g77
g63
NtRp1200
(dp1201
g66
(dp1202
sg75
g1196
sg68
(lp1203
g61
(g82
g63
NtRp1204
(dp1205
g66
(dp1206
g86
g87
ssg75
g1200
sg68
(lp1207
S'app_folders'
p1208
asbag61
(g82
g63
NtRp1209
(dp1210
g66
(dp1211
g93
g94
ssg75
g1200
sg68
(lp1212
S':'
asbag61
(g82
g63
NtRp1213
(dp1214
g66
(dp1215
sg75
g1200
sg68
(lp1216
g61
(g62
g63
NtRp1217
(dp1218
g66
(dp1219
g74
I4
ssg75
g1213
sg68
(lp1220
S"set(['C:\\\\Documents and Settings\\\\agrover\\\\Desktop\\\\previous crawler\\\\web2py\\\\applications\\\\admin\\\\', 'C:\\\\Documents and Settings\\\\agrover\\\\Desktop\\\\previous crawler\\\\web2py\\\\applications\\\\mycrawler\\\\', 'C:\\\\Documents and Settings\\\\agrover\\\\Desktop\\\\previous crawler\\\\web2py\\\\applications\\\\welcome\\\\'])"
p1221
asbasbasbag61
(g77
g63
NtRp1222
(dp1223
g66
(dp1224
sg75
g1196
sg68
(lp1225
g61
(g82
g63
NtRp1226
(dp1227
g66
(dp1228
g86
g87
ssg75
g1222
sg68
(lp1229
S'applications_parent'
p1230
asbag61
(g82
g63
NtRp1231
(dp1232
g66
(dp1233
g93
g94
ssg75
g1222
sg68
(lp1234
S':'
asbag61
(g82
g63
NtRp1235
(dp1236
g66
(dp1237
sg75
g1222
sg68
(lp1238
g61
(g62
g63
NtRp1239
(dp1240
g66
(dp1241
g74
I4
ssg75
g1235
sg68
(lp1242
S'C:\\Documents and Settings\\agrover\\Desktop\\previous crawler\\web2py'
p1243
asbasbasbag61
(g77
g63
NtRp1244
(dp1245
g66
(dp1246
sg75
g1196
sg68
(lp1247
g61
(g82
g63
NtRp1248
(dp1249
g66
(dp1250
g86
g87
ssg75
g1244
sg68
(lp1251
S'cmd_args'
p1252
asbag61
(g82
g63
NtRp1253
(dp1254
g66
(dp1255
g93
g94
ssg75
g1244
sg68
(lp1256
S':'
asbag61
(g82
g63
NtRp1257
(dp1258
g66
(dp1259
sg75
g1244
sg68
(lp1260
g61
(g62
g63
NtRp1261
(dp1262
g66
(dp1263
g74
I4
ssg75
g1257
sg68
(lp1264
g61
(g70
g63
NtRp1265
(dp1266
g66
(dp1267
g74
I3
ssg75
Nsg68
(lp1268
sbasbasbasbag61
(g77
g63
NtRp1269
(dp1270
g66
(dp1271
sg75
g1196
sg68
(lp1272
g61
(g82
g63
NtRp1273
(dp1274
g66
(dp1275
g86
g87
ssg75
g1269
sg68
(lp1276
S'cmd_options'
p1277
asbag61
(g82
g63
NtRp1278
(dp1279
g66
(dp1280
g93
g94
ssg75
g1269
sg68
(lp1281
S':'
asbag61
(g82
g63
NtRp1282
(dp1283
g66
(dp1284
sg75
g1269
sg68
(lp1285
g61
(g62
g63
NtRp1286
(dp1287
g66
(dp1288
g74
I4
ssg75
g1282
sg68
(lp1289
S"<Values at 0x16d63f0: {'verbose': False, 'ip': '127.0.0.1', 'shutdown_timeout': 5, 'taskbar': False, 'nocron': False, 'pid_filename': 'httpserver.pid', 'maxthreads': None, 'softcron': False, 'server_name': 'mniagrover', 'bpython': False, 'nogui': False, 'port': 8000, 'extcron': False, 'debuglevel': 30, 'test': None, 'folder': 'C:\\\\Documents and Settings\\\\agrover\\\\Desktop\\\\previous crawler\\\\web2py', 'config': '', 'import_models': False, 'winservice': '', 'shell': None, 'run': '', 'log_filename': 'httpserver.log', 'args': [''], 'socket_timeout': 5, 'ssl_ca_certificate': None, 'scheduler': None, 'profiler_filename': None, 'ssl_private_key': '', 'password': '<ask>', 'request_queue_size': 5, 'ssl_certificate': '', 'cronjob': False, 'numthreads': None, 'quiet': False, 'interfaces': None, 'minthreads': None, 'timeout': 10, 'plain': False, 'nobanner': False}>"
p1290
asbasbasbag61
(g77
g63
NtRp1291
(dp1292
g66
(dp1293
sg75
g1196
sg68
(lp1294
g61
(g82
g63
NtRp1295
(dp1296
g66
(dp1297
g86
g87
ssg75
g1291
sg68
(lp1298
S'db_sessions'
p1299
asbag61
(g82
g63
NtRp1300
(dp1301
g66
(dp1302
g93
g94
ssg75
g1291
sg68
(lp1303
S':'
asbag61
(g82
g63
NtRp1304
(dp1305
g66
(dp1306
sg75
g1291
sg68
(lp1307
g61
(g62
g63
NtRp1308
(dp1309
g66
(dp1310
g74
I4
ssg75
g1304
sg68
(lp1311
S'set([])'
p1312
asbasbasbag61
(g77
g63
NtRp1313
(dp1314
g66
(dp1315
sg75
g1196
sg68
(lp1316
g61
(g82
g63
NtRp1317
(dp1318
g66
(dp1319
g86
g87
ssg75
g1313
sg68
(lp1320
S'debugging'
p1321
asbag61
(g82
g63
NtRp1322
(dp1323
g66
(dp1324
g93
g94
ssg75
g1313
sg68
(lp1325
S':'
asbag61
(g82
g63
NtRp1326
(dp1327
g66
(dp1328
sg75
g1313
sg68
(lp1329
g61
(g62
g63
NtRp1330
(dp1331
g66
(dp1332
g74
I4
ssg75
g1326
sg68
(lp1333
g104
asbasbasbag61
(g77
g63
NtRp1334
(dp1335
g66
(dp1336
sg75
g1196
sg68
(lp1337
g61
(g82
g63
NtRp1338
(dp1339
g66
(dp1340
g86
g87
ssg75
g1334
sg68
(lp1341
S'gluon_parent'
p1342
asbag61
(g82
g63
NtRp1343
(dp1344
g66
(dp1345
g93
g94
ssg75
g1334
sg68
(lp1346
S':'
asbag61
(g82
g63
NtRp1347
(dp1348
g66
(dp1349
sg75
g1334
sg68
(lp1350
g61
(g62
g63
NtRp1351
(dp1352
g66
(dp1353
g74
I4
ssg75
g1347
sg68
(lp1354
S'C:\\Documents and Settings\\agrover\\Desktop\\previous crawler\\web2py'
p1355
asbasbasbag61
(g77
g63
NtRp1356
(dp1357
g66
(dp1358
sg75
g1196
sg68
(lp1359
g61
(g82
g63
NtRp1360
(dp1361
g66
(dp1362
g86
g87
ssg75
g1356
sg68
(lp1363
S'http_accept'
p1364
asbag61
(g82
g63
NtRp1365
(dp1366
g66
(dp1367
g93
g94
ssg75
g1356
sg68
(lp1368
S':'
asbag61
(g82
g63
NtRp1369
(dp1370
g66
(dp1371
sg75
g1356
sg68
(lp1372
g61
(g62
g63
NtRp1373
(dp1374
g66
(dp1375
g74
I4
ssg75
g1369
sg68
(lp1376
S'text/html,application/xhtml+xml,application/xml;q=0.9,*/*;q=0.8'
p1377
asbasbasbag61
(g77
g63
NtRp1378
(dp1379
g66
(dp1380
sg75
g1196
sg68
(lp1381
g61
(g82
g63
NtRp1382
(dp1383
g66
(dp1384
g86
g87
ssg75
g1378
sg68
(lp1385
S'http_accept_encoding'
p1386
asbag61
(g82
g63
NtRp1387
(dp1388
g66
(dp1389
g93
g94
ssg75
g1378
sg68
(lp1390
S':'
asbag61
(g82
g63
NtRp1391
(dp1392
g66
(dp1393
sg75
g1378
sg68
(lp1394
g61
(g62
g63
NtRp1395
(dp1396
g66
(dp1397
g74
I4
ssg75
g1391
sg68
(lp1398
S'gzip, deflate'
p1399
asbasbasbag61
(g77
g63
NtRp1400
(dp1401
g66
(dp1402
sg75
g1196
sg68
(lp1403
g61
(g82
g63
NtRp1404
(dp1405
g66
(dp1406
g86
g87
ssg75
g1400
sg68
(lp1407
S'http_accept_language'
p1408
asbag61
(g82
g63
NtRp1409
(dp1410
g66
(dp1411
g93
g94
ssg75
g1400
sg68
(lp1412
S':'
asbag61
(g82
g63
NtRp1413
(dp1414
g66
(dp1415
sg75
g1400
sg68
(lp1416
g61
(g62
g63
NtRp1417
(dp1418
g66
(dp1419
g74
I4
ssg75
g1413
sg68
(lp1420
S'en-us,en;q=0.5'
p1421
asbasbasbag61
(g77
g63
NtRp1422
(dp1423
g66
(dp1424
sg75
g1196
sg68
(lp1425
g61
(g82
g63
NtRp1426
(dp1427
g66
(dp1428
g86
g87
ssg75
g1422
sg68
(lp1429
S'http_connection'
p1430
asbag61
(g82
g63
NtRp1431
(dp1432
g66
(dp1433
g93
g94
ssg75
g1422
sg68
(lp1434
S':'
asbag61
(g82
g63
NtRp1435
(dp1436
g66
(dp1437
sg75
g1422
sg68
(lp1438
g61
(g62
g63
NtRp1439
(dp1440
g66
(dp1441
g74
I4
ssg75
g1435
sg68
(lp1442
S'keep-alive'
p1443
asbasbasbag61
(g77
g63
NtRp1444
(dp1445
g66
(dp1446
sg75
g1196
sg68
(lp1447
g61
(g82
g63
NtRp1448
(dp1449
g66
(dp1450
g86
g87
ssg75
g1444
sg68
(lp1451
S'http_cookie'
p1452
asbag61
(g82
g63
NtRp1453
(dp1454
g66
(dp1455
g93
g94
ssg75
g1444
sg68
(lp1456
S':'
asbag61
(g82
g63
NtRp1457
(dp1458
g66
(dp1459
sg75
g1444
sg68
(lp1460
g61
(g62
g63
NtRp1461
(dp1462
g66
(dp1463
g74
I4
ssg75
g1457
sg68
(lp1464
S'session_id_crawler=127.0.0.1-b1c96db0-4cef-48f5-a53b-5d185261332f; session_id_mycrawler_2=127.0.0.1-98a9ea69-51ec-42be-9710-06bc291f7746; session_id_mycrawler=127.0.0.1-32a946d8-ad2c-43d8-be0f-c8249d02766a; session_id_admin=127.0.0.1-009fc510-0f0d-40b6-8d37-931711bfe1b4; session_id_welcome=127.0.0.1-73caaae4-ee5b-4ac4-b73c-0ff18efdb3ae'
p1465
asbasbasbag61
(g77
g63
NtRp1466
(dp1467
g66
(dp1468
sg75
g1196
sg68
(lp1469
g61
(g82
g63
NtRp1470
(dp1471
g66
(dp1472
g86
g87
ssg75
g1466
sg68
(lp1473
S'http_host'
p1474
asbag61
(g82
g63
NtRp1475
(dp1476
g66
(dp1477
g93
g94
ssg75
g1466
sg68
(lp1478
S':'
asbag61
(g82
g63
NtRp1479
(dp1480
g66
(dp1481
sg75
g1466
sg68
(lp1482
g61
(g62
g63
NtRp1483
(dp1484
g66
(dp1485
g74
I4
ssg75
g1479
sg68
(lp1486
S'127.0.0.1:8000'
p1487
asbasbasbag61
(g77
g63
NtRp1488
(dp1489
g66
(dp1490
sg75
g1196
sg68
(lp1491
g61
(g82
g63
NtRp1492
(dp1493
g66
(dp1494
g86
g87
ssg75
g1488
sg68
(lp1495
S'http_referer'
p1496
asbag61
(g82
g63
NtRp1497
(dp1498
g66
(dp1499
g93
g94
ssg75
g1488
sg68
(lp1500
S':'
asbag61
(g82
g63
NtRp1501
(dp1502
g66
(dp1503
sg75
g1488
sg68
(lp1504
g61
(g62
g63
NtRp1505
(dp1506
g66
(dp1507
g74
I4
ssg75
g1501
sg68
(lp1508
S'http://127.0.0.1:8000/mycrawler/default/enter_info'
p1509
asbasbasbag61
(g77
g63
NtRp1510
(dp1511
g66
(dp1512
sg75
g1196
sg68
(lp1513
g61
(g82
g63
NtRp1514
(dp1515
g66
(dp1516
g86
g87
ssg75
g1510
sg68
(lp1517
S'http_user_agent'
p1518
asbag61
(g82
g63
NtRp1519
(dp1520
g66
(dp1521
g93
g94
ssg75
g1510
sg68
(lp1522
S':'
asbag61
(g82
g63
NtRp1523
(dp1524
g66
(dp1525
sg75
g1510
sg68
(lp1526
g61
(g62
g63
NtRp1527
(dp1528
g66
(dp1529
g74
I4
ssg75
g1523
sg68
(lp1530
S'Mozilla/5.0 (Windows NT 5.1; rv:12.0) Gecko/20100101 Firefox/12.0'
p1531
asbasbasbag61
(g77
g63
NtRp1532
(dp1533
g66
(dp1534
sg75
g1196
sg68
(lp1535
g61
(g82
g63
NtRp1536
(dp1537
g66
(dp1538
g86
g87
ssg75
g1532
sg68
(lp1539
S'is_jython'
p1540
asbag61
(g82
g63
NtRp1541
(dp1542
g66
(dp1543
g93
g94
ssg75
g1532
sg68
(lp1544
S':'
asbag61
(g82
g63
NtRp1545
(dp1546
g66
(dp1547
sg75
g1532
sg68
(lp1548
g61
(g62
g63
NtRp1549
(dp1550
g66
(dp1551
g74
I4
ssg75
g1545
sg68
(lp1552
g104
asbasbasbag61
(g77
g63
NtRp1553
(dp1554
g66
(dp1555
sg75
g1196
sg68
(lp1556
g61
(g82
g63
NtRp1557
(dp1558
g66
(dp1559
g86
g87
ssg75
g1553
sg68
(lp1560
S'is_pypy'
p1561
asbag61
(g82
g63
NtRp1562
(dp1563
g66
(dp1564
g93
g94
ssg75
g1553
sg68
(lp1565
S':'
asbag61
(g82
g63
NtRp1566
(dp1567
g66
(dp1568
sg75
g1553
sg68
(lp1569
g61
(g62
g63
NtRp1570
(dp1571
g66
(dp1572
g74
I4
ssg75
g1566
sg68
(lp1573
g104
asbasbasbag61
(g77
g63
NtRp1574
(dp1575
g66
(dp1576
sg75
g1196
sg68
(lp1577
g61
(g82
g63
NtRp1578
(dp1579
g66
(dp1580
g86
g87
ssg75
g1574
sg68
(lp1581
S'path_info'
p1582
asbag61
(g82
g63
NtRp1583
(dp1584
g66
(dp1585
g93
g94
ssg75
g1574
sg68
(lp1586
S':'
asbag61
(g82
g63
NtRp1587
(dp1588
g66
(dp1589
sg75
g1574
sg68
(lp1590
g61
(g62
g63
NtRp1591
(dp1592
g66
(dp1593
g74
I4
ssg75
g1587
sg68
(lp1594
S'/mycrawler/default/search'
p1595
asbasbasbag61
(g77
g63
NtRp1596
(dp1597
g66
(dp1598
sg75
g1196
sg68
(lp1599
g61
(g82
g63
NtRp1600
(dp1601
g66
(dp1602
g86
g87
ssg75
g1596
sg68
(lp1603
S'query_string'
p1604
asbag61
(g82
g63
NtRp1605
(dp1606
g66
(dp1607
g93
g94
ssg75
g1596
sg68
(lp1608
S':'
asbag61
(g82
g63
NtRp1609
(dp1610
g66
(dp1611
sg75
g1596
sg68
(lp1612
g61
(g62
g63
NtRp1613
(dp1614
g66
(dp1615
g74
I4
ssg75
g1609
sg68
(lp1616
S'Company=&Country=India&File_Name=plz&First_Name=tera&Functions=All+Functions&Industry=All+Industries&Keywords=&Last_Name=&School=&Seniority_Levels=All+Seniority+Levels&Title=&_formkey=05250aae-e16a-4344-87aa-3b69396b2b3e&_formname=no_table%2Fcreate'
p1617
asbasbasbag61
(g77
g63
NtRp1618
(dp1619
g66
(dp1620
sg75
g1196
sg68
(lp1621
g61
(g82
g63
NtRp1622
(dp1623
g66
(dp1624
g86
g87
ssg75
g1618
sg68
(lp1625
S'remote_addr'
p1626
asbag61
(g82
g63
NtRp1627
(dp1628
g66
(dp1629
g93
g94
ssg75
g1618
sg68
(lp1630
S':'
asbag61
(g82
g63
NtRp1631
(dp1632
g66
(dp1633
sg75
g1618
sg68
(lp1634
g61
(g62
g63
NtRp1635
(dp1636
g66
(dp1637
g74
I4
ssg75
g1631
sg68
(lp1638
g194
asbasbasbag61
(g77
g63
NtRp1639
(dp1640
g66
(dp1641
sg75
g1196
sg68
(lp1642
g61
(g82
g63
NtRp1643
(dp1644
g66
(dp1645
g86
g87
ssg75
g1639
sg68
(lp1646
S'remote_port'
p1647
asbag61
(g82
g63
NtRp1648
(dp1649
g66
(dp1650
g93
g94
ssg75
g1639
sg68
(lp1651
S':'
asbag61
(g82
g63
NtRp1652
(dp1653
g66
(dp1654
sg75
g1639
sg68
(lp1655
g61
(g62
g63
NtRp1656
(dp1657
g66
(dp1658
g74
I4
ssg75
g1652
sg68
(lp1659
S'1335'
p1660
asbasbasbag61
(g77
g63
NtRp1661
(dp1662
g66
(dp1663
sg75
g1196
sg68
(lp1664
g61
(g82
g63
NtRp1665
(dp1666
g66
(dp1667
g86
g87
ssg75
g1661
sg68
(lp1668
S'request_method'
p1669
asbag61
(g82
g63
NtRp1670
(dp1671
g66
(dp1672
g93
g94
ssg75
g1661
sg68
(lp1673
S':'
asbag61
(g82
g63
NtRp1674
(dp1675
g66
(dp1676
sg75
g1661
sg68
(lp1677
g61
(g62
g63
NtRp1678
(dp1679
g66
(dp1680
g74
I4
ssg75
g1674
sg68
(lp1681
S'GET'
p1682
asbasbasbag61
(g77
g63
NtRp1683
(dp1684
g66
(dp1685
sg75
g1196
sg68
(lp1686
g61
(g82
g63
NtRp1687
(dp1688
g66
(dp1689
g86
g87
ssg75
g1683
sg68
(lp1690
S'script_name'
p1691
asbag61
(g82
g63
NtRp1692
(dp1693
g66
(dp1694
g93
g94
ssg75
g1683
sg68
(lp1695
S':'
asbag61
(g82
g63
NtRp1696
(dp1697
g66
(dp1698
sg75
g1683
sg68
(lp1699
g61
(g62
g63
NtRp1700
(dp1701
g66
(dp1702
g74
I4
ssg75
g1696
sg68
(lp1703
S''
asbasbasbag61
(g77
g63
NtRp1704
(dp1705
g66
(dp1706
sg75
g1196
sg68
(lp1707
g61
(g82
g63
NtRp1708
(dp1709
g66
(dp1710
g86
g87
ssg75
g1704
sg68
(lp1711
S'server_name'
p1712
asbag61
(g82
g63
NtRp1713
(dp1714
g66
(dp1715
g93
g94
ssg75
g1704
sg68
(lp1716
S':'
asbag61
(g82
g63
NtRp1717
(dp1718
g66
(dp1719
sg75
g1704
sg68
(lp1720
g61
(g62
g63
NtRp1721
(dp1722
g66
(dp1723
g74
I4
ssg75
g1717
sg68
(lp1724
S'mniagrover'
p1725
asbasbasbag61
(g77
g63
NtRp1726
(dp1727
g66
(dp1728
sg75
g1196
sg68
(lp1729
g61
(g82
g63
NtRp1730
(dp1731
g66
(dp1732
g86
g87
ssg75
g1726
sg68
(lp1733
S'server_port'
p1734
asbag61
(g82
g63
NtRp1735
(dp1736
g66
(dp1737
g93
g94
ssg75
g1726
sg68
(lp1738
S':'
asbag61
(g82
g63
NtRp1739
(dp1740
g66
(dp1741
sg75
g1726
sg68
(lp1742
g61
(g62
g63
NtRp1743
(dp1744
g66
(dp1745
g74
I4
ssg75
g1739
sg68
(lp1746
S'8000'
p1747
asbasbasbag61
(g77
g63
NtRp1748
(dp1749
g66
(dp1750
sg75
g1196
sg68
(lp1751
g61
(g82
g63
NtRp1752
(dp1753
g66
(dp1754
g86
g87
ssg75
g1748
sg68
(lp1755
S'server_protocol'
p1756
asbag61
(g82
g63
NtRp1757
(dp1758
g66
(dp1759
g93
g94
ssg75
g1748
sg68
(lp1760
S':'
asbag61
(g82
g63
NtRp1761
(dp1762
g66
(dp1763
sg75
g1748
sg68
(lp1764
g61
(g62
g63
NtRp1765
(dp1766
g66
(dp1767
g74
I4
ssg75
g1761
sg68
(lp1768
S'HTTP/1.1'
p1769
asbasbasbag61
(g77
g63
NtRp1770
(dp1771
g66
(dp1772
sg75
g1196
sg68
(lp1773
g61
(g82
g63
NtRp1774
(dp1775
g66
(dp1776
g86
g87
ssg75
g1770
sg68
(lp1777
S'server_software'
p1778
asbag61
(g82
g63
NtRp1779
(dp1780
g66
(dp1781
g93
g94
ssg75
g1770
sg68
(lp1782
S':'
asbag61
(g82
g63
NtRp1783
(dp1784
g66
(dp1785
sg75
g1770
sg68
(lp1786
g61
(g62
g63
NtRp1787
(dp1788
g66
(dp1789
g74
I4
ssg75
g1783
sg68
(lp1790
S'Rocket 1.2.4'
p1791
asbasbasbag61
(g77
g63
NtRp1792
(dp1793
g66
(dp1794
sg75
g1196
sg68
(lp1795
g61
(g82
g63
NtRp1796
(dp1797
g66
(dp1798
g86
g87
ssg75
g1792
sg68
(lp1799
S'web2py_crontype'
p1800
asbag61
(g82
g63
NtRp1801
(dp1802
g66
(dp1803
g93
g94
ssg75
g1792
sg68
(lp1804
S':'
asbag61
(g82
g63
NtRp1805
(dp1806
g66
(dp1807
sg75
g1792
sg68
(lp1808
g61
(g62
g63
NtRp1809
(dp1810
g66
(dp1811
g74
I4
ssg75
g1805
sg68
(lp1812
S'hard'
p1813
asbasbasbag61
(g77
g63
NtRp1814
(dp1815
g66
(dp1816
sg75
g1196
sg68
(lp1817
g61
(g82
g63
NtRp1818
(dp1819
g66
(dp1820
g86
g87
ssg75
g1814
sg68
(lp1821
S'web2py_path'
p1822
asbag61
(g82
g63
NtRp1823
(dp1824
g66
(dp1825
g93
g94
ssg75
g1814
sg68
(lp1826
S':'
asbag61
(g82
g63
NtRp1827
(dp1828
g66
(dp1829
sg75
g1814
sg68
(lp1830
g61
(g62
g63
NtRp1831
(dp1832
g66
(dp1833
g74
I4
ssg75
g1827
sg68
(lp1834
g1243
asbasbasbag61
(g77
g63
NtRp1835
(dp1836
g66
(dp1837
sg75
g1196
sg68
(lp1838
g61
(g82
g63
NtRp1839
(dp1840
g66
(dp1841
g86
g87
ssg75
g1835
sg68
(lp1842
S'web2py_version'
p1843
asbag61
(g82
g63
NtRp1844
(dp1845
g66
(dp1846
g93
g94
ssg75
g1835
sg68
(lp1847
S':'
asbag61
(g82
g63
NtRp1848
(dp1849
g66
(dp1850
sg75
g1835
sg68
(lp1851
g61
(g62
g63
NtRp1852
(dp1853
g66
(dp1854
g74
I4
ssg75
g1848
sg68
(lp1855
g61
(g70
g63
NtRp1856
(dp1857
g66
(dp1858
g74
I3
ssg75
Nsg68
(lp1859
g61
(g77
g63
NtRp1860
(dp1861
g66
(dp1862
sg75
g1856
sg68
(lp1863
g61
(g82
g63
NtRp1864
(dp1865
g66
(dp1866
sg75
g1860
sg68
(lp1867
g61
(g62
g63
NtRp1868
(dp1869
g66
(dp1870
g74
I3
ssg75
g1864
sg68
(lp1871
S'1'
asbasbasbag61
(g77
g63
NtRp1872
(dp1873
g66
(dp1874
sg75
g1856
sg68
(lp1875
g61
(g82
g63
NtRp1876
(dp1877
g66
(dp1878
sg75
g1872
sg68
(lp1879
g61
(g62
g63
NtRp1880
(dp1881
g66
(dp1882
g74
I3
ssg75
g1876
sg68
(lp1883
S'99'
p1884
asbasbasbag61
(g77
g63
NtRp1885
(dp1886
g66
(dp1887
sg75
g1856
sg68
(lp1888
g61
(g82
g63
NtRp1889
(dp1890
g66
(dp1891
sg75
g1885
sg68
(lp1892
g61
(g62
g63
NtRp1893
(dp1894
g66
(dp1895
g74
I3
ssg75
g1889
sg68
(lp1896
S'7'
asbasbasbag61
(g77
g63
NtRp1897
(dp1898
g66
(dp1899
sg75
g1856
sg68
(lp1900
g61
(g82
g63
NtRp1901
(dp1902
g66
(dp1903
sg75
g1897
sg68
(lp1904
g61
(g62
g63
NtRp1905
(dp1906
g66
(dp1907
g74
I3
ssg75
g1901
sg68
(lp1908
S'datetime.datetime(2012, 3, 4, 22, 12, 8)'
p1909
asbasbasbag61
(g77
g63
NtRp1910
(dp1911
g66
(dp1912
sg75
g1856
sg68
(lp1913
g61
(g82
g63
NtRp1914
(dp1915
g66
(dp1916
sg75
g1910
sg68
(lp1917
g61
(g62
g63
NtRp1918
(dp1919
g66
(dp1920
g74
I3
ssg75
g1914
sg68
(lp1921
S'stable'
p1922
asbasbasbasbasbasbasbag61
(g77
g63
NtRp1923
(dp1924
g66
(dp1925
sg75
g1196
sg68
(lp1926
g61
(g82
g63
NtRp1927
(dp1928
g66
(dp1929
g86
g87
ssg75
g1923
sg68
(lp1930
S'wsgi_errors'
p1931
asbag61
(g82
g63
NtRp1932
(dp1933
g66
(dp1934
g93
g94
ssg75
g1923
sg68
(lp1935
S':'
asbag61
(g82
g63
NtRp1936
(dp1937
g66
(dp1938
sg75
g1923
sg68
(lp1939
g61
(g62
g63
NtRp1940
(dp1941
g66
(dp1942
g74
I4
ssg75
g1936
sg68
(lp1943
S"<open file '<stderr>', mode 'w' at 0x00A550D0>"
p1944
asbasbasbag61
(g77
g63
NtRp1945
(dp1946
g66
(dp1947
sg75
g1196
sg68
(lp1948
g61
(g82
g63
NtRp1949
(dp1950
g66
(dp1951
g86
g87
ssg75
g1945
sg68
(lp1952
S'wsgi_file_wrapper'
p1953
asbag61
(g82
g63
NtRp1954
(dp1955
g66
(dp1956
g93
g94
ssg75
g1945
sg68
(lp1957
S':'
asbag61
(g82
g63
NtRp1958
(dp1959
g66
(dp1960
sg75
g1945
sg68
(lp1961
g61
(g62
g63
NtRp1962
(dp1963
g66
(dp1964
g74
I4
ssg75
g1958
sg68
(lp1965
S'<class wsgiref.util.FileWrapper at 0x015E8AB0>'
p1966
asbasbasbag61
(g77
g63
NtRp1967
(dp1968
g66
(dp1969
sg75
g1196
sg68
(lp1970
g61
(g82
g63
NtRp1971
(dp1972
g66
(dp1973
g86
g87
ssg75
g1967
sg68
(lp1974
S'wsgi_input'
p1975
asbag61
(g82
g63
NtRp1976
(dp1977
g66
(dp1978
g93
g94
ssg75
g1967
sg68
(lp1979
S':'
asbag61
(g82
g63
NtRp1980
(dp1981
g66
(dp1982
sg75
g1967
sg68
(lp1983
g61
(g62
g63
NtRp1984
(dp1985
g66
(dp1986
g74
I4
ssg75
g1980
sg68
(lp1987
S'<socket._fileobject object at 0x019A5E70>'
p1988
asbasbasbag61
(g77
g63
NtRp1989
(dp1990
g66
(dp1991
sg75
g1196
sg68
(lp1992
g61
(g82
g63
NtRp1993
(dp1994
g66
(dp1995
g86
g87
ssg75
g1989
sg68
(lp1996
S'wsgi_multiprocess'
p1997
asbag61
(g82
g63
NtRp1998
(dp1999
g66
(dp2000
g93
g94
ssg75
g1989
sg68
(lp2001
S':'
asbag61
(g82
g63
NtRp2002
(dp2003
g66
(dp2004
sg75
g1989
sg68
(lp2005
g61
(g62
g63
NtRp2006
(dp2007
g66
(dp2008
g74
I4
ssg75
g2002
sg68
(lp2009
g104
asbasbasbag61
(g77
g63
NtRp2010
(dp2011
g66
(dp2012
sg75
g1196
sg68
(lp2013
g61
(g82
g63
NtRp2014
(dp2015
g66
(dp2016
g86
g87
ssg75
g2010
sg68
(lp2017
S'wsgi_multithread'
p2018
asbag61
(g82
g63
NtRp2019
(dp2020
g66
(dp2021
g93
g94
ssg75
g2010
sg68
(lp2022
S':'
asbag61
(g82
g63
NtRp2023
(dp2024
g66
(dp2025
sg75
g2010
sg68
(lp2026
g61
(g62
g63
NtRp2027
(dp2028
g66
(dp2029
g74
I4
ssg75
g2023
sg68
(lp2030
S'True'
p2031
asbasbasbag61
(g77
g63
NtRp2032
(dp2033
g66
(dp2034
sg75
g1196
sg68
(lp2035
g61
(g82
g63
NtRp2036
(dp2037
g66
(dp2038
g86
g87
ssg75
g2032
sg68
(lp2039
S'wsgi_run_once'
p2040
asbag61
(g82
g63
NtRp2041
(dp2042
g66
(dp2043
g93
g94
ssg75
g2032
sg68
(lp2044
S':'
asbag61
(g82
g63
NtRp2045
(dp2046
g66
(dp2047
sg75
g2032
sg68
(lp2048
g61
(g62
g63
NtRp2049
(dp2050
g66
(dp2051
g74
I4
ssg75
g2045
sg68
(lp2052
g104
asbasbasbag61
(g77
g63
NtRp2053
(dp2054
g66
(dp2055
sg75
g1196
sg68
(lp2056
g61
(g82
g63
NtRp2057
(dp2058
g66
(dp2059
g86
g87
ssg75
g2053
sg68
(lp2060
S'wsgi_url_scheme'
p2061
asbag61
(g82
g63
NtRp2062
(dp2063
g66
(dp2064
g93
g94
ssg75
g2053
sg68
(lp2065
S':'
asbag61
(g82
g63
NtRp2066
(dp2067
g66
(dp2068
sg75
g2053
sg68
(lp2069
g61
(g62
g63
NtRp2070
(dp2071
g66
(dp2072
g74
I4
ssg75
g2066
sg68
(lp2073
S'http'
p2074
asbasbasbag61
(g77
g63
NtRp2075
(dp2076
g66
(dp2077
sg75
g1196
sg68
(lp2078
g61
(g82
g63
NtRp2079
(dp2080
g66
(dp2081
g86
g87
ssg75
g2075
sg68
(lp2082
S'wsgi_version'
p2083
asbag61
(g82
g63
NtRp2084
(dp2085
g66
(dp2086
g93
g94
ssg75
g2075
sg68
(lp2087
S':'
asbag61
(g82
g63
NtRp2088
(dp2089
g66
(dp2090
sg75
g2075
sg68
(lp2091
g61
(g62
g63
NtRp2092
(dp2093
g66
(dp2094
g74
I4
ssg75
g2088
sg68
(lp2095
g61
(g70
g63
NtRp2096
(dp2097
g66
(dp2098
g74
I3
ssg75
Nsg68
(lp2099
g61
(g77
g63
NtRp2100
(dp2101
g66
(dp2102
sg75
g2096
sg68
(lp2103
g61
(g82
g63
NtRp2104
(dp2105
g66
(dp2106
sg75
g2100
sg68
(lp2107
g61
(g62
g63
NtRp2108
(dp2109
g66
(dp2110
g74
I3
ssg75
g2104
sg68
(lp2111
S'1'
asbasbasbag61
(g77
g63
NtRp2112
(dp2113
g66
(dp2114
sg75
g2096
sg68
(lp2115
g61
(g82
g63
NtRp2116
(dp2117
g66
(dp2118
sg75
g2112
sg68
(lp2119
g61
(g62
g63
NtRp2120
(dp2121
g66
(dp2122
g74
I3
ssg75
g2116
sg68
(lp2123
S'0'
asbasbasbasbasbasbasbasbasbasbasbag61
(g77
g63
NtRp2124
(dp2125
g66
(dp2126
sg75
g71
sg68
(lp2127
g61
(g82
g63
NtRp2128
(dp2129
g66
(dp2130
g86
g87
ssg75
g2124
sg68
(lp2131
S'extension'
p2132
asbag61
(g82
g63
NtRp2133
(dp2134
g66
(dp2135
g93
g94
ssg75
g2124
sg68
(lp2136
S':'
asbag61
(g82
g63
NtRp2137
(dp2138
g66
(dp2139
sg75
g2124
sg68
(lp2140
g61
(g62
g63
NtRp2141
(dp2142
g66
(dp2143
g74
I5
ssg75
g2137
sg68
(lp2144
S'html'
p2145
asbasbasbag61
(g77
g63
NtRp2146
(dp2147
g66
(dp2148
sg75
g71
sg68
(lp2149
g61
(g82
g63
NtRp2150
(dp2151
g66
(dp2152
g86
g87
ssg75
g2146
sg68
(lp2153
S'folder'
p2154
asbag61
(g82
g63
NtRp2155
(dp2156
g66
(dp2157
g93
g94
ssg75
g2146
sg68
(lp2158
S':'
asbag61
(g82
g63
NtRp2159
(dp2160
g66
(dp2161
sg75
g2146
sg68
(lp2162
g61
(g62
g63
NtRp2163
(dp2164
g66
(dp2165
g74
I5
ssg75
g2159
sg68
(lp2166
S'C:\\Documents and Settings\\agrover\\Desktop\\previous crawler\\web2py\\applications\\mycrawler\\'
p2167
asbasbasbag61
(g77
g63
NtRp2168
(dp2169
g66
(dp2170
sg75
g71
sg68
(lp2171
g61
(g82
g63
NtRp2172
(dp2173
g66
(dp2174
g86
g87
ssg75
g2168
sg68
(lp2175
S'function'
p2176
asbag61
(g82
g63
NtRp2177
(dp2178
g66
(dp2179
g93
g94
ssg75
g2168
sg68
(lp2180
S':'
asbag61
(g82
g63
NtRp2181
(dp2182
g66
(dp2183
sg75
g2168
sg68
(lp2184
g61
(g62
g63
NtRp2185
(dp2186
g66
(dp2187
g74
I5
ssg75
g2181
sg68
(lp2188
S'search'
p2189
asbasbasbag61
(g77
g63
NtRp2190
(dp2191
g66
(dp2192
sg75
g71
sg68
(lp2193
g61
(g82
g63
NtRp2194
(dp2195
g66
(dp2196
g86
g87
ssg75
g2190
sg68
(lp2197
S'get_vars'
p2198
asbag61
(g82
g63
NtRp2199
(dp2200
g66
(dp2201
g93
g94
ssg75
g2190
sg68
(lp2202
S':'
asbag61
(g82
g63
NtRp2203
(dp2204
g66
(dp2205
sg75
g2190
sg68
(lp2206
g61
(g62
g63
NtRp2207
(dp2208
g66
(dp2209
g74
I5
ssg75
g2203
sg68
(lp2210
g61
(g70
g63
NtRp2211
(dp2212
g66
(dp2213
g74
I4
ssg75
Nsg68
(lp2214
g61
(g77
g63
NtRp2215
(dp2216
g66
(dp2217
sg75
g2211
sg68
(lp2218
g61
(g82
g63
NtRp2219
(dp2220
g66
(dp2221
g86
g87
ssg75
g2215
sg68
(lp2222
S'Company'
p2223
asbag61
(g82
g63
NtRp2224
(dp2225
g66
(dp2226
g93
g94
ssg75
g2215
sg68
(lp2227
S':'
asbag61
(g82
g63
NtRp2228
(dp2229
g66
(dp2230
sg75
g2215
sg68
(lp2231
g61
(g62
g63
NtRp2232
(dp2233
g66
(dp2234
g74
I4
ssg75
g2228
sg68
(lp2235
S''
asbasbasbag61
(g77
g63
NtRp2236
(dp2237
g66
(dp2238
sg75
g2211
sg68
(lp2239
g61
(g82
g63
NtRp2240
(dp2241
g66
(dp2242
g86
g87
ssg75
g2236
sg68
(lp2243
S'Country'
p2244
asbag61
(g82
g63
NtRp2245
(dp2246
g66
(dp2247
g93
g94
ssg75
g2236
sg68
(lp2248
S':'
asbag61
(g82
g63
NtRp2249
(dp2250
g66
(dp2251
sg75
g2236
sg68
(lp2252
g61
(g62
g63
NtRp2253
(dp2254
g66
(dp2255
g74
I4
ssg75
g2249
sg68
(lp2256
S'India'
p2257
asbasbasbag61
(g77
g63
NtRp2258
(dp2259
g66
(dp2260
sg75
g2211
sg68
(lp2261
g61
(g82
g63
NtRp2262
(dp2263
g66
(dp2264
g86
g87
ssg75
g2258
sg68
(lp2265
S'File_Name'
p2266
asbag61
(g82
g63
NtRp2267
(dp2268
g66
(dp2269
g93
g94
ssg75
g2258
sg68
(lp2270
S':'
asbag61
(g82
g63
NtRp2271
(dp2272
g66
(dp2273
sg75
g2258
sg68
(lp2274
g61
(g62
g63
NtRp2275
(dp2276
g66
(dp2277
g74
I4
ssg75
g2271
sg68
(lp2278
S'plz'
p2279
asbasbasbag61
(g77
g63
NtRp2280
(dp2281
g66
(dp2282
sg75
g2211
sg68
(lp2283
g61
(g82
g63
NtRp2284
(dp2285
g66
(dp2286
g86
g87
ssg75
g2280
sg68
(lp2287
S'First_Name'
p2288
asbag61
(g82
g63
NtRp2289
(dp2290
g66
(dp2291
g93
g94
ssg75
g2280
sg68
(lp2292
S':'
asbag61
(g82
g63
NtRp2293
(dp2294
g66
(dp2295
sg75
g2280
sg68
(lp2296
g61
(g62
g63
NtRp2297
(dp2298
g66
(dp2299
g74
I4
ssg75
g2293
sg68
(lp2300
S'tera'
p2301
asbasbasbag61
(g77
g63
NtRp2302
(dp2303
g66
(dp2304
sg75
g2211
sg68
(lp2305
g61
(g82
g63
NtRp2306
(dp2307
g66
(dp2308
g86
g87
ssg75
g2302
sg68
(lp2309
S'Functions'
p2310
asbag61
(g82
g63
NtRp2311
(dp2312
g66
(dp2313
g93
g94
ssg75
g2302
sg68
(lp2314
S':'
asbag61
(g82
g63
NtRp2315
(dp2316
g66
(dp2317
sg75
g2302
sg68
(lp2318
g61
(g62
g63
NtRp2319
(dp2320
g66
(dp2321
g74
I4
ssg75
g2315
sg68
(lp2322
S'All Functions'
p2323
asbasbasbag61
(g77
g63
NtRp2324
(dp2325
g66
(dp2326
sg75
g2211
sg68
(lp2327
g61
(g82
g63
NtRp2328
(dp2329
g66
(dp2330
g86
g87
ssg75
g2324
sg68
(lp2331
S'Industry'
p2332
asbag61
(g82
g63
NtRp2333
(dp2334
g66
(dp2335
g93
g94
ssg75
g2324
sg68
(lp2336
S':'
asbag61
(g82
g63
NtRp2337
(dp2338
g66
(dp2339
sg75
g2324
sg68
(lp2340
g61
(g62
g63
NtRp2341
(dp2342
g66
(dp2343
g74
I4
ssg75
g2337
sg68
(lp2344
S'All Industries'
p2345
asbasbasbag61
(g77
g63
NtRp2346
(dp2347
g66
(dp2348
sg75
g2211
sg68
(lp2349
g61
(g82
g63
NtRp2350
(dp2351
g66
(dp2352
g86
g87
ssg75
g2346
sg68
(lp2353
S'Keywords'
p2354
asbag61
(g82
g63
NtRp2355
(dp2356
g66
(dp2357
g93
g94
ssg75
g2346
sg68
(lp2358
S':'
asbag61
(g82
g63
NtRp2359
(dp2360
g66
(dp2361
sg75
g2346
sg68
(lp2362
g61
(g62
g63
NtRp2363
(dp2364
g66
(dp2365
g74
I4
ssg75
g2359
sg68
(lp2366
S''
asbasbasbag61
(g77
g63
NtRp2367
(dp2368
g66
(dp2369
sg75
g2211
sg68
(lp2370
g61
(g82
g63
NtRp2371
(dp2372
g66
(dp2373
g86
g87
ssg75
g2367
sg68
(lp2374
S'Last_Name'
p2375
asbag61
(g82
g63
NtRp2376
(dp2377
g66
(dp2378
g93
g94
ssg75
g2367
sg68
(lp2379
S':'
asbag61
(g82
g63
NtRp2380
(dp2381
g66
(dp2382
sg75
g2367
sg68
(lp2383
g61
(g62
g63
NtRp2384
(dp2385
g66
(dp2386
g74
I4
ssg75
g2380
sg68
(lp2387
S''
asbasbasbag61
(g77
g63
NtRp2388
(dp2389
g66
(dp2390
sg75
g2211
sg68
(lp2391
g61
(g82
g63
NtRp2392
(dp2393
g66
(dp2394
g86
g87
ssg75
g2388
sg68
(lp2395
S'School'
p2396
asbag61
(g82
g63
NtRp2397
(dp2398
g66
(dp2399
g93
g94
ssg75
g2388
sg68
(lp2400
S':'
asbag61
(g82
g63
NtRp2401
(dp2402
g66
(dp2403
sg75
g2388
sg68
(lp2404
g61
(g62
g63
NtRp2405
(dp2406
g66
(dp2407
g74
I4
ssg75
g2401
sg68
(lp2408
S''
asbasbasbag61
(g77
g63
NtRp2409
(dp2410
g66
(dp2411
sg75
g2211
sg68
(lp2412
g61
(g82
g63
NtRp2413
(dp2414
g66
(dp2415
g86
g87
ssg75
g2409
sg68
(lp2416
S'Seniority_Levels'
p2417
asbag61
(g82
g63
NtRp2418
(dp2419
g66
(dp2420
g93
g94
ssg75
g2409
sg68
(lp2421
S':'
asbag61
(g82
g63
NtRp2422
(dp2423
g66
(dp2424
sg75
g2409
sg68
(lp2425
g61
(g62
g63
NtRp2426
(dp2427
g66
(dp2428
g74
I4
ssg75
g2422
sg68
(lp2429
S'All Seniority Levels'
p2430
asbasbasbag61
(g77
g63
NtRp2431
(dp2432
g66
(dp2433
sg75
g2211
sg68
(lp2434
g61
(g82
g63
NtRp2435
(dp2436
g66
(dp2437
g86
g87
ssg75
g2431
sg68
(lp2438
S'Title'
p2439
asbag61
(g82
g63
NtRp2440
(dp2441
g66
(dp2442
g93
g94
ssg75
g2431
sg68
(lp2443
S':'
asbag61
(g82
g63
NtRp2444
(dp2445
g66
(dp2446
sg75
g2431
sg68
(lp2447
g61
(g62
g63
NtRp2448
(dp2449
g66
(dp2450
g74
I4
ssg75
g2444
sg68
(lp2451
S''
asbasbasbasbasbasbasbag61
(g77
g63
NtRp2452
(dp2453
g66
(dp2454
sg75
g71
sg68
(lp2455
g61
(g82
g63
NtRp2456
(dp2457
g66
(dp2458
g86
g87
ssg75
g2452
sg68
(lp2459
S'global_settings'
p2460
asbag61
(g82
g63
NtRp2461
(dp2462
g66
(dp2463
g93
g94
ssg75
g2452
sg68
(lp2464
S':'
asbag61
(g82
g63
NtRp2465
(dp2466
g66
(dp2467
sg75
g2452
sg68
(lp2468
g61
(g62
g63
NtRp2469
(dp2470
g66
(dp2471
g74
I5
ssg75
g2465
sg68
(lp2472
g61
(g70
g63
NtRp2473
(dp2474
g66
(dp2475
g74
I4
ssg75
Nsg68
(lp2476
g61
(g77
g63
NtRp2477
(dp2478
g66
(dp2479
sg75
g2473
sg68
(lp2480
g61
(g82
g63
NtRp2481
(dp2482
g66
(dp2483
g86
g87
ssg75
g2477
sg68
(lp2484
g1208
asbag61
(g82
g63
NtRp2485
(dp2486
g66
(dp2487
g93
g94
ssg75
g2477
sg68
(lp2488
S':'
asbag61
(g82
g63
NtRp2489
(dp2490
g66
(dp2491
sg75
g2477
sg68
(lp2492
g61
(g62
g63
NtRp2493
(dp2494
g66
(dp2495
g74
I4
ssg75
g2489
sg68
(lp2496
S"set(['C:\\\\Documents and Settings\\\\agrover\\\\Desktop\\\\previous crawler\\\\web2py\\\\applications\\\\admin\\\\', 'C:\\\\Documents and Settings\\\\agrover\\\\Desktop\\\\previous crawler\\\\web2py\\\\applications\\\\mycrawler\\\\', 'C:\\\\Documents and Settings\\\\agrover\\\\Desktop\\\\previous crawler\\\\web2py\\\\applications\\\\welcome\\\\'])"
p2497
asbasbasbag61
(g77
g63
NtRp2498
(dp2499
g66
(dp2500
sg75
g2473
sg68
(lp2501
g61
(g82
g63
NtRp2502
(dp2503
g66
(dp2504
g86
g87
ssg75
g2498
sg68
(lp2505
g1230
asbag61
(g82
g63
NtRp2506
(dp2507
g66
(dp2508
g93
g94
ssg75
g2498
sg68
(lp2509
S':'
asbag61
(g82
g63
NtRp2510
(dp2511
g66
(dp2512
sg75
g2498
sg68
(lp2513
g61
(g62
g63
NtRp2514
(dp2515
g66
(dp2516
g74
I4
ssg75
g2510
sg68
(lp2517
g1243
asbasbasbag61
(g77
g63
NtRp2518
(dp2519
g66
(dp2520
sg75
g2473
sg68
(lp2521
g61
(g82
g63
NtRp2522
(dp2523
g66
(dp2524
g86
g87
ssg75
g2518
sg68
(lp2525
g1252
asbag61
(g82
g63
NtRp2526
(dp2527
g66
(dp2528
g93
g94
ssg75
g2518
sg68
(lp2529
S':'
asbag61
(g82
g63
NtRp2530
(dp2531
g66
(dp2532
sg75
g2518
sg68
(lp2533
g61
(g62
g63
NtRp2534
(dp2535
g66
(dp2536
g74
I4
ssg75
g2530
sg68
(lp2537
g61
(g70
g63
NtRp2538
(dp2539
g66
(dp2540
g74
I3
ssg75
Nsg68
(lp2541
sbasbasbasbag61
(g77
g63
NtRp2542
(dp2543
g66
(dp2544
sg75
g2473
sg68
(lp2545
g61
(g82
g63
NtRp2546
(dp2547
g66
(dp2548
g86
g87
ssg75
g2542
sg68
(lp2549
g1277
asbag61
(g82
g63
NtRp2550
(dp2551
g66
(dp2552
g93
g94
ssg75
g2542
sg68
(lp2553
S':'
asbag61
(g82
g63
NtRp2554
(dp2555
g66
(dp2556
sg75
g2542
sg68
(lp2557
g61
(g62
g63
NtRp2558
(dp2559
g66
(dp2560
g74
I4
ssg75
g2554
sg68
(lp2561
S"<Values at 0x16d63f0: {'verbose': False, 'ip': '127.0.0.1', 'shutdown_timeout': 5, 'taskbar': False, 'nocron': False, 'pid_filename': 'httpserver.pid', 'maxthreads': None, 'softcron': False, 'server_name': 'mniagrover', 'bpython': False, 'nogui': False, 'port': 8000, 'extcron': False, 'debuglevel': 30, 'test': None, 'folder': 'C:\\\\Documents and Settings\\\\agrover\\\\Desktop\\\\previous crawler\\\\web2py', 'config': '', 'import_models': False, 'winservice': '', 'shell': None, 'run': '', 'log_filename': 'httpserver.log', 'args': [''], 'socket_timeout': 5, 'ssl_ca_certificate': None, 'scheduler': None, 'profiler_filename': None, 'ssl_private_key': '', 'password': '<ask>', 'request_queue_size': 5, 'ssl_certificate': '', 'cronjob': False, 'numthreads': None, 'quiet': False, 'interfaces': None, 'minthreads': None, 'timeout': 10, 'plain': False, 'nobanner': False}>"
p2562
asbasbasbag61
(g77
g63
NtRp2563
(dp2564
g66
(dp2565
sg75
g2473
sg68
(lp2566
g61
(g82
g63
NtRp2567
(dp2568
g66
(dp2569
g86
g87
ssg75
g2563
sg68
(lp2570
g1299
asbag61
(g82
g63
NtRp2571
(dp2572
g66
(dp2573
g93
g94
ssg75
g2563
sg68
(lp2574
S':'
asbag61
(g82
g63
NtRp2575
(dp2576
g66
(dp2577
sg75
g2563
sg68
(lp2578
g61
(g62
g63
NtRp2579
(dp2580
g66
(dp2581
g74
I4
ssg75
g2575
sg68
(lp2582
S'set([])'
p2583
asbasbasbag61
(g77
g63
NtRp2584
(dp2585
g66
(dp2586
sg75
g2473
sg68
(lp2587
g61
(g82
g63
NtRp2588
(dp2589
g66
(dp2590
g86
g87
ssg75
g2584
sg68
(lp2591
g1321
asbag61
(g82
g63
NtRp2592
(dp2593
g66
(dp2594
g93
g94
ssg75
g2584
sg68
(lp2595
S':'
asbag61
(g82
g63
NtRp2596
(dp2597
g66
(dp2598
sg75
g2584
sg68
(lp2599
g61
(g62
g63
NtRp2600
(dp2601
g66
(dp2602
g74
I4
ssg75
g2596
sg68
(lp2603
g104
asbasbasbag61
(g77
g63
NtRp2604
(dp2605
g66
(dp2606
sg75
g2473
sg68
(lp2607
g61
(g82
g63
NtRp2608
(dp2609
g66
(dp2610
g86
g87
ssg75
g2604
sg68
(lp2611
g1342
asbag61
(g82
g63
NtRp2612
(dp2613
g66
(dp2614
g93
g94
ssg75
g2604
sg68
(lp2615
S':'
asbag61
(g82
g63
NtRp2616
(dp2617
g66
(dp2618
sg75
g2604
sg68
(lp2619
g61
(g62
g63
NtRp2620
(dp2621
g66
(dp2622
g74
I4
ssg75
g2616
sg68
(lp2623
g1355
asbasbasbag61
(g77
g63
NtRp2624
(dp2625
g66
(dp2626
sg75
g2473
sg68
(lp2627
g61
(g82
g63
NtRp2628
(dp2629
g66
(dp2630
g86
g87
ssg75
g2624
sg68
(lp2631
g1540
asbag61
(g82
g63
NtRp2632
(dp2633
g66
(dp2634
g93
g94
ssg75
g2624
sg68
(lp2635
S':'
asbag61
(g82
g63
NtRp2636
(dp2637
g66
(dp2638
sg75
g2624
sg68
(lp2639
g61
(g62
g63
NtRp2640
(dp2641
g66
(dp2642
g74
I4
ssg75
g2636
sg68
(lp2643
g104
asbasbasbag61
(g77
g63
NtRp2644
(dp2645
g66
(dp2646
sg75
g2473
sg68
(lp2647
g61
(g82
g63
NtRp2648
(dp2649
g66
(dp2650
g86
g87
ssg75
g2644
sg68
(lp2651
g1561
asbag61
(g82
g63
NtRp2652
(dp2653
g66
(dp2654
g93
g94
ssg75
g2644
sg68
(lp2655
S':'
asbag61
(g82
g63
NtRp2656
(dp2657
g66
(dp2658
sg75
g2644
sg68
(lp2659
g61
(g62
g63
NtRp2660
(dp2661
g66
(dp2662
g74
I4
ssg75
g2656
sg68
(lp2663
g104
asbasbasbag61
(g77
g63
NtRp2664
(dp2665
g66
(dp2666
sg75
g2473
sg68
(lp2667
g61
(g82
g63
NtRp2668
(dp2669
g66
(dp2670
g86
g87
ssg75
g2664
sg68
(lp2671
g1800
asbag61
(g82
g63
NtRp2672
(dp2673
g66
(dp2674
g93
g94
ssg75
g2664
sg68
(lp2675
S':'
asbag61
(g82
g63
NtRp2676
(dp2677
g66
(dp2678
sg75
g2664
sg68
(lp2679
g61
(g62
g63
NtRp2680
(dp2681
g66
(dp2682
g74
I4
ssg75
g2676
sg68
(lp2683
g1813
asbasbasbag61
(g77
g63
NtRp2684
(dp2685
g66
(dp2686
sg75
g2473
sg68
(lp2687
g61
(g82
g63
NtRp2688
(dp2689
g66
(dp2690
g86
g87
ssg75
g2684
sg68
(lp2691
g1843
asbag61
(g82
g63
NtRp2692
(dp2693
g66
(dp2694
g93
g94
ssg75
g2684
sg68
(lp2695
S':'
asbag61
(g82
g63
NtRp2696
(dp2697
g66
(dp2698
sg75
g2684
sg68
(lp2699
g61
(g62
g63
NtRp2700
(dp2701
g66
(dp2702
g74
I4
ssg75
g2696
sg68
(lp2703
g61
(g70
g63
NtRp2704
(dp2705
g66
(dp2706
g74
I3
ssg75
Nsg68
(lp2707
g61
(g77
g63
NtRp2708
(dp2709
g66
(dp2710
sg75
g2704
sg68
(lp2711
g61
(g82
g63
NtRp2712
(dp2713
g66
(dp2714
sg75
g2708
sg68
(lp2715
g61
(g62
g63
NtRp2716
(dp2717
g66
(dp2718
g74
I3
ssg75
g2712
sg68
(lp2719
S'1'
asbasbasbag61
(g77
g63
NtRp2720
(dp2721
g66
(dp2722
sg75
g2704
sg68
(lp2723
g61
(g82
g63
NtRp2724
(dp2725
g66
(dp2726
sg75
g2720
sg68
(lp2727
g61
(g62
g63
NtRp2728
(dp2729
g66
(dp2730
g74
I3
ssg75
g2724
sg68
(lp2731
S'99'
p2732
asbasbasbag61
(g77
g63
NtRp2733
(dp2734
g66
(dp2735
sg75
g2704
sg68
(lp2736
g61
(g82
g63
NtRp2737
(dp2738
g66
(dp2739
sg75
g2733
sg68
(lp2740
g61
(g62
g63
NtRp2741
(dp2742
g66
(dp2743
g74
I3
ssg75
g2737
sg68
(lp2744
S'7'
asbasbasbag61
(g77
g63
NtRp2745
(dp2746
g66
(dp2747
sg75
g2704
sg68
(lp2748
g61
(g82
g63
NtRp2749
(dp2750
g66
(dp2751
sg75
g2745
sg68
(lp2752
g61
(g62
g63
NtRp2753
(dp2754
g66
(dp2755
g74
I3
ssg75
g2749
sg68
(lp2756
S'datetime.datetime(2012, 3, 4, 22, 12, 8)'
p2757
asbasbasbag61
(g77
g63
NtRp2758
(dp2759
g66
(dp2760
sg75
g2704
sg68
(lp2761
g61
(g82
g63
NtRp2762
(dp2763
g66
(dp2764
sg75
g2758
sg68
(lp2765
g61
(g62
g63
NtRp2766
(dp2767
g66
(dp2768
g74
I3
ssg75
g2762
sg68
(lp2769
g1922
asbasbasbasbasbasbasbasbasbasbasbag61
(g77
g63
NtRp2770
(dp2771
g66
(dp2772
sg75
g71
sg68
(lp2773
g61
(g82
g63
NtRp2774
(dp2775
g66
(dp2776
g86
g87
ssg75
g2770
sg68
(lp2777
S'is_https'
p2778
asbag61
(g82
g63
NtRp2779
(dp2780
g66
(dp2781
g93
g94
ssg75
g2770
sg68
(lp2782
S':'
asbag61
(g82
g63
NtRp2783
(dp2784
g66
(dp2785
sg75
g2770
sg68
(lp2786
g61
(g62
g63
NtRp2787
(dp2788
g66
(dp2789
g74
I5
ssg75
g2783
sg68
(lp2790
g104
asbasbasbag61
(g77
g63
NtRp2791
(dp2792
g66
(dp2793
sg75
g71
sg68
(lp2794
g61
(g82
g63
NtRp2795
(dp2796
g66
(dp2797
g86
g87
ssg75
g2791
sg68
(lp2798
S'is_local'
p2799
asbag61
(g82
g63
NtRp2800
(dp2801
g66
(dp2802
g93
g94
ssg75
g2791
sg68
(lp2803
S':'
asbag61
(g82
g63
NtRp2804
(dp2805
g66
(dp2806
sg75
g2791
sg68
(lp2807
g61
(g62
g63
NtRp2808
(dp2809
g66
(dp2810
g74
I5
ssg75
g2804
sg68
(lp2811
g2031
asbasbasbag61
(g77
g63
NtRp2812
(dp2813
g66
(dp2814
sg75
g71
sg68
(lp2815
g61
(g82
g63
NtRp2816
(dp2817
g66
(dp2818
g86
g87
ssg75
g2812
sg68
(lp2819
S'is_restful'
p2820
asbag61
(g82
g63
NtRp2821
(dp2822
g66
(dp2823
g93
g94
ssg75
g2812
sg68
(lp2824
S':'
asbag61
(g82
g63
NtRp2825
(dp2826
g66
(dp2827
sg75
g2812
sg68
(lp2828
g61
(g62
g63
NtRp2829
(dp2830
g66
(dp2831
g74
I5
ssg75
g2825
sg68
(lp2832
g104
asbasbasbag61
(g77
g63
NtRp2833
(dp2834
g66
(dp2835
sg75
g71
sg68
(lp2836
g61
(g82
g63
NtRp2837
(dp2838
g66
(dp2839
g86
g87
ssg75
g2833
sg68
(lp2840
S'now'
p2841
asbag61
(g82
g63
NtRp2842
(dp2843
g66
(dp2844
g93
g94
ssg75
g2833
sg68
(lp2845
S':'
asbag61
(g82
g63
NtRp2846
(dp2847
g66
(dp2848
sg75
g2833
sg68
(lp2849
g61
(g62
g63
NtRp2850
(dp2851
g66
(dp2852
g74
I5
ssg75
g2846
sg68
(lp2853
S'datetime.datetime(2012, 6, 14, 10, 39, 30, 390000)'
p2854
asbasbasbag61
(g77
g63
NtRp2855
(dp2856
g66
(dp2857
sg75
g71
sg68
(lp2858
g61
(g82
g63
NtRp2859
(dp2860
g66
(dp2861
g86
g87
ssg75
g2855
sg68
(lp2862
S'post_vars'
p2863
asbag61
(g82
g63
NtRp2864
(dp2865
g66
(dp2866
g93
g94
ssg75
g2855
sg68
(lp2867
S':'
asbag61
(g82
g63
NtRp2868
(dp2869
g66
(dp2870
sg75
g2855
sg68
(lp2871
g61
(g62
g63
NtRp2872
(dp2873
g66
(dp2874
g74
I5
ssg75
g2868
sg68
(lp2875
g61
(g70
g63
NtRp2876
(dp2877
g66
(dp2878
g74
I4
ssg75
Nsg68
(lp2879
sbasbasbasbag61
(g77
g63
NtRp2880
(dp2881
g66
(dp2882
sg75
g71
sg68
(lp2883
g61
(g82
g63
NtRp2884
(dp2885
g66
(dp2886
g86
g87
ssg75
g2880
sg68
(lp2887
S'url'
p2888
asbag61
(g82
g63
NtRp2889
(dp2890
g66
(dp2891
g93
g94
ssg75
g2880
sg68
(lp2892
S':'
asbag61
(g82
g63
NtRp2893
(dp2894
g66
(dp2895
sg75
g2880
sg68
(lp2896
g61
(g62
g63
NtRp2897
(dp2898
g66
(dp2899
g74
I5
ssg75
g2893
sg68
(lp2900
S'/mycrawler/default/search'
p2901
asbasbasbag61
(g77
g63
NtRp2902
(dp2903
g66
(dp2904
sg75
g71
sg68
(lp2905
g61
(g82
g63
NtRp2906
(dp2907
g66
(dp2908
g86
g87
ssg75
g2902
sg68
(lp2909
S'utcnow'
p2910
asbag61
(g82
g63
NtRp2911
(dp2912
g66
(dp2913
g93
g94
ssg75
g2902
sg68
(lp2914
S':'
asbag61
(g82
g63
NtRp2915
(dp2916
g66
(dp2917
sg75
g2902
sg68
(lp2918
g61
(g62
g63
NtRp2919
(dp2920
g66
(dp2921
g74
I5
ssg75
g2915
sg68
(lp2922
S'datetime.datetime(2012, 6, 14, 17, 39, 30, 390000)'
p2923
asbasbasbag61
(g77
g63
NtRp2924
(dp2925
g66
(dp2926
sg75
g71
sg68
(lp2927
g61
(g82
g63
NtRp2928
(dp2929
g66
(dp2930
g86
g87
ssg75
g2924
sg68
(lp2931
S'uuid'
p2932
asbag61
(g82
g63
NtRp2933
(dp2934
g66
(dp2935
g93
g94
ssg75
g2924
sg68
(lp2936
S':'
asbag61
(g82
g63
NtRp2937
(dp2938
g66
(dp2939
sg75
g2924
sg68
(lp2940
g61
(g62
g63
NtRp2941
(dp2942
g66
(dp2943
g74
I5
ssg75
g2937
sg68
(lp2944
S'mycrawler/127.0.0.1.2012-06-14.10-39-30.6ccda1a3-6f9a-4801-869e-bc1b12d7f57b'
p2945
asbasbasbag61
(g77
g63
NtRp2946
(dp2947
g66
(dp2948
sg75
g71
sg68
(lp2949
g61
(g82
g63
NtRp2950
(dp2951
g66
(dp2952
g86
g87
ssg75
g2946
sg68
(lp2953
S'vars'
p2954
asbag61
(g82
g63
NtRp2955
(dp2956
g66
(dp2957
g93
g94
ssg75
g2946
sg68
(lp2958
S':'
asbag61
(g82
g63
NtRp2959
(dp2960
g66
(dp2961
sg75
g2946
sg68
(lp2962
g61
(g62
g63
NtRp2963
(dp2964
g66
(dp2965
g74
I5
ssg75
g2959
sg68
(lp2966
g61
(g70
g63
NtRp2967
(dp2968
g66
(dp2969
g74
I4
ssg75
Nsg68
(lp2970
g61
(g77
g63
NtRp2971
(dp2972
g66
(dp2973
sg75
g2967
sg68
(lp2974
g61
(g82
g63
NtRp2975
(dp2976
g66
(dp2977
g86
g87
ssg75
g2971
sg68
(lp2978
g2223
asbag61
(g82
g63
NtRp2979
(dp2980
g66
(dp2981
g93
g94
ssg75
g2971
sg68
(lp2982
S':'
asbag61
(g82
g63
NtRp2983
(dp2984
g66
(dp2985
sg75
g2971
sg68
(lp2986
g61
(g62
g63
NtRp2987
(dp2988
g66
(dp2989
g74
I4
ssg75
g2983
sg68
(lp2990
S''
asbasbasbag61
(g77
g63
NtRp2991
(dp2992
g66
(dp2993
sg75
g2967
sg68
(lp2994
g61
(g82
g63
NtRp2995
(dp2996
g66
(dp2997
g86
g87
ssg75
g2991
sg68
(lp2998
g2244
asbag61
(g82
g63
NtRp2999
(dp3000
g66
(dp3001
g93
g94
ssg75
g2991
sg68
(lp3002
S':'
asbag61
(g82
g63
NtRp3003
(dp3004
g66
(dp3005
sg75
g2991
sg68
(lp3006
g61
(g62
g63
NtRp3007
(dp3008
g66
(dp3009
g74
I4
ssg75
g3003
sg68
(lp3010
g2257
asbasbasbag61
(g77
g63
NtRp3011
(dp3012
g66
(dp3013
sg75
g2967
sg68
(lp3014
g61
(g82
g63
NtRp3015
(dp3016
g66
(dp3017
g86
g87
ssg75
g3011
sg68
(lp3018
g2266
asbag61
(g82
g63
NtRp3019
(dp3020
g66
(dp3021
g93
g94
ssg75
g3011
sg68
(lp3022
S':'
asbag61
(g82
g63
NtRp3023
(dp3024
g66
(dp3025
sg75
g3011
sg68
(lp3026
g61
(g62
g63
NtRp3027
(dp3028
g66
(dp3029
g74
I4
ssg75
g3023
sg68
(lp3030
g2279
asbasbasbag61
(g77
g63
NtRp3031
(dp3032
g66
(dp3033
sg75
g2967
sg68
(lp3034
g61
(g82
g63
NtRp3035
(dp3036
g66
(dp3037
g86
g87
ssg75
g3031
sg68
(lp3038
g2288
asbag61
(g82
g63
NtRp3039
(dp3040
g66
(dp3041
g93
g94
ssg75
g3031
sg68
(lp3042
S':'
asbag61
(g82
g63
NtRp3043
(dp3044
g66
(dp3045
sg75
g3031
sg68
(lp3046
g61
(g62
g63
NtRp3047
(dp3048
g66
(dp3049
g74
I4
ssg75
g3043
sg68
(lp3050
g2301
asbasbasbag61
(g77
g63
NtRp3051
(dp3052
g66
(dp3053
sg75
g2967
sg68
(lp3054
g61
(g82
g63
NtRp3055
(dp3056
g66
(dp3057
g86
g87
ssg75
g3051
sg68
(lp3058
g2310
asbag61
(g82
g63
NtRp3059
(dp3060
g66
(dp3061
g93
g94
ssg75
g3051
sg68
(lp3062
S':'
asbag61
(g82
g63
NtRp3063
(dp3064
g66
(dp3065
sg75
g3051
sg68
(lp3066
g61
(g62
g63
NtRp3067
(dp3068
g66
(dp3069
g74
I4
ssg75
g3063
sg68
(lp3070
g2323
asbasbasbag61
(g77
g63
NtRp3071
(dp3072
g66
(dp3073
sg75
g2967
sg68
(lp3074
g61
(g82
g63
NtRp3075
(dp3076
g66
(dp3077
g86
g87
ssg75
g3071
sg68
(lp3078
g2332
asbag61
(g82
g63
NtRp3079
(dp3080
g66
(dp3081
g93
g94
ssg75
g3071
sg68
(lp3082
S':'
asbag61
(g82
g63
NtRp3083
(dp3084
g66
(dp3085
sg75
g3071
sg68
(lp3086
g61
(g62
g63
NtRp3087
(dp3088
g66
(dp3089
g74
I4
ssg75
g3083
sg68
(lp3090
g2345
asbasbasbag61
(g77
g63
NtRp3091
(dp3092
g66
(dp3093
sg75
g2967
sg68
(lp3094
g61
(g82
g63
NtRp3095
(dp3096
g66
(dp3097
g86
g87
ssg75
g3091
sg68
(lp3098
g2354
asbag61
(g82
g63
NtRp3099
(dp3100
g66
(dp3101
g93
g94
ssg75
g3091
sg68
(lp3102
S':'
asbag61
(g82
g63
NtRp3103
(dp3104
g66
(dp3105
sg75
g3091
sg68
(lp3106
g61
(g62
g63
NtRp3107
(dp3108
g66
(dp3109
g74
I4
ssg75
g3103
sg68
(lp3110
S''
asbasbasbag61
(g77
g63
NtRp3111
(dp3112
g66
(dp3113
sg75
g2967
sg68
(lp3114
g61
(g82
g63
NtRp3115
(dp3116
g66
(dp3117
g86
g87
ssg75
g3111
sg68
(lp3118
g2375
asbag61
(g82
g63
NtRp3119
(dp3120
g66
(dp3121
g93
g94
ssg75
g3111
sg68
(lp3122
S':'
asbag61
(g82
g63
NtRp3123
(dp3124
g66
(dp3125
sg75
g3111
sg68
(lp3126
g61
(g62
g63
NtRp3127
(dp3128
g66
(dp3129
g74
I4
ssg75
g3123
sg68
(lp3130
S''
asbasbasbag61
(g77
g63
NtRp3131
(dp3132
g66
(dp3133
sg75
g2967
sg68
(lp3134
g61
(g82
g63
NtRp3135
(dp3136
g66
(dp3137
g86
g87
ssg75
g3131
sg68
(lp3138
g2396
asbag61
(g82
g63
NtRp3139
(dp3140
g66
(dp3141
g93
g94
ssg75
g3131
sg68
(lp3142
S':'
asbag61
(g82
g63
NtRp3143
(dp3144
g66
(dp3145
sg75
g3131
sg68
(lp3146
g61
(g62
g63
NtRp3147
(dp3148
g66
(dp3149
g74
I4
ssg75
g3143
sg68
(lp3150
S''
asbasbasbag61
(g77
g63
NtRp3151
(dp3152
g66
(dp3153
sg75
g2967
sg68
(lp3154
g61
(g82
g63
NtRp3155
(dp3156
g66
(dp3157
g86
g87
ssg75
g3151
sg68
(lp3158
g2417
asbag61
(g82
g63
NtRp3159
(dp3160
g66
(dp3161
g93
g94
ssg75
g3151
sg68
(lp3162
S':'
asbag61
(g82
g63
NtRp3163
(dp3164
g66
(dp3165
sg75
g3151
sg68
(lp3166
g61
(g62
g63
NtRp3167
(dp3168
g66
(dp3169
g74
I4
ssg75
g3163
sg68
(lp3170
g2430
asbasbasbag61
(g77
g63
NtRp3171
(dp3172
g66
(dp3173
sg75
g2967
sg68
(lp3174
g61
(g82
g63
NtRp3175
(dp3176
g66
(dp3177
g86
g87
ssg75
g3171
sg68
(lp3178
g2439
asbag61
(g82
g63
NtRp3179
(dp3180
g66
(dp3181
g93
g94
ssg75
g3171
sg68
(lp3182
S':'
asbag61
(g82
g63
NtRp3183
(dp3184
g66
(dp3185
sg75
g3171
sg68
(lp3186
g61
(g62
g63
NtRp3187
(dp3188
g66
(dp3189
g74
I4
ssg75
g3183
sg68
(lp3190
S''
asbasbasbasbasbasbasbag61
(g77
g63
NtRp3191
(dp3192
g66
(dp3193
sg75
g71
sg68
(lp3194
g61
(g82
g63
NtRp3195
(dp3196
g66
(dp3197
g86
g87
ssg75
g3191
sg68
(lp3198
S'wsgi'
p3199
asbag61
(g82
g63
NtRp3200
(dp3201
g66
(dp3202
g93
g94
ssg75
g3191
sg68
(lp3203
S':'
asbag61
(g82
g63
NtRp3204
(dp3205
g66
(dp3206
sg75
g3191
sg68
(lp3207
g61
(g62
g63
NtRp3208
(dp3209
g66
(dp3210
g74
I5
ssg75
g3204
sg68
(lp3211
g61
(g70
g63
NtRp3212
(dp3213
g66
(dp3214
g74
I4
ssg75
Nsg68
(lp3215
g61
(g77
g63
NtRp3216
(dp3217
g66
(dp3218
sg75
g3212
sg68
(lp3219
g61
(g82
g63
NtRp3220
(dp3221
g66
(dp3222
g86
g87
ssg75
g3216
sg68
(lp3223
S'environ'
p3224
asbag61
(g82
g63
NtRp3225
(dp3226
g66
(dp3227
g93
g94
ssg75
g3216
sg68
(lp3228
S':'
asbag61
(g82
g63
NtRp3229
(dp3230
g66
(dp3231
sg75
g3216
sg68
(lp3232
g61
(g62
g63
NtRp3233
(dp3234
g66
(dp3235
g74
I4
ssg75
g3229
sg68
(lp3236
g61
(g70
g63
NtRp3237
(dp3238
g66
(dp3239
g74
I3
ssg75
Nsg68
(lp3240
g61
(g77
g63
NtRp3241
(dp3242
g66
(dp3243
sg75
g3237
sg68
(lp3244
g61
(g82
g63
NtRp3245
(dp3246
g66
(dp3247
g86
g87
ssg75
g3241
sg68
(lp3248
S'HTTP_ACCEPT'
p3249
asbag61
(g82
g63
NtRp3250
(dp3251
g66
(dp3252
g93
g94
ssg75
g3241
sg68
(lp3253
S':'
asbag61
(g82
g63
NtRp3254
(dp3255
g66
(dp3256
sg75
g3241
sg68
(lp3257
g61
(g62
g63
NtRp3258
(dp3259
g66
(dp3260
g74
I3
ssg75
g3254
sg68
(lp3261
g1377
asbasbasbag61
(g77
g63
NtRp3262
(dp3263
g66
(dp3264
sg75
g3237
sg68
(lp3265
g61
(g82
g63
NtRp3266
(dp3267
g66
(dp3268
g86
g87
ssg75
g3262
sg68
(lp3269
S'HTTP_ACCEPT_ENCODING'
p3270
asbag61
(g82
g63
NtRp3271
(dp3272
g66
(dp3273
g93
g94
ssg75
g3262
sg68
(lp3274
S':'
asbag61
(g82
g63
NtRp3275
(dp3276
g66
(dp3277
sg75
g3262
sg68
(lp3278
g61
(g62
g63
NtRp3279
(dp3280
g66
(dp3281
g74
I3
ssg75
g3275
sg68
(lp3282
g1399
asbasbasbag61
(g77
g63
NtRp3283
(dp3284
g66
(dp3285
sg75
g3237
sg68
(lp3286
g61
(g82
g63
NtRp3287
(dp3288
g66
(dp3289
g86
g87
ssg75
g3283
sg68
(lp3290
S'HTTP_ACCEPT_LANGUAGE'
p3291
asbag61
(g82
g63
NtRp3292
(dp3293
g66
(dp3294
g93
g94
ssg75
g3283
sg68
(lp3295
S':'
asbag61
(g82
g63
NtRp3296
(dp3297
g66
(dp3298
sg75
g3283
sg68
(lp3299
g61
(g62
g63
NtRp3300
(dp3301
g66
(dp3302
g74
I3
ssg75
g3296
sg68
(lp3303
g1421
asbasbasbag61
(g77
g63
NtRp3304
(dp3305
g66
(dp3306
sg75
g3237
sg68
(lp3307
g61
(g82
g63
NtRp3308
(dp3309
g66
(dp3310
g86
g87
ssg75
g3304
sg68
(lp3311
S'HTTP_CONNECTION'
p3312
asbag61
(g82
g63
NtRp3313
(dp3314
g66
(dp3315
g93
g94
ssg75
g3304
sg68
(lp3316
S':'
asbag61
(g82
g63
NtRp3317
(dp3318
g66
(dp3319
sg75
g3304
sg68
(lp3320
g61
(g62
g63
NtRp3321
(dp3322
g66
(dp3323
g74
I3
ssg75
g3317
sg68
(lp3324
g1443
asbasbasbag61
(g77
g63
NtRp3325
(dp3326
g66
(dp3327
sg75
g3237
sg68
(lp3328
g61
(g82
g63
NtRp3329
(dp3330
g66
(dp3331
g86
g87
ssg75
g3325
sg68
(lp3332
S'HTTP_COOKIE'
p3333
asbag61
(g82
g63
NtRp3334
(dp3335
g66
(dp3336
g93
g94
ssg75
g3325
sg68
(lp3337
S':'
asbag61
(g82
g63
NtRp3338
(dp3339
g66
(dp3340
sg75
g3325
sg68
(lp3341
g61
(g62
g63
NtRp3342
(dp3343
g66
(dp3344
g74
I3
ssg75
g3338
sg68
(lp3345
g1465
asbasbasbag61
(g77
g63
NtRp3346
(dp3347
g66
(dp3348
sg75
g3237
sg68
(lp3349
g61
(g82
g63
NtRp3350
(dp3351
g66
(dp3352
g86
g87
ssg75
g3346
sg68
(lp3353
S'HTTP_HOST'
p3354
asbag61
(g82
g63
NtRp3355
(dp3356
g66
(dp3357
g93
g94
ssg75
g3346
sg68
(lp3358
S':'
asbag61
(g82
g63
NtRp3359
(dp3360
g66
(dp3361
sg75
g3346
sg68
(lp3362
g61
(g62
g63
NtRp3363
(dp3364
g66
(dp3365
g74
I3
ssg75
g3359
sg68
(lp3366
g1487
asbasbasbag61
(g77
g63
NtRp3367
(dp3368
g66
(dp3369
sg75
g3237
sg68
(lp3370
g61
(g82
g63
NtRp3371
(dp3372
g66
(dp3373
g86
g87
ssg75
g3367
sg68
(lp3374
S'HTTP_REFERER'
p3375
asbag61
(g82
g63
NtRp3376
(dp3377
g66
(dp3378
g93
g94
ssg75
g3367
sg68
(lp3379
S':'
asbag61
(g82
g63
NtRp3380
(dp3381
g66
(dp3382
sg75
g3367
sg68
(lp3383
g61
(g62
g63
NtRp3384
(dp3385
g66
(dp3386
g74
I3
ssg75
g3380
sg68
(lp3387
g1509
asbasbasbag61
(g77
g63
NtRp3388
(dp3389
g66
(dp3390
sg75
g3237
sg68
(lp3391
g61
(g82
g63
NtRp3392
(dp3393
g66
(dp3394
g86
g87
ssg75
g3388
sg68
(lp3395
S'HTTP_USER_AGENT'
p3396
asbag61
(g82
g63
NtRp3397
(dp3398
g66
(dp3399
g93
g94
ssg75
g3388
sg68
(lp3400
S':'
asbag61
(g82
g63
NtRp3401
(dp3402
g66
(dp3403
sg75
g3388
sg68
(lp3404
g61
(g62
g63
NtRp3405
(dp3406
g66
(dp3407
g74
I3
ssg75
g3401
sg68
(lp3408
g1531
asbasbasbag61
(g77
g63
NtRp3409
(dp3410
g66
(dp3411
sg75
g3237
sg68
(lp3412
g61
(g82
g63
NtRp3413
(dp3414
g66
(dp3415
g86
g87
ssg75
g3409
sg68
(lp3416
S'PATH_INFO'
p3417
asbag61
(g82
g63
NtRp3418
(dp3419
g66
(dp3420
g93
g94
ssg75
g3409
sg68
(lp3421
S':'
asbag61
(g82
g63
NtRp3422
(dp3423
g66
(dp3424
sg75
g3409
sg68
(lp3425
g61
(g62
g63
NtRp3426
(dp3427
g66
(dp3428
g74
I3
ssg75
g3422
sg68
(lp3429
g1595
asbasbasbag61
(g77
g63
NtRp3430
(dp3431
g66
(dp3432
sg75
g3237
sg68
(lp3433
g61
(g82
g63
NtRp3434
(dp3435
g66
(dp3436
g86
g87
ssg75
g3430
sg68
(lp3437
S'QUERY_STRING'
p3438
asbag61
(g82
g63
NtRp3439
(dp3440
g66
(dp3441
g93
g94
ssg75
g3430
sg68
(lp3442
S':'
asbag61
(g82
g63
NtRp3443
(dp3444
g66
(dp3445
sg75
g3430
sg68
(lp3446
g61
(g62
g63
NtRp3447
(dp3448
g66
(dp3449
g74
I3
ssg75
g3443
sg68
(lp3450
g1617
asbasbasbag61
(g77
g63
NtRp3451
(dp3452
g66
(dp3453
sg75
g3237
sg68
(lp3454
g61
(g82
g63
NtRp3455
(dp3456
g66
(dp3457
g86
g87
ssg75
g3451
sg68
(lp3458
S'REMOTE_ADDR'
p3459
asbag61
(g82
g63
NtRp3460
(dp3461
g66
(dp3462
g93
g94
ssg75
g3451
sg68
(lp3463
S':'
asbag61
(g82
g63
NtRp3464
(dp3465
g66
(dp3466
sg75
g3451
sg68
(lp3467
g61
(g62
g63
NtRp3468
(dp3469
g66
(dp3470
g74
I3
ssg75
g3464
sg68
(lp3471
g194
asbasbasbag61
(g77
g63
NtRp3472
(dp3473
g66
(dp3474
sg75
g3237
sg68
(lp3475
g61
(g82
g63
NtRp3476
(dp3477
g66
(dp3478
g86
g87
ssg75
g3472
sg68
(lp3479
S'REMOTE_PORT'
p3480
asbag61
(g82
g63
NtRp3481
(dp3482
g66
(dp3483
g93
g94
ssg75
g3472
sg68
(lp3484
S':'
asbag61
(g82
g63
NtRp3485
(dp3486
g66
(dp3487
sg75
g3472
sg68
(lp3488
g61
(g62
g63
NtRp3489
(dp3490
g66
(dp3491
g74
I3
ssg75
g3485
sg68
(lp3492
g1660
asbasbasbag61
(g77
g63
NtRp3493
(dp3494
g66
(dp3495
sg75
g3237
sg68
(lp3496
g61
(g82
g63
NtRp3497
(dp3498
g66
(dp3499
g86
g87
ssg75
g3493
sg68
(lp3500
S'REQUEST_METHOD'
p3501
asbag61
(g82
g63
NtRp3502
(dp3503
g66
(dp3504
g93
g94
ssg75
g3493
sg68
(lp3505
S':'
asbag61
(g82
g63
NtRp3506
(dp3507
g66
(dp3508
sg75
g3493
sg68
(lp3509
g61
(g62
g63
NtRp3510
(dp3511
g66
(dp3512
g74
I3
ssg75
g3506
sg68
(lp3513
g1682
asbasbasbag61
(g77
g63
NtRp3514
(dp3515
g66
(dp3516
sg75
g3237
sg68
(lp3517
g61
(g82
g63
NtRp3518
(dp3519
g66
(dp3520
g86
g87
ssg75
g3514
sg68
(lp3521
S'SCRIPT_NAME'
p3522
asbag61
(g82
g63
NtRp3523
(dp3524
g66
(dp3525
g93
g94
ssg75
g3514
sg68
(lp3526
S':'
asbag61
(g82
g63
NtRp3527
(dp3528
g66
(dp3529
sg75
g3514
sg68
(lp3530
g61
(g62
g63
NtRp3531
(dp3532
g66
(dp3533
g74
I3
ssg75
g3527
sg68
(lp3534
S''
asbasbasbag61
(g77
g63
NtRp3535
(dp3536
g66
(dp3537
sg75
g3237
sg68
(lp3538
g61
(g82
g63
NtRp3539
(dp3540
g66
(dp3541
g86
g87
ssg75
g3535
sg68
(lp3542
S'SERVER_NAME'
p3543
asbag61
(g82
g63
NtRp3544
(dp3545
g66
(dp3546
g93
g94
ssg75
g3535
sg68
(lp3547
S':'
asbag61
(g82
g63
NtRp3548
(dp3549
g66
(dp3550
sg75
g3535
sg68
(lp3551
g61
(g62
g63
NtRp3552
(dp3553
g66
(dp3554
g74
I3
ssg75
g3548
sg68
(lp3555
g1725
asbasbasbag61
(g77
g63
NtRp3556
(dp3557
g66
(dp3558
sg75
g3237
sg68
(lp3559
g61
(g82
g63
NtRp3560
(dp3561
g66
(dp3562
g86
g87
ssg75
g3556
sg68
(lp3563
S'SERVER_PORT'
p3564
asbag61
(g82
g63
NtRp3565
(dp3566
g66
(dp3567
g93
g94
ssg75
g3556
sg68
(lp3568
S':'
asbag61
(g82
g63
NtRp3569
(dp3570
g66
(dp3571
sg75
g3556
sg68
(lp3572
g61
(g62
g63
NtRp3573
(dp3574
g66
(dp3575
g74
I3
ssg75
g3569
sg68
(lp3576
g1747
asbasbasbag61
(g77
g63
NtRp3577
(dp3578
g66
(dp3579
sg75
g3237
sg68
(lp3580
g61
(g82
g63
NtRp3581
(dp3582
g66
(dp3583
g86
g87
ssg75
g3577
sg68
(lp3584
S'SERVER_PROTOCOL'
p3585
asbag61
(g82
g63
NtRp3586
(dp3587
g66
(dp3588
g93
g94
ssg75
g3577
sg68
(lp3589
S':'
asbag61
(g82
g63
NtRp3590
(dp3591
g66
(dp3592
sg75
g3577
sg68
(lp3593
g61
(g62
g63
NtRp3594
(dp3595
g66
(dp3596
g74
I3
ssg75
g3590
sg68
(lp3597
g1769
asbasbasbag61
(g77
g63
NtRp3598
(dp3599
g66
(dp3600
sg75
g3237
sg68
(lp3601
g61
(g82
g63
NtRp3602
(dp3603
g66
(dp3604
g86
g87
ssg75
g3598
sg68
(lp3605
S'SERVER_SOFTWARE'
p3606
asbag61
(g82
g63
NtRp3607
(dp3608
g66
(dp3609
g93
g94
ssg75
g3598
sg68
(lp3610
S':'
asbag61
(g82
g63
NtRp3611
(dp3612
g66
(dp3613
sg75
g3598
sg68
(lp3614
g61
(g62
g63
NtRp3615
(dp3616
g66
(dp3617
g74
I3
ssg75
g3611
sg68
(lp3618
g1791
asbasbasbag61
(g77
g63
NtRp3619
(dp3620
g66
(dp3621
sg75
g3237
sg68
(lp3622
g61
(g82
g63
NtRp3623
(dp3624
g66
(dp3625
g86
g87
ssg75
g3619
sg68
(lp3626
S'wsgi.errors'
p3627
asbag61
(g82
g63
NtRp3628
(dp3629
g66
(dp3630
g93
g94
ssg75
g3619
sg68
(lp3631
S':'
asbag61
(g82
g63
NtRp3632
(dp3633
g66
(dp3634
sg75
g3619
sg68
(lp3635
g61
(g62
g63
NtRp3636
(dp3637
g66
(dp3638
g74
I3
ssg75
g3632
sg68
(lp3639
S"<open file '<stderr>', mode 'w' at 0x00A550D0>"
p3640
asbasbasbag61
(g77
g63
NtRp3641
(dp3642
g66
(dp3643
sg75
g3237
sg68
(lp3644
g61
(g82
g63
NtRp3645
(dp3646
g66
(dp3647
g86
g87
ssg75
g3641
sg68
(lp3648
S'wsgi.file_wrapper'
p3649
asbag61
(g82
g63
NtRp3650
(dp3651
g66
(dp3652
g93
g94
ssg75
g3641
sg68
(lp3653
S':'
asbag61
(g82
g63
NtRp3654
(dp3655
g66
(dp3656
sg75
g3641
sg68
(lp3657
g61
(g62
g63
NtRp3658
(dp3659
g66
(dp3660
g74
I3
ssg75
g3654
sg68
(lp3661
S'<class wsgiref.util.FileWrapper at 0x015E8AB0>'
p3662
asbasbasbag61
(g77
g63
NtRp3663
(dp3664
g66
(dp3665
sg75
g3237
sg68
(lp3666
g61
(g82
g63
NtRp3667
(dp3668
g66
(dp3669
g86
g87
ssg75
g3663
sg68
(lp3670
S'wsgi.input'
p3671
asbag61
(g82
g63
NtRp3672
(dp3673
g66
(dp3674
g93
g94
ssg75
g3663
sg68
(lp3675
S':'
asbag61
(g82
g63
NtRp3676
(dp3677
g66
(dp3678
sg75
g3663
sg68
(lp3679
g61
(g62
g63
NtRp3680
(dp3681
g66
(dp3682
g74
I3
ssg75
g3676
sg68
(lp3683
S'<cStringIO.StringO object at 0x055452E0>'
p3684
asbasbasbag61
(g77
g63
NtRp3685
(dp3686
g66
(dp3687
sg75
g3237
sg68
(lp3688
g61
(g82
g63
NtRp3689
(dp3690
g66
(dp3691
g86
g87
ssg75
g3685
sg68
(lp3692
S'wsgi.multiprocess'
p3693
asbag61
(g82
g63
NtRp3694
(dp3695
g66
(dp3696
g93
g94
ssg75
g3685
sg68
(lp3697
S':'
asbag61
(g82
g63
NtRp3698
(dp3699
g66
(dp3700
sg75
g3685
sg68
(lp3701
g61
(g62
g63
NtRp3702
(dp3703
g66
(dp3704
g74
I3
ssg75
g3698
sg68
(lp3705
g104
asbasbasbag61
(g77
g63
NtRp3706
(dp3707
g66
(dp3708
sg75
g3237
sg68
(lp3709
g61
(g82
g63
NtRp3710
(dp3711
g66
(dp3712
g86
g87
ssg75
g3706
sg68
(lp3713
S'wsgi.multithread'
p3714
asbag61
(g82
g63
NtRp3715
(dp3716
g66
(dp3717
g93
g94
ssg75
g3706
sg68
(lp3718
S':'
asbag61
(g82
g63
NtRp3719
(dp3720
g66
(dp3721
sg75
g3706
sg68
(lp3722
g61
(g62
g63
NtRp3723
(dp3724
g66
(dp3725
g74
I3
ssg75
g3719
sg68
(lp3726
g2031
asbasbasbag61
(g77
g63
NtRp3727
(dp3728
g66
(dp3729
sg75
g3237
sg68
(lp3730
g61
(g82
g63
NtRp3731
(dp3732
g66
(dp3733
g86
g87
ssg75
g3727
sg68
(lp3734
S'wsgi.run_once'
p3735
asbag61
(g82
g63
NtRp3736
(dp3737
g66
(dp3738
g93
g94
ssg75
g3727
sg68
(lp3739
S':'
asbag61
(g82
g63
NtRp3740
(dp3741
g66
(dp3742
sg75
g3727
sg68
(lp3743
g61
(g62
g63
NtRp3744
(dp3745
g66
(dp3746
g74
I3
ssg75
g3740
sg68
(lp3747
g104
asbasbasbag61
(g77
g63
NtRp3748
(dp3749
g66
(dp3750
sg75
g3237
sg68
(lp3751
g61
(g82
g63
NtRp3752
(dp3753
g66
(dp3754
g86
g87
ssg75
g3748
sg68
(lp3755
S'wsgi.url_scheme'
p3756
asbag61
(g82
g63
NtRp3757
(dp3758
g66
(dp3759
g93
g94
ssg75
g3748
sg68
(lp3760
S':'
asbag61
(g82
g63
NtRp3761
(dp3762
g66
(dp3763
sg75
g3748
sg68
(lp3764
g61
(g62
g63
NtRp3765
(dp3766
g66
(dp3767
g74
I3
ssg75
g3761
sg68
(lp3768
g2074
asbasbasbag61
(g77
g63
NtRp3769
(dp3770
g66
(dp3771
sg75
g3237
sg68
(lp3772
g61
(g82
g63
NtRp3773
(dp3774
g66
(dp3775
g86
g87
ssg75
g3769
sg68
(lp3776
S'wsgi.version'
p3777
asbag61
(g82
g63
NtRp3778
(dp3779
g66
(dp3780
g93
g94
ssg75
g3769
sg68
(lp3781
S':'
asbag61
(g82
g63
NtRp3782
(dp3783
g66
(dp3784
sg75
g3769
sg68
(lp3785
g61
(g62
g63
NtRp3786
(dp3787
g66
(dp3788
g74
I3
ssg75
g3782
sg68
(lp3789
S'1'
asbasbasbasbasbasbasbasbasbasbasbasbasbsS'frames'
p3790
(lp3791
(dp3792
S'file'
p3793
S'C:\\Documents and Settings\\agrover\\Desktop\\previous crawler\\web2py\\gluon\\restricted.py'
p3794
sS'dump'
p3795
(dp3796
S'environment'
p3797
S"{'A': <class 'gluon.html.A'>, 'Auth': <class 'gluon.tools.Auth'>, 'B': <class 'gluon.html.B'>, 'BEAUTIFY': <class 'gluon.html.BEAUTIFY'>, 'BODY': <class 'gluon.html.BODY'>, 'BR': <class 'gluon.html.BR'>, 'BUTTON': <class 'gluon.html.BUTTON'>, 'CAT': <class 'gluon.html.CAT'>, 'CENTER': <class 'gluon.html.CENTER'>, 'CLEANUP': <class 'gluon.validators.CLEANUP'>, ...}"
p3798
sS'ccode'
p3799
S'<code object <module> at 0593E608, file "C:\\Docu...tions\\mycrawler\\controllers/default.py", line 11>'
p3800
ssS'lnum'
p3801
I205
sS'lines'
p3802
(dp3803
I200
S'    try:'
p3804
sI201
S'        if type(code) == types.CodeType:'
p3805
sI202
S'            ccode = code'
p3806
sI203
S'        else:'
p3807
sI204
S'            ccode = compile2(code,layer)'
p3808
sI205
S'        exec ccode in environment'
p3809
sI206
S'    except HTTP:'
p3810
sI207
S'        raise'
p3811
sI208
S'    except RestrictedError:'
p3812
sI209
S'        # do not encapsulate (obfuscate) the original RestrictedError'
p3813
ssS'call'
p3814
S"(code='# -*- coding: utf-8 -*-\\n# this file is released ...urrent)\\n\\nresponse._vars=response._caller(search)\\n', environment={'A': <class 'gluon.html.A'>, 'Auth': <class 'gluon.tools.Auth'>, 'B': <class 'gluon.html.B'>, 'BEAUTIFY': <class 'gluon.html.BEAUTIFY'>, 'BODY': <class 'gluon.html.BODY'>, 'BR': <class 'gluon.html.BR'>, 'BUTTON': <class 'gluon.html.BUTTON'>, 'CAT': <class 'gluon.html.CAT'>, 'CENTER': <class 'gluon.html.CENTER'>, 'CLEANUP': <class 'gluon.validators.CLEANUP'>, ...}, layer=r'C:\\Documents and Settings\\agrover\\Desktop\\previo...2py\\applications\\mycrawler\\controllers/default.py')"
p3815
sS'func'
p3816
S'restricted'
p3817
sa(dp3818
g3793
S'C:\\Documents and Settings\\agrover\\Desktop\\previous crawler\\web2py\\applications\\mycrawler\\controllers\\default.py'
p3819
sg3795
(dp3820
sg3801
I384
sg3802
(dp3821
I373
S"    #response.headers['Content-Type'] = 'text/csv'"
p3822
sI374
S"    #response.headers['Content-Disposition'] = 'attachment; filename=%s' % request.vars.File_Name"
p3823
sI375
S''
sI376
S'    #print view_profile'
p3824
sI377
S'    #print name'
p3825
sI378
S'    #print location'
p3826
sI379
S'    #print industry'
p3827
sI380
S'    #print titl'
p3828
sI381
S''
sI382
S'    return dict(view_profile=view_profile,name=name,location=location,industry=industry,titl=titl,current=current)'
p3829
ssg3814
S'()'
p3830
sg3816
S'<module>'
p3831
sa(dp3832
g3793
S'C:\\Documents and Settings\\agrover\\Desktop\\previous crawler\\web2py\\gluon\\globals.py'
p3833
sg3795
(dp3834
S'self'
p3835
S'undefined'
p3836
sS'f'
S'<function search>'
p3837
ssg3801
I173
sg3802
(dp3838
I168
S'        self.menu = []             # used by the default view layout'
p3839
sI169
S'        self.files = []            # used by web2py_ajax.html'
p3840
sI170
S'        self.generic_patterns = [] # patterns to allow generic views'
p3841
sI171
S"        self.delimiters = ('{{','}}')"
p3842
sI172
S'        self._vars = None'
p3843
sI173
S'        self._caller = lambda f: f()'
p3844
sI174
S'        self._view_environment = None'
p3845
sI175
S'        self._custom_commit = None'
p3846
sI176
S'        self._custom_rollback = None'
p3847
sI177
S''
ssg3814
S'(f=<function search>)'
p3848
sg3816
S'<lambda>'
p3849
sa(dp3850
g3793
S'C:\\Documents and Settings\\agrover\\Desktop\\previous crawler\\web2py\\applications\\mycrawler\\controllers\\default.py'
p3851
sg3795
(dp3852
S'nr'
p3853
g3836
sS'br.select_form'
p3854
S'<bound method Browser.select_form of <mechanize._mechanize.Browser instance>>'
p3855
sS'br'
p3856
S'<mechanize._mechanize.Browser instance>'
p3857
ssg3801
I201
sg3802
(dp3858
I196
S'    br.submit()'
p3859
sI197
S''
sI198
S'    #opening the advanced search page straight away'
p3860
sI199
S"    br.open('https://www.linkedin.com/search?trk=advsrch')"
p3861
sI200
S'    #selecting the 1st form'
p3862
sI201
S'    br.select_form(nr=1)'
p3863
sI202
S''
sI203
S'    #entering various fields and filters'
p3864
sI204
S'    if request.vars.Last_Name:'
p3865
sI205
S'        br["lname"]=request.vars.Last_Name'
p3866
ssg3814
S'()'
p3867
sg3816
S'search'
p3868
sa(dp3869
g3793
S'C:\\Documents and Settings\\agrover\\Desktop\\previous crawler\\web2py\\build\\bdist.win32\\egg\\mechanize\\_mechanize.py'
p3870
sg3795
(dp3871
sg3801
I524
sg3802
(dp3872
I519
S'            if name is not None: description.append("name \'%s\'" % name)'
p3873
sI520
S'            if predicate is not None:'
p3874
sI521
S'                description.append("predicate %s" % predicate)'
p3875
sI522
S'            if orig_nr is not None: description.append("nr %d" % orig_nr)'
p3876
sI523
S'            description = ", ".join(description)'
p3877
sI524
S'            raise FormNotFoundError("no form matching "+description)'
p3878
sI525
S''
sI526
S'    def click(self, *args, **kwds):'
p3879
sI527
S'        """See mechanize.HTMLForm.click for documentation."""'
p3880
sI528
S'        if not self.viewing_html():'
p3881
ssg3814
S'(self=<mechanize._mechanize.Browser instance>, name=None, predicate=None, nr=1)'
p3882
sg3816
S'select_form'
p3883
sasS'pyver'
p3884
S'Python 2.7.3: C:\\Python27\\python.exe'
p3885
sS'session'
p3886
g61
(g62
g63
NtRp3887
(dp3888
g66
(dp3889
sg68
(lp3890
g61
(g70
g63
NtRp3891
(dp3892
g66
(dp3893
g74
I5
ssg75
Nsg68
(lp3894
g61
(g77
g63
NtRp3895
(dp3896
g66
(dp3897
sg75
g3891
sg68
(lp3898
g61
(g82
g63
NtRp3899
(dp3900
g66
(dp3901
g86
g87
ssg75
g3895
sg68
(lp3902
S'last_query'
p3903
asbag61
(g82
g63
NtRp3904
(dp3905
g66
(dp3906
g93
g94
ssg75
g3895
sg68
(lp3907
S':'
asbag61
(g82
g63
NtRp3908
(dp3909
g66
(dp3910
sg75
g3895
sg68
(lp3911
g61
(g62
g63
NtRp3912
(dp3913
g66
(dp3914
g74
I5
ssg75
g3908
sg68
(lp3915
S'db.auth_user.id>0'
p3916
asbasbasbag61
(g77
g63
NtRp3917
(dp3918
g66
(dp3919
sg75
g3891
sg68
(lp3920
g61
(g82
g63
NtRp3921
(dp3922
g66
(dp3923
g86
g87
ssg75
g3917
sg68
(lp3924
S'password'
p3925
asbag61
(g82
g63
NtRp3926
(dp3927
g66
(dp3928
g93
g94
ssg75
g3917
sg68
(lp3929
S':'
asbag61
(g82
g63
NtRp3930
(dp3931
g66
(dp3932
sg75
g3917
sg68
(lp3933
g61
(g62
g63
NtRp3934
(dp3935
g66
(dp3936
g74
I5
ssg75
g3930
sg68
(lp3937
S'modeln@1234'
p3938
asbasbasbag61
(g77
g63
NtRp3939
(dp3940
g66
(dp3941
sg75
g3891
sg68
(lp3942
g61
(g82
g63
NtRp3943
(dp3944
g66
(dp3945
g86
g87
ssg75
g3939
sg68
(lp3946
S'username'
p3947
asbag61
(g82
g63
NtRp3948
(dp3949
g66
(dp3950
g93
g94
ssg75
g3939
sg68
(lp3951
S':'
asbag61
(g82
g63
NtRp3952
(dp3953
g66
(dp3954
sg75
g3939
sg68
(lp3955
g61
(g62
g63
NtRp3956
(dp3957
g66
(dp3958
g74
I5
ssg75
g3952
sg68
(lp3959
S'mrigeshgaurav@gmail.com'
p3960
asbasbasbasbasbsS'etype'
p3961
S"<class 'mechanize._mechanize.FormNotFoundError'>"
p3962
sS'date'
p3963
S'Thu Jun 14 10:39:48 2012'
p3964
sS'response'
p3965
g61
(g62
g63
NtRp3966
(dp3967
g66
(dp3968
sg68
(lp3969
g61
(g70
g63
NtRp3970
(dp3971
g66
(dp3972
g74
I5
ssg75
Nsg68
(lp3973
g61
(g77
g63
NtRp3974
(dp3975
g66
(dp3976
sg75
g3970
sg68
(lp3977
g61
(g82
g63
NtRp3978
(dp3979
g66
(dp3980
g86
g87
ssg75
g3974
sg68
(lp3981
g159
asbag61
(g82
g63
NtRp3982
(dp3983
g66
(dp3984
g93
g94
ssg75
g3974
sg68
(lp3985
S':'
asbag61
(g82
g63
NtRp3986
(dp3987
g66
(dp3988
sg75
g3974
sg68
(lp3989
g61
(g62
g63
NtRp3990
(dp3991
g66
(dp3992
g74
I5
ssg75
g3986
sg68
(lp3993
S'<cStringIO.StringO object at 0x0554E500>'
p3994
asbasbasbag61
(g77
g63
NtRp3995
(dp3996
g66
(dp3997
sg75
g3970
sg68
(lp3998
g61
(g82
g63
NtRp3999
(dp4000
g66
(dp4001
g86
g87
ssg75
g3995
sg68
(lp4002
g225
asbag61
(g82
g63
NtRp4003
(dp4004
g66
(dp4005
g93
g94
ssg75
g3995
sg68
(lp4006
S':'
asbag61
(g82
g63
NtRp4007
(dp4008
g66
(dp4009
sg75
g3995
sg68
(lp4010
g61
(g62
g63
NtRp4011
(dp4012
g66
(dp4013
g74
I5
ssg75
g4007
sg68
(lp4014
g61
(g70
g63
NtRp4015
(dp4016
g66
(dp4017
g74
I4
ssg75
Nsg68
(lp4018
g61
(g77
g63
NtRp4019
(dp4020
g66
(dp4021
sg75
g4015
sg68
(lp4022
g61
(g82
g63
NtRp4023
(dp4024
g66
(dp4025
g86
g87
ssg75
g4019
sg68
(lp4026
S'session_id_mycrawler'
p4027
asbag61
(g82
g63
NtRp4028
(dp4029
g66
(dp4030
g93
g94
ssg75
g4019
sg68
(lp4031
S':'
asbag61
(g82
g63
NtRp4032
(dp4033
g66
(dp4034
sg75
g4019
sg68
(lp4035
g61
(g62
g63
NtRp4036
(dp4037
g66
(dp4038
g74
I4
ssg75
g4032
sg68
(lp4039
g61
(g70
g63
NtRp4040
(dp4041
g66
(dp4042
g74
I3
ssg75
Nsg68
(lp4043
g61
(g77
g63
NtRp4044
(dp4045
g66
(dp4046
sg75
g4040
sg68
(lp4047
g61
(g82
g63
NtRp4048
(dp4049
g66
(dp4050
g86
g87
ssg75
g4044
sg68
(lp4051
g275
asbag61
(g82
g63
NtRp4052
(dp4053
g66
(dp4054
g93
g94
ssg75
g4044
sg68
(lp4055
S':'
asbag61
(g82
g63
NtRp4056
(dp4057
g66
(dp4058
sg75
g4044
sg68
(lp4059
g61
(g62
g63
NtRp4060
(dp4061
g66
(dp4062
g74
I3
ssg75
g4056
sg68
(lp4063
S''
asbasbasbag61
(g77
g63
NtRp4064
(dp4065
g66
(dp4066
sg75
g4040
sg68
(lp4067
g61
(g82
g63
NtRp4068
(dp4069
g66
(dp4070
g86
g87
ssg75
g4064
sg68
(lp4071
g296
asbag61
(g82
g63
NtRp4072
(dp4073
g66
(dp4074
g93
g94
ssg75
g4064
sg68
(lp4075
S':'
asbag61
(g82
g63
NtRp4076
(dp4077
g66
(dp4078
sg75
g4064
sg68
(lp4079
g61
(g62
g63
NtRp4080
(dp4081
g66
(dp4082
g74
I3
ssg75
g4076
sg68
(lp4083
S''
asbasbasbag61
(g77
g63
NtRp4084
(dp4085
g66
(dp4086
sg75
g4040
sg68
(lp4087
g61
(g82
g63
NtRp4088
(dp4089
g66
(dp4090
g86
g87
ssg75
g4084
sg68
(lp4091
g317
asbag61
(g82
g63
NtRp4092
(dp4093
g66
(dp4094
g93
g94
ssg75
g4084
sg68
(lp4095
S':'
asbag61
(g82
g63
NtRp4096
(dp4097
g66
(dp4098
sg75
g4084
sg68
(lp4099
g61
(g62
g63
NtRp4100
(dp4101
g66
(dp4102
g74
I3
ssg75
g4096
sg68
(lp4103
S''
asbasbasbag61
(g77
g63
NtRp4104
(dp4105
g66
(dp4106
sg75
g4040
sg68
(lp4107
g61
(g82
g63
NtRp4108
(dp4109
g66
(dp4110
g86
g87
ssg75
g4104
sg68
(lp4111
g338
asbag61
(g82
g63
NtRp4112
(dp4113
g66
(dp4114
g93
g94
ssg75
g4104
sg68
(lp4115
S':'
asbag61
(g82
g63
NtRp4116
(dp4117
g66
(dp4118
sg75
g4104
sg68
(lp4119
g61
(g62
g63
NtRp4120
(dp4121
g66
(dp4122
g74
I3
ssg75
g4116
sg68
(lp4123
S''
asbasbasbag61
(g77
g63
NtRp4124
(dp4125
g66
(dp4126
sg75
g4040
sg68
(lp4127
g61
(g82
g63
NtRp4128
(dp4129
g66
(dp4130
g86
g87
ssg75
g4124
sg68
(lp4131
g359
asbag61
(g82
g63
NtRp4132
(dp4133
g66
(dp4134
g93
g94
ssg75
g4124
sg68
(lp4135
S':'
asbag61
(g82
g63
NtRp4136
(dp4137
g66
(dp4138
sg75
g4124
sg68
(lp4139
g61
(g62
g63
NtRp4140
(dp4141
g66
(dp4142
g74
I3
ssg75
g4136
sg68
(lp4143
S''
asbasbasbag61
(g77
g63
NtRp4144
(dp4145
g66
(dp4146
sg75
g4040
sg68
(lp4147
g61
(g82
g63
NtRp4148
(dp4149
g66
(dp4150
g86
g87
ssg75
g4144
sg68
(lp4151
g380
asbag61
(g82
g63
NtRp4152
(dp4153
g66
(dp4154
g93
g94
ssg75
g4144
sg68
(lp4155
S':'
asbag61
(g82
g63
NtRp4156
(dp4157
g66
(dp4158
sg75
g4144
sg68
(lp4159
g61
(g62
g63
NtRp4160
(dp4161
g66
(dp4162
g74
I3
ssg75
g4156
sg68
(lp4163
S'/'
asbasbasbag61
(g77
g63
NtRp4164
(dp4165
g66
(dp4166
sg75
g4040
sg68
(lp4167
g61
(g82
g63
NtRp4168
(dp4169
g66
(dp4170
g86
g87
ssg75
g4164
sg68
(lp4171
g401
asbag61
(g82
g63
NtRp4172
(dp4173
g66
(dp4174
g93
g94
ssg75
g4164
sg68
(lp4175
S':'
asbag61
(g82
g63
NtRp4176
(dp4177
g66
(dp4178
sg75
g4164
sg68
(lp4179
g61
(g62
g63
NtRp4180
(dp4181
g66
(dp4182
g74
I3
ssg75
g4176
sg68
(lp4183
S''
asbasbasbag61
(g77
g63
NtRp4184
(dp4185
g66
(dp4186
sg75
g4040
sg68
(lp4187
g61
(g82
g63
NtRp4188
(dp4189
g66
(dp4190
g86
g87
ssg75
g4184
sg68
(lp4191
g422
asbag61
(g82
g63
NtRp4192
(dp4193
g66
(dp4194
g93
g94
ssg75
g4184
sg68
(lp4195
S':'
asbag61
(g82
g63
NtRp4196
(dp4197
g66
(dp4198
sg75
g4184
sg68
(lp4199
g61
(g62
g63
NtRp4200
(dp4201
g66
(dp4202
g74
I3
ssg75
g4196
sg68
(lp4203
S''
asbasbasbasbasbasbasbasbasbasbasbag61
(g77
g63
NtRp4204
(dp4205
g66
(dp4206
sg75
g3970
sg68
(lp4207
g61
(g82
g63
NtRp4208
(dp4209
g66
(dp4210
g86
g87
ssg75
g4204
sg68
(lp4211
S'delimiters'
p4212
asbag61
(g82
g63
NtRp4213
(dp4214
g66
(dp4215
g93
g94
ssg75
g4204
sg68
(lp4216
S':'
asbag61
(g82
g63
NtRp4217
(dp4218
g66
(dp4219
sg75
g4204
sg68
(lp4220
g61
(g62
g63
NtRp4221
(dp4222
g66
(dp4223
g74
I5
ssg75
g4217
sg68
(lp4224
g61
(g70
g63
NtRp4225
(dp4226
g66
(dp4227
g74
I4
ssg75
Nsg68
(lp4228
g61
(g77
g63
NtRp4229
(dp4230
g66
(dp4231
sg75
g4225
sg68
(lp4232
g61
(g82
g63
NtRp4233
(dp4234
g66
(dp4235
sg75
g4229
sg68
(lp4236
g61
(g62
g63
NtRp4237
(dp4238
g66
(dp4239
g74
I4
ssg75
g4233
sg68
(lp4240
S'{{'
p4241
asbasbasbag61
(g77
g63
NtRp4242
(dp4243
g66
(dp4244
sg75
g4225
sg68
(lp4245
g61
(g82
g63
NtRp4246
(dp4247
g66
(dp4248
sg75
g4242
sg68
(lp4249
g61
(g62
g63
NtRp4250
(dp4251
g66
(dp4252
g74
I4
ssg75
g4246
sg68
(lp4253
S'}}'
p4254
asbasbasbasbasbasbasbag61
(g77
g63
NtRp4255
(dp4256
g66
(dp4257
sg75
g3970
sg68
(lp4258
g61
(g82
g63
NtRp4259
(dp4260
g66
(dp4261
g86
g87
ssg75
g4255
sg68
(lp4262
S'files'
p4263
asbag61
(g82
g63
NtRp4264
(dp4265
g66
(dp4266
g93
g94
ssg75
g4255
sg68
(lp4267
S':'
asbag61
(g82
g63
NtRp4268
(dp4269
g66
(dp4270
sg75
g4255
sg68
(lp4271
g61
(g62
g63
NtRp4272
(dp4273
g66
(dp4274
g74
I5
ssg75
g4268
sg68
(lp4275
g61
(g70
g63
NtRp4276
(dp4277
g66
(dp4278
g74
I4
ssg75
Nsg68
(lp4279
sbasbasbasbag61
(g77
g63
NtRp4280
(dp4281
g66
(dp4282
sg75
g3970
sg68
(lp4283
g61
(g82
g63
NtRp4284
(dp4285
g66
(dp4286
g86
g87
ssg75
g4280
sg68
(lp4287
S'flash'
p4288
asbag61
(g82
g63
NtRp4289
(dp4290
g66
(dp4291
g93
g94
ssg75
g4280
sg68
(lp4292
S':'
asbag61
(g82
g63
NtRp4293
(dp4294
g66
(dp4295
sg75
g4280
sg68
(lp4296
g61
(g62
g63
NtRp4297
(dp4298
g66
(dp4299
g74
I5
ssg75
g4293
sg68
(lp4300
S''
asbasbasbag61
(g77
g63
NtRp4301
(dp4302
g66
(dp4303
sg75
g3970
sg68
(lp4304
g61
(g82
g63
NtRp4305
(dp4306
g66
(dp4307
g86
g87
ssg75
g4301
sg68
(lp4308
S'generic_patterns'
p4309
asbag61
(g82
g63
NtRp4310
(dp4311
g66
(dp4312
g93
g94
ssg75
g4301
sg68
(lp4313
S':'
asbag61
(g82
g63
NtRp4314
(dp4315
g66
(dp4316
sg75
g4301
sg68
(lp4317
g61
(g62
g63
NtRp4318
(dp4319
g66
(dp4320
g74
I5
ssg75
g4314
sg68
(lp4321
g61
(g70
g63
NtRp4322
(dp4323
g66
(dp4324
g74
I4
ssg75
Nsg68
(lp4325
g61
(g77
g63
NtRp4326
(dp4327
g66
(dp4328
sg75
g4322
sg68
(lp4329
g61
(g82
g63
NtRp4330
(dp4331
g66
(dp4332
sg75
g4326
sg68
(lp4333
g61
(g62
g63
NtRp4334
(dp4335
g66
(dp4336
g74
I4
ssg75
g4330
sg68
(lp4337
S'*'
asbasbasbasbasbasbasbag61
(g77
g63
NtRp4338
(dp4339
g66
(dp4340
sg75
g3970
sg68
(lp4341
g61
(g82
g63
NtRp4342
(dp4343
g66
(dp4344
g86
g87
ssg75
g4338
sg68
(lp4345
S'headers'
p4346
asbag61
(g82
g63
NtRp4347
(dp4348
g66
(dp4349
g93
g94
ssg75
g4338
sg68
(lp4350
S':'
asbag61
(g82
g63
NtRp4351
(dp4352
g66
(dp4353
sg75
g4338
sg68
(lp4354
g61
(g62
g63
NtRp4355
(dp4356
g66
(dp4357
g74
I5
ssg75
g4351
sg68
(lp4358
g61
(g70
g63
NtRp4359
(dp4360
g66
(dp4361
g74
I4
ssg75
Nsg68
(lp4362
g61
(g77
g63
NtRp4363
(dp4364
g66
(dp4365
sg75
g4359
sg68
(lp4366
g61
(g82
g63
NtRp4367
(dp4368
g66
(dp4369
g86
g87
ssg75
g4363
sg68
(lp4370
S'Cache-Control'
p4371
asbag61
(g82
g63
NtRp4372
(dp4373
g66
(dp4374
g93
g94
ssg75
g4363
sg68
(lp4375
S':'
asbag61
(g82
g63
NtRp4376
(dp4377
g66
(dp4378
sg75
g4363
sg68
(lp4379
g61
(g62
g63
NtRp4380
(dp4381
g66
(dp4382
g74
I4
ssg75
g4376
sg68
(lp4383
S'no-store, no-cache, must-revalidate, post-check=0, pre-check=0'
p4384
asbasbasbag61
(g77
g63
NtRp4385
(dp4386
g66
(dp4387
sg75
g4359
sg68
(lp4388
g61
(g82
g63
NtRp4389
(dp4390
g66
(dp4391
g86
g87
ssg75
g4385
sg68
(lp4392
S'Content-Type'
p4393
asbag61
(g82
g63
NtRp4394
(dp4395
g66
(dp4396
g93
g94
ssg75
g4385
sg68
(lp4397
S':'
asbag61
(g82
g63
NtRp4398
(dp4399
g66
(dp4400
sg75
g4385
sg68
(lp4401
g61
(g62
g63
NtRp4402
(dp4403
g66
(dp4404
g74
I4
ssg75
g4398
sg68
(lp4405
S'text/html; charset=utf-8'
p4406
asbasbasbag61
(g77
g63
NtRp4407
(dp4408
g66
(dp4409
sg75
g4359
sg68
(lp4410
g61
(g82
g63
NtRp4411
(dp4412
g66
(dp4413
g86
g87
ssg75
g4407
sg68
(lp4414
S'Expires'
p4415
asbag61
(g82
g63
NtRp4416
(dp4417
g66
(dp4418
g93
g94
ssg75
g4407
sg68
(lp4419
S':'
asbag61
(g82
g63
NtRp4420
(dp4421
g66
(dp4422
sg75
g4407
sg68
(lp4423
g61
(g62
g63
NtRp4424
(dp4425
g66
(dp4426
g74
I4
ssg75
g4420
sg68
(lp4427
S'Thu, 14 Jun 2012 17:39:30 GMT'
p4428
asbasbasbag61
(g77
g63
NtRp4429
(dp4430
g66
(dp4431
sg75
g4359
sg68
(lp4432
g61
(g82
g63
NtRp4433
(dp4434
g66
(dp4435
g86
g87
ssg75
g4429
sg68
(lp4436
S'Pragma'
p4437
asbag61
(g82
g63
NtRp4438
(dp4439
g66
(dp4440
g93
g94
ssg75
g4429
sg68
(lp4441
S':'
asbag61
(g82
g63
NtRp4442
(dp4443
g66
(dp4444
sg75
g4429
sg68
(lp4445
g61
(g62
g63
NtRp4446
(dp4447
g66
(dp4448
g74
I4
ssg75
g4442
sg68
(lp4449
S'no-cache'
p4450
asbasbasbag61
(g77
g63
NtRp4451
(dp4452
g66
(dp4453
sg75
g4359
sg68
(lp4454
g61
(g82
g63
NtRp4455
(dp4456
g66
(dp4457
g86
g87
ssg75
g4451
sg68
(lp4458
S'X-Powered-By'
p4459
asbag61
(g82
g63
NtRp4460
(dp4461
g66
(dp4462
g93
g94
ssg75
g4451
sg68
(lp4463
S':'
asbag61
(g82
g63
NtRp4464
(dp4465
g66
(dp4466
sg75
g4451
sg68
(lp4467
g61
(g62
g63
NtRp4468
(dp4469
g66
(dp4470
g74
I4
ssg75
g4464
sg68
(lp4471
S'web2py'
p4472
asbasbasbasbasbasbasbag61
(g77
g63
NtRp4473
(dp4474
g66
(dp4475
sg75
g3970
sg68
(lp4476
g61
(g82
g63
NtRp4477
(dp4478
g66
(dp4479
g86
g87
ssg75
g4473
sg68
(lp4480
S'menu'
p4481
asbag61
(g82
g63
NtRp4482
(dp4483
g66
(dp4484
g93
g94
ssg75
g4473
sg68
(lp4485
S':'
asbag61
(g82
g63
NtRp4486
(dp4487
g66
(dp4488
sg75
g4473
sg68
(lp4489
g61
(g62
g63
NtRp4490
(dp4491
g66
(dp4492
g74
I5
ssg75
g4486
sg68
(lp4493
g61
(g70
g63
NtRp4494
(dp4495
g66
(dp4496
g74
I4
ssg75
Nsg68
(lp4497
g61
(g77
g63
NtRp4498
(dp4499
g66
(dp4500
sg75
g4494
sg68
(lp4501
g61
(g82
g63
NtRp4502
(dp4503
g66
(dp4504
sg75
g4498
sg68
(lp4505
g61
(g62
g63
NtRp4506
(dp4507
g66
(dp4508
g74
I4
ssg75
g4502
sg68
(lp4509
g61
(g70
g63
NtRp4510
(dp4511
g66
(dp4512
g74
I3
ssg75
Nsg68
(lp4513
g61
(g77
g63
NtRp4514
(dp4515
g66
(dp4516
sg75
g4510
sg68
(lp4517
g61
(g82
g63
NtRp4518
(dp4519
g66
(dp4520
sg75
g4514
sg68
(lp4521
g61
(g62
g63
NtRp4522
(dp4523
g66
(dp4524
g74
I3
ssg75
g4518
sg68
(lp4525
cgluon.languages
lazyT_unpickle
p4526
(S't\x04\x00\x00\x00Home'
tRp4527
asbasbasbag61
(g77
g63
NtRp4528
(dp4529
g66
(dp4530
sg75
g4510
sg68
(lp4531
g61
(g82
g63
NtRp4532
(dp4533
g66
(dp4534
sg75
g4528
sg68
(lp4535
g61
(g62
g63
NtRp4536
(dp4537
g66
(dp4538
g74
I3
ssg75
g4532
sg68
(lp4539
g104
asbasbasbag61
(g77
g63
NtRp4540
(dp4541
g66
(dp4542
sg75
g4510
sg68
(lp4543
g61
(g82
g63
NtRp4544
(dp4545
g66
(dp4546
sg75
g4540
sg68
(lp4547
g61
(g62
g63
NtRp4548
(dp4549
g66
(dp4550
g74
I3
ssg75
g4544
sg68
(lp4551
S'/mycrawler/default/index'
p4552
asbasbasbag61
(g77
g63
NtRp4553
(dp4554
g66
(dp4555
sg75
g4510
sg68
(lp4556
g61
(g82
g63
NtRp4557
(dp4558
g66
(dp4559
sg75
g4553
sg68
(lp4560
g61
(g62
g63
NtRp4561
(dp4562
g66
(dp4563
g74
I3
ssg75
g4557
sg68
(lp4564
g61
(g70
g63
NtRp4565
(dp4566
g66
(dp4567
g74
I2
ssg75
Nsg68
(lp4568
sbasbasbasbasbasbasbasbag61
(g77
g63
NtRp4569
(dp4570
g66
(dp4571
sg75
g4494
sg68
(lp4572
g61
(g82
g63
NtRp4573
(dp4574
g66
(dp4575
sg75
g4569
sg68
(lp4576
g61
(g62
g63
NtRp4577
(dp4578
g66
(dp4579
g74
I4
ssg75
g4573
sg68
(lp4580
g61
(g70
g63
NtRp4581
(dp4582
g66
(dp4583
g74
I3
ssg75
Nsg68
(lp4584
g61
(g77
g63
NtRp4585
(dp4586
g66
(dp4587
sg75
g4581
sg68
(lp4588
g61
(g82
g63
NtRp4589
(dp4590
g66
(dp4591
sg75
g4585
sg68
(lp4592
g61
(g62
g63
NtRp4593
(dp4594
g66
(dp4595
g74
I3
ssg75
g4589
sg68
(lp4596
g61
(cgluon.html
SPAN
p4597
g63
NtRp4598
(dp4599
g66
(dp4600
g86
S'color:yellow'
p4601
ssg75
Nsg68
(lp4602
g4472
asbasbasbasbag61
(g77
g63
NtRp4603
(dp4604
g66
(dp4605
sg75
g4581
sg68
(lp4606
g61
(g82
g63
NtRp4607
(dp4608
g66
(dp4609
sg75
g4603
sg68
(lp4610
g61
(g62
g63
NtRp4611
(dp4612
g66
(dp4613
g74
I3
ssg75
g4607
sg68
(lp4614
g104
asbasbasbag61
(g77
g63
NtRp4615
(dp4616
g66
(dp4617
sg75
g4581
sg68
(lp4618
g61
(g82
g63
NtRp4619
(dp4620
g66
(dp4621
sg75
g4615
sg68
(lp4622
g61
(g62
g63
NtRp4623
(dp4624
g66
(dp4625
g74
I3
ssg75
g4619
sg68
(lp4626
S'None'
p4627
asbasbasbag61
(g77
g63
NtRp4628
(dp4629
g66
(dp4630
sg75
g4581
sg68
(lp4631
g61
(g82
g63
NtRp4632
(dp4633
g66
(dp4634
sg75
g4628
sg68
(lp4635
g61
(g62
g63
NtRp4636
(dp4637
g66
(dp4638
g74
I3
ssg75
g4632
sg68
(lp4639
g61
(g70
g63
NtRp4640
(dp4641
g66
(dp4642
g74
I2
ssg75
Nsg68
(lp4643
g61
(g77
g63
NtRp4644
(dp4645
g66
(dp4646
sg75
g4640
sg68
(lp4647
g61
(g82
g63
NtRp4648
(dp4649
g66
(dp4650
sg75
g4644
sg68
(lp4651
g61
(g62
g63
NtRp4652
(dp4653
g66
(dp4654
g74
I2
ssg75
g4648
sg68
(lp4655
g61
(g70
g63
NtRp4656
(dp4657
g66
(dp4658
g74
I1
ssg75
Nsg68
(lp4659
g61
(g77
g63
NtRp4660
(dp4661
g66
(dp4662
sg75
g4656
sg68
(lp4663
g61
(g82
g63
NtRp4664
(dp4665
g66
(dp4666
sg75
g4660
sg68
(lp4667
g61
(g62
g63
NtRp4668
(dp4669
g66
(dp4670
g74
I1
ssg75
g4664
sg68
(lp4671
g4526
(S's\x08\x00\x00\x00My Sites'
tRp4672
asbasbasbag61
(g77
g63
NtRp4673
(dp4674
g66
(dp4675
sg75
g4656
sg68
(lp4676
g61
(g82
g63
NtRp4677
(dp4678
g66
(dp4679
sg75
g4673
sg68
(lp4680
g61
(g62
g63
NtRp4681
(dp4682
g66
(dp4683
g74
I1
ssg75
g4677
sg68
(lp4684
I00
asbasbasbag61
(g77
g63
NtRp4685
(dp4686
g66
(dp4687
sg75
g4656
sg68
(lp4688
g61
(g82
g63
NtRp4689
(dp4690
g66
(dp4691
sg75
g4685
sg68
(lp4692
g61
(g62
g63
NtRp4693
(dp4694
g66
(dp4695
g74
I1
ssg75
g4689
sg68
(lp4696
S'/admin/default/site'
p4697
asbasbasbasbasbasbasbag61
(g77
g63
NtRp4698
(dp4699
g66
(dp4700
sg75
g4640
sg68
(lp4701
g61
(g82
g63
NtRp4702
(dp4703
g66
(dp4704
sg75
g4698
sg68
(lp4705
g61
(g62
g63
NtRp4706
(dp4707
g66
(dp4708
g74
I2
ssg75
g4702
sg68
(lp4709
g61
(g70
g63
NtRp4710
(dp4711
g66
(dp4712
g74
I1
ssg75
Nsg68
(lp4713
g61
(g77
g63
NtRp4714
(dp4715
g66
(dp4716
sg75
g4710
sg68
(lp4717
g61
(g82
g63
NtRp4718
(dp4719
g66
(dp4720
sg75
g4714
sg68
(lp4721
g61
(g62
g63
NtRp4722
(dp4723
g66
(dp4724
g74
I1
ssg75
g4718
sg68
(lp4725
g4526
(S's\x08\x00\x00\x00This App'
tRp4726
asbasbasbag61
(g77
g63
NtRp4727
(dp4728
g66
(dp4729
sg75
g4710
sg68
(lp4730
g61
(g82
g63
NtRp4731
(dp4732
g66
(dp4733
sg75
g4727
sg68
(lp4734
g61
(g62
g63
NtRp4735
(dp4736
g66
(dp4737
g74
I1
ssg75
g4731
sg68
(lp4738
I00
asbasbasbag61
(g77
g63
NtRp4739
(dp4740
g66
(dp4741
sg75
g4710
sg68
(lp4742
g61
(g82
g63
NtRp4743
(dp4744
g66
(dp4745
sg75
g4739
sg68
(lp4746
g61
(g62
g63
NtRp4747
(dp4748
g66
(dp4749
g74
I1
ssg75
g4743
sg68
(lp4750
S'/admin/default/design/mycrawler'
p4751
asbasbasbag61
(g77
g63
NtRp4752
(dp4753
g66
(dp4754
sg75
g4710
sg68
(lp4755
g61
(g82
g63
NtRp4756
(dp4757
g66
(dp4758
sg75
g4752
sg68
(lp4759
g61
(g62
g63
NtRp4760
(dp4761
g66
(dp4762
g74
I1
ssg75
g4756
sg68
(lp4763
(lp4764
(g4526
(S't\n\x00\x00\x00Controller'
tRp4765
I00
S'/admin/default/edit/mycrawler/controllers/default.py'
tp4766
a(g4526
(S't\x04\x00\x00\x00View'
tRp4767
I00
S'/admin/default/edit/mycrawler/views/default/search.html'
tp4768
a(g4526
(S't\x06\x00\x00\x00Layout'
tRp4769
I00
S'/admin/default/edit/mycrawler/views/layout.html'
tp4770
a(g4526
(S't\n\x00\x00\x00Stylesheet'
tRp4771
I00
S'/admin/default/edit/mycrawler/static/css/web2py.css'
tp4772
a(g4526
(S's\x08\x00\x00\x00DB Model'
tRp4773
I00
S'/admin/default/edit/mycrawler/models/db.py'
tp4774
a(g4526
(S's\n\x00\x00\x00Menu Model'
tRp4775
I00
S'/admin/default/edit/mycrawler/models/menu.py'
tp4776
a(g4526
(S't\x08\x00\x00\x00Database'
tRp4777
I00
S'/mycrawler/appadmin/index'
tp4778
a(g4526
(S't\x06\x00\x00\x00Errors'
tRp4779
I00
S'/admin/default/errors/mycrawler'
tp4780
a(g4526
(S't\x05\x00\x00\x00About'
tRp4781
I00
S'/admin/default/about/mycrawler'
tp4782
aasbasbasbasbasbasbasbag61
(g77
g63
NtRp4783
(dp4784
g66
(dp4785
sg75
g4640
sg68
(lp4786
g61
(g82
g63
NtRp4787
(dp4788
g66
(dp4789
sg75
g4783
sg68
(lp4790
g61
(g62
g63
NtRp4791
(dp4792
g66
(dp4793
g74
I2
ssg75
g4787
sg68
(lp4794
g61
(g70
g63
NtRp4795
(dp4796
g66
(dp4797
g74
I1
ssg75
Nsg68
(lp4798
g61
(g77
g63
NtRp4799
(dp4800
g66
(dp4801
sg75
g4795
sg68
(lp4802
g61
(g82
g63
NtRp4803
(dp4804
g66
(dp4805
sg75
g4799
sg68
(lp4806
g61
(g62
g63
NtRp4807
(dp4808
g66
(dp4809
g74
I1
ssg75
g4803
sg68
(lp4810
S'web2py.com'
p4811
asbasbasbag61
(g77
g63
NtRp4812
(dp4813
g66
(dp4814
sg75
g4795
sg68
(lp4815
g61
(g82
g63
NtRp4816
(dp4817
g66
(dp4818
sg75
g4812
sg68
(lp4819
g61
(g62
g63
NtRp4820
(dp4821
g66
(dp4822
g74
I1
ssg75
g4816
sg68
(lp4823
I00
asbasbasbag61
(g77
g63
NtRp4824
(dp4825
g66
(dp4826
sg75
g4795
sg68
(lp4827
g61
(g82
g63
NtRp4828
(dp4829
g66
(dp4830
sg75
g4824
sg68
(lp4831
g61
(g62
g63
NtRp4832
(dp4833
g66
(dp4834
g74
I1
ssg75
g4828
sg68
(lp4835
S'http://www.web2py.com'
p4836
asbasbasbag61
(g77
g63
NtRp4837
(dp4838
g66
(dp4839
sg75
g4795
sg68
(lp4840
g61
(g82
g63
NtRp4841
(dp4842
g66
(dp4843
sg75
g4837
sg68
(lp4844
g61
(g62
g63
NtRp4845
(dp4846
g66
(dp4847
g74
I1
ssg75
g4841
sg68
(lp4848
(lp4849
(g4526
(S't\x08\x00\x00\x00Download'
tRp4850
I00
S'http://www.web2py.com/examples/default/download'
p4851
tp4852
a(g4526
(S't\x07\x00\x00\x00Support'
tRp4853
I00
S'http://www.web2py.com/examples/default/support'
p4854
tp4855
a(g4526
(S't\x04\x00\x00\x00Demo'
tRp4856
I00
S'http://web2py.com/demo_admin'
p4857
tp4858
a(g4526
(S's\x0e\x00\x00\x00Quick Examples'
tRp4859
I00
S'http://web2py.com/examples/default/examples'
p4860
tp4861
a(g4526
(S't\x03\x00\x00\x00FAQ'
tRp4862
I00
S'http://web2py.com/AlterEgo'
p4863
tp4864
a(g4526
(S't\x06\x00\x00\x00Videos'
tRp4865
I00
S'http://www.web2py.com/examples/default/videos/'
p4866
tp4867
a(g4526
(S's\x11\x00\x00\x00Free Applications'
tRp4868
I00
S'http://web2py.com/appliances'
p4869
tp4870
a(g4526
(S't\x07\x00\x00\x00Plugins'
tRp4871
I00
S'http://web2py.com/plugins'
p4872
tp4873
a(g4526
(S't\x07\x00\x00\x00Layouts'
tRp4874
I00
S'http://web2py.com/layouts'
p4875
tp4876
a(g4526
(S't\x07\x00\x00\x00Recipes'
tRp4877
I00
S'http://web2pyslices.com/'
p4878
tp4879
a(g4526
(S't\x08\x00\x00\x00Semantic'
tRp4880
I00
S'http://web2py.com/semantic'
p4881
tp4882
aasbasbasbasbasbasbasbag61
(g77
g63
NtRp4883
(dp4884
g66
(dp4885
sg75
g4640
sg68
(lp4886
g61
(g82
g63
NtRp4887
(dp4888
g66
(dp4889
sg75
g4883
sg68
(lp4890
g61
(g62
g63
NtRp4891
(dp4892
g66
(dp4893
g74
I2
ssg75
g4887
sg68
(lp4894
g61
(g70
g63
NtRp4895
(dp4896
g66
(dp4897
g74
I1
ssg75
Nsg68
(lp4898
g61
(g77
g63
NtRp4899
(dp4900
g66
(dp4901
sg75
g4895
sg68
(lp4902
g61
(g82
g63
NtRp4903
(dp4904
g66
(dp4905
sg75
g4899
sg68
(lp4906
g61
(g62
g63
NtRp4907
(dp4908
g66
(dp4909
g74
I1
ssg75
g4903
sg68
(lp4910
g4526
(S't\r\x00\x00\x00Documentation'
tRp4911
asbasbasbag61
(g77
g63
NtRp4912
(dp4913
g66
(dp4914
sg75
g4895
sg68
(lp4915
g61
(g82
g63
NtRp4916
(dp4917
g66
(dp4918
sg75
g4912
sg68
(lp4919
g61
(g62
g63
NtRp4920
(dp4921
g66
(dp4922
g74
I1
ssg75
g4916
sg68
(lp4923
I00
asbasbasbag61
(g77
g63
NtRp4924
(dp4925
g66
(dp4926
sg75
g4895
sg68
(lp4927
g61
(g82
g63
NtRp4928
(dp4929
g66
(dp4930
sg75
g4924
sg68
(lp4931
g61
(g62
g63
NtRp4932
(dp4933
g66
(dp4934
g74
I1
ssg75
g4928
sg68
(lp4935
S'http://www.web2py.com/book'
p4936
asbasbasbag61
(g77
g63
NtRp4937
(dp4938
g66
(dp4939
sg75
g4895
sg68
(lp4940
g61
(g82
g63
NtRp4941
(dp4942
g66
(dp4943
sg75
g4937
sg68
(lp4944
g61
(g62
g63
NtRp4945
(dp4946
g66
(dp4947
g74
I1
ssg75
g4941
sg68
(lp4948
(lp4949
(g4526
(S't\x07\x00\x00\x00Preface'
tRp4950
I00
S'http://www.web2py.com/book/default/chapter/00'
p4951
tp4952
a(g4526
(S't\x0c\x00\x00\x00Introduction'
tRp4953
I00
S'http://www.web2py.com/book/default/chapter/01'
p4954
tp4955
a(g4526
(S't\x06\x00\x00\x00Python'
tRp4956
I00
S'http://www.web2py.com/book/default/chapter/02'
p4957
tp4958
a(g4526
(S't\x08\x00\x00\x00Overview'
tRp4959
I00
S'http://www.web2py.com/book/default/chapter/03'
p4960
tp4961
a(g4526
(S's\x08\x00\x00\x00The Core'
tRp4962
I00
S'http://www.web2py.com/book/default/chapter/04'
p4963
tp4964
a(g4526
(S's\t\x00\x00\x00The Views'
tRp4965
I00
S'http://www.web2py.com/book/default/chapter/05'
p4966
tp4967
a(g4526
(S't\x08\x00\x00\x00Database'
tRp4968
I00
S'http://www.web2py.com/book/default/chapter/06'
p4969
tp4970
a(g4526
(S's\x14\x00\x00\x00Forms and Validators'
tRp4971
I00
S'http://www.web2py.com/book/default/chapter/07'
p4972
tp4973
a(g4526
(S's\r\x00\x00\x00Email and SMS'
tRp4974
I00
S'http://www.web2py.com/book/default/chapter/08'
p4975
tp4976
a(g4526
(S's\x0e\x00\x00\x00Access Control'
tRp4977
I00
S'http://www.web2py.com/book/default/chapter/09'
p4978
tp4979
a(g4526
(S't\x08\x00\x00\x00Services'
tRp4980
I00
S'http://www.web2py.com/book/default/chapter/10'
p4981
tp4982
a(g4526
(S's\x0c\x00\x00\x00Ajax Recipes'
tRp4983
I00
S'http://www.web2py.com/book/default/chapter/11'
p4984
tp4985
a(g4526
(S's\x16\x00\x00\x00Components and Plugins'
tRp4986
I00
S'http://www.web2py.com/book/default/chapter/12'
p4987
tp4988
a(g4526
(S's\x12\x00\x00\x00Deployment Recipes'
tRp4989
I00
S'http://www.web2py.com/book/default/chapter/13'
p4990
tp4991
a(g4526
(S's\r\x00\x00\x00Other Recipes'
tRp4992
I00
S'http://www.web2py.com/book/default/chapter/14'
p4993
tp4994
a(g4526
(S's\r\x00\x00\x00Buy this book'
tRp4995
I00
S'http://stores.lulu.com/web2py'
p4996
tp4997
aasbasbasbasbasbasbasbag61
(g77
g63
NtRp4998
(dp4999
g66
(dp5000
sg75
g4640
sg68
(lp5001
g61
(g82
g63
NtRp5002
(dp5003
g66
(dp5004
sg75
g4998
sg68
(lp5005
g61
(g62
g63
NtRp5006
(dp5007
g66
(dp5008
g74
I2
ssg75
g5002
sg68
(lp5009
g61
(g70
g63
NtRp5010
(dp5011
g66
(dp5012
g74
I1
ssg75
Nsg68
(lp5013
g61
(g77
g63
NtRp5014
(dp5015
g66
(dp5016
sg75
g5010
sg68
(lp5017
g61
(g82
g63
NtRp5018
(dp5019
g66
(dp5020
sg75
g5014
sg68
(lp5021
g61
(g62
g63
NtRp5022
(dp5023
g66
(dp5024
g74
I1
ssg75
g5018
sg68
(lp5025
g4526
(S't\t\x00\x00\x00Community'
tRp5026
asbasbasbag61
(g77
g63
NtRp5027
(dp5028
g66
(dp5029
sg75
g5010
sg68
(lp5030
g61
(g82
g63
NtRp5031
(dp5032
g66
(dp5033
sg75
g5027
sg68
(lp5034
g61
(g62
g63
NtRp5035
(dp5036
g66
(dp5037
g74
I1
ssg75
g5031
sg68
(lp5038
I00
asbasbasbag61
(g77
g63
NtRp5039
(dp5040
g66
(dp5041
sg75
g5010
sg68
(lp5042
g61
(g82
g63
NtRp5043
(dp5044
g66
(dp5045
sg75
g5039
sg68
(lp5046
g61
(g62
g63
NtRp5047
(dp5048
g66
(dp5049
g74
I1
ssg75
g5043
sg68
(lp5050
Nasbasbasbag61
(g77
g63
NtRp5051
(dp5052
g66
(dp5053
sg75
g5010
sg68
(lp5054
g61
(g82
g63
NtRp5055
(dp5056
g66
(dp5057
sg75
g5051
sg68
(lp5058
g61
(g62
g63
NtRp5059
(dp5060
g66
(dp5061
g74
I1
ssg75
g5055
sg68
(lp5062
(lp5063
(g4526
(S't\x06\x00\x00\x00Groups'
tRp5064
I00
S'http://www.web2py.com/examples/default/usergroups'
p5065
tp5066
a(g4526
(S't\x07\x00\x00\x00Twitter'
tRp5067
I00
S'http://twitter.com/web2py'
p5068
tp5069
a(g4526
(S's\t\x00\x00\x00Live Chat'
tRp5070
I00
S'http://webchat.freenode.net/?channels=web2py'
p5071
tp5072
aasbasbasbasbasbasbasbag61
(g77
g63
NtRp5073
(dp5074
g66
(dp5075
sg75
g4640
sg68
(lp5076
g61
(g82
g63
NtRp5077
(dp5078
g66
(dp5079
sg75
g5073
sg68
(lp5080
g61
(g62
g63
NtRp5081
(dp5082
g66
(dp5083
g74
I2
ssg75
g5077
sg68
(lp5084
g61
(g70
g63
NtRp5085
(dp5086
g66
(dp5087
g74
I1
ssg75
Nsg68
(lp5088
g61
(g77
g63
NtRp5089
(dp5090
g66
(dp5091
sg75
g5085
sg68
(lp5092
g61
(g82
g63
NtRp5093
(dp5094
g66
(dp5095
sg75
g5089
sg68
(lp5096
g61
(g62
g63
NtRp5097
(dp5098
g66
(dp5099
g74
I1
ssg75
g5093
sg68
(lp5100
g4526
(S't\x07\x00\x00\x00Plugins'
tRp5101
asbasbasbag61
(g77
g63
NtRp5102
(dp5103
g66
(dp5104
sg75
g5085
sg68
(lp5105
g61
(g82
g63
NtRp5106
(dp5107
g66
(dp5108
sg75
g5102
sg68
(lp5109
g61
(g62
g63
NtRp5110
(dp5111
g66
(dp5112
g74
I1
ssg75
g5106
sg68
(lp5113
I00
asbasbasbag61
(g77
g63
NtRp5114
(dp5115
g66
(dp5116
sg75
g5085
sg68
(lp5117
g61
(g82
g63
NtRp5118
(dp5119
g66
(dp5120
sg75
g5114
sg68
(lp5121
g61
(g62
g63
NtRp5122
(dp5123
g66
(dp5124
g74
I1
ssg75
g5118
sg68
(lp5125
Nasbasbasbag61
(g77
g63
NtRp5126
(dp5127
g66
(dp5128
sg75
g5085
sg68
(lp5129
g61
(g82
g63
NtRp5130
(dp5131
g66
(dp5132
sg75
g5126
sg68
(lp5133
g61
(g62
g63
NtRp5134
(dp5135
g66
(dp5136
g74
I1
ssg75
g5130
sg68
(lp5137
(lp5138
(S'plugin_wiki'
p5139
I00
S'http://web2py.com/examples/default/download'
p5140
tp5141
a(g4526
(S's\r\x00\x00\x00Other Plugins'
tRp5142
I00
g4872
tp5143
a(g4526
(S's\x0e\x00\x00\x00Layout Plugins'
tRp5144
I00
g4875
tp5145
aasbasbasbasbasbasbasbasbasbasbasbasbasbasbasbasbasbasbasbag61
(g77
g63
NtRp5146
(dp5147
g66
(dp5148
sg75
g3970
sg68
(lp5149
g61
(g82
g63
NtRp5150
(dp5151
g66
(dp5152
g86
g87
ssg75
g5146
sg68
(lp5153
S'meta'
p5154
asbag61
(g82
g63
NtRp5155
(dp5156
g66
(dp5157
g93
g94
ssg75
g5146
sg68
(lp5158
S':'
asbag61
(g82
g63
NtRp5159
(dp5160
g66
(dp5161
sg75
g5146
sg68
(lp5162
g61
(g62
g63
NtRp5163
(dp5164
g66
(dp5165
g74
I5
ssg75
g5159
sg68
(lp5166
g61
(g70
g63
NtRp5167
(dp5168
g66
(dp5169
g74
I4
ssg75
Nsg68
(lp5170
g61
(g77
g63
NtRp5171
(dp5172
g66
(dp5173
sg75
g5167
sg68
(lp5174
g61
(g82
g63
NtRp5175
(dp5176
g66
(dp5177
g86
g87
ssg75
g5171
sg68
(lp5178
S'author'
p5179
asbag61
(g82
g63
NtRp5180
(dp5181
g66
(dp5182
g93
g94
ssg75
g5171
sg68
(lp5183
S':'
asbag61
(g82
g63
NtRp5184
(dp5185
g66
(dp5186
sg75
g5171
sg68
(lp5187
g61
(g62
g63
NtRp5188
(dp5189
g66
(dp5190
g74
I4
ssg75
g5184
sg68
(lp5191
S'Your Name <you@example.com>'
p5192
asbasbasbag61
(g77
g63
NtRp5193
(dp5194
g66
(dp5195
sg75
g5167
sg68
(lp5196
g61
(g82
g63
NtRp5197
(dp5198
g66
(dp5199
g86
g87
ssg75
g5193
sg68
(lp5200
S'copyright'
p5201
asbag61
(g82
g63
NtRp5202
(dp5203
g66
(dp5204
g93
g94
ssg75
g5193
sg68
(lp5205
S':'
asbag61
(g82
g63
NtRp5206
(dp5207
g66
(dp5208
sg75
g5193
sg68
(lp5209
g61
(g62
g63
NtRp5210
(dp5211
g66
(dp5212
g74
I4
ssg75
g5206
sg68
(lp5213
S'Copyright 2011'
p5214
asbasbasbag61
(g77
g63
NtRp5215
(dp5216
g66
(dp5217
sg75
g5167
sg68
(lp5218
g61
(g82
g63
NtRp5219
(dp5220
g66
(dp5221
g86
g87
ssg75
g5215
sg68
(lp5222
S'description'
p5223
asbag61
(g82
g63
NtRp5224
(dp5225
g66
(dp5226
g93
g94
ssg75
g5215
sg68
(lp5227
S':'
asbag61
(g82
g63
NtRp5228
(dp5229
g66
(dp5230
sg75
g5215
sg68
(lp5231
g61
(g62
g63
NtRp5232
(dp5233
g66
(dp5234
g74
I4
ssg75
g5228
sg68
(lp5235
S'a cool new app'
p5236
asbasbasbag61
(g77
g63
NtRp5237
(dp5238
g66
(dp5239
sg75
g5167
sg68
(lp5240
g61
(g82
g63
NtRp5241
(dp5242
g66
(dp5243
g86
g87
ssg75
g5237
sg68
(lp5244
S'generator'
p5245
asbag61
(g82
g63
NtRp5246
(dp5247
g66
(dp5248
g93
g94
ssg75
g5237
sg68
(lp5249
S':'
asbag61
(g82
g63
NtRp5250
(dp5251
g66
(dp5252
sg75
g5237
sg68
(lp5253
g61
(g62
g63
NtRp5254
(dp5255
g66
(dp5256
g74
I4
ssg75
g5250
sg68
(lp5257
S'Web2py Web Framework'
p5258
asbasbasbag61
(g77
g63
NtRp5259
(dp5260
g66
(dp5261
sg75
g5167
sg68
(lp5262
g61
(g82
g63
NtRp5263
(dp5264
g66
(dp5265
g86
g87
ssg75
g5259
sg68
(lp5266
S'keywords'
p5267
asbag61
(g82
g63
NtRp5268
(dp5269
g66
(dp5270
g93
g94
ssg75
g5259
sg68
(lp5271
S':'
asbag61
(g82
g63
NtRp5272
(dp5273
g66
(dp5274
sg75
g5259
sg68
(lp5275
g61
(g62
g63
NtRp5276
(dp5277
g66
(dp5278
g74
I4
ssg75
g5272
sg68
(lp5279
S'web2py, python, framework'
p5280
asbasbasbasbasbasbasbag61
(g77
g63
NtRp5281
(dp5282
g66
(dp5283
sg75
g3970
sg68
(lp5284
g61
(g82
g63
NtRp5285
(dp5286
g66
(dp5287
g86
g87
ssg75
g5281
sg68
(lp5288
S'postprocessing'
p5289
asbag61
(g82
g63
NtRp5290
(dp5291
g66
(dp5292
g93
g94
ssg75
g5281
sg68
(lp5293
S':'
asbag61
(g82
g63
NtRp5294
(dp5295
g66
(dp5296
sg75
g5281
sg68
(lp5297
g61
(g62
g63
NtRp5298
(dp5299
g66
(dp5300
g74
I5
ssg75
g5294
sg68
(lp5301
g61
(g70
g63
NtRp5302
(dp5303
g66
(dp5304
g74
I4
ssg75
Nsg68
(lp5305
sbasbasbasbag61
(g77
g63
NtRp5306
(dp5307
g66
(dp5308
sg75
g3970
sg68
(lp5309
g61
(g82
g63
NtRp5310
(dp5311
g66
(dp5312
g86
g87
ssg75
g5306
sg68
(lp5313
S'session_file'
p5314
asbag61
(g82
g63
NtRp5315
(dp5316
g66
(dp5317
g93
g94
ssg75
g5306
sg68
(lp5318
S':'
asbag61
(g82
g63
NtRp5319
(dp5320
g66
(dp5321
sg75
g5306
sg68
(lp5322
g61
(g62
g63
NtRp5323
(dp5324
g66
(dp5325
g74
I5
ssg75
g5319
sg68
(lp5326
S"<open file 'C:\\Documents and Settings\\agrover\\Desktop\\previous crawler\\web2py\\applications\\mycrawler\\sessions\\127.0.0.1-32a946d8-ad2c-43d8-be0f-c8249d02766a', mode 'rb+' at 0x059EDAC8>"
p5327
asbasbasbag61
(g77
g63
NtRp5328
(dp5329
g66
(dp5330
sg75
g3970
sg68
(lp5331
g61
(g82
g63
NtRp5332
(dp5333
g66
(dp5334
g86
g87
ssg75
g5328
sg68
(lp5335
S'session_filename'
p5336
asbag61
(g82
g63
NtRp5337
(dp5338
g66
(dp5339
g93
g94
ssg75
g5328
sg68
(lp5340
S':'
asbag61
(g82
g63
NtRp5341
(dp5342
g66
(dp5343
sg75
g5328
sg68
(lp5344
g61
(g62
g63
NtRp5345
(dp5346
g66
(dp5347
g74
I5
ssg75
g5341
sg68
(lp5348
S'C:\\Documents and Settings\\agrover\\Desktop\\previous crawler\\web2py\\applications\\mycrawler\\sessions\\127.0.0.1-32a946d8-ad2c-43d8-be0f-c8249d02766a'
p5349
asbasbasbag61
(g77
g63
NtRp5350
(dp5351
g66
(dp5352
sg75
g3970
sg68
(lp5353
g61
(g82
g63
NtRp5354
(dp5355
g66
(dp5356
g86
g87
ssg75
g5350
sg68
(lp5357
S'session_id'
p5358
asbag61
(g82
g63
NtRp5359
(dp5360
g66
(dp5361
g93
g94
ssg75
g5350
sg68
(lp5362
S':'
asbag61
(g82
g63
NtRp5363
(dp5364
g66
(dp5365
sg75
g5350
sg68
(lp5366
g61
(g62
g63
NtRp5367
(dp5368
g66
(dp5369
g74
I5
ssg75
g5363
sg68
(lp5370
S'127.0.0.1-32a946d8-ad2c-43d8-be0f-c8249d02766a'
p5371
asbasbasbag61
(g77
g63
NtRp5372
(dp5373
g66
(dp5374
sg75
g3970
sg68
(lp5375
g61
(g82
g63
NtRp5376
(dp5377
g66
(dp5378
g86
g87
ssg75
g5372
sg68
(lp5379
S'session_id_name'
p5380
asbag61
(g82
g63
NtRp5381
(dp5382
g66
(dp5383
g93
g94
ssg75
g5372
sg68
(lp5384
S':'
asbag61
(g82
g63
NtRp5385
(dp5386
g66
(dp5387
sg75
g5372
sg68
(lp5388
g61
(g62
g63
NtRp5389
(dp5390
g66
(dp5391
g74
I5
ssg75
g5385
sg68
(lp5392
g4027
asbasbasbag61
(g77
g63
NtRp5393
(dp5394
g66
(dp5395
sg75
g3970
sg68
(lp5396
g61
(g82
g63
NtRp5397
(dp5398
g66
(dp5399
g86
g87
ssg75
g5393
sg68
(lp5400
S'session_locked'
p5401
asbag61
(g82
g63
NtRp5402
(dp5403
g66
(dp5404
g93
g94
ssg75
g5393
sg68
(lp5405
S':'
asbag61
(g82
g63
NtRp5406
(dp5407
g66
(dp5408
sg75
g5393
sg68
(lp5409
g61
(g62
g63
NtRp5410
(dp5411
g66
(dp5412
g74
I5
ssg75
g5406
sg68
(lp5413
g2031
asbasbasbag61
(g77
g63
NtRp5414
(dp5415
g66
(dp5416
sg75
g3970
sg68
(lp5417
g61
(g82
g63
NtRp5418
(dp5419
g66
(dp5420
g86
g87
ssg75
g5414
sg68
(lp5421
S'session_new'
p5422
asbag61
(g82
g63
NtRp5423
(dp5424
g66
(dp5425
g93
g94
ssg75
g5414
sg68
(lp5426
S':'
asbag61
(g82
g63
NtRp5427
(dp5428
g66
(dp5429
sg75
g5414
sg68
(lp5430
g61
(g62
g63
NtRp5431
(dp5432
g66
(dp5433
g74
I5
ssg75
g5427
sg68
(lp5434
g104
asbasbasbag61
(g77
g63
NtRp5435
(dp5436
g66
(dp5437
sg75
g3970
sg68
(lp5438
g61
(g82
g63
NtRp5439
(dp5440
g66
(dp5441
g86
g87
ssg75
g5435
sg68
(lp5442
S'status'
p5443
asbag61
(g82
g63
NtRp5444
(dp5445
g66
(dp5446
g93
g94
ssg75
g5435
sg68
(lp5447
S':'
asbag61
(g82
g63
NtRp5448
(dp5449
g66
(dp5450
sg75
g5435
sg68
(lp5451
g61
(g62
g63
NtRp5452
(dp5453
g66
(dp5454
g74
I5
ssg75
g5448
sg68
(lp5455
S'200'
p5456
asbasbasbag61
(g77
g63
NtRp5457
(dp5458
g66
(dp5459
sg75
g3970
sg68
(lp5460
g61
(g82
g63
NtRp5461
(dp5462
g66
(dp5463
g86
g87
ssg75
g5457
sg68
(lp5464
S'subtitle'
p5465
asbag61
(g82
g63
NtRp5466
(dp5467
g66
(dp5468
g93
g94
ssg75
g5457
sg68
(lp5469
S':'
asbag61
(g82
g63
NtRp5470
(dp5471
g66
(dp5472
sg75
g5457
sg68
(lp5473
g61
(g62
g63
NtRp5474
(dp5475
g66
(dp5476
g74
I5
ssg75
g5470
sg68
(lp5477
g4526
(S's\r\x00\x00\x00customize me!'
tRp5478
asbasbasbag61
(g77
g63
NtRp5479
(dp5480
g66
(dp5481
sg75
g3970
sg68
(lp5482
g61
(g82
g63
NtRp5483
(dp5484
g66
(dp5485
g86
g87
ssg75
g5479
sg68
(lp5486
S'title'
p5487
asbag61
(g82
g63
NtRp5488
(dp5489
g66
(dp5490
g93
g94
ssg75
g5479
sg68
(lp5491
S':'
asbag61
(g82
g63
NtRp5492
(dp5493
g66
(dp5494
sg75
g5479
sg68
(lp5495
g61
(g62
g63
NtRp5496
(dp5497
g66
(dp5498
g74
I5
ssg75
g5492
sg68
(lp5499
S'Mycrawler'
p5500
asbasbasbag61
(g77
g63
NtRp5501
(dp5502
g66
(dp5503
sg75
g3970
sg68
(lp5504
g61
(g82
g63
NtRp5505
(dp5506
g66
(dp5507
g86
g87
ssg75
g5501
sg68
(lp5508
g2932
asbag61
(g82
g63
NtRp5509
(dp5510
g66
(dp5511
g93
g94
ssg75
g5501
sg68
(lp5512
S':'
asbag61
(g82
g63
NtRp5513
(dp5514
g66
(dp5515
sg75
g5501
sg68
(lp5516
g61
(g62
g63
NtRp5517
(dp5518
g66
(dp5519
g74
I5
ssg75
g5513
sg68
(lp5520
g2945
asbasbasbag61
(g77
g63
NtRp5521
(dp5522
g66
(dp5523
sg75
g3970
sg68
(lp5524
g61
(g82
g63
NtRp5525
(dp5526
g66
(dp5527
g86
g87
ssg75
g5521
sg68
(lp5528
S'view'
p5529
asbag61
(g82
g63
NtRp5530
(dp5531
g66
(dp5532
g93
g94
ssg75
g5521
sg68
(lp5533
S':'
asbag61
(g82
g63
NtRp5534
(dp5535
g66
(dp5536
sg75
g5521
sg68
(lp5537
g61
(g62
g63
NtRp5538
(dp5539
g66
(dp5540
g74
I5
ssg75
g5534
sg68
(lp5541
S'default/search.html'
p5542
asbasbasbasbasbsS'locals'
p5543
(dp5544
S'predicate'
p5545
S'None'
p5546
sg5223
S"'nr 1'"
p5547
sS'self'
p5548
S'<mechanize._mechanize.Browser instance>'
p5549
sS'global_form'
p5550
S'<mechanize._form.HTMLForm instance>'
p5551
sS'orig_nr'
p5552
S'1'
sS'nr'
p5553
S'1'
sS'name'
p5554
S'None'
p5555
sssS'traceback'
p5556
S'Traceback (most recent call last):\n  File "C:\\Documents and Settings\\agrover\\Desktop\\previous crawler\\web2py\\gluon\\restricted.py", line 205, in restricted\n    exec ccode in environment\n  File "C:\\Documents and Settings\\agrover\\Desktop\\previous crawler\\web2py\\applications\\mycrawler\\controllers/default.py", line 384, in <module>\n  File "C:\\Documents and Settings\\agrover\\Desktop\\previous crawler\\web2py\\gluon\\globals.py", line 173, in <lambda>\n    self._caller = lambda f: f()\n  File "C:\\Documents and Settings\\agrover\\Desktop\\previous crawler\\web2py\\applications\\mycrawler\\controllers/default.py", line 201, in search\n    br.select_form(nr=1)\n  File "build\\bdist.win32\\egg\\mechanize\\_mechanize.py", line 524, in select_form\n    raise FormNotFoundError("no form matching "+description)\nFormNotFoundError: no form matching nr 1\n'
p5557
s.