(dp1
S'Second_String'
p2
(dp3
S'type'
p4
S'string'
p5
sS'sortable'
p6
I5
sS'sql'
p7
S'CHAR(512)'
p8
ssS'Domain_Name'
p9
(dp10
g4
g5
sg6
I6
sg7
S'CHAR(512)'
p11
ssS'Delimiter'
p12
(dp13
g4
g5
sg6
I4
sg7
S'CHAR(512)'
p14
ssS'Company_Name'
p15
(dp16
g4
g5
sg6
I2
sg7
S'CHAR(512)'
p17
ssS'id'
p18
(dp19
g4
g18
sg6
I1
sg7
S'INTEGER PRIMARY KEY AUTOINCREMENT'
p20
ssS'First_String'
p21
(dp22
g4
g5
sg6
I3
sg7
S'CHAR(512)'
p23
ss.