(dp1
S'save_as'
p2
(dp3
S'type'
p4
S'string'
p5
sS'sortable'
p6
I3
sS'sql'
p7
S'CHAR(512)'
p8
ssS'id'
p9
(dp10
g4
S'id'
p11
sg6
I1
sg7
S'INTEGER PRIMARY KEY AUTOINCREMENT'
p12
ssS'upload_file'
p13
(dp14
g4
S'upload'
p15
sg6
I2
sg7
S'CHAR(512)'
p16
ss.